(dp1
S'output'
p2
S"<type 'exceptions.SyntaxError'> invalid syntax (default.py, line 1425)"
p3
sS'layer'
p4
S'/home/tls-sanjeet/Desktop/HRMS/web2py/applications/themishrms/controllers/default.py'
p5
sS'code'
p6
S'# -*- coding: utf-8 -*-\n# this file is released under public domain and you can use without limitations\n\n#########################################################################\n## This is a samples controller\n## - index is the default action of any application\n## - user is required for authentication and authorization\n## - download is for downloading files uploaded in the db (does streaming)\n## - call exposes all registered services (none by default)\n#########################################################################\n\ndef index():\n    """\n    example action using the internationalization operator T and flash\n    rendered by views/default/index.html or views/generic.html\n    """\n    response.flash = "Welcome to Themis Lexsol"\n    return dict(message=T(\'Hello World\'))\n\t\n\t\ndef tlscareer():\n    return dict()\n\ndef tlsabout():\n    return dict()\n    \ndef rt():\n    return dict()\n\ndef employee():\n    return dict()\n    \ndef tlsservice():\n    return dict()\n\n\ndef tlsoo():\n    return dict()   \n\ndef tlsleads():\n    return dict()   \n\ndef tlsoteam():\t\n\t return dict()\n\t \n\ndef tlscontact(): \r\n    use_recaptcha = True \r\n    form = SQLFORM.factory(Field(\'Name\',requires=IS_NOT_EMPTY()),Field (\'your_email\',requires=IS_EMAIL()),Field(\'your_message\',\'text\')) \r\n    return dict(form=form)\r\n\t\t\r\ndef tlscareer(): \r\n    form = SQLFORM.factory(Field(\'name\',requires=IS_NOT_EMPTY()),\n    \t\t\t\t\t\t\t\tField (\'your_email\',requires=IS_EMAIL()),\n    \t\t\t\t\t\t\t\tSQLField(\'contact_details\',requires=IS_NOT_EMPTY()),\n    \t\t\t\t\t\t\t\tField(\'your_message\',\'text\'),\n    \t\t\t\t\t\t\t\tSQLField(\'looking_for_position\',requires=IS_IN_SET([\'Admin\', \'Legal\', \'Finance\',\'IT\'])),\n    \t\t\t\t\t\t\t\tSQLField(\'your_resume\',\'upload\')) \n    if form.accepts(request,session):\n    \tsession.name = form.vars.name\n    \t#careermail() \r\n    return dict(form=form)\t\r\n\t\t\r\ndef careermail():\n    from gluon.tools import Mail\n    mail = Mail()\n        #specify server\n    mail=auth.settings.mailer\n    mail.settings.server = \'smtp.gmail.com:587\'\n    #specify address to send as\n    mail.settings.sender = \'themisdemo1@gmail.com\'\n    mail.settings.login = \'themisdemo1@gmail.com:123456asdfg\'\n    #send the message                             \n    mail.send(to=[\'sanjeet.tls@gmail.com\',\'prakhar.tls@gmail.com\'],\n            subject=\'Welcome User\',\n            message=\'<html>\'\n                        \'<body>\'\n                            \'<span style="font-family: Bodoni MT Ultra Bold;color:  #000000 ;font-size : 18pt;"><b>Themis </span></h1><span style="font-family: Bodoni MT Ultra Bold;color:#C7A317   ;font-size :18pt;"><b>Lexsol</b></span>\'\n                            \n                            \'<p>Dear &nbsp;\'+session.name+\'</p>\'\n                            \n                            \'<p>I just wanted to drop you a quick message to say thank you for joining the LCM Plus. I appreciate you taking the time to register and really look forward to reading your compliances. Your user name is \'+session.mail+\' and please click below to reset your password.<h1>http://jmdlcmplus.fluxflex.com/jmdlcmplus/default/user/request_reset_password</h1>If you need help at any time, please contact me by replying to this message. Similarly, if you ever have any questions then please do not hesitate to send me a message or email.</p>\'\n                            \'<center><p>_________________________________________________________</p><p style="color:red;font-size :5pt;">This email comes to you since your company has subcribed for LCM Plus. TO unsubcribed please contact to your Compliance Manager</p></center>\'\n                      \n                        \'</body>\'\n                    \'</html>\'\n                    \n  )\n    response.flash=\'mail send\'\n    return \'\'\r\n\ndef user():\n    """\n    exposes:\n    http://..../[app]/default/user/login\n    http://..../[app]/default/user/logout\n    http://..../[app]/default/user/register\n    http://..../[app]/default/user/profile\n    http://..../[app]/default/user/retrieve_password\n    http://..../[app]/default/user/change_password\n    use @auth.requires_login()\n        @auth.requires_membership(\'group name\')\n        @auth.requires_permission(\'read\',\'table name\',record_id)\n    to decorate functions that need access control\n    """\n    return dict(form=auth())\n\n\ndef download():\n    """\n    allows downloading of uploaded files\n    http://..../[app]/default/download/[filename]\n    """\n    return response.download(request,db)\n\n\ndef call():\n    """\n    exposes services. for example:\n    http://..../[app]/default/call/jsonrpc\n    decorate with @services.jsonrpc the functions to expose\n    supports xml, json, xmlrpc, jsonrpc, amfrpc, rss, csv\n    """\n    return service()\n\n\n@auth.requires_signature()\ndef data():\n    """\n    http://..../[app]/default/data/tables\n    http://..../[app]/default/data/create/[table]\n    http://..../[app]/default/data/read/[table]/[id]\n    http://..../[app]/default/data/update/[table]/[id]\n    http://..../[app]/default/data/delete/[table]/[id]\n    http://..../[app]/default/data/select/[table]\n    http://..../[app]/default/data/search/[table]\n    but URLs must be signed, i.e. linked with\n      A(\'table\',_href=URL(\'data/tables\',user_signature=True))\n    or with the signed load operator\n      LOAD(\'default\',\'data.load\',args=\'tables\',ajax=True,user_signature=True)\n    """\n    return dict(form=crud())\n    \ndef welcome():\n\t""" First page to be visited after installation. Will create necessary roles and permissions for admin and redirects to index."""\n\tcreate_user()\n\tcreate_group()\n\tcreate_membership()\n\tcreate_permission()\n\tsession.flash = "Welcome to Themis"\n\tredirect(URL(c=\'default\', f=\'index\'))\n\t\ndef create_user():\n\t username = \'admin\'\n\t password = username\n\t if \'username\' in auth.settings.table_user.fields():\n\t \tuserkey = \'username\'\n\t elif \'email\' in auth.settings.table_user.fields():\n\t \tuserkey = \'email\'\n\t \tusername = username + \'@themislexsol.com\'\n\t passfield = auth.settings.password_field \n\t user = db(auth.settings.table_user[userkey] == username).select().first()\n\t if not user:\n\t \tuser_id = db.auth_user.insert(**{userkey:username,passfield:CRYPT(auth.settings.hmac_key)(password)[0]})\n\t \tuser = auth.settings.table_user(user_id)\n\t return user\n\t \ndef create_group():\n    group = db(auth.settings.table_group.role == \'Admin\').select().first()\n    if not group:\n        group_id = auth.add_group(role = \'Admin\', description = \'All Permissions\')\n        group = auth.settings.table_group(group_id)\n    return group\n    \ndef create_membership():\n\tgroup = db(db.auth_group.role == \'Admin\').select().first()\n\tuser = db(db.auth_user.email == \'admin@themislexsol.com\').select().first()\n\tmembership = db(auth.settings.table_membership.group_id == group.id).select().first()\n\tif not membership:\n\t\tmembership_id = auth.add_membership(group_id = group.id, user_id = user.id)\n\t\tmembership = auth.settings.table_membership(membership_id)\n\treturn membership\n\t\ndef create_permission():\n\ttables = list(db.tables)\n\tfor table in tables:\n\t\tgroup = db(db.auth_group.role == \'Admin\').select().first()\n\t\tquery = auth.settings.table_permission.group_id == group.id\n\t\tquery = query & (auth.settings.table_permission.name == \'CRUD\')\n\t\tquery = query & (auth.settings.table_permission.table_name == table)\n\t\tpermission = db(query).select().first()\n\t\tif not permission:\n\t\t\tpermission_id = auth.add_permission(group_id = group.id, name = \'CRUD\', table_name = table)\n\t\t\tpermission = auth.settings.table_permission(permission_id)\n\treturn permission\n\t\ndef lgin(form):\n\tif auth.user.email == \'admin@themislexsol.com\':\n\t\tadmin=db(db.image.email==auth.user.email).select().first()\n\t\tif not admin:\n\t\t\tdb.image.insert(email=auth.user.email)\n\t\t\tredirect(URL(c=\'default\', f=\'admindash\'))\n\t\telse:\n\t\t\tredirect(URL(c=\'default\', f=\'admindash\'))\t\t\t\n\telse:\n\t\tredirect(URL(c=\'default\', f=\'emp_time\'))\n\treturn dict()\n\t\ndef lgout(usr):\n\tif auth.user.email == \'admin@themislexsol.com\':\n\t\tpass\n\telse:\n\t\timport datetime\n\t\timport time, os\n\t\tos.environ[\'TZ\'] = \'Asia/Kolkata\'\n\t\ttime.tzset()\n\t\tcurrentdate=datetime.date.today()\n\t\tnow = time.localtime(time.time())\n\t\tendtime=datetime.datetime.now()\n\t\tstarttime = session.starttime\n\t\tdelta = (endtime - starttime)\n\t\ttotalminutes = str(delta.seconds / 60)\n\t\ttotalhours = str(delta.seconds / 3600)\n\t\ttotmin = totalminutes + \'\\t min\'\n\t\ttothr = totalhours + \'\\t hrs\'\n\t\tcurrenttime = time.strftime("%H:%M:%S", now)\n\t\tdb((db.employee_login_detail.employee_email == auth.user.email) & (db.employee_login_detail.employee_login_date == currentdate) & (db.employee_login_detail.employee_login_time == session.cutime)).update(employee_logout_date=currentdate, employee_logout_time=currenttime, total_minutes=totmin, toal_hours=tothr)\n\t\tdb.commit()\n\treturn dict()\n\n#### Admin Controller Starts from here ####\t\n\t\n@auth.requires(auth.login() and auth.has_permission(\'CRUD\', \'auth_user\'))    \ndef admindash():\n\tfor row in db(db.image.email == auth.user.email).select():\n\t\timages=row.image\n\treturn dict(images=images)\t \n\n@auth.requires_permission(\'CRUD\', \'auth_user\')\t\t\ndef admin_organization():\n\tfor row in db(db.image.email == auth.user.email).select():\n\t\timages=row.image\n\tdb.add_new_organization.id.readable = False\n\tform=SQLFORM.grid(db.add_new_organization, selectable = lambda ids: del_org(ids))\n\treturn dict(images=images,form=form)\n\t\n@auth.requires_permission(\'CRUD\', \'auth_user\')\t\ndef del_org(ids):\n\tif not ids:\n\t\tresponse.flash=\'Please Select the Check-box to Delete\'\n\telse:\n\t\tfor row in ids:\n\t\t\tdb(db.add_new_organization.id == row).delete()\n\t\tpass\n\tpass\n\treturn \'\'\n\t\n@auth.requires_permission(\'CRUD\', \'auth_user\')\t\t\ndef admin_location():\n\tfor row in db(db.image.email == auth.user.email).select():\n\t\timages=row.image\n\tdb.add_new_location.id.readable = False\n\tform=SQLFORM.grid(db.add_new_location, selectable = lambda ids: del_loc(ids))\n\treturn dict(images=images,form=form)\n\t\n@auth.requires_permission(\'CRUD\', \'auth_user\')\t\ndef del_loc(ids):\n\tif not ids:\n\t\tresponse.flash=\'Please Select the Check-box to Delete\'\n\telse:\n\t\tfor row in ids:\n\t\t\tdb(db.add_new_location.id == row).delete()\n\t\tpass\n\tpass\n\treturn \'\'\n\t\n@auth.requires_permission(\'CRUD\', \'auth_user\')\t\t\ndef admin_department():\n\tfor row in db(db.image.email == auth.user.email).select():\n\t\timages=row.image\n\tdb.add_new_department.id.readable = False\n\tform=SQLFORM.grid(db.add_new_department, selectable = lambda ids: del_dpt(ids))\n\treturn dict(images=images,form=form)\n\t\n@auth.requires_permission(\'CRUD\', \'auth_user\')\t\ndef del_dpt(ids):\n\tif not ids:\n\t\tresponse.flash=\'Please Select the Check-box to Delete\'\n\telse:\n\t\tfor row in ids:\n\t\t\tdb(db.add_new_department.id == row).delete()\n\t\tpass\n\tpass\n\treturn \'\'\n\n@auth.requires_permission(\'CRUD\', \'auth_user\')\t\ndef locn(): \n\torg = request.vars.org\n\tloc = db(db.add_new_location.organization_name == org).select()\n\treturn SELECT(_id="locn",_name="locn",*[OPTION(loc [i].location, _value=str (loc[i].location)) for i in range(len(loc))])\n\n@auth.requires_permission(\'CRUD\', \'auth_user\')\t  \ndef admin_newuser():\n\tfor row in db(db.image.email == auth.user.email).select():\n\t\timages=row.image\n\tdb.auth_user.id.readable = False\n\tform=SQLFORM.grid(db.auth_user, create=False, selectable = lambda ids: del_emp(ids))\n\treturn dict(images=images,form=form)\n\t\n@auth.requires_permission(\'CRUD\', \'auth_user\')\t\ndef del_emp(ids):\n\tif not ids:\n\t\tresponse.flash=\'Please Select the Check-box to Delete\'\n\telse:\n\t\tfor row in ids:\n\t\t\tdb(db.auth_user.id == row).delete()\n\t\tpass\n\tpass\n\treturn \'\'\n\n@auth.requires_permission(\'CRUD\', \'auth_user\')\t\ndef admin_create_new_user():\n\tfor row in db(db.image.email == auth.user.email).select():\n\t\timages=row.image\n\t\n\tadmin_create_new_user.count=0\n\tdef counting():\n\t\tfor row in db(db.auth_user.id >= 1).select():\n\t\t\tadmin_create_new_user.count += 1\n\tcounting()\n\tcount=admin_create_new_user.count\n\tprefix=\'00\'\n\tpre=\'0\'\n\tpr=\'\'\n\tif count < 10:\n\t\tid=prefix+str(count)\n\telif count >= 10 and count <= 99:\n\t\tid=pre+str(count)\n\telse:\n\t\tid=pr+str(count)\n\t\t\n\torg = db().select(db.add_new_organization.ALL)\n\tdpt = db().select(db.add_new_department.ALL)\n\trmgr = db().select(db.auth_user.ALL)\n\tstat = [\'Active\',\'Terminated\',\'Resigned\',\'Leave-of-Absence\',\'Deceased\']\n\t\n\tif request.vars.mailerror:\n\t\tvar = \'This email (\'+request.vars.mailerror+\') is allready taken. Please choose another email address.\'\n\telif request.vars.mailerr:\n\t\tvar = \'This email (\'+request.vars.mailerr+\') is Successfully Registered with HRMS.\'\n\telse:\n\t\tvar = \'Add New Employee\'\n\treturn dict(images=images, org=org, dpt=dpt, stat=stat, id=id, var=var,rmgr=rmgr)\n\t\n@auth.requires_permission(\'CRUD\', \'auth_user\')\t\ndef admin_submit_newuser():\n\tfor row in db(db.auth_user.email==request.vars.orgemail).select():\n\t\tsession.regmail=row.email\n\t\tpass\n\tif session.regmail == request.vars.orgemail:\n\t\tredirect(URL(c=\'default\', f=\'admin_create_new_user\', vars={\'mailerror\' :request.vars.orgemail}))\n\telse:\n\t\tsession.mail = request.vars.orgemail\n\t\tsession.pmail = request.vars.pemail\n\t\tsession.fname = request.vars.fname\n\t\tsession.mgr = request.vars.rmgr\n\t\tfor row1 in db(db.add_new_organization.id==request.vars.org).select():\n\t\t\tpr = row1.organization_prefix\n\t\t\tcmpny = row1.organization_name\n\t\tprefix = str(pr+request.vars.empcode)\n\t\tdb.auth_user.bulk_insert([{\'first_name\' : session.fname,\'last_name\' : request.vars.lname,\'email\' : session.mail,\'password\' : db.auth_user.password.validate(\'1234\')[0],\'organization_name\' : cmpny, \'location\' : request.vars.locn, \'department\' : request.vars.dpt, \'employee_code\' : prefix, \'personal_email\' : session.pmail, \'date_of_joining\' : request.vars.doj, \'reporting_manager\' : request.vars.rmgr, \'designation\' : request.vars.dgn, \'employee_status\' : request.vars.stat}])\n\t\tcreate_emp_group()\n\t\tcreate_emp_membership()\n\t\tcreate_emp_permission()\n\t\tcreate_mgr_group()\n\t\tcreate_mgr_membership()\n\t\tcreate_mgr_permission()\n\t\tdb.personal_information.insert(email=session.mail,employee_code=prefix)\n\t\tdb.qualification.insert(email=session.mail,employee_code=prefix)\n\t\tdb.document.insert(email=session.mail,employee_code=prefix)\n\t\tdb.image.insert(email=session.mail,employee_code=prefix)\n\t\t\n\t\ttotvacationleave=18\n\t\ttotmedicalleave=6\n\t\ttotcasualleave=6\n\t\timport datetime\n\t\tmonth = datetime.datetime.now().month\n\t\ttotmonth = 12\n\t\tcurmnth = totmonth - month\n\t\tvacleave = int(curmnth * 1.5)\n\t\tmedleave = int(curmnth * 0.5)\n\t\tcasulleave = int(curmnth * 0.5)\n\t\ttackenvacleave = 0\n\t\ttackenmedleave = 0\n\t\ttakencasulleave = 0\n\t\tdb.employee_leave.insert(employee_code=prefix,email=session.mail,taken_vacation_leave=tackenvacleave,taken_medical_leave=tackenmedleave,taken_casual_leave=takencasulleave,left_vacation_leave=vacleave,left_medical_leave=medleave,left_casual_leave=casulleave)\n\t\tdb.commit()\n\t\twelcome_mail()\n\t\tredirect(URL(c=\'default\', f=\'admin_create_new_user\', vars={\'mailerr\' :request.vars.orgemail}))\n\treturn dict()\n\t\n@auth.requires_permission(\'CRUD\', \'auth_user\')\r\ndef welcome_mail():\r\n    from gluon.tools import Mail\r\n    mail=Mail()\r\n    #specify server\n    \n    mail=auth.settings.mailer\r\n    mail.settings.server=\'smtp.gmail.com:587\'\r\n    mail.settings.login=\'themisdemo1@gmail.com:123456asdfg\'\r\n    #specify address to send as\r\n    mail.settings.sender=\'themisdemo1@gmail.com\'\r\n    #send the message                             \r\n    mail.send(to=[session.mail, session.pmail],\r\n            subject=\'Welcome User\',\r\n            message=\'<html>\'\r\n                        \'<body>\'\r\n                            \'<span style="font-family: Bodoni MT Ultra Bold;color:  #000000 ;font-size : 18pt;"><b>Themis </span></h1><span style="font-family: Bodoni MT Ultra Bold;color:#C7A317   ;font-size :18pt;"><b>Lexsol</b></span>\'\r\n                            \r\n                            \'<p>Dear &nbsp;\'+session.fname+\'</p>\'\r\n                            \r\n                            \'<p>I just wanted to drop you a quick message to say thank you for joining the Themis Lexsol.Your user name is \'+session.mail+\' and please click below to reset your password.<h1>http://jmdlcmplus.fluxflex.com/jmdlcmplus/default/user/request_reset_password</h1>If you need help at any time, please contact me by replying to this message. Similarly, if you ever have any questions then please do not hesitate to send me a message or email.</p>\'\r\n                            \'<center><p>_________________________________________________________</p><p style="color:red;font-size :5pt;">This email comes to you since your company has subcribed for LCM Plus. TO unsubcribed please contact to Themis Lexsol</p></center>\'\r\n                      \r\n                        \'</body>\'\r\n                    \'</html>\'\r\n                    \r\n  )\r\n    response.flash=\'mail send\'\r\n    return \'\'\t\n\t\n@auth.requires_permission(\'CRUD\', \'auth_user\')    \ndef create_emp_group():\r\n    group = db(auth.settings.table_group.role == \'Emp\').select().first()\r\n    if not group:\r\n        group_id = auth.add_group(role = \'Emp\', description = \'Only Employee Permissions\')\r\n        group = auth.settings.table_group(group_id)\r\n    return group\n\n@auth.requires_permission(\'CRUD\', \'auth_user\')    \ndef create_emp_membership():\r\n\tgroup = db(db.auth_group.role == \'Emp\').select().first()\r\n\tuser = db(db.auth_user.email == session.mail).select().first()\r\n\tmembership = db((auth.settings.table_membership.group_id == group.id) & (auth.settings.table_membership.user_id == user.id)).select().first()\r\n\tif not membership:\r\n\t\tmembership_id = auth.add_membership(group_id = group.id, user_id = user.id)\r\n\t\tmembership = auth.settings.table_membership(membership_id)\r\n\treturn membership\n\n@auth.requires_permission(\'CRUD\', \'auth_user\')\t\ndef create_emp_permission():\r\n\tgroup = db(db.auth_group.role == \'Emp\').select().first()\n\tquery = auth.settings.table_permission.group_id == group.id\n\tquery = query & (auth.settings.table_permission.name == \'Emp\')\n\tpermission = db(query).select().first()\n\tif not permission:\n\t\tpermission_id = auth.add_permission(group_id = group.id, name = \'Emp\', table_name = \'auth_user\')\n\t\tpermission = auth.settings.table_permission(permission_id)\n\treturn permission\n\t\n@auth.requires_permission(\'CRUD\', \'auth_user\')    \ndef create_mgr_group():\n    group = db(auth.settings.table_group.role == \'Mgr\').select().first()\n    if not group:\n        group_id = auth.add_group(role = \'Mgr\', description = \'Only Manager Permissions\')\n        group = auth.settings.table_group(group_id)\n    return group\n\n@auth.requires_permission(\'CRUD\', \'auth_user\')    \ndef create_mgr_membership():\n\tgroup = db(db.auth_group.role == \'Mgr\').select().first()\n\tuser = db(db.auth_user.email == session.mgr).select().first()\n\tmembership = db((auth.settings.table_membership.group_id == group.id) & (auth.settings.table_membership.user_id == user.id)).select().first()\n\tif not membership:\n\t\tmembership_id = auth.add_membership(group_id = group.id, user_id = user.id)\n\t\tmembership = auth.settings.table_membership(membership_id)\n\treturn membership\n\n@auth.requires_permission(\'CRUD\', \'auth_user\')\t\ndef create_mgr_permission():\n\tgroup = db(db.auth_group.role == \'Mgr\').select().first()\n\tquery = auth.settings.table_permission.group_id == group.id\n\tquery = query & (auth.settings.table_permission.name == \'Mgr\')\n\tpermission = db(query).select().first()\n\tif not permission:\n\t\tpermission_id = auth.add_permission(group_id = group.id, name = \'Mgr\', table_name = \'auth_user\')\n\t\tpermission = auth.settings.table_permission(permission_id)\n\treturn permission\n\n@auth.requires_permission(\'CRUD\', \'auth_user\')\t\ndef admin_newholiday():\n\tfor row in db(db.image.email == auth.user.email).select():\n\t\timages=row.image\n\tdb.holiday_list.id.readable=False\n\tform=SQLFORM.grid(db.holiday_list, selectable = lambda ids: del_hlist(ids))\n\treturn dict(images=images,form=form)\n\t\n@auth.requires_permission(\'CRUD\', \'auth_user\')\t\ndef del_hlist(ids):\n\tif not ids:\n\t\tresponse.flash=\'Please Select the Check-box to Delete\'\n\telse:\n\t\tfor row in ids:\n\t\t\tdb(db.holiday_list.id == row).delete()\n\t\tpass\n\tpass\n\treturn \'\'\n\n@auth.requires_permission(\'CRUD\', \'auth_user\')    \ndef addthemis():\n\tfor row in db(db.image.email == auth.user.email).select():\n\t\timages=row.image\n\treturn dict(images=images)\n\n@auth.requires_permission(\'CRUD\', \'auth_user\')\t\ndef admin_timesheet():\n\tfor row in db(db.image.email == auth.user.email).select():\n\t\timages=row.image\n\treturn dict(images=images)\n\t\n@auth.requires_permission(\'CRUD\', \'auth_user\')\t\ndef admin_attendance():\n\tfor row in db(db.image.email == auth.user.email).select():\n\t\timages=row.image\n\tdb.employee_login_detail.id.readable=False\n\tform=SQLFORM.grid(db.employee_login_detail, selectable = lambda ids: del_att(ids))\n\treturn dict(form=form,images=images)\n\t\n@auth.requires_permission(\'CRUD\', \'auth_user\')\t\ndef del_att(ids):\n\tif not ids:\n\t\tresponse.flash=\'Please Select the Check-box to Delete\'\n\telse:\n\t\tfor row in ids:\n\t\t\tdb(db.employee_login_detail.id == row).delete()\n\t\tpass\n\tpass\n\treturn \'\'\n\n@auth.requires_permission(\'CRUD\', \'auth_user\')\t\t\ndef admin_report():\n\tfor row in db(db.image.email == auth.user.email).select():\n\t\timages=row.image\n\treturn dict(images=images)\n\n@auth.requires_permission(\'CRUD\', \'auth_user\')    \ndef admin_mydoc():\n\tfor row in db(db.image.email == auth.user.email).select():\n\t\timages=row.image\n\treturn dict(images=images)\n\n@auth.requires_permission(\'CRUD\', \'auth_user\')\t\t\ndef admin_salary():\n\tfor row in db(db.image.email == auth.user.email).select():\n\t\timages=row.image\n\treturn dict(images=images)\n\t\n@auth.requires_permission(\'CRUD\', \'auth_user\')\ndef admin_update_image():\n\tfor row in db(db.image.email == auth.user.email).select():\n\t\timages=row.image\n\tfor row1 in db(db.image.email == auth.user.email).select():\n\t\tmail=row.email\n\t\tecode=row.employee_code\n\t\t\n\tdb.image.email.writable=False\n\tdb.image.employee_code.writable=db.image.employee_code.readable=False\n\tdb.image.email.default=mail\n\tform=SQLFORM(db.image)\n\tif form.accepts(request.vars, session):\n\t\timg = form.vars.image\n\t\tdb(db.image.email == auth.user.email).update(image=img)\n\t\tredirect(URL(c=\'default\', f=\'admindash\'))\n\treturn dict(images=images,form=form)\n\n@auth.requires_permission(\'CRUD\', \'auth_user\')\t\ndef admin_calendar():\n\tfor row in db(db.image.email == auth.user.email).select():\n\t\timages=row.image\n\tcaland=db().select(db.holiday_list.ALL)\r\n\treturn dict(images=images,rows=caland)\n\n@auth.requires_permission(\'CRUD\', \'auth_user\')\t\ndef admin_calread():\n\tfor row in db(db.image.email == auth.user.email).select():\n\t\timages=row.image\n\trecord = db.holiday_list(request.args(0)) or redirect(URL(\'error\'))\n\tform=crud.read(db.holiday_list,record)\n\treturn dict(form=form,images=images)\n    \n@auth.requires_permission(\'CRUD\', \'auth_user\')\t\ndef admin_leave_stat():\n\tfor row in db(db.image.email == auth.user.email).select():\n\t\timages=row.image\n\tadminleave=db().select(db.apply_leave.ALL)\n\treturn dict(images=images,adminleave=adminleave)\n\n@auth.requires_permission(\'CRUD\', \'auth_user\')\t\t\ndef admin_edit_leave():\n\tfor row in db(db.image.email == auth.user.email).select():\n\t\timages=row.image\n\tfor row in db(db.apply_leave.id==request.args(0)).select():\n\t\tid=row.id\n\t\teid=row.employee_code\n\t\testat=row.status\n\t\teltype=row.leave_type\n\t\tefrom=row.from_leave\n\t\teto=row.to_leave\n\t\tereason=row.reason_for_leave\n\t\tetotday=row.total_day\n\treturn dict(id=id,images=images,eid=eid,estat=estat,eltype=eltype,efrom=efrom,eto=eto,ereason=ereason,etotday=etotday)\n\n@auth.requires_permission(\'CRUD\', \'auth_user\')\t\ndef admin_approve_leave():\n\tfor row in db(db.apply_leave.id==request.args(0)).select():\n\t\tsession.lmail=row.email\n\t\tsession.empname=row.name\n\t\tsession.efrom=row.from_leave\n\t\tsession.eto=row.to_leave\n\t\tsession.status=request.vars.status\n\t\tsession.ltype=row.leave_type\n\t\tsession.tday=row.total_day\n\tif session.status == \'Approved\':\n\t\tif session.ltype == \'Casual Leave\':\n\t\t\tfor row in db(db.employee_leave.email==session.lmail).select():\n\t\t\t\ttotday=row.left_casual_leave - session.tday\n\t\t\tdb(db.apply_leave.id==request.args(0)).update(status=session.status, approved_by=\'Administrator\')\n\t\t\tdb(db.employee_leave.email==session.lmail).update(taken_casual_leave=session.tday,left_casual_leave=totday)\n\t\t\tdb.commit()\n\t\t\tredirect(URL(c=\'default\', f=\'admin_leave_mail\'))\n\t\telif session.ltype == \'Medical Leave\':\n\t\t\tfor row in db(db.employee_leave.email==session.lmail).select():\n\t\t\t\ttotday=row.left_medical_leave - session.tday\n\t\t\tdb(db.apply_leave.id==request.args(0)).update(status=session.status, approved_by=\'Administrator\')\n\t\t\tdb(db.employee_leave.email==session.lmail).update(taken_medical_leave=session.tday,left_medical_leave=totday)\n\t\t\tdb.commit()\n\t\t\tredirect(URL(c=\'default\', f=\'admin_leave_mail\'))\n\t\telif session.ltype == \'Vacation Leave\':\n\t\t\tfor row in db(db.employee_leave.email==session.lmail).select():\n\t\t\t\ttotday=row.left_vacation_leave - session.tday\n\t\t\tdb(db.apply_leave.id==request.args(0)).update(status=session.status, approved_by=\'Administrator\')\n\t\t\tdb(db.employee_leave.email==session.lmail).update(taken_vacation_leave=session.tday,left_vacation_leave=totday)\n\t\t\tdb.commit()\n\t\t\tredirect(URL(c=\'default\', f=\'admin_leave_mail\'))\n\t\telse:\n\t\t\tpass\n\telse:\n\t\tdb(db.apply_leave.id==request.args(0)).update(status=session.status, approved_by=\'Administrator\')\n\t\tdb.commit()\n\t\tredirect(URL(c=\'default\', f=\'admin_leave_mail\'))\n\treturn \'\'\n\n@auth.requires_permission(\'CRUD\', \'auth_user\')\ndef admin_edit_leave_status():\n\tfor row2 in db(db.image.email == auth.user.email).select():\n\t\timages=row2.image\n\tltype=[\'Casual Leave\',\'Medical Leave\',\'Vacation Leave\']\n\tsession.eleaveid=request.args(0)\n\tfor row in db(db.apply_leave.id==session.eleaveid).select():\n\t\tecode=row.employee_code\n\t\tname=row.name\n\t\tfle=row.from_leave\n\t\ttle=row.to_leave\n\t\ttday=row.total_day\n\t\trle=row.reason_for_leave\n\t\teltype=row.leave_type\n\treturn dict(ltype=ltype,images=images,ecode=ecode,name=name,fle=fle,tle=tle,tday=tday,rle=rle,eltype=eltype)\n\n@auth.requires_permission(\'CRUD\', \'auth_user\')\t\ndef admin_submit_edit_leave_status():\n\tdb(db.apply_leave.id == session.eleaveid).update(name=request.vars.name, leave_type=request.vars.ltype, from_leave=request.vars.fleave, to_leave=request.vars.tleave, total_day=request.vars.tday, reason_for_leave=request.vars.rleave)\n\tdb.commit()\n\tredirect(URL(c=\'default\',f=\'admin_leave_stat\'))\n\treturn \'\'\n\n@auth.requires_permission(\'CRUD\', \'auth_user\')\ndef admin_leave_mail():\n    from gluon.tools import Mail\n    mail=Mail()\n    #specify server\n    mail=auth.settings.mailer\n    mail.settings.server=\'smtp.gmail.com:587\'\n    mail.settings.login=\'themisdemo1@gmail.com:123456asdfg\'\n    #specify address to send as\n    mail.settings.sender=\'themisdemo1@gmail.com\'\n    #send the message                             \n    mail.send(to=[session.lmail],\n            subject=\'Leave Status\',\n            message=\'<html>\'\n                        \'<body>\'\n                            \'<span style="font-family: Bodoni MT Ultra Bold;color:  #000000 ;font-size : 18pt;"><b>Themis </span></h1><span style="font-family: Bodoni MT Ultra Bold;color:#C7A317   ;font-size :18pt;"><b>Lexsol</b></span>\'\n                            \n                            \'<p>Dear &nbsp;\'+session.empname+\'</p>\'\n                            \n                            \'<p>I just wanted to drop you a quick message to say Your leave request from \'+str(session.efrom)+\' to \'+str(session.eto)+\' is \'+session.status+\' If you need help at any time, please contact me by replying to this message. Similarly, if you ever have any questions then please do not hesitate to send me a message or email.</p>\'\n                            \'<center><p>_________________________________________________________</p><p style="color:red;font-size :5pt;">This email comes to you since you are subcribed for HRMS. TO unsubcribed please contact to Themis Lexsol</p></center>\'\n                      \n                        \'</body>\'\n                    \'</html>\'\n                    \n  )\n    redirect(URL(c=\'default\', f=\'admin_cnf_leave\'))\t\n    return \'\'\n    \n@auth.requires_permission(\'CRUD\', \'auth_user\')\t\ndef admin_cnf_leave():\n\tfor row2 in db(db.image.email == auth.user.email).select():\n\t\timages=row2.image\n\treturn dict(images=images,status=session.status,efrom=session.efrom,eto=session.eto,empname=session.empname)\n\t\n@auth.requires_permission(\'CRUD\', \'auth_user\')\t\ndef admin_contact_detail():\n\tfor row2 in db(db.image.email == auth.user.email).select():\n\t\timages=row2.image\n\treturn dict(images=images)\n\n@auth.requires_permission(\'CRUD\', \'auth_user\')\t\ndef admin_add_project():\n\tfor row2 in db(db.image.email == auth.user.email).select():\n\t\timages=row2.image\n\t\n\tdb.project.id.readable = False\n\tform=SQLFORM.grid(db.project,selectable = lambda ids: del_pro(ids))\n\treturn dict(images=images,form=form)\n\t\n@auth.requires_permission(\'CRUD\', \'auth_user\')\t\ndef del_pro(ids):\n\tif not ids:\n\t\tresponse.flash=\'Please Select the Check-box to Delete\'\n\telse:\n\t\tfor row in ids:\n\t\t\tdb(db.project.id == row).delete()\n\t\tpass\n\tpass\n\treturn \'\'\n\t\n@auth.requires_permission(\'CRUD\', \'auth_user\')\t\ndef admin_activity():\n\tfor row2 in db(db.image.email == auth.user.email).select():\n\t\timages=row2.image\n\t\n\tdb.activity.id.readable = False\n\tform=SQLFORM.grid(db.activity,selectable = lambda ids: del_activity(ids))\n\treturn dict(images=images,form=form)\n\t\n@auth.requires_permission(\'CRUD\', \'auth_user\')\t\ndef del_activity(ids):\n\tif not ids:\n\t\tresponse.flash=\'Please Select the Check-box to Delete\'\n\telse:\n\t\tfor row in ids:\n\t\t\tdb(db.activity.id == row).delete()\n\t\tpass\n\tpass\n\treturn \'\'\n\t\n@auth.requires_permission(\'CRUD\', \'auth_user\')\ndef admin_assign_project():\n\tfor row2 in db(db.image.email == auth.user.email).select():\n\t\timages=row2.image\n\t\n\tdb.assign_project.id.readable=False\n\tform=SQLFORM.grid(db.assign_project,selectable = lambda ids: del_assign_project(ids))\n\treturn dict(images=images,form=form)\n\n@auth.requires_permission(\'CRUD\', \'auth_user\')\t\ndef del_assign_project(ids):\n\tif not ids:\n\t\tresponse.flash=\'Please Select the Check-box to Delete\'\n\telse:\n\t\tfor row in ids:\n\t\t\tdb(db.assign_project.id == row).delete()\n\t\tpass\n\tpass\n\treturn \'\'\n\t\n@auth.requires_permission(\'CRUD\', \'auth_user\')\ndef admin_assign_pro():\n\tfor row2 in db(db.image.email == auth.user.email).select():\n\t\timages=row2.image\n\tproj=db().select(db.project.ALL)\n\torzn=db().select(db.add_new_organization.ALL)\n\tdept=db().select(db.add_new_department.ALL)\n\treturn dict(images=images,proj=proj,orzn=orzn,dept=dept)\n\t\n@auth.requires_permission(\'CRUD\', \'auth_user\')\t\ndef admin_orz():\n\tfor row in db(db.add_new_organization.id == request.vars.orz).select():\n\t\torganization=row.organization_name\n\tfor row1 in db(db.add_new_department.id == request.vars.dp).select():\n\t\tdepartment=row1.department\n\t\n\tusr=[]\n\tfor row in db((db.auth_user.department == department) & (db.auth_user.organization_name == organization)).select():\n\t\tusr.append(row.email)\n\treturn SELECT(_id="usr",_name="usr",*[OPTION((emp), _value=str (emp)) for emp in usr])\n\t\n@auth.requires_permission(\'CRUD\', \'auth_user\')\t\ndef admin_submit_project():\n\tfor row2 in db(db.image.email == auth.user.email).select():\n\t\timages=row2.image\n\tfor row in db(db.add_new_organization.id == request.vars.orz).select():\n\t\torganization=row.organization_name\n\tfor row1 in db(db.add_new_department.id == request.vars.dp).select():\n\t\tdepartment=row1.department\n\tdb.assign_project.insert(project_name=request.vars.pro,organization_name=organization,department=department,employee=request.vars.usr)\n\tdb.commit()\n\tredirect(URL(c=\'default\',f=\'admin_assign_project\'))\n\treturn dict(images=images)\n\t\n#### Employee Controller Starts from here ####\n\ndef emp_time():\n\timport datetime\n\timport time, os\n\tos.environ[\'TZ\'] = \'Asia/Kolkata\'\n\ttime.tzset()\n\tnow = time.localtime(time.time())\n\tsession.cutime = time.strftime("%H:%M:%S", now)\t\n\tredirect(URL(c=\'default\',f=\'employee\'))\n\treturn \'\'\n\n@auth.requires(auth.login() and auth.has_permission(\'Emp\', \'auth_user\'))\ndef employee():\n\tresponse.flash = "Welcome to Employee Lgoin"\n\tfor row in db(db.image.email == auth.user.email).select():\n\t\timages=row.image\n\tllgin=[]\n\tfor log in db(db.employee_login_detail.employee_logout_date==\'Logged in\').select():\n\t\tllgin.append(log.employee_name)\n\tblgin=set(llgin)\n\talgin=list(blgin)\n\t\t\n\tipa = request.env.remote_addr\n\tipaddr = str(ipa[33:])\n\timport datetime\n\timport time, os\n\tos.environ[\'TZ\'] = \'Asia/Kolkata\'\n\ttime.tzset()\n\tcurrentdate=datetime.date.today()\n\tnow = time.localtime(time.time())\n\tstarttime = datetime.datetime.now()\n\tsession.starttime = starttime\n\tcurrenttime = time.strftime("%H:%M:%S", now)\n\tsession.time = currenttime\n\tif session.cutime == session.time:\n\t\tfor row in db(db.auth_user.email == auth.user.email).select(db.auth_user.first_name, db.auth_user.employee_code):\n\t\t\tfirstname=row.first_name\n\t\t\tempcode=row.employee_code\n\t\tdb.employee_login_detail.insert(employee_code = empcode, employee_email = auth.user.email, employee_name=firstname, employee_login_date=currentdate, employee_login_time=currenttime, ip_address=ipaddr)\n\t\tdb.commit()\n\telse:\n\t\tpass\n\treturn dict(algin=algin,images=images)\t\n\n@auth.requires_permission(\'Emp\', \'auth_user\')\t\ndef emp_mydoc():\n\tfor row in db(db.image.email == auth.user.email).select():\n\t\timages=row.image\n\t\n\tllgin=[]\n\tfor log in db(db.employee_login_detail.employee_logout_date==\'Logged in\').select():\n\t\tllgin.append(log.employee_name)\n\tblgin=set(llgin)\n\talgin=list(blgin)\t\n\tfor row in db(db.auth_user.email==auth.user.email).select(db.auth_user.employee_code):\r\n\t\t\tecode=row.employee_code\n\t\t\t\n\tdb.document.id.readable=False\t\n\tdb.document.email.writable=False\n\tdb.document.email.default=auth.user.email\n\tdb.document.employee_code.writable=False\n\tdb.document.employee_code.default=ecode\n\ttable=SQLFORM.grid(db.document.email==auth.user.email)\n\treturn dict(algin=algin,images=images,table=table)\n\n@auth.requires_permission(\'Emp\', \'auth_user\')\t\ndef emp_compliance():\n\tfor row in db(db.image.email == auth.user.email).select():\n\t\timages=row.image\n\t\t\n\tllgin=[]\n\tfor log in db(db.employee_login_detail.employee_logout_date==\'Logged in\').select():\n\t\tllgin.append(log.employee_name)\n\tblgin=set(llgin)\n\talgin=list(blgin)\n\treturn dict(algin=algin,images=images)\n\n@auth.requires_permission(\'Emp\', \'auth_user\')\t\ndef emp_all():\n\tfor row in db(db.image.email == auth.user.email).select():\n\t\timages=row.image\n\tllgin=[]\n\tfor log in db(db.employee_login_detail.employee_logout_date==\'Logged in\').select():\n\t\tllgin.append(log.employee_name)\n\tblgin=set(llgin)\n\talgin=list(blgin)\n\treturn dict(algin=algin,images=images)\n\n@auth.requires_permission(\'Emp\', \'auth_user\')   \ndef emp_myprofile():\n\tfor row2 in db(db.image.email == auth.user.email).select():\n\t\timages=row2.image\n\t\t\n\tllgin=[]\n\tfor log in db(db.employee_login_detail.employee_logout_date==\'Logged in\').select():\n\t\tllgin.append(log.employee_name)\n\tblgin=set(llgin)\n\talgin=list(blgin)\n\tfor row in db(db.auth_user.email == auth.user.email).select():\n\t\tempcode=row.employee_code\n\t\tempfname=row.first_name\n\t\templname=row.last_name\n\t\tempemail=auth.user.email \n\t\temppemail=row.personal_email\n\t\tempdoj=row.date_of_joining\n\t\tempdpt=row.department\n\t\temprptmgr=row.reporting_manager\n\t\tempdgn=row.designation\n\t\t\n\tfor row1 in db(db.personal_information.email == auth.user.email).select():\n\t\tsession.empdob=row1.date_of_birth\n\t\tsession.empgndr=row1.gender\n\t\tsession.empstatus=row1.marital_status\n\t\tsession.empgrp=row1.blood_group\n\t\tsession.empmbl=row1.mobile\n\t\tsession.empphone=row1.phone\n\t\tsession.emppaddr=row1.present_address\n\t\tsession.empperaddr=row1.permanent_address\n\t\tsession.empctz=row1.citizenship\n\t\tsession.empst=row1.state\n\t\tsession.emppassno=row1.passport_no\n\t\tsession.empbank=row1.bank_account_no\n\t\tsession.emppancard=row1.pan_card_no\r\n\tedtable = db(db.qualification.email==auth.user.email).select(db.qualification.ALL) \n\treturn dict(algin=algin,images=images,empcode=empcode,empfname=empfname,emplname=emplname,empemail=empemail,emppemail=emppemail,empdoj=empdoj,empdpt=empdpt,emprptmgr=emprptmgr,empdgn=empdgn,empdob=session.empdob,empgndr=session.empgndr,empstatus=session.empstatus,empgrp=session.empgrp,empmbl=session.empmbl,empphone=session.empphone,emppaddr=session.emppaddr,empperaddr=session.empperaddr,empctz=session.empctz,empst=session.empst,emppassno=session.emppassno,empbank=session.empbank,emppancard=session.emppancard,edtable=edtable)\n\n@auth.requires_permission(\'Emp\', \'auth_user\')\t\ndef emp_update_edu_info():\n\tfor row in db(db.image.email == auth.user.email).select():\n\t\timages=row.image\n\tllgin=[]\n\tfor log in db(db.employee_login_detail.employee_logout_date==\'Logged in\').select():\n\t\tllgin.append(log.employee_name)\n\tblgin=set(llgin)\n\talgin=list(blgin)\n\t\t\n\tfor row in db(db.auth_user.email==auth.user.email).select(db.auth_user.employee_code):\r\n\t\t\tecode=row.employee_code\n\t\t\t\n\tdb.qualification.id.readable=False\t\n\tdb.qualification.email.writable=False\n\tdb.qualification.email.default=auth.user.email\n\tdb.qualification.employee_code.writable=False\n\tdb.qualification.employee_code.default=ecode\n\ttable=SQLFORM.grid(db.qualification.email==auth.user.email)\n\treturn dict(algin=algin,images=images,table=table)\n\n@auth.requires_permission(\'Emp\', \'auth_user\')\ndef emp_update_personal_info():\n\tfor row1 in db(db.image.email == auth.user.email).select():\n\t\timages=row1.image\n\tllgin=[]\n\tfor log in db(db.employee_login_detail.employee_logout_date==\'Logged in\').select():\n\t\tllgin.append(log.employee_name)\n\tblgin=set(llgin)\n\talgin=list(blgin)\n\t\n\tfor row in db(db.personal_information.email == auth.user.email).select():\n\t\tecode=row.employee_code\n\t\tdbr=row.date_of_birth\n\t\tgndr=row.gender\n\t\tmstat=row.marital_status\n\t\tbgrp=row.blood_group\n\t\tmbl=row.mobile\n\t\tph=row.phone\n\t\tpaddr=row.present_address\n\t\tperaddr=row.permanent_address\n\t\tctz=row.citizenship\n\t\tst=row.state\n\t\tpno=row.passport_no\n\t\tbno=row.bank_account_no\n\t\tpcard=row.pan_card_no\t\t\n\t\t\n\tdb.personal_information.email.writable=False\n\tdb.personal_information.employee_code.writable=False\n\tdb.personal_information.email.default=auth.user.email\n\tdb.personal_information.employee_code.default=ecode\n\t\n\tdb.personal_information.date_of_birth.default=dbr \n\tdb.personal_information.gender.default=gndr\n\tdb.personal_information.marital_status.default=mstat\n\tdb.personal_information.blood_group.default=bgrp\n\tdb.personal_information.mobile.default=mbl\n\tdb.personal_information.phone.default=ph\n\tdb.personal_information.present_address.default=paddr \n\tdb.personal_information.permanent_address.default=peraddr\n\tdb.personal_information.citizenship.default=ctz\n\tdb.personal_information.state.default=st\n\tdb.personal_information.passport_no.default=pno\n\tdb.personal_information.bank_account_no.default=bno\n\tdb.personal_information.pan_card_no.default=pcard \n\t\n\tform = SQLFORM(db.personal_information)\n\tif form.accepts(request.vars, session):\n\t\tdob = form.vars.date_of_birth\n\t\tgndr = form.vars.gender\n\t\tmstatus = form.vars.marital_status\n\t\tbgrp = form.vars.blood_group\n\t\tmbl = form.vars.mobile\n\t\tphone = form.vars.phone\n\t\tpaddr = form.vars.present_address\n\t\tperaddr = form.vars.permanent_address\n\t\tctz = form.vars.citizenship\n\t\tst = form.vars.state\n\t\tpno = form.vars.passport_no\n\t\tbaccno = form.vars.bank_account_no\n\t\tpcard = form.vars.pan_card_no\n\t\timg = form.vars.image\n\t\tdb(db.personal_information.email == auth.user.email).update(date_of_birth=dob, gender=gndr, marital_status=mstatus, blood_group=bgrp, mobile=mbl, phone=phone, present_address=paddr, permanent_address=peraddr, citizenship=ctz, state=st, passport_no=pno, bank_account_no=baccno, pan_card_no=pcard)\n\t\tredirect(URL(c=\'default\', f=\'emp_myprofile\'))\n\treturn dict(algin=algin,form=form,images=images)\n\n@auth.requires_permission(\'Emp\', \'auth_user\')\ndef emp_update_image():\n\tfor row in db(db.image.email == auth.user.email).select():\n\t\timages=row.image\n\t\t\n\tllgin=[]\n\tfor log in db(db.employee_login_detail.employee_logout_date==\'Logged in\').select():\n\t\tllgin.append(log.employee_name)\n\tblgin=set(llgin)\n\talgin=list(blgin)\n\tfor row1 in db(db.image.email == auth.user.email).select():\n\t\tmail=row.email\n\t\tecode=row.employee_code\n\t\t\n\tdb.image.email.writable=False\n\tdb.image.employee_code.writable=db.image.employee_code.readable=False\n\tdb.image.email.default=mail\n\tform=SQLFORM(db.image)\n\tif form.accepts(request.vars, session):\n\t\timg = form.vars.image\n\t\tdb(db.image.email == auth.user.email).update(image=img)\n\t\tredirect(URL(c=\'default\', f=\'emp_myprofile\'))\n\treturn dict(algin=algin,images=images,form=form)\n\n@auth.requires_permission(\'Emp\', \'auth_user\')\ndef emp_company():\n\tfor row in db(db.image.email == auth.user.email).select():\n\t\timages=row.image\n\t\t\n\tllgin=[]\n\tfor log in db(db.employee_login_detail.employee_logout_date==\'Logged in\').select():\n\t\tllgin.append(log.employee_name)\n\tblgin=set(llgin)\n\talgin=list(blgin)\n\treturn dict(algin=algin,images=images)\n\n@auth.requires_permission(\'Emp\', \'auth_user\')\t\ndef emp_organization():\n\tfor row in db(db.image.email == auth.user.email).select():\n\t\timages=row.image\n\tllgin=[]\n\tfor log in db(db.employee_login_detail.employee_logout_date==\'Logged in\').select():\n\t\tllgin.append(log.employee_name)\n\tblgin=set(llgin)\n\talgin=list(blgin)\n\treturn dict(algin=algin,images=images)\n\n@auth.requires_permission(\'Emp\', \'auth_user\')\t\ndef emp_leavecalendar():\n\tfor row in db(db.image.email == auth.user.email).select():\n\t\timages=row.image\n\t\n\tllgin=[]\n\tfor log in db(db.employee_login_detail.employee_logout_date==\'Logged in\').select():\n\t\tllgin.append(log.employee_name)\n\tblgin=set(llgin)\n\talgin=list(blgin)\n\ttotvacationleave=18\n\ttotmedicalleave=6\n\ttotcasualleave=6\n\templeave = db(db.employee_leave.email==auth.user.email).select(db.employee_leave.ALL)\n\tempstat = db(db.apply_leave.email==auth.user.email).select(db.apply_leave.ALL)\n\treturn dict(algin=algin,empstat=empstat,images=images,empleave=empleave,totvacationleave=totvacationleave,totmedicalleave=totmedicalleave,totcasualleave=totcasualleave)\n\t\ndef cron_leave():\n\ttotvacationleave=18\n\ttotmedicalleave=6\n\ttotcasualleave=6\n\ttvl=0\n\ttml=0\n\ttcl=0\n\tfor row in db(db.employee_leave.id>0).select():\n\t\tfor row1 in db(db.employee_leave.id==row.id).select():\n\t\t\ttotvacleave = totvacationleave + row1.left_vacation_leave\n\t\t\tdb(db.employee_leave.id==row.id).update(taken_vacation_leave=tvl, taken_medical_leave=tml, taken_casual_leave=tcl, left_vacation_leave=totvacleave, left_medical_leave=totmedicalleave, left_casual_leave=totcasualleave)\n\t\t\tdb.commit()\n\treturn \'\'\t\n\t\n@auth.requires_permission(\'Emp\', \'auth_user\')\t\ndef emp_calendar():\n\tfor row in db(db.image.email == auth.user.email).select():\n\t\timages=row.image\n\t\t\n\tllgin=[]\n\tfor log in db(db.employee_login_detail.employee_logout_date==\'Logged in\').select():\n\t\tllgin.append(log.employee_name)\n\tblgin=set(llgin)\n\talgin=list(blgin)\n\tcaland=db().select(db.holiday_list.ALL)\r\n\treturn dict(algin=algin,images=images,rows=caland)\n\n@auth.requires_permission(\'Emp\', \'auth_user\')\t\ndef emp_calread():\n\tfor row in db(db.image.email == auth.user.email).select():\n\t\timages=row.image\n\tllgin=[]\n\tfor log in db(db.employee_login_detail.employee_logout_date==\'Logged in\').select():\n\t\tllgin.append(log.employee_name)\n\tblgin=set(llgin)\n\talgin=list(blgin)\n\trecord = db.holiday_list(request.args(0)) or redirect(URL(\'error\'))\n\tform=crud.read(db.holiday_list,record)\n\treturn dict(form=form,images=images,algin=algin)\n    \n@auth.requires_permission(\'Emp\', \'auth_user\')\t\ndef emp_apply_leave():\n\tfor row in db(db.image.email == auth.user.email).select():\n\t\timages=row.image\n\tllgin=[]\n\tfor log in db(db.employee_login_detail.employee_logout_date==\'Logged in\').select():\n\t\tllgin.append(log.employee_name)\n\tblgin=set(llgin)\n\talgin=list(blgin)\n\tfor row in db(db.auth_user.email==auth.user.email).select():\n\t\trptmgr=row.reporting_manager\n\treturn dict(algin=algin,images=images)\n\n@auth.requires_permission(\'Emp\', \'auth_user\')\t\ndef submit_emp_apply_leave():\n\tfor row in db(db.image.email == auth.user.email).select():\n\t\timages=row.image\n\tllgin=[]\n\tfor log in db(db.employee_login_detail.employee_logout_date==\'Logged in\').select():\n\t\tllgin.append(log.employee_name)\n\tblgin=set(llgin)\n\talgin=list(blgin)\n\t\t\n\timport datetime\n\tsession.fromdate=request.vars.fromleave\n\tsession.todate=request.vars.toleave\n\tfdate=datetime.date(*map(int, session.fromdate.split(\'-\')))\n\ttdate=datetime.date(*map(int, session.todate.split(\'-\')))\n\ttotday=tdate-fdate\n\tsession.day=totday.days\n\tif request.vars.apply == \'Casual Leave\':\n\t\tfor row in db(db.employee_leave.email==auth.user.email).select():\n\t\t\tif session.day <= row.left_casual_leave:\n\t\t\t\tfor row in db(db.auth_user.email==auth.user.email).select():\n\t\t\t\t\tsession.rptmgr=row.reporting_manager\n\t\t\t\t\tsession.empcode=row.employee_code\n\t\t\t\t\tsession.fname=row.first_name\n\t\t\t\tdb.apply_leave.insert(employee_code=session.empcode,email=auth.user.email,name=session.fname,leave_type=request.vars.apply,from_leave=session.fromdate,to_leave=session.todate,total_day=session.day,reason_for_leave=request.vars.reason,reporting_manager=session.rptmgr)\n\t\t\t\tdb.commit()\n\t\t\t\tleavemail()\n\t\t\telse:\n\t\t\t\tresponse.flash=\'Your Casual leave is not left\'\n\telif request.vars.apply == \'Medical Leave\':\n\t\tfor row in db(db.employee_leave.email==auth.user.email).select():\n\t\t\tif session.day <= row.left_medical_leave:\n\t\t\t\tfor row in db(db.auth_user.email==auth.user.email).select():\n\t\t\t\t\tsession.rptmgr=row.reporting_manager\n\t\t\t\t\tsession.empcode=row.employee_code\n\t\t\t\t\tsession.fname=row.first_name\n\t\t\t\tdb.apply_leave.insert(employee_code=session.empcode,email=auth.user.email,name=session.fname,leave_type=request.vars.apply,from_leave=session.fromdate,to_leave=session.todate,total_day=session.day,reason_for_leave=request.vars.reason,reporting_manager=session.rptmgr)\n\t\t\t\tdb.commit()\n\t\t\t\tleavemail()\n\t\t\telse:\n\t\t\t\tresponse.flash=\'Your Medical leave is not left\'\n\telif request.vars.apply == \'Vacation Leave\':\n\t\tfor row in db(db.employee_leave.email==auth.user.email).select():\n\t\t\tif session.day <= row.left_vacation_leave:\n\t\t\t\tfor row in db(db.auth_user.email==auth.user.email).select():\n\t\t\t\t\tsession.rptmgr=row.reporting_manager\n\t\t\t\t\tsession.empcode=row.employee_code\n\t\t\t\t\tsession.fname=row.first_name\n\t\t\t\tdb.apply_leave.insert(employee_code=session.empcode,email=auth.user.email,name=session.fname,leave_type=request.vars.apply,from_leave=session.fromdate,to_leave=session.todate,total_day=session.day,reason_for_leave=request.vars.reason,reporting_manager=session.rptmgr)\n\t\t\t\tdb.commit()\n\t\t\t\tleavemail()\n\t\t\telse:\n\t\t\t\tresponse.flash=\'Your Vacation leave is not left\'\n\telse:\n\t\tpass\t\n\treturn dict(algin=algin,images=images)\t\n\n@auth.requires_permission(\'Emp\', \'auth_user\')\t\ndef leavemail():\n    from gluon.tools import Mail\n    mail=Mail()\n    #specify server\n    \n    mail=auth.settings.mailer\n    mail.settings.server=\'smtp.gmail.com:587\'\n    mail.settings.login=\'themisdemo1@gmail.com:123456asdfg\'\n    #specify address to send as\n    mail.settings.sender=\'themisdemo1@gmail.com\'\n    #send the message                             \n    mail.send(to=[session.rptmgr],\n            subject=\'Request for Leave\',\n            message=\'<html>\'\n                        \'<body>\'\n                            \'<span style="font-family: Bodoni MT Ultra Bold;color:  #000000 ;font-size : 18pt;"><b>Themis </span></h1><span style="font-family: Bodoni MT Ultra Bold;color:#C7A317   ;font-size :18pt;"><b>Lexsol</b></span>\'\n                            \n                            \'<p>Dear &nbsp;\'+session.fname+\' applied for leave</p>\'\n                            \'<p>Emp Code &nbsp;\'+session.empcode+\' </p>\'\n                             \'<p>From Date &nbsp;\'+session.fromdate+\' </p>\'\n                              \'<p>To Date &nbsp;\'+session.todate+\' </p>\'\n                               \'<p>Total Day &nbsp;\'+str(session.day)+\' </p>\'\n                            \n                            \'<p></p>\'\n                            \'<center><p>_________________________________________________________</p><p style="color:red;font-size :5pt;">This email comes to you since your company has subcribed for LCM Plus. TO unsubcribed please contact to Themis Lexsol</p></center>\'\n                      \n                        \'</body>\'\n                    \'</html>\'\n                    \n  )\n    response.flash=\'mail send\'\n    redirect(URL(c=\'default\',f=\'emp_leavecalendar\'))\n    return \'\'\t\n\n\t\n@auth.requires_permission(\'Mgr\', \'auth_user\')\t\ndef emp_leave_stat():\n\tfor row in db(db.image.email == auth.user.email).select():\n\t\timages=row.image\n\t\t\n\tllgin=[]\n\tfor log in db(db.employee_login_detail.employee_logout_date==\'Logged in\').select():\n\t\tllgin.append(log.employee_name)\n\tblgin=set(llgin)\n\talgin=list(blgin)\n\templeave=db(db.apply_leave.reporting_manager==auth.user.email).select(db.apply_leave.ALL)\n\treturn dict(algin=algin,images=images,empleave=empleave)\n\t\n@auth.requires_permission(\'Mgr\', \'auth_user\')\t\t\ndef emp_edit_leave():\n\tfor row in db(db.image.email == auth.user.email).select():\n\t\timages=row.image\n\t\t\n\tllgin=[]\n\tfor log in db(db.employee_login_detail.employee_logout_date==\'Logged in\').select():\n\t\tllgin.append(log.employee_name)\n\tblgin=set(llgin)\n\talgin=list(blgin)\n\tfor row in db(db.apply_leave.id==request.args(0)).select():\n\t\tid=row.id\n\t\teid=row.employee_code\n\t\testat=row.status\n\t\teltype=row.leave_type\n\t\tefrom=row.from_leave\n\t\teto=row.to_leave\n\t\tereason=row.reason_for_leave\n\t\tetotday=row.total_day\n\treturn dict(algin=algin,id=id,images=images,eid=eid,estat=estat,eltype=eltype,efrom=efrom,eto=eto,ereason=ereason,etotday=etotday)\n\t\n@auth.requires_permission(\'Mgr\', \'auth_user\')\t\t\ndef emp_approve_leave():\n\tfor row in db(db.apply_leave.id==request.args(0)).select():\n\t\tsession.elmail=row.email\n\t\tsession.eempname=row.name\n\t\tsession.eefrom=row.from_leave\n\t\tsession.eeto=row.to_leave\n\t\tsession.estatus=request.vars.status\n\t\tsession.eltype=row.leave_type\n\t\tsession.etday=row.total_day\n\tif session.estatus == \'Approved\':\n\t\tif session.eltype == \'Casual Leave\':\n\t\t\tfor row in db(db.employee_leave.email==session.elmail).select():\n\t\t\t\ttotday=row.left_casual_leave - session.etday\n\t\t\tdb(db.apply_leave.id==request.args(0)).update(status=session.estatus, approved_by=\'Reporting Manager\')\n\t\t\tdb(db.employee_leave.email==session.elmail).update(taken_casual_leave=session.etday,left_casual_leave=totday)\n\t\t\tdb.commit()\n\t\t\tredirect(URL(c=\'default\', f=\'emp_leave_mail\'))\n\t\telif session.eltype == \'Medical Leave\':\n\t\t\tfor row in db(db.employee_leave.email==session.elmail).select():\n\t\t\t\ttotday=row.left_medical_leave - session.etday\n\t\t\tdb(db.apply_leave.id==request.args(0)).update(status=session.estatus, approved_by=\'Reporting Manager\')\n\t\t\tdb(db.employee_leave.email==session.elmail).update(taken_medical_leave=session.etday,left_medical_leave=totday)\n\t\t\tdb.commit()\n\t\t\tredirect(URL(c=\'default\', f=\'emp_leave_mail\'))\n\t\telif session.eltype == \'Vacation Leave\':\n\t\t\tfor row in db(db.employee_leave.email==session.elmail).select():\n\t\t\t\ttotday=row.left_vacation_leave - session.etday\n\t\t\tdb(db.apply_leave.id==request.args(0)).update(status=session.estatus, approved_by=\'Reporting Manager\')\n\t\t\tdb(db.employee_leave.email==session.elmail).update(taken_vacation_leave=session.etday,left_vacation_leave=totday)\n\t\t\tdb.commit()\n\t\t\tredirect(URL(c=\'default\', f=\'emp_leave_mail\'))\n\t\telse:\n\t\t\tpass\n\telse:\n\t\tdb(db.apply_leave.id==request.args(0)).update(status=session.estatus, approved_by=\'Reporting Manager\')\n\t\tdb.commit()\n\t\tredirect(URL(c=\'default\', f=\'emp_leave_mail\'))\n\treturn \'\'\n\t\n@auth.requires_permission(\'Mgr\', \'auth_user\')\t\ndef emp_leave_mail():\n    from gluon.tools import Mail\n    mail=Mail()\n    #specify server\n    mail=auth.settings.mailer\n    mail.settings.server=\'smtp.gmail.com:587\'\n    mail.settings.login=\'themisdemo1@gmail.com:123456asdfg\'\n    #specify address to send as\n    mail.settings.sender=\'themisdemo1@gmail.com\'\n    #send the message                             \n    mail.send(to=[session.elmail],\n            subject=\'Leave Status\',\n            message=\'<html>\'\n                        \'<body>\'\n                            \'<span style="font-family: Bodoni MT Ultra Bold;color:  #000000 ;font-size : 18pt;"><b>Themis </span></h1><span style="font-family: Bodoni MT Ultra Bold;color:#C7A317   ;font-size :18pt;"><b>Lexsol</b></span>\'\n                            \n                            \'<p>Dear &nbsp;\'+session.eempname+\'</p>\'\n                            \n                            \'<p>I just wanted to drop you a quick message to say Your leave request from \'+str(session.eefrom)+\' to \'+str(session.eeto)+\' is \'+session.estatus+\' If you need help at any time, please contact me by replying to this message. Similarly, if you ever have any questions then please do not hesitate to send me a message or email.</p>\'\n                            \'<center><p>_________________________________________________________</p><p style="color:red;font-size :5pt;">This email comes to you since you are subcribed for HRMS. TO unsubcribed please contact to Themis Lexsol</p></center>\'\n                      \n                        \'</body>\'\n                    \'</html>\'\n                    \n  )\n    redirect(URL(c=\'default\', f=\'emp_cnf_leave\'))\t\n    return \'\'\n    \n@auth.requires_permission(\'Mgr\', \'auth_user\')\t\ndef emp_cnf_leave():\n\tfor row2 in db(db.image.email == auth.user.email).select():\n\t\timages=row2.image\n\t\t\n\tllgin=[]\n\tfor log in db(db.employee_login_detail.employee_logout_date==\'Logged in\').select():\n\t\tllgin.append(log.employee_name)\n\tblgin=set(llgin)\n\talgin=list(blgin)\n\treturn dict(algin=algin,images=images,status=session.estatus,efrom=session.eefrom,eto=session.eeto,empname=session.eempname)\n\t\n@auth.requires_permission(\'Mgr\', \'auth_user\')\ndef emp_edit_leave_status():\n\tfor row2 in db(db.image.email == auth.user.email).select():\n\t\timages=row2.image\n\t\t\n\tllgin=[]\n\tfor log in db(db.employee_login_detail.employee_logout_date==\'Logged in\').select():\n\t\tllgin.append(log.employee_name)\n\tblgin=set(llgin)\n\talgin=list(blgin)\n\tltype=[\'Casual Leave\',\'Medical Leave\',\'Vacation Leave\']\n\tsession.eeleaveid=request.args(0)\n\tfor row in db(db.apply_leave.id==session.eeleaveid).select():\n\t\tecode=row.employee_code\n\t\tname=row.name\n\t\tfle=row.from_leave\n\t\ttle=row.to_leave\n\t\ttday=row.total_day\n\t\trle=row.reason_for_leave\n\t\teltype=row.leave_type\n\treturn dict(algin=algin,ltype=ltype,images=images,ecode=ecode,name=name,fle=fle,tle=tle,tday=tday,rle=rle,eltype=eltype)\n\n@auth.requires_permission(\'Mgr\', \'auth_user\')\t\ndef emp_submit_edit_leave_status():\n\tdb(db.apply_leave.id == session.eeleaveid).update(name=request.vars.name, leave_type=request.vars.ltype, from_leave=request.vars.fleave, to_leave=request.vars.tleave, total_day=request.vars.tday, reason_for_leave=request.vars.rleave)\n\tdb.commit()\n\tredirect(URL(c=\'default\',f=\'emp_leave_stat\'))\n\treturn \'\'\n\n@auth.requires_permission(\'Emp\', \'auth_user\')\ndef user_timesheet():\n\tfor row2 in db(db.image.email == auth.user.email).select():\n\t\timages=row2.image\n\t\t\n\tllgin=[]\n\tfor log in db(db.employee_login_detail.employee_logout_date==\'Logged in\').select():\n\t\tllgin.append(log.employee_name)\n\tblgin=set(llgin)\n\talgin=list(blgin)\n\t\n\tproj=db(db.assign_project.employee==auth.user.email).select(db.project.ALL)\n\treturn dict(images=images,algin=algin,proj=proj)\t\n\n@auth.requires_permission(\'Emp\', \'auth_user\')\t\ndef emp_task():\n\ttsk=[]\n\tfor row in db(db.activity.id == request.vars.pro).select():\n\t\ttsk.append(row.activity)\n\treturn SELECT(_id="tsk",_name="tsk",*[OPTION((act), _value=str (act)) for act in tsk])\n\n@auth.requires_permission(\'Emp\', \'auth_user\')\t\ndef emp_task_timesheet():\n\tfor row in db(db.project.id == request.vars.pro).select():\n\t\tproj=row.project_name\n\tprojtask=request.vars.tsk\n\treturn TABLE([TR("Project:",INPUT(_type="text",id="txt1",_name="proname",_value=proj,_readonly="readonly")),TR("Task:",INPUT(_type="text",_id="txt2",_name="protask",_value=projtask)),TR("Time:",INPUT(_type="text",_id="txt",_name="protime",_value=""))])\n\n@auth.requires_permission(\'Emp\', \'auth_user\')\t\ndef adata():\n\timport datetime\n\tdte=datetime.date.today()\n\tpro=request.vars.proname\n\tfor row1 in db(db.project.project_name==pro).select():\n\t\tclient=row1.client_name\n\t\tfor row2 in db(db.auth_user.id==row1.project_manager).select():\n\t\t\tpromgr=row2.email\n\tptask=request.vars.protask\n\tptime=request.vars.protime\n\tfor row in db(db.auth_user.email==auth.user.email).select():\n\t\trmgr=row.reporting_manager\n\treturn TABLE([TR("Project Name:",INPUT(_type="text",_name="proj",_value=pro,_readonly="readonly")),TR("Client Name:",INPUT(_type="text",_name="client",_value=client,_readonly="readonly")),TR("Reporting Manager:",INPUT(_type="text",_name="rpm",_value=rmgr,_readonly="readonly")),TR("Project Manager:",INPUT(_type="text",_name="pmr",_value=promgr,_readonly="readonly")),TR("Project Task:",INPUT(_type="text",_name="protsk",_value=ptask,_readonly="readonly")),TR("Date:",INPUT(_type="text",_name="dte",_value=dte,_readonly="readonly")),TR("Task Discription:",INPUT(_type="text",_name="tskdisc",_value="")),TR("Total Time:",INPUT(_type="text",_name="tottme",_value=ptime))])\n\t\n@auth.requires_permission(\'Emp\', \'auth_user\')\ndef emp_submit_timesheet():\n\tfor row in db(db.auth_user.email==auth.user.email).select():\n\t\tecode=row.employee_code\n\tdb.activity_tracker.insert(employee_code=ecode,email=auth.user.email,project_name=request.vars.pro,project_task=request.vars.protsk,task_description=request.vars.tskdisc,date=request.vars.dte,total_time=request.vars.tottme,client_name=request.vars.client,company_name=,company_email=,practice_head=,project_manager=)\n\tdb.commit()\n\tredirect(URL(c=\'default\',f=\'user_timesheet\'))\n\treturn dict()\n\n@auth.requires_permission(\'Mgr\', \'auth_user\')\t\ndef emp_activity():\n\tfor row2 in db(db.image.email == auth.user.email).select():\n\t\timages=row2.image\n\tllgin=[]\n\tfor log in db(db.employee_login_detail.employee_logout_date==\'Logged in\').select():\n\t\tllgin.append(log.employee_name)\n\tblgin=set(llgin)\n\talgin=list(blgin)\n\tdb.activity.id.readable = False\n\tform=SQLFORM.grid(db.activity,selectable = lambda ids: emp_del_activity(ids))\n\treturn dict(images=images,form=form,algin=algin)\n\t\n@auth.requires_permission(\'Mgr\', \'auth_user\')\t\ndef emp_del_activity(ids):\n\tif not ids:\n\t\tresponse.flash=\'Please Select the Check-box to Delete\'\n\telse:\n\t\tfor row in ids:\n\t\t\tdb(db.activity.id == row).delete()\n\t\tpass\n\tpass\n\treturn \'\'\n\t\n@auth.requires_permission(\'Mgr\', \'auth_user\')\t\ndef emp_assign_project():\n\tfor row2 in db(db.image.email == auth.user.email).select():\n\t\timages=row2.image\n\tllgin=[]\n\tfor log in db(db.employee_login_detail.employee_logout_date==\'Logged in\').select():\n\t\tllgin.append(log.employee_name)\n\tblgin=set(llgin)\n\talgin=list(blgin)\n\tdb.assign_project.id.readable=False\n\tform=SQLFORM.grid(db.assign_project,create=False,selectable = lambda ids: del_emp_assign_project(ids))\n\treturn dict(images=images,form=form,algin=algin)\n\n@auth.requires_permission(\'Mgr\', \'auth_user\')\t\ndef del_emp_assign_project(ids):\n\tif not ids:\n\t\tresponse.flash=\'Please Select the Check-box to Delete\'\n\telse:\n\t\tfor row in ids:\n\t\t\tdb(db.assign_project.id == row).delete()\n\t\tpass\n\tpass\n\treturn \'\'\n\t\n@auth.requires_permission(\'Mgr\', \'auth_user\')\t\ndef emp_assign_pro():\n\tfor row2 in db(db.image.email == auth.user.email).select():\n\t\timages=row2.image\n\tproj=db().select(db.project.ALL)\n\torzn=db().select(db.add_new_organization.ALL)\n\tdept=db().select(db.add_new_department.ALL)\n\tllgin=[]\n\tfor log in db(db.employee_login_detail.employee_logout_date==\'Logged in\').select():\n\t\tllgin.append(log.employee_name)\n\tblgin=set(llgin)\n\talgin=list(blgin)\n\treturn dict(images=images,proj=proj,orzn=orzn,dept=dept,algin=algin)\n\t\n@auth.requires_permission(\'Mgr\', \'auth_user\')\t\ndef emp_orz():\n\tfor row in db(db.add_new_organization.id == request.vars.orz).select():\n\t\torganization=row.organization_name\n\tfor row1 in db(db.add_new_department.id == request.vars.dp).select():\n\t\tdepartment=row1.department\n\t\n\tusr=[]\n\tfor row in db((db.auth_user.department == department) & (db.auth_user.organization_name == organization)).select():\n\t\tusr.append(row.email)\n\treturn SELECT(_id="usr",_name="usr",*[OPTION((emp), _value=str (emp)) for emp in usr])\n\t\n@auth.requires_permission(\'Mgr\', \'auth_user\')\t\ndef emp_submit_assign_project():\n\tfor row2 in db(db.image.email == auth.user.email).select():\n\t\timages=row2.image\n\tfor row in db(db.add_new_organization.id == request.vars.orz).select():\n\t\torganization=row.organization_name\n\tfor row1 in db(db.add_new_department.id == request.vars.dp).select():\n\t\tdepartment=row1.department\n\tdb.assign_project.insert(project_name=request.vars.pro,organization_name=organization,department=department,employee=request.vars.usr)\n\tdb.commit()\n\tredirect(URL(c=\'default\',f=\'emp_assign_project\'))\n\treturn dict(images=images)\n\nresponse._vars=response._caller(emp_task)\n'
p7
sS'snapshot'
p8
(dp9
S'exception'
p10
(dp11
S'__getslice__'
p12
S"<method-wrapper '__getslice__' of exceptions.SyntaxError object>"
p13
sS'text'
p14
S"'\\tdb.activity_tracker.insert(employee_code=ecode,...,company_email=,practice_head=,project_manager=)\\n'"
p15
sS'__str__'
p16
S"<method-wrapper '__str__' of exceptions.SyntaxError object>"
p17
sS'__reduce__'
p18
S'<built-in method __reduce__ of exceptions.SyntaxError object>'
p19
sS'__dict__'
p20
S'{}'
p21
sS'__sizeof__'
p22
S'<built-in method __sizeof__ of exceptions.SyntaxError object>'
p23
sS'__init__'
p24
S"<method-wrapper '__init__' of exceptions.SyntaxError object>"
p25
sS'__setattr__'
p26
S"<method-wrapper '__setattr__' of exceptions.SyntaxError object>"
p27
sS'__reduce_ex__'
p28
S'<built-in method __reduce_ex__ of exceptions.SyntaxError object>'
p29
sS'__new__'
p30
S'<built-in method __new__ of type object>'
p31
sS'__format__'
p32
S'<built-in method __format__ of exceptions.SyntaxError object>'
p33
sS'__class__'
p34
S"<type 'exceptions.SyntaxError'>"
p35
sS'filename'
p36
S"'/home/tls-sanjeet/Desktop/HRMS/web2py/applications/themishrms/controllers/default.py'"
p37
sS'lineno'
p38
S'1425'
p39
sS'msg'
p40
S"'invalid syntax'"
p41
sS'__doc__'
p42
S"'Invalid syntax.'"
p43
sS'__getitem__'
p44
S"<method-wrapper '__getitem__' of exceptions.SyntaxError object>"
p45
sS'__setstate__'
p46
S'<built-in method __setstate__ of exceptions.SyntaxError object>'
p47
sS'__getattribute__'
p48
S"<method-wrapper '__getattribute__' of exceptions.SyntaxError object>"
p49
sS'print_file_and_line'
p50
S'None'
p51
sS'args'
p52
S"('invalid syntax', ('/home/tls-sanjeet/Desktop/HRMS/web2py/applications/themishrms/controllers/default.py', 1425, 270, '\\tdb.activity_tracker.insert(employee_code=ecode,...,company_email=,practice_head=,project_manager=)\\n'))"
p53
sS'__subclasshook__'
p54
S'<built-in method __subclasshook__ of type object>'
p55
sS'offset'
p56
S'270'
p57
sS'__unicode__'
p58
S'<built-in method __unicode__ of exceptions.SyntaxError object>'
p59
sS'__delattr__'
p60
S"<method-wrapper '__delattr__' of exceptions.SyntaxError object>"
p61
sS'__repr__'
p62
S"<method-wrapper '__repr__' of exceptions.SyntaxError object>"
p63
sS'__hash__'
p64
S"<method-wrapper '__hash__' of exceptions.SyntaxError object>"
p65
ssS'evalue'
p66
S'invalid syntax (default.py, line 1425)'
p67
sS'request'
p68
ccopy_reg
_reconstructor
p69
(cgluon.html
BEAUTIFY
p70
c__builtin__
object
p71
NtRp72
(dp73
S'attributes'
p74
(dp75
sS'components'
p76
(lp77
g69
(cgluon.html
TABLE
p78
g71
NtRp79
(dp80
g74
(dp81
S'level'
p82
I5
ssS'parent'
p83
Nsg76
(lp84
g69
(cgluon.html
TR
p85
g71
NtRp86
(dp87
g74
(dp88
sg83
g79
sg76
(lp89
g69
(cgluon.html
TD
p90
g71
NtRp91
(dp92
g74
(dp93
S'_style'
p94
S'font-weight:bold;vertical-align:top'
p95
ssg83
g86
sg76
(lp96
S'ajax'
p97
asbag69
(g90
g71
NtRp98
(dp99
g74
(dp100
S'_valign'
p101
S'top'
p102
ssg83
g86
sg76
(lp103
S':'
asbag69
(g90
g71
NtRp104
(dp105
g74
(dp106
sg83
g86
sg76
(lp107
g69
(g70
g71
NtRp108
(dp109
g74
(dp110
g82
I5
ssg83
g104
sg76
(lp111
S'True'
p112
asbasbasbag69
(g85
g71
NtRp113
(dp114
g74
(dp115
sg83
g79
sg76
(lp116
g69
(g90
g71
NtRp117
(dp118
g74
(dp119
g94
g95
ssg83
g113
sg76
(lp120
S'application'
p121
asbag69
(g90
g71
NtRp122
(dp123
g74
(dp124
g101
g102
ssg83
g113
sg76
(lp125
S':'
asbag69
(g90
g71
NtRp126
(dp127
g74
(dp128
sg83
g113
sg76
(lp129
g69
(g70
g71
NtRp130
(dp131
g74
(dp132
g82
I5
ssg83
g126
sg76
(lp133
S'themishrms'
p134
asbasbasbag69
(g85
g71
NtRp135
(dp136
g74
(dp137
sg83
g79
sg76
(lp138
g69
(g90
g71
NtRp139
(dp140
g74
(dp141
g94
g95
ssg83
g135
sg76
(lp142
g52
asbag69
(g90
g71
NtRp143
(dp144
g74
(dp145
g101
g102
ssg83
g135
sg76
(lp146
S':'
asbag69
(g90
g71
NtRp147
(dp148
g74
(dp149
sg83
g135
sg76
(lp150
g69
(g70
g71
NtRp151
(dp152
g74
(dp153
g82
I5
ssg83
g147
sg76
(lp154
g69
(g78
g71
NtRp155
(dp156
g74
(dp157
g82
I4
ssg83
Nsg76
(lp158
sbasbasbasbag69
(g85
g71
NtRp159
(dp160
g74
(dp161
sg83
g79
sg76
(lp162
g69
(g90
g71
NtRp163
(dp164
g74
(dp165
g94
g95
ssg83
g159
sg76
(lp166
S'body'
p167
asbag69
(g90
g71
NtRp168
(dp169
g74
(dp170
g101
g102
ssg83
g159
sg76
(lp171
S':'
asbag69
(g90
g71
NtRp172
(dp173
g74
(dp174
sg83
g159
sg76
(lp175
g69
(g70
g71
NtRp176
(dp177
g74
(dp178
g82
I5
ssg83
g172
sg76
(lp179
S"<open file '<fdopen>', mode 'w+b' at 0x979fb78>"
p180
asbasbasbag69
(g85
g71
NtRp181
(dp182
g74
(dp183
sg83
g79
sg76
(lp184
g69
(g90
g71
NtRp185
(dp186
g74
(dp187
g94
g95
ssg83
g181
sg76
(lp188
S'client'
p189
asbag69
(g90
g71
NtRp190
(dp191
g74
(dp192
g101
g102
ssg83
g181
sg76
(lp193
S':'
asbag69
(g90
g71
NtRp194
(dp195
g74
(dp196
sg83
g181
sg76
(lp197
g69
(g70
g71
NtRp198
(dp199
g74
(dp200
g82
I5
ssg83
g194
sg76
(lp201
S'127.0.0.1'
p202
asbasbasbag69
(g85
g71
NtRp203
(dp204
g74
(dp205
sg83
g79
sg76
(lp206
g69
(g90
g71
NtRp207
(dp208
g74
(dp209
g94
g95
ssg83
g203
sg76
(lp210
S'controller'
p211
asbag69
(g90
g71
NtRp212
(dp213
g74
(dp214
g101
g102
ssg83
g203
sg76
(lp215
S':'
asbag69
(g90
g71
NtRp216
(dp217
g74
(dp218
sg83
g203
sg76
(lp219
g69
(g70
g71
NtRp220
(dp221
g74
(dp222
g82
I5
ssg83
g216
sg76
(lp223
S'default'
p224
asbasbasbag69
(g85
g71
NtRp225
(dp226
g74
(dp227
sg83
g79
sg76
(lp228
g69
(g90
g71
NtRp229
(dp230
g74
(dp231
g94
g95
ssg83
g225
sg76
(lp232
S'cookies'
p233
asbag69
(g90
g71
NtRp234
(dp235
g74
(dp236
g101
g102
ssg83
g225
sg76
(lp237
S':'
asbag69
(g90
g71
NtRp238
(dp239
g74
(dp240
sg83
g225
sg76
(lp241
g69
(g70
g71
NtRp242
(dp243
g74
(dp244
g82
I5
ssg83
g238
sg76
(lp245
g69
(g78
g71
NtRp246
(dp247
g74
(dp248
g82
I4
ssg83
Nsg76
(lp249
g69
(g85
g71
NtRp250
(dp251
g74
(dp252
sg83
g246
sg76
(lp253
g69
(g90
g71
NtRp254
(dp255
g74
(dp256
g94
g95
ssg83
g250
sg76
(lp257
S'mypanel'
p258
asbag69
(g90
g71
NtRp259
(dp260
g74
(dp261
g101
g102
ssg83
g250
sg76
(lp262
S':'
asbag69
(g90
g71
NtRp263
(dp264
g74
(dp265
sg83
g250
sg76
(lp266
g69
(g70
g71
NtRp267
(dp268
g74
(dp269
g82
I4
ssg83
g263
sg76
(lp270
g69
(g78
g71
NtRp271
(dp272
g74
(dp273
g82
I3
ssg83
Nsg76
(lp274
g69
(g85
g71
NtRp275
(dp276
g74
(dp277
sg83
g271
sg76
(lp278
g69
(g90
g71
NtRp279
(dp280
g74
(dp281
g94
g95
ssg83
g275
sg76
(lp282
S'comment'
p283
asbag69
(g90
g71
NtRp284
(dp285
g74
(dp286
g101
g102
ssg83
g275
sg76
(lp287
S':'
asbag69
(g90
g71
NtRp288
(dp289
g74
(dp290
sg83
g275
sg76
(lp291
g69
(g70
g71
NtRp292
(dp293
g74
(dp294
g82
I3
ssg83
g288
sg76
(lp295
S''
asbasbasbag69
(g85
g71
NtRp296
(dp297
g74
(dp298
sg83
g271
sg76
(lp299
g69
(g90
g71
NtRp300
(dp301
g74
(dp302
g94
g95
ssg83
g296
sg76
(lp303
S'domain'
p304
asbag69
(g90
g71
NtRp305
(dp306
g74
(dp307
g101
g102
ssg83
g296
sg76
(lp308
S':'
asbag69
(g90
g71
NtRp309
(dp310
g74
(dp311
sg83
g296
sg76
(lp312
g69
(g70
g71
NtRp313
(dp314
g74
(dp315
g82
I3
ssg83
g309
sg76
(lp316
S''
asbasbasbag69
(g85
g71
NtRp317
(dp318
g74
(dp319
sg83
g271
sg76
(lp320
g69
(g90
g71
NtRp321
(dp322
g74
(dp323
g94
g95
ssg83
g317
sg76
(lp324
S'expires'
p325
asbag69
(g90
g71
NtRp326
(dp327
g74
(dp328
g101
g102
ssg83
g317
sg76
(lp329
S':'
asbag69
(g90
g71
NtRp330
(dp331
g74
(dp332
sg83
g317
sg76
(lp333
g69
(g70
g71
NtRp334
(dp335
g74
(dp336
g82
I3
ssg83
g330
sg76
(lp337
S''
asbasbasbag69
(g85
g71
NtRp338
(dp339
g74
(dp340
sg83
g271
sg76
(lp341
g69
(g90
g71
NtRp342
(dp343
g74
(dp344
g94
g95
ssg83
g338
sg76
(lp345
S'httponly'
p346
asbag69
(g90
g71
NtRp347
(dp348
g74
(dp349
g101
g102
ssg83
g338
sg76
(lp350
S':'
asbag69
(g90
g71
NtRp351
(dp352
g74
(dp353
sg83
g338
sg76
(lp354
g69
(g70
g71
NtRp355
(dp356
g74
(dp357
g82
I3
ssg83
g351
sg76
(lp358
S''
asbasbasbag69
(g85
g71
NtRp359
(dp360
g74
(dp361
sg83
g271
sg76
(lp362
g69
(g90
g71
NtRp363
(dp364
g74
(dp365
g94
g95
ssg83
g359
sg76
(lp366
S'max-age'
p367
asbag69
(g90
g71
NtRp368
(dp369
g74
(dp370
g101
g102
ssg83
g359
sg76
(lp371
S':'
asbag69
(g90
g71
NtRp372
(dp373
g74
(dp374
sg83
g359
sg76
(lp375
g69
(g70
g71
NtRp376
(dp377
g74
(dp378
g82
I3
ssg83
g372
sg76
(lp379
S''
asbasbasbag69
(g85
g71
NtRp380
(dp381
g74
(dp382
sg83
g271
sg76
(lp383
g69
(g90
g71
NtRp384
(dp385
g74
(dp386
g94
g95
ssg83
g380
sg76
(lp387
S'path'
p388
asbag69
(g90
g71
NtRp389
(dp390
g74
(dp391
g101
g102
ssg83
g380
sg76
(lp392
S':'
asbag69
(g90
g71
NtRp393
(dp394
g74
(dp395
sg83
g380
sg76
(lp396
g69
(g70
g71
NtRp397
(dp398
g74
(dp399
g82
I3
ssg83
g393
sg76
(lp400
S''
asbasbasbag69
(g85
g71
NtRp401
(dp402
g74
(dp403
sg83
g271
sg76
(lp404
g69
(g90
g71
NtRp405
(dp406
g74
(dp407
g94
g95
ssg83
g401
sg76
(lp408
S'secure'
p409
asbag69
(g90
g71
NtRp410
(dp411
g74
(dp412
g101
g102
ssg83
g401
sg76
(lp413
S':'
asbag69
(g90
g71
NtRp414
(dp415
g74
(dp416
sg83
g401
sg76
(lp417
g69
(g70
g71
NtRp418
(dp419
g74
(dp420
g82
I3
ssg83
g414
sg76
(lp421
S''
asbasbasbag69
(g85
g71
NtRp422
(dp423
g74
(dp424
sg83
g271
sg76
(lp425
g69
(g90
g71
NtRp426
(dp427
g74
(dp428
g94
g95
ssg83
g422
sg76
(lp429
S'version'
p430
asbag69
(g90
g71
NtRp431
(dp432
g74
(dp433
g101
g102
ssg83
g422
sg76
(lp434
S':'
asbag69
(g90
g71
NtRp435
(dp436
g74
(dp437
sg83
g422
sg76
(lp438
g69
(g70
g71
NtRp439
(dp440
g74
(dp441
g82
I3
ssg83
g435
sg76
(lp442
S''
asbasbasbasbasbasbasbag69
(g85
g71
NtRp443
(dp444
g74
(dp445
sg83
g246
sg76
(lp446
g69
(g90
g71
NtRp447
(dp448
g74
(dp449
g94
g95
ssg83
g443
sg76
(lp450
S'session_id_admin'
p451
asbag69
(g90
g71
NtRp452
(dp453
g74
(dp454
g101
g102
ssg83
g443
sg76
(lp455
S':'
asbag69
(g90
g71
NtRp456
(dp457
g74
(dp458
sg83
g443
sg76
(lp459
g69
(g70
g71
NtRp460
(dp461
g74
(dp462
g82
I4
ssg83
g456
sg76
(lp463
g69
(g78
g71
NtRp464
(dp465
g74
(dp466
g82
I3
ssg83
Nsg76
(lp467
g69
(g85
g71
NtRp468
(dp469
g74
(dp470
sg83
g464
sg76
(lp471
g69
(g90
g71
NtRp472
(dp473
g74
(dp474
g94
g95
ssg83
g468
sg76
(lp475
g283
asbag69
(g90
g71
NtRp476
(dp477
g74
(dp478
g101
g102
ssg83
g468
sg76
(lp479
S':'
asbag69
(g90
g71
NtRp480
(dp481
g74
(dp482
sg83
g468
sg76
(lp483
g69
(g70
g71
NtRp484
(dp485
g74
(dp486
g82
I3
ssg83
g480
sg76
(lp487
S''
asbasbasbag69
(g85
g71
NtRp488
(dp489
g74
(dp490
sg83
g464
sg76
(lp491
g69
(g90
g71
NtRp492
(dp493
g74
(dp494
g94
g95
ssg83
g488
sg76
(lp495
g304
asbag69
(g90
g71
NtRp496
(dp497
g74
(dp498
g101
g102
ssg83
g488
sg76
(lp499
S':'
asbag69
(g90
g71
NtRp500
(dp501
g74
(dp502
sg83
g488
sg76
(lp503
g69
(g70
g71
NtRp504
(dp505
g74
(dp506
g82
I3
ssg83
g500
sg76
(lp507
S''
asbasbasbag69
(g85
g71
NtRp508
(dp509
g74
(dp510
sg83
g464
sg76
(lp511
g69
(g90
g71
NtRp512
(dp513
g74
(dp514
g94
g95
ssg83
g508
sg76
(lp515
g325
asbag69
(g90
g71
NtRp516
(dp517
g74
(dp518
g101
g102
ssg83
g508
sg76
(lp519
S':'
asbag69
(g90
g71
NtRp520
(dp521
g74
(dp522
sg83
g508
sg76
(lp523
g69
(g70
g71
NtRp524
(dp525
g74
(dp526
g82
I3
ssg83
g520
sg76
(lp527
S''
asbasbasbag69
(g85
g71
NtRp528
(dp529
g74
(dp530
sg83
g464
sg76
(lp531
g69
(g90
g71
NtRp532
(dp533
g74
(dp534
g94
g95
ssg83
g528
sg76
(lp535
g346
asbag69
(g90
g71
NtRp536
(dp537
g74
(dp538
g101
g102
ssg83
g528
sg76
(lp539
S':'
asbag69
(g90
g71
NtRp540
(dp541
g74
(dp542
sg83
g528
sg76
(lp543
g69
(g70
g71
NtRp544
(dp545
g74
(dp546
g82
I3
ssg83
g540
sg76
(lp547
S''
asbasbasbag69
(g85
g71
NtRp548
(dp549
g74
(dp550
sg83
g464
sg76
(lp551
g69
(g90
g71
NtRp552
(dp553
g74
(dp554
g94
g95
ssg83
g548
sg76
(lp555
g367
asbag69
(g90
g71
NtRp556
(dp557
g74
(dp558
g101
g102
ssg83
g548
sg76
(lp559
S':'
asbag69
(g90
g71
NtRp560
(dp561
g74
(dp562
sg83
g548
sg76
(lp563
g69
(g70
g71
NtRp564
(dp565
g74
(dp566
g82
I3
ssg83
g560
sg76
(lp567
S''
asbasbasbag69
(g85
g71
NtRp568
(dp569
g74
(dp570
sg83
g464
sg76
(lp571
g69
(g90
g71
NtRp572
(dp573
g74
(dp574
g94
g95
ssg83
g568
sg76
(lp575
g388
asbag69
(g90
g71
NtRp576
(dp577
g74
(dp578
g101
g102
ssg83
g568
sg76
(lp579
S':'
asbag69
(g90
g71
NtRp580
(dp581
g74
(dp582
sg83
g568
sg76
(lp583
g69
(g70
g71
NtRp584
(dp585
g74
(dp586
g82
I3
ssg83
g580
sg76
(lp587
S''
asbasbasbag69
(g85
g71
NtRp588
(dp589
g74
(dp590
sg83
g464
sg76
(lp591
g69
(g90
g71
NtRp592
(dp593
g74
(dp594
g94
g95
ssg83
g588
sg76
(lp595
g409
asbag69
(g90
g71
NtRp596
(dp597
g74
(dp598
g101
g102
ssg83
g588
sg76
(lp599
S':'
asbag69
(g90
g71
NtRp600
(dp601
g74
(dp602
sg83
g588
sg76
(lp603
g69
(g70
g71
NtRp604
(dp605
g74
(dp606
g82
I3
ssg83
g600
sg76
(lp607
S''
asbasbasbag69
(g85
g71
NtRp608
(dp609
g74
(dp610
sg83
g464
sg76
(lp611
g69
(g90
g71
NtRp612
(dp613
g74
(dp614
g94
g95
ssg83
g608
sg76
(lp615
g430
asbag69
(g90
g71
NtRp616
(dp617
g74
(dp618
g101
g102
ssg83
g608
sg76
(lp619
S':'
asbag69
(g90
g71
NtRp620
(dp621
g74
(dp622
sg83
g608
sg76
(lp623
g69
(g70
g71
NtRp624
(dp625
g74
(dp626
g82
I3
ssg83
g620
sg76
(lp627
S''
asbasbasbasbasbasbasbag69
(g85
g71
NtRp628
(dp629
g74
(dp630
sg83
g246
sg76
(lp631
g69
(g90
g71
NtRp632
(dp633
g74
(dp634
g94
g95
ssg83
g628
sg76
(lp635
S'session_id_themishrms'
p636
asbag69
(g90
g71
NtRp637
(dp638
g74
(dp639
g101
g102
ssg83
g628
sg76
(lp640
S':'
asbag69
(g90
g71
NtRp641
(dp642
g74
(dp643
sg83
g628
sg76
(lp644
g69
(g70
g71
NtRp645
(dp646
g74
(dp647
g82
I4
ssg83
g641
sg76
(lp648
g69
(g78
g71
NtRp649
(dp650
g74
(dp651
g82
I3
ssg83
Nsg76
(lp652
g69
(g85
g71
NtRp653
(dp654
g74
(dp655
sg83
g649
sg76
(lp656
g69
(g90
g71
NtRp657
(dp658
g74
(dp659
g94
g95
ssg83
g653
sg76
(lp660
g283
asbag69
(g90
g71
NtRp661
(dp662
g74
(dp663
g101
g102
ssg83
g653
sg76
(lp664
S':'
asbag69
(g90
g71
NtRp665
(dp666
g74
(dp667
sg83
g653
sg76
(lp668
g69
(g70
g71
NtRp669
(dp670
g74
(dp671
g82
I3
ssg83
g665
sg76
(lp672
S''
asbasbasbag69
(g85
g71
NtRp673
(dp674
g74
(dp675
sg83
g649
sg76
(lp676
g69
(g90
g71
NtRp677
(dp678
g74
(dp679
g94
g95
ssg83
g673
sg76
(lp680
g304
asbag69
(g90
g71
NtRp681
(dp682
g74
(dp683
g101
g102
ssg83
g673
sg76
(lp684
S':'
asbag69
(g90
g71
NtRp685
(dp686
g74
(dp687
sg83
g673
sg76
(lp688
g69
(g70
g71
NtRp689
(dp690
g74
(dp691
g82
I3
ssg83
g685
sg76
(lp692
S''
asbasbasbag69
(g85
g71
NtRp693
(dp694
g74
(dp695
sg83
g649
sg76
(lp696
g69
(g90
g71
NtRp697
(dp698
g74
(dp699
g94
g95
ssg83
g693
sg76
(lp700
g325
asbag69
(g90
g71
NtRp701
(dp702
g74
(dp703
g101
g102
ssg83
g693
sg76
(lp704
S':'
asbag69
(g90
g71
NtRp705
(dp706
g74
(dp707
sg83
g693
sg76
(lp708
g69
(g70
g71
NtRp709
(dp710
g74
(dp711
g82
I3
ssg83
g705
sg76
(lp712
S''
asbasbasbag69
(g85
g71
NtRp713
(dp714
g74
(dp715
sg83
g649
sg76
(lp716
g69
(g90
g71
NtRp717
(dp718
g74
(dp719
g94
g95
ssg83
g713
sg76
(lp720
g346
asbag69
(g90
g71
NtRp721
(dp722
g74
(dp723
g101
g102
ssg83
g713
sg76
(lp724
S':'
asbag69
(g90
g71
NtRp725
(dp726
g74
(dp727
sg83
g713
sg76
(lp728
g69
(g70
g71
NtRp729
(dp730
g74
(dp731
g82
I3
ssg83
g725
sg76
(lp732
S''
asbasbasbag69
(g85
g71
NtRp733
(dp734
g74
(dp735
sg83
g649
sg76
(lp736
g69
(g90
g71
NtRp737
(dp738
g74
(dp739
g94
g95
ssg83
g733
sg76
(lp740
g367
asbag69
(g90
g71
NtRp741
(dp742
g74
(dp743
g101
g102
ssg83
g733
sg76
(lp744
S':'
asbag69
(g90
g71
NtRp745
(dp746
g74
(dp747
sg83
g733
sg76
(lp748
g69
(g70
g71
NtRp749
(dp750
g74
(dp751
g82
I3
ssg83
g745
sg76
(lp752
S''
asbasbasbag69
(g85
g71
NtRp753
(dp754
g74
(dp755
sg83
g649
sg76
(lp756
g69
(g90
g71
NtRp757
(dp758
g74
(dp759
g94
g95
ssg83
g753
sg76
(lp760
g388
asbag69
(g90
g71
NtRp761
(dp762
g74
(dp763
g101
g102
ssg83
g753
sg76
(lp764
S':'
asbag69
(g90
g71
NtRp765
(dp766
g74
(dp767
sg83
g753
sg76
(lp768
g69
(g70
g71
NtRp769
(dp770
g74
(dp771
g82
I3
ssg83
g765
sg76
(lp772
S''
asbasbasbag69
(g85
g71
NtRp773
(dp774
g74
(dp775
sg83
g649
sg76
(lp776
g69
(g90
g71
NtRp777
(dp778
g74
(dp779
g94
g95
ssg83
g773
sg76
(lp780
g409
asbag69
(g90
g71
NtRp781
(dp782
g74
(dp783
g101
g102
ssg83
g773
sg76
(lp784
S':'
asbag69
(g90
g71
NtRp785
(dp786
g74
(dp787
sg83
g773
sg76
(lp788
g69
(g70
g71
NtRp789
(dp790
g74
(dp791
g82
I3
ssg83
g785
sg76
(lp792
S''
asbasbasbag69
(g85
g71
NtRp793
(dp794
g74
(dp795
sg83
g649
sg76
(lp796
g69
(g90
g71
NtRp797
(dp798
g74
(dp799
g94
g95
ssg83
g793
sg76
(lp800
g430
asbag69
(g90
g71
NtRp801
(dp802
g74
(dp803
g101
g102
ssg83
g793
sg76
(lp804
S':'
asbag69
(g90
g71
NtRp805
(dp806
g74
(dp807
sg83
g793
sg76
(lp808
g69
(g70
g71
NtRp809
(dp810
g74
(dp811
g82
I3
ssg83
g805
sg76
(lp812
S''
asbasbasbasbasbasbasbag69
(g85
g71
NtRp813
(dp814
g74
(dp815
sg83
g246
sg76
(lp816
g69
(g90
g71
NtRp817
(dp818
g74
(dp819
g94
g95
ssg83
g813
sg76
(lp820
S'session_id_welcome'
p821
asbag69
(g90
g71
NtRp822
(dp823
g74
(dp824
g101
g102
ssg83
g813
sg76
(lp825
S':'
asbag69
(g90
g71
NtRp826
(dp827
g74
(dp828
sg83
g813
sg76
(lp829
g69
(g70
g71
NtRp830
(dp831
g74
(dp832
g82
I4
ssg83
g826
sg76
(lp833
g69
(g78
g71
NtRp834
(dp835
g74
(dp836
g82
I3
ssg83
Nsg76
(lp837
g69
(g85
g71
NtRp838
(dp839
g74
(dp840
sg83
g834
sg76
(lp841
g69
(g90
g71
NtRp842
(dp843
g74
(dp844
g94
g95
ssg83
g838
sg76
(lp845
g283
asbag69
(g90
g71
NtRp846
(dp847
g74
(dp848
g101
g102
ssg83
g838
sg76
(lp849
S':'
asbag69
(g90
g71
NtRp850
(dp851
g74
(dp852
sg83
g838
sg76
(lp853
g69
(g70
g71
NtRp854
(dp855
g74
(dp856
g82
I3
ssg83
g850
sg76
(lp857
S''
asbasbasbag69
(g85
g71
NtRp858
(dp859
g74
(dp860
sg83
g834
sg76
(lp861
g69
(g90
g71
NtRp862
(dp863
g74
(dp864
g94
g95
ssg83
g858
sg76
(lp865
g304
asbag69
(g90
g71
NtRp866
(dp867
g74
(dp868
g101
g102
ssg83
g858
sg76
(lp869
S':'
asbag69
(g90
g71
NtRp870
(dp871
g74
(dp872
sg83
g858
sg76
(lp873
g69
(g70
g71
NtRp874
(dp875
g74
(dp876
g82
I3
ssg83
g870
sg76
(lp877
S''
asbasbasbag69
(g85
g71
NtRp878
(dp879
g74
(dp880
sg83
g834
sg76
(lp881
g69
(g90
g71
NtRp882
(dp883
g74
(dp884
g94
g95
ssg83
g878
sg76
(lp885
g325
asbag69
(g90
g71
NtRp886
(dp887
g74
(dp888
g101
g102
ssg83
g878
sg76
(lp889
S':'
asbag69
(g90
g71
NtRp890
(dp891
g74
(dp892
sg83
g878
sg76
(lp893
g69
(g70
g71
NtRp894
(dp895
g74
(dp896
g82
I3
ssg83
g890
sg76
(lp897
S''
asbasbasbag69
(g85
g71
NtRp898
(dp899
g74
(dp900
sg83
g834
sg76
(lp901
g69
(g90
g71
NtRp902
(dp903
g74
(dp904
g94
g95
ssg83
g898
sg76
(lp905
g346
asbag69
(g90
g71
NtRp906
(dp907
g74
(dp908
g101
g102
ssg83
g898
sg76
(lp909
S':'
asbag69
(g90
g71
NtRp910
(dp911
g74
(dp912
sg83
g898
sg76
(lp913
g69
(g70
g71
NtRp914
(dp915
g74
(dp916
g82
I3
ssg83
g910
sg76
(lp917
S''
asbasbasbag69
(g85
g71
NtRp918
(dp919
g74
(dp920
sg83
g834
sg76
(lp921
g69
(g90
g71
NtRp922
(dp923
g74
(dp924
g94
g95
ssg83
g918
sg76
(lp925
g367
asbag69
(g90
g71
NtRp926
(dp927
g74
(dp928
g101
g102
ssg83
g918
sg76
(lp929
S':'
asbag69
(g90
g71
NtRp930
(dp931
g74
(dp932
sg83
g918
sg76
(lp933
g69
(g70
g71
NtRp934
(dp935
g74
(dp936
g82
I3
ssg83
g930
sg76
(lp937
S''
asbasbasbag69
(g85
g71
NtRp938
(dp939
g74
(dp940
sg83
g834
sg76
(lp941
g69
(g90
g71
NtRp942
(dp943
g74
(dp944
g94
g95
ssg83
g938
sg76
(lp945
g388
asbag69
(g90
g71
NtRp946
(dp947
g74
(dp948
g101
g102
ssg83
g938
sg76
(lp949
S':'
asbag69
(g90
g71
NtRp950
(dp951
g74
(dp952
sg83
g938
sg76
(lp953
g69
(g70
g71
NtRp954
(dp955
g74
(dp956
g82
I3
ssg83
g950
sg76
(lp957
S''
asbasbasbag69
(g85
g71
NtRp958
(dp959
g74
(dp960
sg83
g834
sg76
(lp961
g69
(g90
g71
NtRp962
(dp963
g74
(dp964
g94
g95
ssg83
g958
sg76
(lp965
g409
asbag69
(g90
g71
NtRp966
(dp967
g74
(dp968
g101
g102
ssg83
g958
sg76
(lp969
S':'
asbag69
(g90
g71
NtRp970
(dp971
g74
(dp972
sg83
g958
sg76
(lp973
g69
(g70
g71
NtRp974
(dp975
g74
(dp976
g82
I3
ssg83
g970
sg76
(lp977
S''
asbasbasbag69
(g85
g71
NtRp978
(dp979
g74
(dp980
sg83
g834
sg76
(lp981
g69
(g90
g71
NtRp982
(dp983
g74
(dp984
g94
g95
ssg83
g978
sg76
(lp985
g430
asbag69
(g90
g71
NtRp986
(dp987
g74
(dp988
g101
g102
ssg83
g978
sg76
(lp989
S':'
asbag69
(g90
g71
NtRp990
(dp991
g74
(dp992
sg83
g978
sg76
(lp993
g69
(g70
g71
NtRp994
(dp995
g74
(dp996
g82
I3
ssg83
g990
sg76
(lp997
S''
asbasbasbasbasbasbasbag69
(g85
g71
NtRp998
(dp999
g74
(dp1000
sg83
g246
sg76
(lp1001
g69
(g90
g71
NtRp1002
(dp1003
g74
(dp1004
g94
g95
ssg83
g998
sg76
(lp1005
S'tls'
p1006
asbag69
(g90
g71
NtRp1007
(dp1008
g74
(dp1009
g101
g102
ssg83
g998
sg76
(lp1010
S':'
asbag69
(g90
g71
NtRp1011
(dp1012
g74
(dp1013
sg83
g998
sg76
(lp1014
g69
(g70
g71
NtRp1015
(dp1016
g74
(dp1017
g82
I4
ssg83
g1011
sg76
(lp1018
g69
(g78
g71
NtRp1019
(dp1020
g74
(dp1021
g82
I3
ssg83
Nsg76
(lp1022
g69
(g85
g71
NtRp1023
(dp1024
g74
(dp1025
sg83
g1019
sg76
(lp1026
g69
(g90
g71
NtRp1027
(dp1028
g74
(dp1029
g94
g95
ssg83
g1023
sg76
(lp1030
g283
asbag69
(g90
g71
NtRp1031
(dp1032
g74
(dp1033
g101
g102
ssg83
g1023
sg76
(lp1034
S':'
asbag69
(g90
g71
NtRp1035
(dp1036
g74
(dp1037
sg83
g1023
sg76
(lp1038
g69
(g70
g71
NtRp1039
(dp1040
g74
(dp1041
g82
I3
ssg83
g1035
sg76
(lp1042
S''
asbasbasbag69
(g85
g71
NtRp1043
(dp1044
g74
(dp1045
sg83
g1019
sg76
(lp1046
g69
(g90
g71
NtRp1047
(dp1048
g74
(dp1049
g94
g95
ssg83
g1043
sg76
(lp1050
g304
asbag69
(g90
g71
NtRp1051
(dp1052
g74
(dp1053
g101
g102
ssg83
g1043
sg76
(lp1054
S':'
asbag69
(g90
g71
NtRp1055
(dp1056
g74
(dp1057
sg83
g1043
sg76
(lp1058
g69
(g70
g71
NtRp1059
(dp1060
g74
(dp1061
g82
I3
ssg83
g1055
sg76
(lp1062
S''
asbasbasbag69
(g85
g71
NtRp1063
(dp1064
g74
(dp1065
sg83
g1019
sg76
(lp1066
g69
(g90
g71
NtRp1067
(dp1068
g74
(dp1069
g94
g95
ssg83
g1063
sg76
(lp1070
g325
asbag69
(g90
g71
NtRp1071
(dp1072
g74
(dp1073
g101
g102
ssg83
g1063
sg76
(lp1074
S':'
asbag69
(g90
g71
NtRp1075
(dp1076
g74
(dp1077
sg83
g1063
sg76
(lp1078
g69
(g70
g71
NtRp1079
(dp1080
g74
(dp1081
g82
I3
ssg83
g1075
sg76
(lp1082
S''
asbasbasbag69
(g85
g71
NtRp1083
(dp1084
g74
(dp1085
sg83
g1019
sg76
(lp1086
g69
(g90
g71
NtRp1087
(dp1088
g74
(dp1089
g94
g95
ssg83
g1083
sg76
(lp1090
g346
asbag69
(g90
g71
NtRp1091
(dp1092
g74
(dp1093
g101
g102
ssg83
g1083
sg76
(lp1094
S':'
asbag69
(g90
g71
NtRp1095
(dp1096
g74
(dp1097
sg83
g1083
sg76
(lp1098
g69
(g70
g71
NtRp1099
(dp1100
g74
(dp1101
g82
I3
ssg83
g1095
sg76
(lp1102
S''
asbasbasbag69
(g85
g71
NtRp1103
(dp1104
g74
(dp1105
sg83
g1019
sg76
(lp1106
g69
(g90
g71
NtRp1107
(dp1108
g74
(dp1109
g94
g95
ssg83
g1103
sg76
(lp1110
g367
asbag69
(g90
g71
NtRp1111
(dp1112
g74
(dp1113
g101
g102
ssg83
g1103
sg76
(lp1114
S':'
asbag69
(g90
g71
NtRp1115
(dp1116
g74
(dp1117
sg83
g1103
sg76
(lp1118
g69
(g70
g71
NtRp1119
(dp1120
g74
(dp1121
g82
I3
ssg83
g1115
sg76
(lp1122
S''
asbasbasbag69
(g85
g71
NtRp1123
(dp1124
g74
(dp1125
sg83
g1019
sg76
(lp1126
g69
(g90
g71
NtRp1127
(dp1128
g74
(dp1129
g94
g95
ssg83
g1123
sg76
(lp1130
g388
asbag69
(g90
g71
NtRp1131
(dp1132
g74
(dp1133
g101
g102
ssg83
g1123
sg76
(lp1134
S':'
asbag69
(g90
g71
NtRp1135
(dp1136
g74
(dp1137
sg83
g1123
sg76
(lp1138
g69
(g70
g71
NtRp1139
(dp1140
g74
(dp1141
g82
I3
ssg83
g1135
sg76
(lp1142
S''
asbasbasbag69
(g85
g71
NtRp1143
(dp1144
g74
(dp1145
sg83
g1019
sg76
(lp1146
g69
(g90
g71
NtRp1147
(dp1148
g74
(dp1149
g94
g95
ssg83
g1143
sg76
(lp1150
g409
asbag69
(g90
g71
NtRp1151
(dp1152
g74
(dp1153
g101
g102
ssg83
g1143
sg76
(lp1154
S':'
asbag69
(g90
g71
NtRp1155
(dp1156
g74
(dp1157
sg83
g1143
sg76
(lp1158
g69
(g70
g71
NtRp1159
(dp1160
g74
(dp1161
g82
I3
ssg83
g1155
sg76
(lp1162
S''
asbasbasbag69
(g85
g71
NtRp1163
(dp1164
g74
(dp1165
sg83
g1019
sg76
(lp1166
g69
(g90
g71
NtRp1167
(dp1168
g74
(dp1169
g94
g95
ssg83
g1163
sg76
(lp1170
g430
asbag69
(g90
g71
NtRp1171
(dp1172
g74
(dp1173
g101
g102
ssg83
g1163
sg76
(lp1174
S':'
asbag69
(g90
g71
NtRp1175
(dp1176
g74
(dp1177
sg83
g1163
sg76
(lp1178
g69
(g70
g71
NtRp1179
(dp1180
g74
(dp1181
g82
I3
ssg83
g1175
sg76
(lp1182
S''
asbasbasbasbasbasbasbasbasbasbasbag69
(g85
g71
NtRp1183
(dp1184
g74
(dp1185
sg83
g79
sg76
(lp1186
g69
(g90
g71
NtRp1187
(dp1188
g74
(dp1189
g94
g95
ssg83
g1183
sg76
(lp1190
S'env'
p1191
asbag69
(g90
g71
NtRp1192
(dp1193
g74
(dp1194
g101
g102
ssg83
g1183
sg76
(lp1195
S':'
asbag69
(g90
g71
NtRp1196
(dp1197
g74
(dp1198
sg83
g1183
sg76
(lp1199
g69
(g70
g71
NtRp1200
(dp1201
g74
(dp1202
g82
I5
ssg83
g1196
sg76
(lp1203
g69
(g78
g71
NtRp1204
(dp1205
g74
(dp1206
g82
I4
ssg83
Nsg76
(lp1207
g69
(g85
g71
NtRp1208
(dp1209
g74
(dp1210
sg83
g1204
sg76
(lp1211
g69
(g90
g71
NtRp1212
(dp1213
g74
(dp1214
g94
g95
ssg83
g1208
sg76
(lp1215
S'app_folders'
p1216
asbag69
(g90
g71
NtRp1217
(dp1218
g74
(dp1219
g101
g102
ssg83
g1208
sg76
(lp1220
S':'
asbag69
(g90
g71
NtRp1221
(dp1222
g74
(dp1223
sg83
g1208
sg76
(lp1224
g69
(g70
g71
NtRp1225
(dp1226
g74
(dp1227
g82
I4
ssg83
g1221
sg76
(lp1228
S"set(['/home/tls-sanjeet/Desktop/HRMS/web2py/applications/themishrms/', '/home/tls-sanjeet/Desktop/HRMS/web2py/applications/welcome/', '/home/tls-sanjeet/Desktop/HRMS/web2py/applications/admin/'])"
p1229
asbasbasbag69
(g85
g71
NtRp1230
(dp1231
g74
(dp1232
sg83
g1204
sg76
(lp1233
g69
(g90
g71
NtRp1234
(dp1235
g74
(dp1236
g94
g95
ssg83
g1230
sg76
(lp1237
S'applications_parent'
p1238
asbag69
(g90
g71
NtRp1239
(dp1240
g74
(dp1241
g101
g102
ssg83
g1230
sg76
(lp1242
S':'
asbag69
(g90
g71
NtRp1243
(dp1244
g74
(dp1245
sg83
g1230
sg76
(lp1246
g69
(g70
g71
NtRp1247
(dp1248
g74
(dp1249
g82
I4
ssg83
g1243
sg76
(lp1250
S'/home/tls-sanjeet/Desktop/HRMS/web2py'
p1251
asbasbasbag69
(g85
g71
NtRp1252
(dp1253
g74
(dp1254
sg83
g1204
sg76
(lp1255
g69
(g90
g71
NtRp1256
(dp1257
g74
(dp1258
g94
g95
ssg83
g1252
sg76
(lp1259
S'cmd_args'
p1260
asbag69
(g90
g71
NtRp1261
(dp1262
g74
(dp1263
g101
g102
ssg83
g1252
sg76
(lp1264
S':'
asbag69
(g90
g71
NtRp1265
(dp1266
g74
(dp1267
sg83
g1252
sg76
(lp1268
g69
(g70
g71
NtRp1269
(dp1270
g74
(dp1271
g82
I4
ssg83
g1265
sg76
(lp1272
g69
(g78
g71
NtRp1273
(dp1274
g74
(dp1275
g82
I3
ssg83
Nsg76
(lp1276
sbasbasbasbag69
(g85
g71
NtRp1277
(dp1278
g74
(dp1279
sg83
g1204
sg76
(lp1280
g69
(g90
g71
NtRp1281
(dp1282
g74
(dp1283
g94
g95
ssg83
g1277
sg76
(lp1284
S'cmd_options'
p1285
asbag69
(g90
g71
NtRp1286
(dp1287
g74
(dp1288
g101
g102
ssg83
g1277
sg76
(lp1289
S':'
asbag69
(g90
g71
NtRp1290
(dp1291
g74
(dp1292
sg83
g1277
sg76
(lp1293
g69
(g70
g71
NtRp1294
(dp1295
g74
(dp1296
g82
I4
ssg83
g1290
sg76
(lp1297
S"<Values at 0x8e215cc: {'verbose': False, 'ip': '127.0.0.1', 'shutdown_timeout': 5, 'taskbar': False, 'nocron': False, 'pid_filename': 'httpserver.pid', 'maxthreads': None, 'softcron': False, 'server_name': 'sanjeet-desktop', 'bpython': False, 'nogui': False, 'port': 8000, 'extcron': False, 'debuglevel': 30, 'test': None, 'folder': '/home/tls-sanjeet/Desktop/HRMS/web2py', 'config': '', 'import_models': False, 'winservice': '', 'shell': None, 'run': '', 'log_filename': 'httpserver.log', 'args': [''], 'socket_timeout': 5, 'ssl_ca_certificate': None, 'scheduler': None, 'profiler_filename': None, 'ssl_private_key': '', 'password': 'a', 'request_queue_size': 5, 'ssl_certificate': '', 'cronjob': False, 'numthreads': None, 'quiet': False, 'interfaces': None, 'minthreads': None, 'timeout': 10, 'plain': False, 'nobanner': False}>"
p1298
asbasbasbag69
(g85
g71
NtRp1299
(dp1300
g74
(dp1301
sg83
g1204
sg76
(lp1302
g69
(g90
g71
NtRp1303
(dp1304
g74
(dp1305
g94
g95
ssg83
g1299
sg76
(lp1306
S'content_length'
p1307
asbag69
(g90
g71
NtRp1308
(dp1309
g74
(dp1310
g101
g102
ssg83
g1299
sg76
(lp1311
S':'
asbag69
(g90
g71
NtRp1312
(dp1313
g74
(dp1314
sg83
g1299
sg76
(lp1315
g69
(g70
g71
NtRp1316
(dp1317
g74
(dp1318
g82
I4
ssg83
g1312
sg76
(lp1319
S'4'
asbasbasbag69
(g85
g71
NtRp1320
(dp1321
g74
(dp1322
sg83
g1204
sg76
(lp1323
g69
(g90
g71
NtRp1324
(dp1325
g74
(dp1326
g94
g95
ssg83
g1320
sg76
(lp1327
S'content_type'
p1328
asbag69
(g90
g71
NtRp1329
(dp1330
g74
(dp1331
g101
g102
ssg83
g1320
sg76
(lp1332
S':'
asbag69
(g90
g71
NtRp1333
(dp1334
g74
(dp1335
sg83
g1320
sg76
(lp1336
g69
(g70
g71
NtRp1337
(dp1338
g74
(dp1339
g82
I4
ssg83
g1333
sg76
(lp1340
S'application/x-www-form-urlencoded'
p1341
asbasbasbag69
(g85
g71
NtRp1342
(dp1343
g74
(dp1344
sg83
g1204
sg76
(lp1345
g69
(g90
g71
NtRp1346
(dp1347
g74
(dp1348
g94
g95
ssg83
g1342
sg76
(lp1349
S'db_sessions'
p1350
asbag69
(g90
g71
NtRp1351
(dp1352
g74
(dp1353
g101
g102
ssg83
g1342
sg76
(lp1354
S':'
asbag69
(g90
g71
NtRp1355
(dp1356
g74
(dp1357
sg83
g1342
sg76
(lp1358
g69
(g70
g71
NtRp1359
(dp1360
g74
(dp1361
g82
I4
ssg83
g1355
sg76
(lp1362
S'set([])'
p1363
asbasbasbag69
(g85
g71
NtRp1364
(dp1365
g74
(dp1366
sg83
g1204
sg76
(lp1367
g69
(g90
g71
NtRp1368
(dp1369
g74
(dp1370
g94
g95
ssg83
g1364
sg76
(lp1371
S'debugging'
p1372
asbag69
(g90
g71
NtRp1373
(dp1374
g74
(dp1375
g101
g102
ssg83
g1364
sg76
(lp1376
S':'
asbag69
(g90
g71
NtRp1377
(dp1378
g74
(dp1379
sg83
g1364
sg76
(lp1380
g69
(g70
g71
NtRp1381
(dp1382
g74
(dp1383
g82
I4
ssg83
g1377
sg76
(lp1384
S'False'
p1385
asbasbasbag69
(g85
g71
NtRp1386
(dp1387
g74
(dp1388
sg83
g1204
sg76
(lp1389
g69
(g90
g71
NtRp1390
(dp1391
g74
(dp1392
g94
g95
ssg83
g1386
sg76
(lp1393
S'gluon_parent'
p1394
asbag69
(g90
g71
NtRp1395
(dp1396
g74
(dp1397
g101
g102
ssg83
g1386
sg76
(lp1398
S':'
asbag69
(g90
g71
NtRp1399
(dp1400
g74
(dp1401
sg83
g1386
sg76
(lp1402
g69
(g70
g71
NtRp1403
(dp1404
g74
(dp1405
g82
I4
ssg83
g1399
sg76
(lp1406
S'/home/tls-sanjeet/Desktop/HRMS/web2py'
p1407
asbasbasbag69
(g85
g71
NtRp1408
(dp1409
g74
(dp1410
sg83
g1204
sg76
(lp1411
g69
(g90
g71
NtRp1412
(dp1413
g74
(dp1414
g94
g95
ssg83
g1408
sg76
(lp1415
S'http_accept'
p1416
asbag69
(g90
g71
NtRp1417
(dp1418
g74
(dp1419
g101
g102
ssg83
g1408
sg76
(lp1420
S':'
asbag69
(g90
g71
NtRp1421
(dp1422
g74
(dp1423
sg83
g1408
sg76
(lp1424
g69
(g70
g71
NtRp1425
(dp1426
g74
(dp1427
g82
I4
ssg83
g1421
sg76
(lp1428
S'*/*'
p1429
asbasbasbag69
(g85
g71
NtRp1430
(dp1431
g74
(dp1432
sg83
g1204
sg76
(lp1433
g69
(g90
g71
NtRp1434
(dp1435
g74
(dp1436
g94
g95
ssg83
g1430
sg76
(lp1437
S'http_accept_charset'
p1438
asbag69
(g90
g71
NtRp1439
(dp1440
g74
(dp1441
g101
g102
ssg83
g1430
sg76
(lp1442
S':'
asbag69
(g90
g71
NtRp1443
(dp1444
g74
(dp1445
sg83
g1430
sg76
(lp1446
g69
(g70
g71
NtRp1447
(dp1448
g74
(dp1449
g82
I4
ssg83
g1443
sg76
(lp1450
S'ISO-8859-1,utf-8;q=0.7,*;q=0.3'
p1451
asbasbasbag69
(g85
g71
NtRp1452
(dp1453
g74
(dp1454
sg83
g1204
sg76
(lp1455
g69
(g90
g71
NtRp1456
(dp1457
g74
(dp1458
g94
g95
ssg83
g1452
sg76
(lp1459
S'http_accept_encoding'
p1460
asbag69
(g90
g71
NtRp1461
(dp1462
g74
(dp1463
g101
g102
ssg83
g1452
sg76
(lp1464
S':'
asbag69
(g90
g71
NtRp1465
(dp1466
g74
(dp1467
sg83
g1452
sg76
(lp1468
g69
(g70
g71
NtRp1469
(dp1470
g74
(dp1471
g82
I4
ssg83
g1465
sg76
(lp1472
S'gzip,deflate,sdch'
p1473
asbasbasbag69
(g85
g71
NtRp1474
(dp1475
g74
(dp1476
sg83
g1204
sg76
(lp1477
g69
(g90
g71
NtRp1478
(dp1479
g74
(dp1480
g94
g95
ssg83
g1474
sg76
(lp1481
S'http_accept_language'
p1482
asbag69
(g90
g71
NtRp1483
(dp1484
g74
(dp1485
g101
g102
ssg83
g1474
sg76
(lp1486
S':'
asbag69
(g90
g71
NtRp1487
(dp1488
g74
(dp1489
sg83
g1474
sg76
(lp1490
g69
(g70
g71
NtRp1491
(dp1492
g74
(dp1493
g82
I4
ssg83
g1487
sg76
(lp1494
S'en-US,en;q=0.8'
p1495
asbasbasbag69
(g85
g71
NtRp1496
(dp1497
g74
(dp1498
sg83
g1204
sg76
(lp1499
g69
(g90
g71
NtRp1500
(dp1501
g74
(dp1502
g94
g95
ssg83
g1496
sg76
(lp1503
S'http_connection'
p1504
asbag69
(g90
g71
NtRp1505
(dp1506
g74
(dp1507
g101
g102
ssg83
g1496
sg76
(lp1508
S':'
asbag69
(g90
g71
NtRp1509
(dp1510
g74
(dp1511
sg83
g1496
sg76
(lp1512
g69
(g70
g71
NtRp1513
(dp1514
g74
(dp1515
g82
I4
ssg83
g1509
sg76
(lp1516
S'keep-alive'
p1517
asbasbasbag69
(g85
g71
NtRp1518
(dp1519
g74
(dp1520
sg83
g1204
sg76
(lp1521
g69
(g90
g71
NtRp1522
(dp1523
g74
(dp1524
g94
g95
ssg83
g1518
sg76
(lp1525
S'http_content_length'
p1526
asbag69
(g90
g71
NtRp1527
(dp1528
g74
(dp1529
g101
g102
ssg83
g1518
sg76
(lp1530
S':'
asbag69
(g90
g71
NtRp1531
(dp1532
g74
(dp1533
sg83
g1518
sg76
(lp1534
g69
(g70
g71
NtRp1535
(dp1536
g74
(dp1537
g82
I4
ssg83
g1531
sg76
(lp1538
S'4'
asbasbasbag69
(g85
g71
NtRp1539
(dp1540
g74
(dp1541
sg83
g1204
sg76
(lp1542
g69
(g90
g71
NtRp1543
(dp1544
g74
(dp1545
g94
g95
ssg83
g1539
sg76
(lp1546
S'http_content_type'
p1547
asbag69
(g90
g71
NtRp1548
(dp1549
g74
(dp1550
g101
g102
ssg83
g1539
sg76
(lp1551
S':'
asbag69
(g90
g71
NtRp1552
(dp1553
g74
(dp1554
sg83
g1539
sg76
(lp1555
g69
(g70
g71
NtRp1556
(dp1557
g74
(dp1558
g82
I4
ssg83
g1552
sg76
(lp1559
g1341
asbasbasbag69
(g85
g71
NtRp1560
(dp1561
g74
(dp1562
sg83
g1204
sg76
(lp1563
g69
(g90
g71
NtRp1564
(dp1565
g74
(dp1566
g94
g95
ssg83
g1560
sg76
(lp1567
S'http_cookie'
p1568
asbag69
(g90
g71
NtRp1569
(dp1570
g74
(dp1571
g101
g102
ssg83
g1560
sg76
(lp1572
S':'
asbag69
(g90
g71
NtRp1573
(dp1574
g74
(dp1575
sg83
g1560
sg76
(lp1576
g69
(g70
g71
NtRp1577
(dp1578
g74
(dp1579
g82
I4
ssg83
g1573
sg76
(lp1580
S'session_id_welcome=127.0.0.1-4c5844b1-38a6-44e2-92ab-e672486b6c1a; session_id_admin=127.0.0.1-799b7098-3c71-44a8-afe6-29856d5fc16d; session_id_themishrms=127.0.0.1-fd88f4ae-d408-48cb-a841-0dd9fe605769; mypanel=up; tls=up'
p1581
asbasbasbag69
(g85
g71
NtRp1582
(dp1583
g74
(dp1584
sg83
g1204
sg76
(lp1585
g69
(g90
g71
NtRp1586
(dp1587
g74
(dp1588
g94
g95
ssg83
g1582
sg76
(lp1589
S'http_host'
p1590
asbag69
(g90
g71
NtRp1591
(dp1592
g74
(dp1593
g101
g102
ssg83
g1582
sg76
(lp1594
S':'
asbag69
(g90
g71
NtRp1595
(dp1596
g74
(dp1597
sg83
g1582
sg76
(lp1598
g69
(g70
g71
NtRp1599
(dp1600
g74
(dp1601
g82
I4
ssg83
g1595
sg76
(lp1602
S'127.0.0.1:8000'
p1603
asbasbasbag69
(g85
g71
NtRp1604
(dp1605
g74
(dp1606
sg83
g1204
sg76
(lp1607
g69
(g90
g71
NtRp1608
(dp1609
g74
(dp1610
g94
g95
ssg83
g1604
sg76
(lp1611
S'http_origin'
p1612
asbag69
(g90
g71
NtRp1613
(dp1614
g74
(dp1615
g101
g102
ssg83
g1604
sg76
(lp1616
S':'
asbag69
(g90
g71
NtRp1617
(dp1618
g74
(dp1619
sg83
g1604
sg76
(lp1620
g69
(g70
g71
NtRp1621
(dp1622
g74
(dp1623
g82
I4
ssg83
g1617
sg76
(lp1624
S'http://127.0.0.1:8000'
p1625
asbasbasbag69
(g85
g71
NtRp1626
(dp1627
g74
(dp1628
sg83
g1204
sg76
(lp1629
g69
(g90
g71
NtRp1630
(dp1631
g74
(dp1632
g94
g95
ssg83
g1626
sg76
(lp1633
S'http_referer'
p1634
asbag69
(g90
g71
NtRp1635
(dp1636
g74
(dp1637
g101
g102
ssg83
g1626
sg76
(lp1638
S':'
asbag69
(g90
g71
NtRp1639
(dp1640
g74
(dp1641
sg83
g1626
sg76
(lp1642
g69
(g70
g71
NtRp1643
(dp1644
g74
(dp1645
g82
I4
ssg83
g1639
sg76
(lp1646
S'http://127.0.0.1:8000/themishrms/default/user_timesheet'
p1647
asbasbasbag69
(g85
g71
NtRp1648
(dp1649
g74
(dp1650
sg83
g1204
sg76
(lp1651
g69
(g90
g71
NtRp1652
(dp1653
g74
(dp1654
g94
g95
ssg83
g1648
sg76
(lp1655
S'http_user_agent'
p1656
asbag69
(g90
g71
NtRp1657
(dp1658
g74
(dp1659
g101
g102
ssg83
g1648
sg76
(lp1660
S':'
asbag69
(g90
g71
NtRp1661
(dp1662
g74
(dp1663
sg83
g1648
sg76
(lp1664
g69
(g70
g71
NtRp1665
(dp1666
g74
(dp1667
g82
I4
ssg83
g1661
sg76
(lp1668
S'Mozilla/5.0 (X11; Linux i686) AppleWebKit/535.19 (KHTML, like Gecko) Chrome/18.0.1025.168 Safari/535.19'
p1669
asbasbasbag69
(g85
g71
NtRp1670
(dp1671
g74
(dp1672
sg83
g1204
sg76
(lp1673
g69
(g90
g71
NtRp1674
(dp1675
g74
(dp1676
g94
g95
ssg83
g1670
sg76
(lp1677
S'http_x_requested_with'
p1678
asbag69
(g90
g71
NtRp1679
(dp1680
g74
(dp1681
g101
g102
ssg83
g1670
sg76
(lp1682
S':'
asbag69
(g90
g71
NtRp1683
(dp1684
g74
(dp1685
sg83
g1670
sg76
(lp1686
g69
(g70
g71
NtRp1687
(dp1688
g74
(dp1689
g82
I4
ssg83
g1683
sg76
(lp1690
S'XMLHttpRequest'
p1691
asbasbasbag69
(g85
g71
NtRp1692
(dp1693
g74
(dp1694
sg83
g1204
sg76
(lp1695
g69
(g90
g71
NtRp1696
(dp1697
g74
(dp1698
g94
g95
ssg83
g1692
sg76
(lp1699
S'is_jython'
p1700
asbag69
(g90
g71
NtRp1701
(dp1702
g74
(dp1703
g101
g102
ssg83
g1692
sg76
(lp1704
S':'
asbag69
(g90
g71
NtRp1705
(dp1706
g74
(dp1707
sg83
g1692
sg76
(lp1708
g69
(g70
g71
NtRp1709
(dp1710
g74
(dp1711
g82
I4
ssg83
g1705
sg76
(lp1712
g1385
asbasbasbag69
(g85
g71
NtRp1713
(dp1714
g74
(dp1715
sg83
g1204
sg76
(lp1716
g69
(g90
g71
NtRp1717
(dp1718
g74
(dp1719
g94
g95
ssg83
g1713
sg76
(lp1720
S'is_pypy'
p1721
asbag69
(g90
g71
NtRp1722
(dp1723
g74
(dp1724
g101
g102
ssg83
g1713
sg76
(lp1725
S':'
asbag69
(g90
g71
NtRp1726
(dp1727
g74
(dp1728
sg83
g1713
sg76
(lp1729
g69
(g70
g71
NtRp1730
(dp1731
g74
(dp1732
g82
I4
ssg83
g1726
sg76
(lp1733
g1385
asbasbasbag69
(g85
g71
NtRp1734
(dp1735
g74
(dp1736
sg83
g1204
sg76
(lp1737
g69
(g90
g71
NtRp1738
(dp1739
g74
(dp1740
g94
g95
ssg83
g1734
sg76
(lp1741
S'path_info'
p1742
asbag69
(g90
g71
NtRp1743
(dp1744
g74
(dp1745
g101
g102
ssg83
g1734
sg76
(lp1746
S':'
asbag69
(g90
g71
NtRp1747
(dp1748
g74
(dp1749
sg83
g1734
sg76
(lp1750
g69
(g70
g71
NtRp1751
(dp1752
g74
(dp1753
g82
I4
ssg83
g1747
sg76
(lp1754
S'/themishrms/default/emp_task'
p1755
asbasbasbag69
(g85
g71
NtRp1756
(dp1757
g74
(dp1758
sg83
g1204
sg76
(lp1759
g69
(g90
g71
NtRp1760
(dp1761
g74
(dp1762
g94
g95
ssg83
g1756
sg76
(lp1763
S'query_string'
p1764
asbag69
(g90
g71
NtRp1765
(dp1766
g74
(dp1767
g101
g102
ssg83
g1756
sg76
(lp1768
S':'
asbag69
(g90
g71
NtRp1769
(dp1770
g74
(dp1771
sg83
g1756
sg76
(lp1772
g69
(g70
g71
NtRp1773
(dp1774
g74
(dp1775
g82
I4
ssg83
g1769
sg76
(lp1776
S''
asbasbasbag69
(g85
g71
NtRp1777
(dp1778
g74
(dp1779
sg83
g1204
sg76
(lp1780
g69
(g90
g71
NtRp1781
(dp1782
g74
(dp1783
g94
g95
ssg83
g1777
sg76
(lp1784
S'remote_addr'
p1785
asbag69
(g90
g71
NtRp1786
(dp1787
g74
(dp1788
g101
g102
ssg83
g1777
sg76
(lp1789
S':'
asbag69
(g90
g71
NtRp1790
(dp1791
g74
(dp1792
sg83
g1777
sg76
(lp1793
g69
(g70
g71
NtRp1794
(dp1795
g74
(dp1796
g82
I4
ssg83
g1790
sg76
(lp1797
g202
asbasbasbag69
(g85
g71
NtRp1798
(dp1799
g74
(dp1800
sg83
g1204
sg76
(lp1801
g69
(g90
g71
NtRp1802
(dp1803
g74
(dp1804
g94
g95
ssg83
g1798
sg76
(lp1805
S'remote_port'
p1806
asbag69
(g90
g71
NtRp1807
(dp1808
g74
(dp1809
g101
g102
ssg83
g1798
sg76
(lp1810
S':'
asbag69
(g90
g71
NtRp1811
(dp1812
g74
(dp1813
sg83
g1798
sg76
(lp1814
g69
(g70
g71
NtRp1815
(dp1816
g74
(dp1817
g82
I4
ssg83
g1811
sg76
(lp1818
S'33288'
p1819
asbasbasbag69
(g85
g71
NtRp1820
(dp1821
g74
(dp1822
sg83
g1204
sg76
(lp1823
g69
(g90
g71
NtRp1824
(dp1825
g74
(dp1826
g94
g95
ssg83
g1820
sg76
(lp1827
S'request_method'
p1828
asbag69
(g90
g71
NtRp1829
(dp1830
g74
(dp1831
g101
g102
ssg83
g1820
sg76
(lp1832
S':'
asbag69
(g90
g71
NtRp1833
(dp1834
g74
(dp1835
sg83
g1820
sg76
(lp1836
g69
(g70
g71
NtRp1837
(dp1838
g74
(dp1839
g82
I4
ssg83
g1833
sg76
(lp1840
S'POST'
p1841
asbasbasbag69
(g85
g71
NtRp1842
(dp1843
g74
(dp1844
sg83
g1204
sg76
(lp1845
g69
(g90
g71
NtRp1846
(dp1847
g74
(dp1848
g94
g95
ssg83
g1842
sg76
(lp1849
S'script_name'
p1850
asbag69
(g90
g71
NtRp1851
(dp1852
g74
(dp1853
g101
g102
ssg83
g1842
sg76
(lp1854
S':'
asbag69
(g90
g71
NtRp1855
(dp1856
g74
(dp1857
sg83
g1842
sg76
(lp1858
g69
(g70
g71
NtRp1859
(dp1860
g74
(dp1861
g82
I4
ssg83
g1855
sg76
(lp1862
S''
asbasbasbag69
(g85
g71
NtRp1863
(dp1864
g74
(dp1865
sg83
g1204
sg76
(lp1866
g69
(g90
g71
NtRp1867
(dp1868
g74
(dp1869
g94
g95
ssg83
g1863
sg76
(lp1870
S'server_name'
p1871
asbag69
(g90
g71
NtRp1872
(dp1873
g74
(dp1874
g101
g102
ssg83
g1863
sg76
(lp1875
S':'
asbag69
(g90
g71
NtRp1876
(dp1877
g74
(dp1878
sg83
g1863
sg76
(lp1879
g69
(g70
g71
NtRp1880
(dp1881
g74
(dp1882
g82
I4
ssg83
g1876
sg76
(lp1883
S'sanjeet-desktop'
p1884
asbasbasbag69
(g85
g71
NtRp1885
(dp1886
g74
(dp1887
sg83
g1204
sg76
(lp1888
g69
(g90
g71
NtRp1889
(dp1890
g74
(dp1891
g94
g95
ssg83
g1885
sg76
(lp1892
S'server_port'
p1893
asbag69
(g90
g71
NtRp1894
(dp1895
g74
(dp1896
g101
g102
ssg83
g1885
sg76
(lp1897
S':'
asbag69
(g90
g71
NtRp1898
(dp1899
g74
(dp1900
sg83
g1885
sg76
(lp1901
g69
(g70
g71
NtRp1902
(dp1903
g74
(dp1904
g82
I4
ssg83
g1898
sg76
(lp1905
S'8000'
p1906
asbasbasbag69
(g85
g71
NtRp1907
(dp1908
g74
(dp1909
sg83
g1204
sg76
(lp1910
g69
(g90
g71
NtRp1911
(dp1912
g74
(dp1913
g94
g95
ssg83
g1907
sg76
(lp1914
S'server_protocol'
p1915
asbag69
(g90
g71
NtRp1916
(dp1917
g74
(dp1918
g101
g102
ssg83
g1907
sg76
(lp1919
S':'
asbag69
(g90
g71
NtRp1920
(dp1921
g74
(dp1922
sg83
g1907
sg76
(lp1923
g69
(g70
g71
NtRp1924
(dp1925
g74
(dp1926
g82
I4
ssg83
g1920
sg76
(lp1927
S'HTTP/1.1'
p1928
asbasbasbag69
(g85
g71
NtRp1929
(dp1930
g74
(dp1931
sg83
g1204
sg76
(lp1932
g69
(g90
g71
NtRp1933
(dp1934
g74
(dp1935
g94
g95
ssg83
g1929
sg76
(lp1936
S'server_software'
p1937
asbag69
(g90
g71
NtRp1938
(dp1939
g74
(dp1940
g101
g102
ssg83
g1929
sg76
(lp1941
S':'
asbag69
(g90
g71
NtRp1942
(dp1943
g74
(dp1944
sg83
g1929
sg76
(lp1945
g69
(g70
g71
NtRp1946
(dp1947
g74
(dp1948
g82
I4
ssg83
g1942
sg76
(lp1949
S'Rocket 1.2.4'
p1950
asbasbasbag69
(g85
g71
NtRp1951
(dp1952
g74
(dp1953
sg83
g1204
sg76
(lp1954
g69
(g90
g71
NtRp1955
(dp1956
g74
(dp1957
g94
g95
ssg83
g1951
sg76
(lp1958
S'web2py_crontype'
p1959
asbag69
(g90
g71
NtRp1960
(dp1961
g74
(dp1962
g101
g102
ssg83
g1951
sg76
(lp1963
S':'
asbag69
(g90
g71
NtRp1964
(dp1965
g74
(dp1966
sg83
g1951
sg76
(lp1967
g69
(g70
g71
NtRp1968
(dp1969
g74
(dp1970
g82
I4
ssg83
g1964
sg76
(lp1971
S'hard'
p1972
asbasbasbag69
(g85
g71
NtRp1973
(dp1974
g74
(dp1975
sg83
g1204
sg76
(lp1976
g69
(g90
g71
NtRp1977
(dp1978
g74
(dp1979
g94
g95
ssg83
g1973
sg76
(lp1980
S'web2py_path'
p1981
asbag69
(g90
g71
NtRp1982
(dp1983
g74
(dp1984
g101
g102
ssg83
g1973
sg76
(lp1985
S':'
asbag69
(g90
g71
NtRp1986
(dp1987
g74
(dp1988
sg83
g1973
sg76
(lp1989
g69
(g70
g71
NtRp1990
(dp1991
g74
(dp1992
g82
I4
ssg83
g1986
sg76
(lp1993
g1251
asbasbasbag69
(g85
g71
NtRp1994
(dp1995
g74
(dp1996
sg83
g1204
sg76
(lp1997
g69
(g90
g71
NtRp1998
(dp1999
g74
(dp2000
g94
g95
ssg83
g1994
sg76
(lp2001
S'web2py_version'
p2002
asbag69
(g90
g71
NtRp2003
(dp2004
g74
(dp2005
g101
g102
ssg83
g1994
sg76
(lp2006
S':'
asbag69
(g90
g71
NtRp2007
(dp2008
g74
(dp2009
sg83
g1994
sg76
(lp2010
g69
(g70
g71
NtRp2011
(dp2012
g74
(dp2013
g82
I4
ssg83
g2007
sg76
(lp2014
g69
(g78
g71
NtRp2015
(dp2016
g74
(dp2017
g82
I3
ssg83
Nsg76
(lp2018
g69
(g85
g71
NtRp2019
(dp2020
g74
(dp2021
sg83
g2015
sg76
(lp2022
g69
(g90
g71
NtRp2023
(dp2024
g74
(dp2025
sg83
g2019
sg76
(lp2026
g69
(g70
g71
NtRp2027
(dp2028
g74
(dp2029
g82
I3
ssg83
g2023
sg76
(lp2030
S'1'
asbasbasbag69
(g85
g71
NtRp2031
(dp2032
g74
(dp2033
sg83
g2015
sg76
(lp2034
g69
(g90
g71
NtRp2035
(dp2036
g74
(dp2037
sg83
g2031
sg76
(lp2038
g69
(g70
g71
NtRp2039
(dp2040
g74
(dp2041
g82
I3
ssg83
g2035
sg76
(lp2042
S'99'
p2043
asbasbasbag69
(g85
g71
NtRp2044
(dp2045
g74
(dp2046
sg83
g2015
sg76
(lp2047
g69
(g90
g71
NtRp2048
(dp2049
g74
(dp2050
sg83
g2044
sg76
(lp2051
g69
(g70
g71
NtRp2052
(dp2053
g74
(dp2054
g82
I3
ssg83
g2048
sg76
(lp2055
S'7'
asbasbasbag69
(g85
g71
NtRp2056
(dp2057
g74
(dp2058
sg83
g2015
sg76
(lp2059
g69
(g90
g71
NtRp2060
(dp2061
g74
(dp2062
sg83
g2056
sg76
(lp2063
g69
(g70
g71
NtRp2064
(dp2065
g74
(dp2066
g82
I3
ssg83
g2060
sg76
(lp2067
S'datetime.datetime(2012, 3, 4, 22, 12, 8)'
p2068
asbasbasbag69
(g85
g71
NtRp2069
(dp2070
g74
(dp2071
sg83
g2015
sg76
(lp2072
g69
(g90
g71
NtRp2073
(dp2074
g74
(dp2075
sg83
g2069
sg76
(lp2076
g69
(g70
g71
NtRp2077
(dp2078
g74
(dp2079
g82
I3
ssg83
g2073
sg76
(lp2080
S'stable'
p2081
asbasbasbasbasbasbasbag69
(g85
g71
NtRp2082
(dp2083
g74
(dp2084
sg83
g1204
sg76
(lp2085
g69
(g90
g71
NtRp2086
(dp2087
g74
(dp2088
g94
g95
ssg83
g2082
sg76
(lp2089
S'wsgi_errors'
p2090
asbag69
(g90
g71
NtRp2091
(dp2092
g74
(dp2093
g101
g102
ssg83
g2082
sg76
(lp2094
S':'
asbag69
(g90
g71
NtRp2095
(dp2096
g74
(dp2097
sg83
g2082
sg76
(lp2098
g69
(g70
g71
NtRp2099
(dp2100
g74
(dp2101
g82
I4
ssg83
g2095
sg76
(lp2102
S"<open file '<stderr>', mode 'w' at 0xb73810d0>"
p2103
asbasbasbag69
(g85
g71
NtRp2104
(dp2105
g74
(dp2106
sg83
g1204
sg76
(lp2107
g69
(g90
g71
NtRp2108
(dp2109
g74
(dp2110
g94
g95
ssg83
g2104
sg76
(lp2111
S'wsgi_file_wrapper'
p2112
asbag69
(g90
g71
NtRp2113
(dp2114
g74
(dp2115
g101
g102
ssg83
g2104
sg76
(lp2116
S':'
asbag69
(g90
g71
NtRp2117
(dp2118
g74
(dp2119
sg83
g2104
sg76
(lp2120
g69
(g70
g71
NtRp2121
(dp2122
g74
(dp2123
g82
I4
ssg83
g2117
sg76
(lp2124
S'<class wsgiref.util.FileWrapper at 0x8deeaac>'
p2125
asbasbasbag69
(g85
g71
NtRp2126
(dp2127
g74
(dp2128
sg83
g1204
sg76
(lp2129
g69
(g90
g71
NtRp2130
(dp2131
g74
(dp2132
g94
g95
ssg83
g2126
sg76
(lp2133
S'wsgi_input'
p2134
asbag69
(g90
g71
NtRp2135
(dp2136
g74
(dp2137
g101
g102
ssg83
g2126
sg76
(lp2138
S':'
asbag69
(g90
g71
NtRp2139
(dp2140
g74
(dp2141
sg83
g2126
sg76
(lp2142
g69
(g70
g71
NtRp2143
(dp2144
g74
(dp2145
g82
I4
ssg83
g2139
sg76
(lp2146
S'<socket._fileobject object at 0x984f26c>'
p2147
asbasbasbag69
(g85
g71
NtRp2148
(dp2149
g74
(dp2150
sg83
g1204
sg76
(lp2151
g69
(g90
g71
NtRp2152
(dp2153
g74
(dp2154
g94
g95
ssg83
g2148
sg76
(lp2155
S'wsgi_multiprocess'
p2156
asbag69
(g90
g71
NtRp2157
(dp2158
g74
(dp2159
g101
g102
ssg83
g2148
sg76
(lp2160
S':'
asbag69
(g90
g71
NtRp2161
(dp2162
g74
(dp2163
sg83
g2148
sg76
(lp2164
g69
(g70
g71
NtRp2165
(dp2166
g74
(dp2167
g82
I4
ssg83
g2161
sg76
(lp2168
g1385
asbasbasbag69
(g85
g71
NtRp2169
(dp2170
g74
(dp2171
sg83
g1204
sg76
(lp2172
g69
(g90
g71
NtRp2173
(dp2174
g74
(dp2175
g94
g95
ssg83
g2169
sg76
(lp2176
S'wsgi_multithread'
p2177
asbag69
(g90
g71
NtRp2178
(dp2179
g74
(dp2180
g101
g102
ssg83
g2169
sg76
(lp2181
S':'
asbag69
(g90
g71
NtRp2182
(dp2183
g74
(dp2184
sg83
g2169
sg76
(lp2185
g69
(g70
g71
NtRp2186
(dp2187
g74
(dp2188
g82
I4
ssg83
g2182
sg76
(lp2189
g112
asbasbasbag69
(g85
g71
NtRp2190
(dp2191
g74
(dp2192
sg83
g1204
sg76
(lp2193
g69
(g90
g71
NtRp2194
(dp2195
g74
(dp2196
g94
g95
ssg83
g2190
sg76
(lp2197
S'wsgi_run_once'
p2198
asbag69
(g90
g71
NtRp2199
(dp2200
g74
(dp2201
g101
g102
ssg83
g2190
sg76
(lp2202
S':'
asbag69
(g90
g71
NtRp2203
(dp2204
g74
(dp2205
sg83
g2190
sg76
(lp2206
g69
(g70
g71
NtRp2207
(dp2208
g74
(dp2209
g82
I4
ssg83
g2203
sg76
(lp2210
g1385
asbasbasbag69
(g85
g71
NtRp2211
(dp2212
g74
(dp2213
sg83
g1204
sg76
(lp2214
g69
(g90
g71
NtRp2215
(dp2216
g74
(dp2217
g94
g95
ssg83
g2211
sg76
(lp2218
S'wsgi_url_scheme'
p2219
asbag69
(g90
g71
NtRp2220
(dp2221
g74
(dp2222
g101
g102
ssg83
g2211
sg76
(lp2223
S':'
asbag69
(g90
g71
NtRp2224
(dp2225
g74
(dp2226
sg83
g2211
sg76
(lp2227
g69
(g70
g71
NtRp2228
(dp2229
g74
(dp2230
g82
I4
ssg83
g2224
sg76
(lp2231
S'http'
p2232
asbasbasbag69
(g85
g71
NtRp2233
(dp2234
g74
(dp2235
sg83
g1204
sg76
(lp2236
g69
(g90
g71
NtRp2237
(dp2238
g74
(dp2239
g94
g95
ssg83
g2233
sg76
(lp2240
S'wsgi_version'
p2241
asbag69
(g90
g71
NtRp2242
(dp2243
g74
(dp2244
g101
g102
ssg83
g2233
sg76
(lp2245
S':'
asbag69
(g90
g71
NtRp2246
(dp2247
g74
(dp2248
sg83
g2233
sg76
(lp2249
g69
(g70
g71
NtRp2250
(dp2251
g74
(dp2252
g82
I4
ssg83
g2246
sg76
(lp2253
g69
(g78
g71
NtRp2254
(dp2255
g74
(dp2256
g82
I3
ssg83
Nsg76
(lp2257
g69
(g85
g71
NtRp2258
(dp2259
g74
(dp2260
sg83
g2254
sg76
(lp2261
g69
(g90
g71
NtRp2262
(dp2263
g74
(dp2264
sg83
g2258
sg76
(lp2265
g69
(g70
g71
NtRp2266
(dp2267
g74
(dp2268
g82
I3
ssg83
g2262
sg76
(lp2269
S'1'
asbasbasbag69
(g85
g71
NtRp2270
(dp2271
g74
(dp2272
sg83
g2254
sg76
(lp2273
g69
(g90
g71
NtRp2274
(dp2275
g74
(dp2276
sg83
g2270
sg76
(lp2277
g69
(g70
g71
NtRp2278
(dp2279
g74
(dp2280
g82
I3
ssg83
g2274
sg76
(lp2281
S'0'
asbasbasbasbasbasbasbasbasbasbasbag69
(g85
g71
NtRp2282
(dp2283
g74
(dp2284
sg83
g79
sg76
(lp2285
g69
(g90
g71
NtRp2286
(dp2287
g74
(dp2288
g94
g95
ssg83
g2282
sg76
(lp2289
S'extension'
p2290
asbag69
(g90
g71
NtRp2291
(dp2292
g74
(dp2293
g101
g102
ssg83
g2282
sg76
(lp2294
S':'
asbag69
(g90
g71
NtRp2295
(dp2296
g74
(dp2297
sg83
g2282
sg76
(lp2298
g69
(g70
g71
NtRp2299
(dp2300
g74
(dp2301
g82
I5
ssg83
g2295
sg76
(lp2302
S'html'
p2303
asbasbasbag69
(g85
g71
NtRp2304
(dp2305
g74
(dp2306
sg83
g79
sg76
(lp2307
g69
(g90
g71
NtRp2308
(dp2309
g74
(dp2310
g94
g95
ssg83
g2304
sg76
(lp2311
S'folder'
p2312
asbag69
(g90
g71
NtRp2313
(dp2314
g74
(dp2315
g101
g102
ssg83
g2304
sg76
(lp2316
S':'
asbag69
(g90
g71
NtRp2317
(dp2318
g74
(dp2319
sg83
g2304
sg76
(lp2320
g69
(g70
g71
NtRp2321
(dp2322
g74
(dp2323
g82
I5
ssg83
g2317
sg76
(lp2324
S'/home/tls-sanjeet/Desktop/HRMS/web2py/applications/themishrms/'
p2325
asbasbasbag69
(g85
g71
NtRp2326
(dp2327
g74
(dp2328
sg83
g79
sg76
(lp2329
g69
(g90
g71
NtRp2330
(dp2331
g74
(dp2332
g94
g95
ssg83
g2326
sg76
(lp2333
S'function'
p2334
asbag69
(g90
g71
NtRp2335
(dp2336
g74
(dp2337
g101
g102
ssg83
g2326
sg76
(lp2338
S':'
asbag69
(g90
g71
NtRp2339
(dp2340
g74
(dp2341
sg83
g2326
sg76
(lp2342
g69
(g70
g71
NtRp2343
(dp2344
g74
(dp2345
g82
I5
ssg83
g2339
sg76
(lp2346
S'emp_task'
p2347
asbasbasbag69
(g85
g71
NtRp2348
(dp2349
g74
(dp2350
sg83
g79
sg76
(lp2351
g69
(g90
g71
NtRp2352
(dp2353
g74
(dp2354
g94
g95
ssg83
g2348
sg76
(lp2355
S'get_vars'
p2356
asbag69
(g90
g71
NtRp2357
(dp2358
g74
(dp2359
g101
g102
ssg83
g2348
sg76
(lp2360
S':'
asbag69
(g90
g71
NtRp2361
(dp2362
g74
(dp2363
sg83
g2348
sg76
(lp2364
g69
(g70
g71
NtRp2365
(dp2366
g74
(dp2367
g82
I5
ssg83
g2361
sg76
(lp2368
g69
(g78
g71
NtRp2369
(dp2370
g74
(dp2371
g82
I4
ssg83
Nsg76
(lp2372
sbasbasbasbag69
(g85
g71
NtRp2373
(dp2374
g74
(dp2375
sg83
g79
sg76
(lp2376
g69
(g90
g71
NtRp2377
(dp2378
g74
(dp2379
g94
g95
ssg83
g2373
sg76
(lp2380
S'global_settings'
p2381
asbag69
(g90
g71
NtRp2382
(dp2383
g74
(dp2384
g101
g102
ssg83
g2373
sg76
(lp2385
S':'
asbag69
(g90
g71
NtRp2386
(dp2387
g74
(dp2388
sg83
g2373
sg76
(lp2389
g69
(g70
g71
NtRp2390
(dp2391
g74
(dp2392
g82
I5
ssg83
g2386
sg76
(lp2393
g69
(g78
g71
NtRp2394
(dp2395
g74
(dp2396
g82
I4
ssg83
Nsg76
(lp2397
g69
(g85
g71
NtRp2398
(dp2399
g74
(dp2400
sg83
g2394
sg76
(lp2401
g69
(g90
g71
NtRp2402
(dp2403
g74
(dp2404
g94
g95
ssg83
g2398
sg76
(lp2405
g1216
asbag69
(g90
g71
NtRp2406
(dp2407
g74
(dp2408
g101
g102
ssg83
g2398
sg76
(lp2409
S':'
asbag69
(g90
g71
NtRp2410
(dp2411
g74
(dp2412
sg83
g2398
sg76
(lp2413
g69
(g70
g71
NtRp2414
(dp2415
g74
(dp2416
g82
I4
ssg83
g2410
sg76
(lp2417
S"set(['/home/tls-sanjeet/Desktop/HRMS/web2py/applications/themishrms/', '/home/tls-sanjeet/Desktop/HRMS/web2py/applications/welcome/', '/home/tls-sanjeet/Desktop/HRMS/web2py/applications/admin/'])"
p2418
asbasbasbag69
(g85
g71
NtRp2419
(dp2420
g74
(dp2421
sg83
g2394
sg76
(lp2422
g69
(g90
g71
NtRp2423
(dp2424
g74
(dp2425
g94
g95
ssg83
g2419
sg76
(lp2426
g1238
asbag69
(g90
g71
NtRp2427
(dp2428
g74
(dp2429
g101
g102
ssg83
g2419
sg76
(lp2430
S':'
asbag69
(g90
g71
NtRp2431
(dp2432
g74
(dp2433
sg83
g2419
sg76
(lp2434
g69
(g70
g71
NtRp2435
(dp2436
g74
(dp2437
g82
I4
ssg83
g2431
sg76
(lp2438
g1251
asbasbasbag69
(g85
g71
NtRp2439
(dp2440
g74
(dp2441
sg83
g2394
sg76
(lp2442
g69
(g90
g71
NtRp2443
(dp2444
g74
(dp2445
g94
g95
ssg83
g2439
sg76
(lp2446
g1260
asbag69
(g90
g71
NtRp2447
(dp2448
g74
(dp2449
g101
g102
ssg83
g2439
sg76
(lp2450
S':'
asbag69
(g90
g71
NtRp2451
(dp2452
g74
(dp2453
sg83
g2439
sg76
(lp2454
g69
(g70
g71
NtRp2455
(dp2456
g74
(dp2457
g82
I4
ssg83
g2451
sg76
(lp2458
g69
(g78
g71
NtRp2459
(dp2460
g74
(dp2461
g82
I3
ssg83
Nsg76
(lp2462
sbasbasbasbag69
(g85
g71
NtRp2463
(dp2464
g74
(dp2465
sg83
g2394
sg76
(lp2466
g69
(g90
g71
NtRp2467
(dp2468
g74
(dp2469
g94
g95
ssg83
g2463
sg76
(lp2470
g1285
asbag69
(g90
g71
NtRp2471
(dp2472
g74
(dp2473
g101
g102
ssg83
g2463
sg76
(lp2474
S':'
asbag69
(g90
g71
NtRp2475
(dp2476
g74
(dp2477
sg83
g2463
sg76
(lp2478
g69
(g70
g71
NtRp2479
(dp2480
g74
(dp2481
g82
I4
ssg83
g2475
sg76
(lp2482
S"<Values at 0x8e215cc: {'verbose': False, 'ip': '127.0.0.1', 'shutdown_timeout': 5, 'taskbar': False, 'nocron': False, 'pid_filename': 'httpserver.pid', 'maxthreads': None, 'softcron': False, 'server_name': 'sanjeet-desktop', 'bpython': False, 'nogui': False, 'port': 8000, 'extcron': False, 'debuglevel': 30, 'test': None, 'folder': '/home/tls-sanjeet/Desktop/HRMS/web2py', 'config': '', 'import_models': False, 'winservice': '', 'shell': None, 'run': '', 'log_filename': 'httpserver.log', 'args': [''], 'socket_timeout': 5, 'ssl_ca_certificate': None, 'scheduler': None, 'profiler_filename': None, 'ssl_private_key': '', 'password': 'a', 'request_queue_size': 5, 'ssl_certificate': '', 'cronjob': False, 'numthreads': None, 'quiet': False, 'interfaces': None, 'minthreads': None, 'timeout': 10, 'plain': False, 'nobanner': False}>"
p2483
asbasbasbag69
(g85
g71
NtRp2484
(dp2485
g74
(dp2486
sg83
g2394
sg76
(lp2487
g69
(g90
g71
NtRp2488
(dp2489
g74
(dp2490
g94
g95
ssg83
g2484
sg76
(lp2491
g1350
asbag69
(g90
g71
NtRp2492
(dp2493
g74
(dp2494
g101
g102
ssg83
g2484
sg76
(lp2495
S':'
asbag69
(g90
g71
NtRp2496
(dp2497
g74
(dp2498
sg83
g2484
sg76
(lp2499
g69
(g70
g71
NtRp2500
(dp2501
g74
(dp2502
g82
I4
ssg83
g2496
sg76
(lp2503
S'set([])'
p2504
asbasbasbag69
(g85
g71
NtRp2505
(dp2506
g74
(dp2507
sg83
g2394
sg76
(lp2508
g69
(g90
g71
NtRp2509
(dp2510
g74
(dp2511
g94
g95
ssg83
g2505
sg76
(lp2512
g1372
asbag69
(g90
g71
NtRp2513
(dp2514
g74
(dp2515
g101
g102
ssg83
g2505
sg76
(lp2516
S':'
asbag69
(g90
g71
NtRp2517
(dp2518
g74
(dp2519
sg83
g2505
sg76
(lp2520
g69
(g70
g71
NtRp2521
(dp2522
g74
(dp2523
g82
I4
ssg83
g2517
sg76
(lp2524
g1385
asbasbasbag69
(g85
g71
NtRp2525
(dp2526
g74
(dp2527
sg83
g2394
sg76
(lp2528
g69
(g90
g71
NtRp2529
(dp2530
g74
(dp2531
g94
g95
ssg83
g2525
sg76
(lp2532
g1394
asbag69
(g90
g71
NtRp2533
(dp2534
g74
(dp2535
g101
g102
ssg83
g2525
sg76
(lp2536
S':'
asbag69
(g90
g71
NtRp2537
(dp2538
g74
(dp2539
sg83
g2525
sg76
(lp2540
g69
(g70
g71
NtRp2541
(dp2542
g74
(dp2543
g82
I4
ssg83
g2537
sg76
(lp2544
g1407
asbasbasbag69
(g85
g71
NtRp2545
(dp2546
g74
(dp2547
sg83
g2394
sg76
(lp2548
g69
(g90
g71
NtRp2549
(dp2550
g74
(dp2551
g94
g95
ssg83
g2545
sg76
(lp2552
g1700
asbag69
(g90
g71
NtRp2553
(dp2554
g74
(dp2555
g101
g102
ssg83
g2545
sg76
(lp2556
S':'
asbag69
(g90
g71
NtRp2557
(dp2558
g74
(dp2559
sg83
g2545
sg76
(lp2560
g69
(g70
g71
NtRp2561
(dp2562
g74
(dp2563
g82
I4
ssg83
g2557
sg76
(lp2564
g1385
asbasbasbag69
(g85
g71
NtRp2565
(dp2566
g74
(dp2567
sg83
g2394
sg76
(lp2568
g69
(g90
g71
NtRp2569
(dp2570
g74
(dp2571
g94
g95
ssg83
g2565
sg76
(lp2572
g1721
asbag69
(g90
g71
NtRp2573
(dp2574
g74
(dp2575
g101
g102
ssg83
g2565
sg76
(lp2576
S':'
asbag69
(g90
g71
NtRp2577
(dp2578
g74
(dp2579
sg83
g2565
sg76
(lp2580
g69
(g70
g71
NtRp2581
(dp2582
g74
(dp2583
g82
I4
ssg83
g2577
sg76
(lp2584
g1385
asbasbasbag69
(g85
g71
NtRp2585
(dp2586
g74
(dp2587
sg83
g2394
sg76
(lp2588
g69
(g90
g71
NtRp2589
(dp2590
g74
(dp2591
g94
g95
ssg83
g2585
sg76
(lp2592
g1959
asbag69
(g90
g71
NtRp2593
(dp2594
g74
(dp2595
g101
g102
ssg83
g2585
sg76
(lp2596
S':'
asbag69
(g90
g71
NtRp2597
(dp2598
g74
(dp2599
sg83
g2585
sg76
(lp2600
g69
(g70
g71
NtRp2601
(dp2602
g74
(dp2603
g82
I4
ssg83
g2597
sg76
(lp2604
g1972
asbasbasbag69
(g85
g71
NtRp2605
(dp2606
g74
(dp2607
sg83
g2394
sg76
(lp2608
g69
(g90
g71
NtRp2609
(dp2610
g74
(dp2611
g94
g95
ssg83
g2605
sg76
(lp2612
g2002
asbag69
(g90
g71
NtRp2613
(dp2614
g74
(dp2615
g101
g102
ssg83
g2605
sg76
(lp2616
S':'
asbag69
(g90
g71
NtRp2617
(dp2618
g74
(dp2619
sg83
g2605
sg76
(lp2620
g69
(g70
g71
NtRp2621
(dp2622
g74
(dp2623
g82
I4
ssg83
g2617
sg76
(lp2624
g69
(g78
g71
NtRp2625
(dp2626
g74
(dp2627
g82
I3
ssg83
Nsg76
(lp2628
g69
(g85
g71
NtRp2629
(dp2630
g74
(dp2631
sg83
g2625
sg76
(lp2632
g69
(g90
g71
NtRp2633
(dp2634
g74
(dp2635
sg83
g2629
sg76
(lp2636
g69
(g70
g71
NtRp2637
(dp2638
g74
(dp2639
g82
I3
ssg83
g2633
sg76
(lp2640
S'1'
asbasbasbag69
(g85
g71
NtRp2641
(dp2642
g74
(dp2643
sg83
g2625
sg76
(lp2644
g69
(g90
g71
NtRp2645
(dp2646
g74
(dp2647
sg83
g2641
sg76
(lp2648
g69
(g70
g71
NtRp2649
(dp2650
g74
(dp2651
g82
I3
ssg83
g2645
sg76
(lp2652
S'99'
p2653
asbasbasbag69
(g85
g71
NtRp2654
(dp2655
g74
(dp2656
sg83
g2625
sg76
(lp2657
g69
(g90
g71
NtRp2658
(dp2659
g74
(dp2660
sg83
g2654
sg76
(lp2661
g69
(g70
g71
NtRp2662
(dp2663
g74
(dp2664
g82
I3
ssg83
g2658
sg76
(lp2665
S'7'
asbasbasbag69
(g85
g71
NtRp2666
(dp2667
g74
(dp2668
sg83
g2625
sg76
(lp2669
g69
(g90
g71
NtRp2670
(dp2671
g74
(dp2672
sg83
g2666
sg76
(lp2673
g69
(g70
g71
NtRp2674
(dp2675
g74
(dp2676
g82
I3
ssg83
g2670
sg76
(lp2677
S'datetime.datetime(2012, 3, 4, 22, 12, 8)'
p2678
asbasbasbag69
(g85
g71
NtRp2679
(dp2680
g74
(dp2681
sg83
g2625
sg76
(lp2682
g69
(g90
g71
NtRp2683
(dp2684
g74
(dp2685
sg83
g2679
sg76
(lp2686
g69
(g70
g71
NtRp2687
(dp2688
g74
(dp2689
g82
I3
ssg83
g2683
sg76
(lp2690
g2081
asbasbasbasbasbasbasbasbasbasbasbag69
(g85
g71
NtRp2691
(dp2692
g74
(dp2693
sg83
g79
sg76
(lp2694
g69
(g90
g71
NtRp2695
(dp2696
g74
(dp2697
g94
g95
ssg83
g2691
sg76
(lp2698
S'is_https'
p2699
asbag69
(g90
g71
NtRp2700
(dp2701
g74
(dp2702
g101
g102
ssg83
g2691
sg76
(lp2703
S':'
asbag69
(g90
g71
NtRp2704
(dp2705
g74
(dp2706
sg83
g2691
sg76
(lp2707
g69
(g70
g71
NtRp2708
(dp2709
g74
(dp2710
g82
I5
ssg83
g2704
sg76
(lp2711
g1385
asbasbasbag69
(g85
g71
NtRp2712
(dp2713
g74
(dp2714
sg83
g79
sg76
(lp2715
g69
(g90
g71
NtRp2716
(dp2717
g74
(dp2718
g94
g95
ssg83
g2712
sg76
(lp2719
S'is_local'
p2720
asbag69
(g90
g71
NtRp2721
(dp2722
g74
(dp2723
g101
g102
ssg83
g2712
sg76
(lp2724
S':'
asbag69
(g90
g71
NtRp2725
(dp2726
g74
(dp2727
sg83
g2712
sg76
(lp2728
g69
(g70
g71
NtRp2729
(dp2730
g74
(dp2731
g82
I5
ssg83
g2725
sg76
(lp2732
g112
asbasbasbag69
(g85
g71
NtRp2733
(dp2734
g74
(dp2735
sg83
g79
sg76
(lp2736
g69
(g90
g71
NtRp2737
(dp2738
g74
(dp2739
g94
g95
ssg83
g2733
sg76
(lp2740
S'is_restful'
p2741
asbag69
(g90
g71
NtRp2742
(dp2743
g74
(dp2744
g101
g102
ssg83
g2733
sg76
(lp2745
S':'
asbag69
(g90
g71
NtRp2746
(dp2747
g74
(dp2748
sg83
g2733
sg76
(lp2749
g69
(g70
g71
NtRp2750
(dp2751
g74
(dp2752
g82
I5
ssg83
g2746
sg76
(lp2753
g1385
asbasbasbag69
(g85
g71
NtRp2754
(dp2755
g74
(dp2756
sg83
g79
sg76
(lp2757
g69
(g90
g71
NtRp2758
(dp2759
g74
(dp2760
g94
g95
ssg83
g2754
sg76
(lp2761
S'now'
p2762
asbag69
(g90
g71
NtRp2763
(dp2764
g74
(dp2765
g101
g102
ssg83
g2754
sg76
(lp2766
S':'
asbag69
(g90
g71
NtRp2767
(dp2768
g74
(dp2769
sg83
g2754
sg76
(lp2770
g69
(g70
g71
NtRp2771
(dp2772
g74
(dp2773
g82
I5
ssg83
g2767
sg76
(lp2774
S'datetime.datetime(2012, 5, 7, 15, 28, 41, 742494)'
p2775
asbasbasbag69
(g85
g71
NtRp2776
(dp2777
g74
(dp2778
sg83
g79
sg76
(lp2779
g69
(g90
g71
NtRp2780
(dp2781
g74
(dp2782
g94
g95
ssg83
g2776
sg76
(lp2783
S'post_vars'
p2784
asbag69
(g90
g71
NtRp2785
(dp2786
g74
(dp2787
g101
g102
ssg83
g2776
sg76
(lp2788
S':'
asbag69
(g90
g71
NtRp2789
(dp2790
g74
(dp2791
sg83
g2776
sg76
(lp2792
g69
(g70
g71
NtRp2793
(dp2794
g74
(dp2795
g82
I5
ssg83
g2789
sg76
(lp2796
g69
(g78
g71
NtRp2797
(dp2798
g74
(dp2799
g82
I4
ssg83
Nsg76
(lp2800
g69
(g85
g71
NtRp2801
(dp2802
g74
(dp2803
sg83
g2797
sg76
(lp2804
g69
(g90
g71
NtRp2805
(dp2806
g74
(dp2807
g94
g95
ssg83
g2801
sg76
(lp2808
S'pro'
p2809
asbag69
(g90
g71
NtRp2810
(dp2811
g74
(dp2812
g101
g102
ssg83
g2801
sg76
(lp2813
S':'
asbag69
(g90
g71
NtRp2814
(dp2815
g74
(dp2816
sg83
g2801
sg76
(lp2817
g69
(g70
g71
NtRp2818
(dp2819
g74
(dp2820
g82
I4
ssg83
g2814
sg76
(lp2821
S''
asbasbasbasbasbasbasbag69
(g85
g71
NtRp2822
(dp2823
g74
(dp2824
sg83
g79
sg76
(lp2825
g69
(g90
g71
NtRp2826
(dp2827
g74
(dp2828
g94
g95
ssg83
g2822
sg76
(lp2829
S'url'
p2830
asbag69
(g90
g71
NtRp2831
(dp2832
g74
(dp2833
g101
g102
ssg83
g2822
sg76
(lp2834
S':'
asbag69
(g90
g71
NtRp2835
(dp2836
g74
(dp2837
sg83
g2822
sg76
(lp2838
g69
(g70
g71
NtRp2839
(dp2840
g74
(dp2841
g82
I5
ssg83
g2835
sg76
(lp2842
S'/themishrms/default/emp_task'
p2843
asbasbasbag69
(g85
g71
NtRp2844
(dp2845
g74
(dp2846
sg83
g79
sg76
(lp2847
g69
(g90
g71
NtRp2848
(dp2849
g74
(dp2850
g94
g95
ssg83
g2844
sg76
(lp2851
S'utcnow'
p2852
asbag69
(g90
g71
NtRp2853
(dp2854
g74
(dp2855
g101
g102
ssg83
g2844
sg76
(lp2856
S':'
asbag69
(g90
g71
NtRp2857
(dp2858
g74
(dp2859
sg83
g2844
sg76
(lp2860
g69
(g70
g71
NtRp2861
(dp2862
g74
(dp2863
g82
I5
ssg83
g2857
sg76
(lp2864
S'datetime.datetime(2012, 5, 7, 9, 58, 41, 742520)'
p2865
asbasbasbag69
(g85
g71
NtRp2866
(dp2867
g74
(dp2868
sg83
g79
sg76
(lp2869
g69
(g90
g71
NtRp2870
(dp2871
g74
(dp2872
g94
g95
ssg83
g2866
sg76
(lp2873
S'uuid'
p2874
asbag69
(g90
g71
NtRp2875
(dp2876
g74
(dp2877
g101
g102
ssg83
g2866
sg76
(lp2878
S':'
asbag69
(g90
g71
NtRp2879
(dp2880
g74
(dp2881
sg83
g2866
sg76
(lp2882
g69
(g70
g71
NtRp2883
(dp2884
g74
(dp2885
g82
I5
ssg83
g2879
sg76
(lp2886
S'themishrms/127.0.0.1.2012-05-07.15-28-41.211c0fd6-666b-4a5c-97eb-007b0418d6d7'
p2887
asbasbasbag69
(g85
g71
NtRp2888
(dp2889
g74
(dp2890
sg83
g79
sg76
(lp2891
g69
(g90
g71
NtRp2892
(dp2893
g74
(dp2894
g94
g95
ssg83
g2888
sg76
(lp2895
S'vars'
p2896
asbag69
(g90
g71
NtRp2897
(dp2898
g74
(dp2899
g101
g102
ssg83
g2888
sg76
(lp2900
S':'
asbag69
(g90
g71
NtRp2901
(dp2902
g74
(dp2903
sg83
g2888
sg76
(lp2904
g69
(g70
g71
NtRp2905
(dp2906
g74
(dp2907
g82
I5
ssg83
g2901
sg76
(lp2908
g69
(g78
g71
NtRp2909
(dp2910
g74
(dp2911
g82
I4
ssg83
Nsg76
(lp2912
g69
(g85
g71
NtRp2913
(dp2914
g74
(dp2915
sg83
g2909
sg76
(lp2916
g69
(g90
g71
NtRp2917
(dp2918
g74
(dp2919
g94
g95
ssg83
g2913
sg76
(lp2920
g2809
asbag69
(g90
g71
NtRp2921
(dp2922
g74
(dp2923
g101
g102
ssg83
g2913
sg76
(lp2924
S':'
asbag69
(g90
g71
NtRp2925
(dp2926
g74
(dp2927
sg83
g2913
sg76
(lp2928
g69
(g70
g71
NtRp2929
(dp2930
g74
(dp2931
g82
I4
ssg83
g2925
sg76
(lp2932
S''
asbasbasbasbasbasbasbag69
(g85
g71
NtRp2933
(dp2934
g74
(dp2935
sg83
g79
sg76
(lp2936
g69
(g90
g71
NtRp2937
(dp2938
g74
(dp2939
g94
g95
ssg83
g2933
sg76
(lp2940
S'wsgi'
p2941
asbag69
(g90
g71
NtRp2942
(dp2943
g74
(dp2944
g101
g102
ssg83
g2933
sg76
(lp2945
S':'
asbag69
(g90
g71
NtRp2946
(dp2947
g74
(dp2948
sg83
g2933
sg76
(lp2949
g69
(g70
g71
NtRp2950
(dp2951
g74
(dp2952
g82
I5
ssg83
g2946
sg76
(lp2953
g69
(g78
g71
NtRp2954
(dp2955
g74
(dp2956
g82
I4
ssg83
Nsg76
(lp2957
g69
(g85
g71
NtRp2958
(dp2959
g74
(dp2960
sg83
g2954
sg76
(lp2961
g69
(g90
g71
NtRp2962
(dp2963
g74
(dp2964
g94
g95
ssg83
g2958
sg76
(lp2965
S'environ'
p2966
asbag69
(g90
g71
NtRp2967
(dp2968
g74
(dp2969
g101
g102
ssg83
g2958
sg76
(lp2970
S':'
asbag69
(g90
g71
NtRp2971
(dp2972
g74
(dp2973
sg83
g2958
sg76
(lp2974
g69
(g70
g71
NtRp2975
(dp2976
g74
(dp2977
g82
I4
ssg83
g2971
sg76
(lp2978
g69
(g78
g71
NtRp2979
(dp2980
g74
(dp2981
g82
I3
ssg83
Nsg76
(lp2982
g69
(g85
g71
NtRp2983
(dp2984
g74
(dp2985
sg83
g2979
sg76
(lp2986
g69
(g90
g71
NtRp2987
(dp2988
g74
(dp2989
g94
g95
ssg83
g2983
sg76
(lp2990
S'CONTENT_LENGTH'
p2991
asbag69
(g90
g71
NtRp2992
(dp2993
g74
(dp2994
g101
g102
ssg83
g2983
sg76
(lp2995
S':'
asbag69
(g90
g71
NtRp2996
(dp2997
g74
(dp2998
sg83
g2983
sg76
(lp2999
g69
(g70
g71
NtRp3000
(dp3001
g74
(dp3002
g82
I3
ssg83
g2996
sg76
(lp3003
S'4'
asbasbasbag69
(g85
g71
NtRp3004
(dp3005
g74
(dp3006
sg83
g2979
sg76
(lp3007
g69
(g90
g71
NtRp3008
(dp3009
g74
(dp3010
g94
g95
ssg83
g3004
sg76
(lp3011
S'CONTENT_TYPE'
p3012
asbag69
(g90
g71
NtRp3013
(dp3014
g74
(dp3015
g101
g102
ssg83
g3004
sg76
(lp3016
S':'
asbag69
(g90
g71
NtRp3017
(dp3018
g74
(dp3019
sg83
g3004
sg76
(lp3020
g69
(g70
g71
NtRp3021
(dp3022
g74
(dp3023
g82
I3
ssg83
g3017
sg76
(lp3024
g1341
asbasbasbag69
(g85
g71
NtRp3025
(dp3026
g74
(dp3027
sg83
g2979
sg76
(lp3028
g69
(g90
g71
NtRp3029
(dp3030
g74
(dp3031
g94
g95
ssg83
g3025
sg76
(lp3032
S'HTTP_ACCEPT'
p3033
asbag69
(g90
g71
NtRp3034
(dp3035
g74
(dp3036
g101
g102
ssg83
g3025
sg76
(lp3037
S':'
asbag69
(g90
g71
NtRp3038
(dp3039
g74
(dp3040
sg83
g3025
sg76
(lp3041
g69
(g70
g71
NtRp3042
(dp3043
g74
(dp3044
g82
I3
ssg83
g3038
sg76
(lp3045
g1429
asbasbasbag69
(g85
g71
NtRp3046
(dp3047
g74
(dp3048
sg83
g2979
sg76
(lp3049
g69
(g90
g71
NtRp3050
(dp3051
g74
(dp3052
g94
g95
ssg83
g3046
sg76
(lp3053
S'HTTP_ACCEPT_CHARSET'
p3054
asbag69
(g90
g71
NtRp3055
(dp3056
g74
(dp3057
g101
g102
ssg83
g3046
sg76
(lp3058
S':'
asbag69
(g90
g71
NtRp3059
(dp3060
g74
(dp3061
sg83
g3046
sg76
(lp3062
g69
(g70
g71
NtRp3063
(dp3064
g74
(dp3065
g82
I3
ssg83
g3059
sg76
(lp3066
g1451
asbasbasbag69
(g85
g71
NtRp3067
(dp3068
g74
(dp3069
sg83
g2979
sg76
(lp3070
g69
(g90
g71
NtRp3071
(dp3072
g74
(dp3073
g94
g95
ssg83
g3067
sg76
(lp3074
S'HTTP_ACCEPT_ENCODING'
p3075
asbag69
(g90
g71
NtRp3076
(dp3077
g74
(dp3078
g101
g102
ssg83
g3067
sg76
(lp3079
S':'
asbag69
(g90
g71
NtRp3080
(dp3081
g74
(dp3082
sg83
g3067
sg76
(lp3083
g69
(g70
g71
NtRp3084
(dp3085
g74
(dp3086
g82
I3
ssg83
g3080
sg76
(lp3087
g1473
asbasbasbag69
(g85
g71
NtRp3088
(dp3089
g74
(dp3090
sg83
g2979
sg76
(lp3091
g69
(g90
g71
NtRp3092
(dp3093
g74
(dp3094
g94
g95
ssg83
g3088
sg76
(lp3095
S'HTTP_ACCEPT_LANGUAGE'
p3096
asbag69
(g90
g71
NtRp3097
(dp3098
g74
(dp3099
g101
g102
ssg83
g3088
sg76
(lp3100
S':'
asbag69
(g90
g71
NtRp3101
(dp3102
g74
(dp3103
sg83
g3088
sg76
(lp3104
g69
(g70
g71
NtRp3105
(dp3106
g74
(dp3107
g82
I3
ssg83
g3101
sg76
(lp3108
g1495
asbasbasbag69
(g85
g71
NtRp3109
(dp3110
g74
(dp3111
sg83
g2979
sg76
(lp3112
g69
(g90
g71
NtRp3113
(dp3114
g74
(dp3115
g94
g95
ssg83
g3109
sg76
(lp3116
S'HTTP_CONNECTION'
p3117
asbag69
(g90
g71
NtRp3118
(dp3119
g74
(dp3120
g101
g102
ssg83
g3109
sg76
(lp3121
S':'
asbag69
(g90
g71
NtRp3122
(dp3123
g74
(dp3124
sg83
g3109
sg76
(lp3125
g69
(g70
g71
NtRp3126
(dp3127
g74
(dp3128
g82
I3
ssg83
g3122
sg76
(lp3129
g1517
asbasbasbag69
(g85
g71
NtRp3130
(dp3131
g74
(dp3132
sg83
g2979
sg76
(lp3133
g69
(g90
g71
NtRp3134
(dp3135
g74
(dp3136
g94
g95
ssg83
g3130
sg76
(lp3137
S'HTTP_CONTENT_LENGTH'
p3138
asbag69
(g90
g71
NtRp3139
(dp3140
g74
(dp3141
g101
g102
ssg83
g3130
sg76
(lp3142
S':'
asbag69
(g90
g71
NtRp3143
(dp3144
g74
(dp3145
sg83
g3130
sg76
(lp3146
g69
(g70
g71
NtRp3147
(dp3148
g74
(dp3149
g82
I3
ssg83
g3143
sg76
(lp3150
S'4'
asbasbasbag69
(g85
g71
NtRp3151
(dp3152
g74
(dp3153
sg83
g2979
sg76
(lp3154
g69
(g90
g71
NtRp3155
(dp3156
g74
(dp3157
g94
g95
ssg83
g3151
sg76
(lp3158
S'HTTP_CONTENT_TYPE'
p3159
asbag69
(g90
g71
NtRp3160
(dp3161
g74
(dp3162
g101
g102
ssg83
g3151
sg76
(lp3163
S':'
asbag69
(g90
g71
NtRp3164
(dp3165
g74
(dp3166
sg83
g3151
sg76
(lp3167
g69
(g70
g71
NtRp3168
(dp3169
g74
(dp3170
g82
I3
ssg83
g3164
sg76
(lp3171
g1341
asbasbasbag69
(g85
g71
NtRp3172
(dp3173
g74
(dp3174
sg83
g2979
sg76
(lp3175
g69
(g90
g71
NtRp3176
(dp3177
g74
(dp3178
g94
g95
ssg83
g3172
sg76
(lp3179
S'HTTP_COOKIE'
p3180
asbag69
(g90
g71
NtRp3181
(dp3182
g74
(dp3183
g101
g102
ssg83
g3172
sg76
(lp3184
S':'
asbag69
(g90
g71
NtRp3185
(dp3186
g74
(dp3187
sg83
g3172
sg76
(lp3188
g69
(g70
g71
NtRp3189
(dp3190
g74
(dp3191
g82
I3
ssg83
g3185
sg76
(lp3192
g1581
asbasbasbag69
(g85
g71
NtRp3193
(dp3194
g74
(dp3195
sg83
g2979
sg76
(lp3196
g69
(g90
g71
NtRp3197
(dp3198
g74
(dp3199
g94
g95
ssg83
g3193
sg76
(lp3200
S'HTTP_HOST'
p3201
asbag69
(g90
g71
NtRp3202
(dp3203
g74
(dp3204
g101
g102
ssg83
g3193
sg76
(lp3205
S':'
asbag69
(g90
g71
NtRp3206
(dp3207
g74
(dp3208
sg83
g3193
sg76
(lp3209
g69
(g70
g71
NtRp3210
(dp3211
g74
(dp3212
g82
I3
ssg83
g3206
sg76
(lp3213
g1603
asbasbasbag69
(g85
g71
NtRp3214
(dp3215
g74
(dp3216
sg83
g2979
sg76
(lp3217
g69
(g90
g71
NtRp3218
(dp3219
g74
(dp3220
g94
g95
ssg83
g3214
sg76
(lp3221
S'HTTP_ORIGIN'
p3222
asbag69
(g90
g71
NtRp3223
(dp3224
g74
(dp3225
g101
g102
ssg83
g3214
sg76
(lp3226
S':'
asbag69
(g90
g71
NtRp3227
(dp3228
g74
(dp3229
sg83
g3214
sg76
(lp3230
g69
(g70
g71
NtRp3231
(dp3232
g74
(dp3233
g82
I3
ssg83
g3227
sg76
(lp3234
g1625
asbasbasbag69
(g85
g71
NtRp3235
(dp3236
g74
(dp3237
sg83
g2979
sg76
(lp3238
g69
(g90
g71
NtRp3239
(dp3240
g74
(dp3241
g94
g95
ssg83
g3235
sg76
(lp3242
S'HTTP_REFERER'
p3243
asbag69
(g90
g71
NtRp3244
(dp3245
g74
(dp3246
g101
g102
ssg83
g3235
sg76
(lp3247
S':'
asbag69
(g90
g71
NtRp3248
(dp3249
g74
(dp3250
sg83
g3235
sg76
(lp3251
g69
(g70
g71
NtRp3252
(dp3253
g74
(dp3254
g82
I3
ssg83
g3248
sg76
(lp3255
g1647
asbasbasbag69
(g85
g71
NtRp3256
(dp3257
g74
(dp3258
sg83
g2979
sg76
(lp3259
g69
(g90
g71
NtRp3260
(dp3261
g74
(dp3262
g94
g95
ssg83
g3256
sg76
(lp3263
S'HTTP_USER_AGENT'
p3264
asbag69
(g90
g71
NtRp3265
(dp3266
g74
(dp3267
g101
g102
ssg83
g3256
sg76
(lp3268
S':'
asbag69
(g90
g71
NtRp3269
(dp3270
g74
(dp3271
sg83
g3256
sg76
(lp3272
g69
(g70
g71
NtRp3273
(dp3274
g74
(dp3275
g82
I3
ssg83
g3269
sg76
(lp3276
g1669
asbasbasbag69
(g85
g71
NtRp3277
(dp3278
g74
(dp3279
sg83
g2979
sg76
(lp3280
g69
(g90
g71
NtRp3281
(dp3282
g74
(dp3283
g94
g95
ssg83
g3277
sg76
(lp3284
S'HTTP_X_REQUESTED_WITH'
p3285
asbag69
(g90
g71
NtRp3286
(dp3287
g74
(dp3288
g101
g102
ssg83
g3277
sg76
(lp3289
S':'
asbag69
(g90
g71
NtRp3290
(dp3291
g74
(dp3292
sg83
g3277
sg76
(lp3293
g69
(g70
g71
NtRp3294
(dp3295
g74
(dp3296
g82
I3
ssg83
g3290
sg76
(lp3297
g1691
asbasbasbag69
(g85
g71
NtRp3298
(dp3299
g74
(dp3300
sg83
g2979
sg76
(lp3301
g69
(g90
g71
NtRp3302
(dp3303
g74
(dp3304
g94
g95
ssg83
g3298
sg76
(lp3305
S'PATH_INFO'
p3306
asbag69
(g90
g71
NtRp3307
(dp3308
g74
(dp3309
g101
g102
ssg83
g3298
sg76
(lp3310
S':'
asbag69
(g90
g71
NtRp3311
(dp3312
g74
(dp3313
sg83
g3298
sg76
(lp3314
g69
(g70
g71
NtRp3315
(dp3316
g74
(dp3317
g82
I3
ssg83
g3311
sg76
(lp3318
g1755
asbasbasbag69
(g85
g71
NtRp3319
(dp3320
g74
(dp3321
sg83
g2979
sg76
(lp3322
g69
(g90
g71
NtRp3323
(dp3324
g74
(dp3325
g94
g95
ssg83
g3319
sg76
(lp3326
S'QUERY_STRING'
p3327
asbag69
(g90
g71
NtRp3328
(dp3329
g74
(dp3330
g101
g102
ssg83
g3319
sg76
(lp3331
S':'
asbag69
(g90
g71
NtRp3332
(dp3333
g74
(dp3334
sg83
g3319
sg76
(lp3335
g69
(g70
g71
NtRp3336
(dp3337
g74
(dp3338
g82
I3
ssg83
g3332
sg76
(lp3339
S''
asbasbasbag69
(g85
g71
NtRp3340
(dp3341
g74
(dp3342
sg83
g2979
sg76
(lp3343
g69
(g90
g71
NtRp3344
(dp3345
g74
(dp3346
g94
g95
ssg83
g3340
sg76
(lp3347
S'REMOTE_ADDR'
p3348
asbag69
(g90
g71
NtRp3349
(dp3350
g74
(dp3351
g101
g102
ssg83
g3340
sg76
(lp3352
S':'
asbag69
(g90
g71
NtRp3353
(dp3354
g74
(dp3355
sg83
g3340
sg76
(lp3356
g69
(g70
g71
NtRp3357
(dp3358
g74
(dp3359
g82
I3
ssg83
g3353
sg76
(lp3360
g202
asbasbasbag69
(g85
g71
NtRp3361
(dp3362
g74
(dp3363
sg83
g2979
sg76
(lp3364
g69
(g90
g71
NtRp3365
(dp3366
g74
(dp3367
g94
g95
ssg83
g3361
sg76
(lp3368
S'REMOTE_PORT'
p3369
asbag69
(g90
g71
NtRp3370
(dp3371
g74
(dp3372
g101
g102
ssg83
g3361
sg76
(lp3373
S':'
asbag69
(g90
g71
NtRp3374
(dp3375
g74
(dp3376
sg83
g3361
sg76
(lp3377
g69
(g70
g71
NtRp3378
(dp3379
g74
(dp3380
g82
I3
ssg83
g3374
sg76
(lp3381
g1819
asbasbasbag69
(g85
g71
NtRp3382
(dp3383
g74
(dp3384
sg83
g2979
sg76
(lp3385
g69
(g90
g71
NtRp3386
(dp3387
g74
(dp3388
g94
g95
ssg83
g3382
sg76
(lp3389
S'REQUEST_METHOD'
p3390
asbag69
(g90
g71
NtRp3391
(dp3392
g74
(dp3393
g101
g102
ssg83
g3382
sg76
(lp3394
S':'
asbag69
(g90
g71
NtRp3395
(dp3396
g74
(dp3397
sg83
g3382
sg76
(lp3398
g69
(g70
g71
NtRp3399
(dp3400
g74
(dp3401
g82
I3
ssg83
g3395
sg76
(lp3402
g1841
asbasbasbag69
(g85
g71
NtRp3403
(dp3404
g74
(dp3405
sg83
g2979
sg76
(lp3406
g69
(g90
g71
NtRp3407
(dp3408
g74
(dp3409
g94
g95
ssg83
g3403
sg76
(lp3410
S'SCRIPT_NAME'
p3411
asbag69
(g90
g71
NtRp3412
(dp3413
g74
(dp3414
g101
g102
ssg83
g3403
sg76
(lp3415
S':'
asbag69
(g90
g71
NtRp3416
(dp3417
g74
(dp3418
sg83
g3403
sg76
(lp3419
g69
(g70
g71
NtRp3420
(dp3421
g74
(dp3422
g82
I3
ssg83
g3416
sg76
(lp3423
S''
asbasbasbag69
(g85
g71
NtRp3424
(dp3425
g74
(dp3426
sg83
g2979
sg76
(lp3427
g69
(g90
g71
NtRp3428
(dp3429
g74
(dp3430
g94
g95
ssg83
g3424
sg76
(lp3431
S'SERVER_NAME'
p3432
asbag69
(g90
g71
NtRp3433
(dp3434
g74
(dp3435
g101
g102
ssg83
g3424
sg76
(lp3436
S':'
asbag69
(g90
g71
NtRp3437
(dp3438
g74
(dp3439
sg83
g3424
sg76
(lp3440
g69
(g70
g71
NtRp3441
(dp3442
g74
(dp3443
g82
I3
ssg83
g3437
sg76
(lp3444
g1884
asbasbasbag69
(g85
g71
NtRp3445
(dp3446
g74
(dp3447
sg83
g2979
sg76
(lp3448
g69
(g90
g71
NtRp3449
(dp3450
g74
(dp3451
g94
g95
ssg83
g3445
sg76
(lp3452
S'SERVER_PORT'
p3453
asbag69
(g90
g71
NtRp3454
(dp3455
g74
(dp3456
g101
g102
ssg83
g3445
sg76
(lp3457
S':'
asbag69
(g90
g71
NtRp3458
(dp3459
g74
(dp3460
sg83
g3445
sg76
(lp3461
g69
(g70
g71
NtRp3462
(dp3463
g74
(dp3464
g82
I3
ssg83
g3458
sg76
(lp3465
g1906
asbasbasbag69
(g85
g71
NtRp3466
(dp3467
g74
(dp3468
sg83
g2979
sg76
(lp3469
g69
(g90
g71
NtRp3470
(dp3471
g74
(dp3472
g94
g95
ssg83
g3466
sg76
(lp3473
S'SERVER_PROTOCOL'
p3474
asbag69
(g90
g71
NtRp3475
(dp3476
g74
(dp3477
g101
g102
ssg83
g3466
sg76
(lp3478
S':'
asbag69
(g90
g71
NtRp3479
(dp3480
g74
(dp3481
sg83
g3466
sg76
(lp3482
g69
(g70
g71
NtRp3483
(dp3484
g74
(dp3485
g82
I3
ssg83
g3479
sg76
(lp3486
g1928
asbasbasbag69
(g85
g71
NtRp3487
(dp3488
g74
(dp3489
sg83
g2979
sg76
(lp3490
g69
(g90
g71
NtRp3491
(dp3492
g74
(dp3493
g94
g95
ssg83
g3487
sg76
(lp3494
S'SERVER_SOFTWARE'
p3495
asbag69
(g90
g71
NtRp3496
(dp3497
g74
(dp3498
g101
g102
ssg83
g3487
sg76
(lp3499
S':'
asbag69
(g90
g71
NtRp3500
(dp3501
g74
(dp3502
sg83
g3487
sg76
(lp3503
g69
(g70
g71
NtRp3504
(dp3505
g74
(dp3506
g82
I3
ssg83
g3500
sg76
(lp3507
g1950
asbasbasbag69
(g85
g71
NtRp3508
(dp3509
g74
(dp3510
sg83
g2979
sg76
(lp3511
g69
(g90
g71
NtRp3512
(dp3513
g74
(dp3514
g94
g95
ssg83
g3508
sg76
(lp3515
S'wsgi.errors'
p3516
asbag69
(g90
g71
NtRp3517
(dp3518
g74
(dp3519
g101
g102
ssg83
g3508
sg76
(lp3520
S':'
asbag69
(g90
g71
NtRp3521
(dp3522
g74
(dp3523
sg83
g3508
sg76
(lp3524
g69
(g70
g71
NtRp3525
(dp3526
g74
(dp3527
g82
I3
ssg83
g3521
sg76
(lp3528
S"<open file '<stderr>', mode 'w' at 0xb73810d0>"
p3529
asbasbasbag69
(g85
g71
NtRp3530
(dp3531
g74
(dp3532
sg83
g2979
sg76
(lp3533
g69
(g90
g71
NtRp3534
(dp3535
g74
(dp3536
g94
g95
ssg83
g3530
sg76
(lp3537
S'wsgi.file_wrapper'
p3538
asbag69
(g90
g71
NtRp3539
(dp3540
g74
(dp3541
g101
g102
ssg83
g3530
sg76
(lp3542
S':'
asbag69
(g90
g71
NtRp3543
(dp3544
g74
(dp3545
sg83
g3530
sg76
(lp3546
g69
(g70
g71
NtRp3547
(dp3548
g74
(dp3549
g82
I3
ssg83
g3543
sg76
(lp3550
S'<class wsgiref.util.FileWrapper at 0x8deeaac>'
p3551
asbasbasbag69
(g85
g71
NtRp3552
(dp3553
g74
(dp3554
sg83
g2979
sg76
(lp3555
g69
(g90
g71
NtRp3556
(dp3557
g74
(dp3558
g94
g95
ssg83
g3552
sg76
(lp3559
S'wsgi.input'
p3560
asbag69
(g90
g71
NtRp3561
(dp3562
g74
(dp3563
g101
g102
ssg83
g3552
sg76
(lp3564
S':'
asbag69
(g90
g71
NtRp3565
(dp3566
g74
(dp3567
sg83
g3552
sg76
(lp3568
g69
(g70
g71
NtRp3569
(dp3570
g74
(dp3571
g82
I3
ssg83
g3565
sg76
(lp3572
S"<open file '<fdopen>', mode 'w+b' at 0x979fb78>"
p3573
asbasbasbag69
(g85
g71
NtRp3574
(dp3575
g74
(dp3576
sg83
g2979
sg76
(lp3577
g69
(g90
g71
NtRp3578
(dp3579
g74
(dp3580
g94
g95
ssg83
g3574
sg76
(lp3581
S'wsgi.multiprocess'
p3582
asbag69
(g90
g71
NtRp3583
(dp3584
g74
(dp3585
g101
g102
ssg83
g3574
sg76
(lp3586
S':'
asbag69
(g90
g71
NtRp3587
(dp3588
g74
(dp3589
sg83
g3574
sg76
(lp3590
g69
(g70
g71
NtRp3591
(dp3592
g74
(dp3593
g82
I3
ssg83
g3587
sg76
(lp3594
g1385
asbasbasbag69
(g85
g71
NtRp3595
(dp3596
g74
(dp3597
sg83
g2979
sg76
(lp3598
g69
(g90
g71
NtRp3599
(dp3600
g74
(dp3601
g94
g95
ssg83
g3595
sg76
(lp3602
S'wsgi.multithread'
p3603
asbag69
(g90
g71
NtRp3604
(dp3605
g74
(dp3606
g101
g102
ssg83
g3595
sg76
(lp3607
S':'
asbag69
(g90
g71
NtRp3608
(dp3609
g74
(dp3610
sg83
g3595
sg76
(lp3611
g69
(g70
g71
NtRp3612
(dp3613
g74
(dp3614
g82
I3
ssg83
g3608
sg76
(lp3615
g112
asbasbasbag69
(g85
g71
NtRp3616
(dp3617
g74
(dp3618
sg83
g2979
sg76
(lp3619
g69
(g90
g71
NtRp3620
(dp3621
g74
(dp3622
g94
g95
ssg83
g3616
sg76
(lp3623
S'wsgi.run_once'
p3624
asbag69
(g90
g71
NtRp3625
(dp3626
g74
(dp3627
g101
g102
ssg83
g3616
sg76
(lp3628
S':'
asbag69
(g90
g71
NtRp3629
(dp3630
g74
(dp3631
sg83
g3616
sg76
(lp3632
g69
(g70
g71
NtRp3633
(dp3634
g74
(dp3635
g82
I3
ssg83
g3629
sg76
(lp3636
g1385
asbasbasbag69
(g85
g71
NtRp3637
(dp3638
g74
(dp3639
sg83
g2979
sg76
(lp3640
g69
(g90
g71
NtRp3641
(dp3642
g74
(dp3643
g94
g95
ssg83
g3637
sg76
(lp3644
S'wsgi.url_scheme'
p3645
asbag69
(g90
g71
NtRp3646
(dp3647
g74
(dp3648
g101
g102
ssg83
g3637
sg76
(lp3649
S':'
asbag69
(g90
g71
NtRp3650
(dp3651
g74
(dp3652
sg83
g3637
sg76
(lp3653
g69
(g70
g71
NtRp3654
(dp3655
g74
(dp3656
g82
I3
ssg83
g3650
sg76
(lp3657
g2232
asbasbasbag69
(g85
g71
NtRp3658
(dp3659
g74
(dp3660
sg83
g2979
sg76
(lp3661
g69
(g90
g71
NtRp3662
(dp3663
g74
(dp3664
g94
g95
ssg83
g3658
sg76
(lp3665
S'wsgi.version'
p3666
asbag69
(g90
g71
NtRp3667
(dp3668
g74
(dp3669
g101
g102
ssg83
g3658
sg76
(lp3670
S':'
asbag69
(g90
g71
NtRp3671
(dp3672
g74
(dp3673
sg83
g3658
sg76
(lp3674
g69
(g70
g71
NtRp3675
(dp3676
g74
(dp3677
g82
I3
ssg83
g3671
sg76
(lp3678
S'1'
asbasbasbasbasbasbasbasbasbasbasbasbasbsS'frames'
p3679
(lp3680
(dp3681
S'file'
p3682
S'/home/tls-sanjeet/Desktop/HRMS/web2py/gluon/restricted.py'
p3683
sS'dump'
p3684
(dp3685
S'code'
p3686
S"'# -*- coding: utf-8 -*-\\n# this file is released ...ages)\\n\\nresponse._vars=response._caller(emp_task)\\n'"
p3687
sS'layer'
p3688
S"'/home/tls-sanjeet/Desktop/HRMS/web2py/applications/themishrms/controllers/default.py'"
p3689
sS'global compile2'
p3690
S'<function compile2>'
p3691
sS'ccode'
p3692
S'undefined'
p3693
ssS'lnum'
p3694
I204
sS'lines'
p3695
(dp3696
I199
S"    environment['__name__'] = '__restricted__'"
p3697
sI200
S'    try:'
p3698
sI201
S'        if type(code) == types.CodeType:'
p3699
sI202
S'            ccode = code'
p3700
sI203
S'        else:'
p3701
sI204
S'            ccode = compile2(code,layer)'
p3702
sI205
S'        exec ccode in environment'
p3703
sI206
S'    except HTTP:'
p3704
sI207
S'        raise'
p3705
sI208
S'    except RestrictedError:'
p3706
ssS'call'
p3707
S"(code='# -*- coding: utf-8 -*-\\n# this file is released ...ages)\\n\\nresponse._vars=response._caller(emp_task)\\n', environment={'A': <class 'gluon.html.A'>, 'Auth': <class 'gluon.tools.Auth'>, 'B': <class 'gluon.html.B'>, 'BEAUTIFY': <class 'gluon.html.BEAUTIFY'>, 'BODY': <class 'gluon.html.BODY'>, 'BR': <class 'gluon.html.BR'>, 'BUTTON': <class 'gluon.html.BUTTON'>, 'CAT': <class 'gluon.html.CAT'>, 'CENTER': <class 'gluon.html.CENTER'>, 'CLEANUP': <class 'gluon.validators.CLEANUP'>, ...}, layer='/home/tls-sanjeet/Desktop/HRMS/web2py/applications/themishrms/controllers/default.py')"
p3708
sS'func'
p3709
S'restricted'
p3710
sa(dp3711
g3682
S'/home/tls-sanjeet/Desktop/HRMS/web2py/gluon/restricted.py'
p3712
sg3684
(dp3713
S'builtincompile'
p3714
S'<built-in function compile>'
p3715
sS'code'
p3716
S"'# -*- coding: utf-8 -*-\\n# this file is released ...ages)\\n\\nresponse._vars=response._caller(emp_task)\\n'"
p3717
sS'code.rstrip'
p3718
S'<built-in method rstrip of str object>'
p3719
sS').replace'
p3720
g3693
sS'layer'
p3721
S"'/home/tls-sanjeet/Desktop/HRMS/web2py/applications/themishrms/controllers/default.py'"
p3722
ssg3694
I189
sg3695
(dp3723
I192
S'    """'
p3724
sI193
S'    runs code in environment and returns the output. if an exception occurs'
p3725
sI184
S''
sI185
S'def compile2(code,layer):'
p3726
sI186
S'    """'
p3727
sI187
S"    The +'\\n' is necessary else compile fails when code ends in a comment."
p3728
sI188
S'    """'
p3729
sI189
S"    return compile(code.rstrip().replace('\\r\\n','\\n')+'\\n', layer, 'exec')"
p3730
sI190
S''
sI191
S"def restricted(code, environment=None, layer='Unknown'):"
p3731
ssg3707
S"(code='# -*- coding: utf-8 -*-\\n# this file is released ...ages)\\n\\nresponse._vars=response._caller(emp_task)\\n', layer='/home/tls-sanjeet/Desktop/HRMS/web2py/applications/themishrms/controllers/default.py')"
p3732
sg3709
S'compile2'
p3733
sasS'pyver'
p3734
S'Python 2.6.5: /usr/bin/python'
p3735
sS'session'
p3736
g69
(g70
g71
NtRp3737
(dp3738
g74
(dp3739
sg76
(lp3740
g69
(g78
g71
NtRp3741
(dp3742
g74
(dp3743
g82
I5
ssg83
Nsg76
(lp3744
g69
(g85
g71
NtRp3745
(dp3746
g74
(dp3747
sg83
g3741
sg76
(lp3748
g69
(g90
g71
NtRp3749
(dp3750
g74
(dp3751
g94
g95
ssg83
g3745
sg76
(lp3752
S'auth'
p3753
asbag69
(g90
g71
NtRp3754
(dp3755
g74
(dp3756
g101
g102
ssg83
g3745
sg76
(lp3757
S':'
asbag69
(g90
g71
NtRp3758
(dp3759
g74
(dp3760
sg83
g3745
sg76
(lp3761
g69
(g70
g71
NtRp3762
(dp3763
g74
(dp3764
g82
I5
ssg83
g3758
sg76
(lp3765
g69
(g78
g71
NtRp3766
(dp3767
g74
(dp3768
g82
I4
ssg83
Nsg76
(lp3769
g69
(g85
g71
NtRp3770
(dp3771
g74
(dp3772
sg83
g3766
sg76
(lp3773
g69
(g90
g71
NtRp3774
(dp3775
g74
(dp3776
g94
g95
ssg83
g3770
sg76
(lp3777
S'expiration'
p3778
asbag69
(g90
g71
NtRp3779
(dp3780
g74
(dp3781
g101
g102
ssg83
g3770
sg76
(lp3782
S':'
asbag69
(g90
g71
NtRp3783
(dp3784
g74
(dp3785
sg83
g3770
sg76
(lp3786
g69
(g70
g71
NtRp3787
(dp3788
g74
(dp3789
g82
I4
ssg83
g3783
sg76
(lp3790
S'3600'
p3791
asbasbasbag69
(g85
g71
NtRp3792
(dp3793
g74
(dp3794
sg83
g3766
sg76
(lp3795
g69
(g90
g71
NtRp3796
(dp3797
g74
(dp3798
g94
g95
ssg83
g3792
sg76
(lp3799
S'hmac_key'
p3800
asbag69
(g90
g71
NtRp3801
(dp3802
g74
(dp3803
g101
g102
ssg83
g3792
sg76
(lp3804
S':'
asbag69
(g90
g71
NtRp3805
(dp3806
g74
(dp3807
sg83
g3792
sg76
(lp3808
g69
(g70
g71
NtRp3809
(dp3810
g74
(dp3811
g82
I4
ssg83
g3805
sg76
(lp3812
S'46098238-6c96-4898-991b-c753b46a284a'
p3813
asbasbasbag69
(g85
g71
NtRp3814
(dp3815
g74
(dp3816
sg83
g3766
sg76
(lp3817
g69
(g90
g71
NtRp3818
(dp3819
g74
(dp3820
g94
g95
ssg83
g3814
sg76
(lp3821
S'last_visit'
p3822
asbag69
(g90
g71
NtRp3823
(dp3824
g74
(dp3825
g101
g102
ssg83
g3814
sg76
(lp3826
S':'
asbag69
(g90
g71
NtRp3827
(dp3828
g74
(dp3829
sg83
g3814
sg76
(lp3830
g69
(g70
g71
NtRp3831
(dp3832
g74
(dp3833
g82
I4
ssg83
g3827
sg76
(lp3834
S'datetime.datetime(2012, 5, 7, 15, 28, 41, 742494)'
p3835
asbasbasbag69
(g85
g71
NtRp3836
(dp3837
g74
(dp3838
sg83
g3766
sg76
(lp3839
g69
(g90
g71
NtRp3840
(dp3841
g74
(dp3842
g94
g95
ssg83
g3836
sg76
(lp3843
S'remember'
p3844
asbag69
(g90
g71
NtRp3845
(dp3846
g74
(dp3847
g101
g102
ssg83
g3836
sg76
(lp3848
S':'
asbag69
(g90
g71
NtRp3849
(dp3850
g74
(dp3851
sg83
g3836
sg76
(lp3852
g69
(g70
g71
NtRp3853
(dp3854
g74
(dp3855
g82
I4
ssg83
g3849
sg76
(lp3856
g1385
asbasbasbag69
(g85
g71
NtRp3857
(dp3858
g74
(dp3859
sg83
g3766
sg76
(lp3860
g69
(g90
g71
NtRp3861
(dp3862
g74
(dp3863
g94
g95
ssg83
g3857
sg76
(lp3864
S'user'
p3865
asbag69
(g90
g71
NtRp3866
(dp3867
g74
(dp3868
g101
g102
ssg83
g3857
sg76
(lp3869
S':'
asbag69
(g90
g71
NtRp3870
(dp3871
g74
(dp3872
sg83
g3857
sg76
(lp3873
g69
(g70
g71
NtRp3874
(dp3875
g74
(dp3876
g82
I4
ssg83
g3870
sg76
(lp3877
g69
(g78
g71
NtRp3878
(dp3879
g74
(dp3880
g82
I3
ssg83
Nsg76
(lp3881
g69
(g85
g71
NtRp3882
(dp3883
g74
(dp3884
sg83
g3878
sg76
(lp3885
g69
(g90
g71
NtRp3886
(dp3887
g74
(dp3888
g94
g95
ssg83
g3882
sg76
(lp3889
S'date_of_exit'
p3890
asbag69
(g90
g71
NtRp3891
(dp3892
g74
(dp3893
g101
g102
ssg83
g3882
sg76
(lp3894
S':'
asbag69
(g90
g71
NtRp3895
(dp3896
g74
(dp3897
sg83
g3882
sg76
(lp3898
g69
(g70
g71
NtRp3899
(dp3900
g74
(dp3901
g82
I3
ssg83
g3895
sg76
(lp3902
S'None'
p3903
asbasbasbag69
(g85
g71
NtRp3904
(dp3905
g74
(dp3906
sg83
g3878
sg76
(lp3907
g69
(g90
g71
NtRp3908
(dp3909
g74
(dp3910
g94
g95
ssg83
g3904
sg76
(lp3911
S'date_of_joining'
p3912
asbag69
(g90
g71
NtRp3913
(dp3914
g74
(dp3915
g101
g102
ssg83
g3904
sg76
(lp3916
S':'
asbag69
(g90
g71
NtRp3917
(dp3918
g74
(dp3919
sg83
g3904
sg76
(lp3920
g69
(g70
g71
NtRp3921
(dp3922
g74
(dp3923
g82
I3
ssg83
g3917
sg76
(lp3924
S'datetime.date(2012, 5, 28)'
p3925
asbasbasbag69
(g85
g71
NtRp3926
(dp3927
g74
(dp3928
sg83
g3878
sg76
(lp3929
g69
(g90
g71
NtRp3930
(dp3931
g74
(dp3932
g94
g95
ssg83
g3926
sg76
(lp3933
S'department'
p3934
asbag69
(g90
g71
NtRp3935
(dp3936
g74
(dp3937
g101
g102
ssg83
g3926
sg76
(lp3938
S':'
asbag69
(g90
g71
NtRp3939
(dp3940
g74
(dp3941
sg83
g3926
sg76
(lp3942
g69
(g70
g71
NtRp3943
(dp3944
g74
(dp3945
g82
I3
ssg83
g3939
sg76
(lp3946
S'IT'
p3947
asbasbasbag69
(g85
g71
NtRp3948
(dp3949
g74
(dp3950
sg83
g3878
sg76
(lp3951
g69
(g90
g71
NtRp3952
(dp3953
g74
(dp3954
g94
g95
ssg83
g3948
sg76
(lp3955
S'designation'
p3956
asbag69
(g90
g71
NtRp3957
(dp3958
g74
(dp3959
g101
g102
ssg83
g3948
sg76
(lp3960
S':'
asbag69
(g90
g71
NtRp3961
(dp3962
g74
(dp3963
sg83
g3948
sg76
(lp3964
g69
(g70
g71
NtRp3965
(dp3966
g74
(dp3967
g82
I3
ssg83
g3961
sg76
(lp3968
S'Web Developer'
p3969
asbasbasbag69
(g85
g71
NtRp3970
(dp3971
g74
(dp3972
sg83
g3878
sg76
(lp3973
g69
(g90
g71
NtRp3974
(dp3975
g74
(dp3976
g94
g95
ssg83
g3970
sg76
(lp3977
S'email'
p3978
asbag69
(g90
g71
NtRp3979
(dp3980
g74
(dp3981
g101
g102
ssg83
g3970
sg76
(lp3982
S':'
asbag69
(g90
g71
NtRp3983
(dp3984
g74
(dp3985
sg83
g3970
sg76
(lp3986
g69
(g70
g71
NtRp3987
(dp3988
g74
(dp3989
g82
I3
ssg83
g3983
sg76
(lp3990
S'sanjeet.tls@gmail.com'
p3991
asbasbasbag69
(g85
g71
NtRp3992
(dp3993
g74
(dp3994
sg83
g3878
sg76
(lp3995
g69
(g90
g71
NtRp3996
(dp3997
g74
(dp3998
g94
g95
ssg83
g3992
sg76
(lp3999
S'employee_code'
p4000
asbag69
(g90
g71
NtRp4001
(dp4002
g74
(dp4003
g101
g102
ssg83
g3992
sg76
(lp4004
S':'
asbag69
(g90
g71
NtRp4005
(dp4006
g74
(dp4007
sg83
g3992
sg76
(lp4008
g69
(g70
g71
NtRp4009
(dp4010
g74
(dp4011
g82
I3
ssg83
g4005
sg76
(lp4012
S'TLS001'
p4013
asbasbasbag69
(g85
g71
NtRp4014
(dp4015
g74
(dp4016
sg83
g3878
sg76
(lp4017
g69
(g90
g71
NtRp4018
(dp4019
g74
(dp4020
g94
g95
ssg83
g4014
sg76
(lp4021
S'employee_status'
p4022
asbag69
(g90
g71
NtRp4023
(dp4024
g74
(dp4025
g101
g102
ssg83
g4014
sg76
(lp4026
S':'
asbag69
(g90
g71
NtRp4027
(dp4028
g74
(dp4029
sg83
g4014
sg76
(lp4030
g69
(g70
g71
NtRp4031
(dp4032
g74
(dp4033
g82
I3
ssg83
g4027
sg76
(lp4034
S'Active'
p4035
asbasbasbag69
(g85
g71
NtRp4036
(dp4037
g74
(dp4038
sg83
g3878
sg76
(lp4039
g69
(g90
g71
NtRp4040
(dp4041
g74
(dp4042
g94
g95
ssg83
g4036
sg76
(lp4043
S'exit_remark'
p4044
asbag69
(g90
g71
NtRp4045
(dp4046
g74
(dp4047
g101
g102
ssg83
g4036
sg76
(lp4048
S':'
asbag69
(g90
g71
NtRp4049
(dp4050
g74
(dp4051
sg83
g4036
sg76
(lp4052
g69
(g70
g71
NtRp4053
(dp4054
g74
(dp4055
g82
I3
ssg83
g4049
sg76
(lp4056
S'None'
p4057
asbasbasbag69
(g85
g71
NtRp4058
(dp4059
g74
(dp4060
sg83
g3878
sg76
(lp4061
g69
(g90
g71
NtRp4062
(dp4063
g74
(dp4064
g94
g95
ssg83
g4058
sg76
(lp4065
S'first_name'
p4066
asbag69
(g90
g71
NtRp4067
(dp4068
g74
(dp4069
g101
g102
ssg83
g4058
sg76
(lp4070
S':'
asbag69
(g90
g71
NtRp4071
(dp4072
g74
(dp4073
sg83
g4058
sg76
(lp4074
g69
(g70
g71
NtRp4075
(dp4076
g74
(dp4077
g82
I3
ssg83
g4071
sg76
(lp4078
S'Sanjeet'
p4079
asbasbasbag69
(g85
g71
NtRp4080
(dp4081
g74
(dp4082
sg83
g3878
sg76
(lp4083
g69
(g90
g71
NtRp4084
(dp4085
g74
(dp4086
g94
g95
ssg83
g4080
sg76
(lp4087
S'id'
p4088
asbag69
(g90
g71
NtRp4089
(dp4090
g74
(dp4091
g101
g102
ssg83
g4080
sg76
(lp4092
S':'
asbag69
(g90
g71
NtRp4093
(dp4094
g74
(dp4095
sg83
g4080
sg76
(lp4096
g69
(g70
g71
NtRp4097
(dp4098
g74
(dp4099
g82
I3
ssg83
g4093
sg76
(lp4100
S'2'
asbasbasbag69
(g85
g71
NtRp4101
(dp4102
g74
(dp4103
sg83
g3878
sg76
(lp4104
g69
(g90
g71
NtRp4105
(dp4106
g74
(dp4107
g94
g95
ssg83
g4101
sg76
(lp4108
S'last_name'
p4109
asbag69
(g90
g71
NtRp4110
(dp4111
g74
(dp4112
g101
g102
ssg83
g4101
sg76
(lp4113
S':'
asbag69
(g90
g71
NtRp4114
(dp4115
g74
(dp4116
sg83
g4101
sg76
(lp4117
g69
(g70
g71
NtRp4118
(dp4119
g74
(dp4120
g82
I3
ssg83
g4114
sg76
(lp4121
S'Kumar'
p4122
asbasbasbag69
(g85
g71
NtRp4123
(dp4124
g74
(dp4125
sg83
g3878
sg76
(lp4126
g69
(g90
g71
NtRp4127
(dp4128
g74
(dp4129
g94
g95
ssg83
g4123
sg76
(lp4130
S'location'
p4131
asbag69
(g90
g71
NtRp4132
(dp4133
g74
(dp4134
g101
g102
ssg83
g4123
sg76
(lp4135
S':'
asbag69
(g90
g71
NtRp4136
(dp4137
g74
(dp4138
sg83
g4123
sg76
(lp4139
g69
(g70
g71
NtRp4140
(dp4141
g74
(dp4142
g82
I3
ssg83
g4136
sg76
(lp4143
S'Bangalore'
p4144
asbasbasbag69
(g85
g71
NtRp4145
(dp4146
g74
(dp4147
sg83
g3878
sg76
(lp4148
g69
(g90
g71
NtRp4149
(dp4150
g74
(dp4151
g94
g95
ssg83
g4145
sg76
(lp4152
S'organization_name'
p4153
asbag69
(g90
g71
NtRp4154
(dp4155
g74
(dp4156
g101
g102
ssg83
g4145
sg76
(lp4157
S':'
asbag69
(g90
g71
NtRp4158
(dp4159
g74
(dp4160
sg83
g4145
sg76
(lp4161
g69
(g70
g71
NtRp4162
(dp4163
g74
(dp4164
g82
I3
ssg83
g4158
sg76
(lp4165
S'Themis Lexsol'
p4166
asbasbasbag69
(g85
g71
NtRp4167
(dp4168
g74
(dp4169
sg83
g3878
sg76
(lp4170
g69
(g90
g71
NtRp4171
(dp4172
g74
(dp4173
g94
g95
ssg83
g4167
sg76
(lp4174
S'password'
p4175
asbag69
(g90
g71
NtRp4176
(dp4177
g74
(dp4178
g101
g102
ssg83
g4167
sg76
(lp4179
S':'
asbag69
(g90
g71
NtRp4180
(dp4181
g74
(dp4182
sg83
g4167
sg76
(lp4183
g69
(g70
g71
NtRp4184
(dp4185
g74
(dp4186
g82
I3
ssg83
g4180
sg76
(lp4187
S'3b00954a2acd03e4a32d91f4bdebb4b7'
p4188
asbasbasbag69
(g85
g71
NtRp4189
(dp4190
g74
(dp4191
sg83
g3878
sg76
(lp4192
g69
(g90
g71
NtRp4193
(dp4194
g74
(dp4195
g94
g95
ssg83
g4189
sg76
(lp4196
S'personal_email'
p4197
asbag69
(g90
g71
NtRp4198
(dp4199
g74
(dp4200
g101
g102
ssg83
g4189
sg76
(lp4201
S':'
asbag69
(g90
g71
NtRp4202
(dp4203
g74
(dp4204
sg83
g4189
sg76
(lp4205
g69
(g70
g71
NtRp4206
(dp4207
g74
(dp4208
g82
I3
ssg83
g4202
sg76
(lp4209
S'sanjeet.tls@gmail.com'
p4210
asbasbasbag69
(g85
g71
NtRp4211
(dp4212
g74
(dp4213
sg83
g3878
sg76
(lp4214
g69
(g90
g71
NtRp4215
(dp4216
g74
(dp4217
g94
g95
ssg83
g4211
sg76
(lp4218
S'registration_id'
p4219
asbag69
(g90
g71
NtRp4220
(dp4221
g74
(dp4222
g101
g102
ssg83
g4211
sg76
(lp4223
S':'
asbag69
(g90
g71
NtRp4224
(dp4225
g74
(dp4226
sg83
g4211
sg76
(lp4227
g69
(g70
g71
NtRp4228
(dp4229
g74
(dp4230
g82
I3
ssg83
g4224
sg76
(lp4231
S''
asbasbasbag69
(g85
g71
NtRp4232
(dp4233
g74
(dp4234
sg83
g3878
sg76
(lp4235
g69
(g90
g71
NtRp4236
(dp4237
g74
(dp4238
g94
g95
ssg83
g4232
sg76
(lp4239
S'registration_key'
p4240
asbag69
(g90
g71
NtRp4241
(dp4242
g74
(dp4243
g101
g102
ssg83
g4232
sg76
(lp4244
S':'
asbag69
(g90
g71
NtRp4245
(dp4246
g74
(dp4247
sg83
g4232
sg76
(lp4248
g69
(g70
g71
NtRp4249
(dp4250
g74
(dp4251
g82
I3
ssg83
g4245
sg76
(lp4252
S''
asbasbasbag69
(g85
g71
NtRp4253
(dp4254
g74
(dp4255
sg83
g3878
sg76
(lp4256
g69
(g90
g71
NtRp4257
(dp4258
g74
(dp4259
g94
g95
ssg83
g4253
sg76
(lp4260
S'reporting_manager'
p4261
asbag69
(g90
g71
NtRp4262
(dp4263
g74
(dp4264
g101
g102
ssg83
g4253
sg76
(lp4265
S':'
asbag69
(g90
g71
NtRp4266
(dp4267
g74
(dp4268
sg83
g4253
sg76
(lp4269
g69
(g70
g71
NtRp4270
(dp4271
g74
(dp4272
g82
I3
ssg83
g4266
sg76
(lp4273
S'admin@themislexsol.com'
p4274
asbasbasbag69
(g85
g71
NtRp4275
(dp4276
g74
(dp4277
sg83
g3878
sg76
(lp4278
g69
(g90
g71
NtRp4279
(dp4280
g74
(dp4281
g94
g95
ssg83
g4275
sg76
(lp4282
S'reset_password_key'
p4283
asbag69
(g90
g71
NtRp4284
(dp4285
g74
(dp4286
g101
g102
ssg83
g4275
sg76
(lp4287
S':'
asbag69
(g90
g71
NtRp4288
(dp4289
g74
(dp4290
sg83
g4275
sg76
(lp4291
g69
(g70
g71
NtRp4292
(dp4293
g74
(dp4294
g82
I3
ssg83
g4288
sg76
(lp4295
S''
asbasbasbasbasbasbasbag69
(g85
g71
NtRp4296
(dp4297
g74
(dp4298
sg83
g3766
sg76
(lp4299
g69
(g90
g71
NtRp4300
(dp4301
g74
(dp4302
g94
g95
ssg83
g4296
sg76
(lp4303
S'user_groups'
p4304
asbag69
(g90
g71
NtRp4305
(dp4306
g74
(dp4307
g101
g102
ssg83
g4296
sg76
(lp4308
S':'
asbag69
(g90
g71
NtRp4309
(dp4310
g74
(dp4311
sg83
g4296
sg76
(lp4312
g69
(g70
g71
NtRp4313
(dp4314
g74
(dp4315
g82
I4
ssg83
g4309
sg76
(lp4316
g69
(g78
g71
NtRp4317
(dp4318
g74
(dp4319
g82
I3
ssg83
Nsg76
(lp4320
g69
(g85
g71
NtRp4321
(dp4322
g74
(dp4323
sg83
g4317
sg76
(lp4324
g69
(g90
g71
NtRp4325
(dp4326
g74
(dp4327
g94
g95
ssg83
g4321
sg76
(lp4328
S'2'
asbag69
(g90
g71
NtRp4329
(dp4330
g74
(dp4331
g101
g102
ssg83
g4321
sg76
(lp4332
S':'
asbag69
(g90
g71
NtRp4333
(dp4334
g74
(dp4335
sg83
g4321
sg76
(lp4336
g69
(g70
g71
NtRp4337
(dp4338
g74
(dp4339
g82
I3
ssg83
g4333
sg76
(lp4340
S'Emp'
p4341
asbasbasbag69
(g85
g71
NtRp4342
(dp4343
g74
(dp4344
sg83
g4317
sg76
(lp4345
g69
(g90
g71
NtRp4346
(dp4347
g74
(dp4348
g94
g95
ssg83
g4342
sg76
(lp4349
S'3'
asbag69
(g90
g71
NtRp4350
(dp4351
g74
(dp4352
g101
g102
ssg83
g4342
sg76
(lp4353
S':'
asbag69
(g90
g71
NtRp4354
(dp4355
g74
(dp4356
sg83
g4342
sg76
(lp4357
g69
(g70
g71
NtRp4358
(dp4359
g74
(dp4360
g82
I3
ssg83
g4354
sg76
(lp4361
S'Mgr'
p4362
asbasbasbasbasbasbasbasbasbasbasbag69
(g85
g71
NtRp4363
(dp4364
g74
(dp4365
sg83
g3741
sg76
(lp4366
g69
(g90
g71
NtRp4367
(dp4368
g74
(dp4369
g94
g95
ssg83
g4363
sg76
(lp4370
S'cutime'
p4371
asbag69
(g90
g71
NtRp4372
(dp4373
g74
(dp4374
g101
g102
ssg83
g4363
sg76
(lp4375
S':'
asbag69
(g90
g71
NtRp4376
(dp4377
g74
(dp4378
sg83
g4363
sg76
(lp4379
g69
(g70
g71
NtRp4380
(dp4381
g74
(dp4382
g82
I5
ssg83
g4376
sg76
(lp4383
S'15:01:56'
p4384
asbasbasbag69
(g85
g71
NtRp4385
(dp4386
g74
(dp4387
sg83
g3741
sg76
(lp4388
g69
(g90
g71
NtRp4389
(dp4390
g74
(dp4391
g94
g95
ssg83
g4385
sg76
(lp4392
S'last_query'
p4393
asbag69
(g90
g71
NtRp4394
(dp4395
g74
(dp4396
g101
g102
ssg83
g4385
sg76
(lp4397
S':'
asbag69
(g90
g71
NtRp4398
(dp4399
g74
(dp4400
sg83
g4385
sg76
(lp4401
g69
(g70
g71
NtRp4402
(dp4403
g74
(dp4404
g82
I5
ssg83
g4398
sg76
(lp4405
S'db.project.id>0'
p4406
asbasbasbag69
(g85
g71
NtRp4407
(dp4408
g74
(dp4409
sg83
g3741
sg76
(lp4410
g69
(g90
g71
NtRp4411
(dp4412
g74
(dp4413
g94
g95
ssg83
g4407
sg76
(lp4414
S'starttime'
p4415
asbag69
(g90
g71
NtRp4416
(dp4417
g74
(dp4418
g101
g102
ssg83
g4407
sg76
(lp4419
S':'
asbag69
(g90
g71
NtRp4420
(dp4421
g74
(dp4422
sg83
g4407
sg76
(lp4423
g69
(g70
g71
NtRp4424
(dp4425
g74
(dp4426
g82
I5
ssg83
g4420
sg76
(lp4427
S'datetime.datetime(2012, 5, 7, 15, 1, 56, 448815)'
p4428
asbasbasbag69
(g85
g71
NtRp4429
(dp4430
g74
(dp4431
sg83
g3741
sg76
(lp4432
g69
(g90
g71
NtRp4433
(dp4434
g74
(dp4435
g94
g95
ssg83
g4429
sg76
(lp4436
S'time'
p4437
asbag69
(g90
g71
NtRp4438
(dp4439
g74
(dp4440
g101
g102
ssg83
g4429
sg76
(lp4441
S':'
asbag69
(g90
g71
NtRp4442
(dp4443
g74
(dp4444
sg83
g4429
sg76
(lp4445
g69
(g70
g71
NtRp4446
(dp4447
g74
(dp4448
g82
I5
ssg83
g4442
sg76
(lp4449
S'15:01:56'
p4450
asbasbasbasbasbsS'etype'
p4451
S"<type 'exceptions.SyntaxError'>"
p4452
sS'date'
p4453
S'Mon May  7 15:28:41 2012'
p4454
sS'response'
p4455
g69
(g70
g71
NtRp4456
(dp4457
g74
(dp4458
sg76
(lp4459
g69
(g78
g71
NtRp4460
(dp4461
g74
(dp4462
g82
I5
ssg83
Nsg76
(lp4463
g69
(g85
g71
NtRp4464
(dp4465
g74
(dp4466
sg83
g4460
sg76
(lp4467
g69
(g90
g71
NtRp4468
(dp4469
g74
(dp4470
g94
g95
ssg83
g4464
sg76
(lp4471
S'atlsmenu'
p4472
asbag69
(g90
g71
NtRp4473
(dp4474
g74
(dp4475
g101
g102
ssg83
g4464
sg76
(lp4476
S':'
asbag69
(g90
g71
NtRp4477
(dp4478
g74
(dp4479
sg83
g4464
sg76
(lp4480
g69
(g70
g71
NtRp4481
(dp4482
g74
(dp4483
g82
I5
ssg83
g4477
sg76
(lp4484
g69
(g78
g71
NtRp4485
(dp4486
g74
(dp4487
g82
I4
ssg83
Nsg76
(lp4488
g69
(g85
g71
NtRp4489
(dp4490
g74
(dp4491
sg83
g4485
sg76
(lp4492
g69
(g90
g71
NtRp4493
(dp4494
g74
(dp4495
sg83
g4489
sg76
(lp4496
g69
(g70
g71
NtRp4497
(dp4498
g74
(dp4499
g82
I4
ssg83
g4493
sg76
(lp4500
g69
(g78
g71
NtRp4501
(dp4502
g74
(dp4503
g82
I3
ssg83
Nsg76
(lp4504
g69
(g85
g71
NtRp4505
(dp4506
g74
(dp4507
sg83
g4501
sg76
(lp4508
g69
(g90
g71
NtRp4509
(dp4510
g74
(dp4511
sg83
g4505
sg76
(lp4512
g69
(g70
g71
NtRp4513
(dp4514
g74
(dp4515
g82
I3
ssg83
g4509
sg76
(lp4516
cgluon.languages
lazyT_unpickle
p4517
(S's\x07\x00\x00\x00Website'
tRp4518
asbasbasbag69
(g85
g71
NtRp4519
(dp4520
g74
(dp4521
sg83
g4501
sg76
(lp4522
g69
(g90
g71
NtRp4523
(dp4524
g74
(dp4525
sg83
g4519
sg76
(lp4526
g69
(g70
g71
NtRp4527
(dp4528
g74
(dp4529
g82
I3
ssg83
g4523
sg76
(lp4530
g1385
asbasbasbag69
(g85
g71
NtRp4531
(dp4532
g74
(dp4533
sg83
g4501
sg76
(lp4534
g69
(g90
g71
NtRp4535
(dp4536
g74
(dp4537
sg83
g4531
sg76
(lp4538
g69
(g70
g71
NtRp4539
(dp4540
g74
(dp4541
g82
I3
ssg83
g4535
sg76
(lp4542
S'/themishrms/default/index'
p4543
asbasbasbag69
(g85
g71
NtRp4544
(dp4545
g74
(dp4546
sg83
g4501
sg76
(lp4547
g69
(g90
g71
NtRp4548
(dp4549
g74
(dp4550
sg83
g4544
sg76
(lp4551
g69
(g70
g71
NtRp4552
(dp4553
g74
(dp4554
g82
I3
ssg83
g4548
sg76
(lp4555
g69
(g78
g71
NtRp4556
(dp4557
g74
(dp4558
g82
I2
ssg83
Nsg76
(lp4559
sbasbasbasbasbasbasbasbag69
(g85
g71
NtRp4560
(dp4561
g74
(dp4562
sg83
g4485
sg76
(lp4563
g69
(g90
g71
NtRp4564
(dp4565
g74
(dp4566
sg83
g4560
sg76
(lp4567
g69
(g70
g71
NtRp4568
(dp4569
g74
(dp4570
g82
I4
ssg83
g4564
sg76
(lp4571
g69
(g78
g71
NtRp4572
(dp4573
g74
(dp4574
g82
I3
ssg83
Nsg76
(lp4575
g69
(g85
g71
NtRp4576
(dp4577
g74
(dp4578
sg83
g4572
sg76
(lp4579
g69
(g90
g71
NtRp4580
(dp4581
g74
(dp4582
sg83
g4576
sg76
(lp4583
g69
(g70
g71
NtRp4584
(dp4585
g74
(dp4586
g82
I3
ssg83
g4580
sg76
(lp4587
g4517
(S's\x07\x00\x00\x00Webmail'
tRp4588
asbasbasbag69
(g85
g71
NtRp4589
(dp4590
g74
(dp4591
sg83
g4572
sg76
(lp4592
g69
(g90
g71
NtRp4593
(dp4594
g74
(dp4595
sg83
g4589
sg76
(lp4596
g69
(g70
g71
NtRp4597
(dp4598
g74
(dp4599
g82
I3
ssg83
g4593
sg76
(lp4600
g1385
asbasbasbag69
(g85
g71
NtRp4601
(dp4602
g74
(dp4603
sg83
g4572
sg76
(lp4604
g69
(g90
g71
NtRp4605
(dp4606
g74
(dp4607
sg83
g4601
sg76
(lp4608
g69
(g70
g71
NtRp4609
(dp4610
g74
(dp4611
g82
I3
ssg83
g4605
sg76
(lp4612
S'/themishrms/default/#'
p4613
asbasbasbag69
(g85
g71
NtRp4614
(dp4615
g74
(dp4616
sg83
g4572
sg76
(lp4617
g69
(g90
g71
NtRp4618
(dp4619
g74
(dp4620
sg83
g4614
sg76
(lp4621
g69
(g70
g71
NtRp4622
(dp4623
g74
(dp4624
g82
I3
ssg83
g4618
sg76
(lp4625
g69
(g78
g71
NtRp4626
(dp4627
g74
(dp4628
g82
I2
ssg83
Nsg76
(lp4629
sbasbasbasbasbasbasbasbag69
(g85
g71
NtRp4630
(dp4631
g74
(dp4632
sg83
g4485
sg76
(lp4633
g69
(g90
g71
NtRp4634
(dp4635
g74
(dp4636
sg83
g4630
sg76
(lp4637
g69
(g70
g71
NtRp4638
(dp4639
g74
(dp4640
g82
I4
ssg83
g4634
sg76
(lp4641
g69
(g78
g71
NtRp4642
(dp4643
g74
(dp4644
g82
I3
ssg83
Nsg76
(lp4645
g69
(g85
g71
NtRp4646
(dp4647
g74
(dp4648
sg83
g4642
sg76
(lp4649
g69
(g90
g71
NtRp4650
(dp4651
g74
(dp4652
sg83
g4646
sg76
(lp4653
g69
(g70
g71
NtRp4654
(dp4655
g74
(dp4656
g82
I3
ssg83
g4650
sg76
(lp4657
g4517
(S's\r\x00\x00\x00Themis Portal'
tRp4658
asbasbasbag69
(g85
g71
NtRp4659
(dp4660
g74
(dp4661
sg83
g4642
sg76
(lp4662
g69
(g90
g71
NtRp4663
(dp4664
g74
(dp4665
sg83
g4659
sg76
(lp4666
g69
(g70
g71
NtRp4667
(dp4668
g74
(dp4669
g82
I3
ssg83
g4663
sg76
(lp4670
g1385
asbasbasbag69
(g85
g71
NtRp4671
(dp4672
g74
(dp4673
sg83
g4642
sg76
(lp4674
g69
(g90
g71
NtRp4675
(dp4676
g74
(dp4677
sg83
g4671
sg76
(lp4678
g69
(g70
g71
NtRp4679
(dp4680
g74
(dp4681
g82
I3
ssg83
g4675
sg76
(lp4682
S'/themishrms/default/#'
p4683
asbasbasbag69
(g85
g71
NtRp4684
(dp4685
g74
(dp4686
sg83
g4642
sg76
(lp4687
g69
(g90
g71
NtRp4688
(dp4689
g74
(dp4690
sg83
g4684
sg76
(lp4691
g69
(g70
g71
NtRp4692
(dp4693
g74
(dp4694
g82
I3
ssg83
g4688
sg76
(lp4695
g69
(g78
g71
NtRp4696
(dp4697
g74
(dp4698
g82
I2
ssg83
Nsg76
(lp4699
sbasbasbasbasbasbasbasbag69
(g85
g71
NtRp4700
(dp4701
g74
(dp4702
sg83
g4485
sg76
(lp4703
g69
(g90
g71
NtRp4704
(dp4705
g74
(dp4706
sg83
g4700
sg76
(lp4707
g69
(g70
g71
NtRp4708
(dp4709
g74
(dp4710
g82
I4
ssg83
g4704
sg76
(lp4711
g69
(g78
g71
NtRp4712
(dp4713
g74
(dp4714
g82
I3
ssg83
Nsg76
(lp4715
g69
(g85
g71
NtRp4716
(dp4717
g74
(dp4718
sg83
g4712
sg76
(lp4719
g69
(g90
g71
NtRp4720
(dp4721
g74
(dp4722
sg83
g4716
sg76
(lp4723
g69
(g70
g71
NtRp4724
(dp4725
g74
(dp4726
g82
I3
ssg83
g4720
sg76
(lp4727
g4517
(S's\x0f\x00\x00\x00Themis Policies'
tRp4728
asbasbasbag69
(g85
g71
NtRp4729
(dp4730
g74
(dp4731
sg83
g4712
sg76
(lp4732
g69
(g90
g71
NtRp4733
(dp4734
g74
(dp4735
sg83
g4729
sg76
(lp4736
g69
(g70
g71
NtRp4737
(dp4738
g74
(dp4739
g82
I3
ssg83
g4733
sg76
(lp4740
g1385
asbasbasbag69
(g85
g71
NtRp4741
(dp4742
g74
(dp4743
sg83
g4712
sg76
(lp4744
g69
(g90
g71
NtRp4745
(dp4746
g74
(dp4747
sg83
g4741
sg76
(lp4748
g69
(g70
g71
NtRp4749
(dp4750
g74
(dp4751
g82
I3
ssg83
g4745
sg76
(lp4752
S'/themishrms/default/add_project'
p4753
asbasbasbag69
(g85
g71
NtRp4754
(dp4755
g74
(dp4756
sg83
g4712
sg76
(lp4757
g69
(g90
g71
NtRp4758
(dp4759
g74
(dp4760
sg83
g4754
sg76
(lp4761
g69
(g70
g71
NtRp4762
(dp4763
g74
(dp4764
g82
I3
ssg83
g4758
sg76
(lp4765
g69
(g78
g71
NtRp4766
(dp4767
g74
(dp4768
g82
I2
ssg83
Nsg76
(lp4769
sbasbasbasbasbasbasbasbag69
(g85
g71
NtRp4770
(dp4771
g74
(dp4772
sg83
g4485
sg76
(lp4773
g69
(g90
g71
NtRp4774
(dp4775
g74
(dp4776
sg83
g4770
sg76
(lp4777
g69
(g70
g71
NtRp4778
(dp4779
g74
(dp4780
g82
I4
ssg83
g4774
sg76
(lp4781
g69
(g78
g71
NtRp4782
(dp4783
g74
(dp4784
g82
I3
ssg83
Nsg76
(lp4785
g69
(g85
g71
NtRp4786
(dp4787
g74
(dp4788
sg83
g4782
sg76
(lp4789
g69
(g90
g71
NtRp4790
(dp4791
g74
(dp4792
sg83
g4786
sg76
(lp4793
g69
(g70
g71
NtRp4794
(dp4795
g74
(dp4796
g82
I3
ssg83
g4790
sg76
(lp4797
g4517
(S's\x0f\x00\x00\x00Contact Details'
tRp4798
asbasbasbag69
(g85
g71
NtRp4799
(dp4800
g74
(dp4801
sg83
g4782
sg76
(lp4802
g69
(g90
g71
NtRp4803
(dp4804
g74
(dp4805
sg83
g4799
sg76
(lp4806
g69
(g70
g71
NtRp4807
(dp4808
g74
(dp4809
g82
I3
ssg83
g4803
sg76
(lp4810
g1385
asbasbasbag69
(g85
g71
NtRp4811
(dp4812
g74
(dp4813
sg83
g4782
sg76
(lp4814
g69
(g90
g71
NtRp4815
(dp4816
g74
(dp4817
sg83
g4811
sg76
(lp4818
g69
(g70
g71
NtRp4819
(dp4820
g74
(dp4821
g82
I3
ssg83
g4815
sg76
(lp4822
S'/themishrms/default/admin_contact_detail'
p4823
asbasbasbag69
(g85
g71
NtRp4824
(dp4825
g74
(dp4826
sg83
g4782
sg76
(lp4827
g69
(g90
g71
NtRp4828
(dp4829
g74
(dp4830
sg83
g4824
sg76
(lp4831
g69
(g70
g71
NtRp4832
(dp4833
g74
(dp4834
g82
I3
ssg83
g4828
sg76
(lp4835
g69
(g78
g71
NtRp4836
(dp4837
g74
(dp4838
g82
I2
ssg83
Nsg76
(lp4839
sbasbasbasbasbasbasbasbasbasbasbasbag69
(g85
g71
NtRp4840
(dp4841
g74
(dp4842
sg83
g4460
sg76
(lp4843
g69
(g90
g71
NtRp4844
(dp4845
g74
(dp4846
g94
g95
ssg83
g4840
sg76
(lp4847
g167
asbag69
(g90
g71
NtRp4848
(dp4849
g74
(dp4850
g101
g102
ssg83
g4840
sg76
(lp4851
S':'
asbag69
(g90
g71
NtRp4852
(dp4853
g74
(dp4854
sg83
g4840
sg76
(lp4855
g69
(g70
g71
NtRp4856
(dp4857
g74
(dp4858
g82
I5
ssg83
g4852
sg76
(lp4859
S'<cStringIO.StringO object at 0x9a01ec0>'
p4860
asbasbasbag69
(g85
g71
NtRp4861
(dp4862
g74
(dp4863
sg83
g4460
sg76
(lp4864
g69
(g90
g71
NtRp4865
(dp4866
g74
(dp4867
g94
g95
ssg83
g4861
sg76
(lp4868
g233
asbag69
(g90
g71
NtRp4869
(dp4870
g74
(dp4871
g101
g102
ssg83
g4861
sg76
(lp4872
S':'
asbag69
(g90
g71
NtRp4873
(dp4874
g74
(dp4875
sg83
g4861
sg76
(lp4876
g69
(g70
g71
NtRp4877
(dp4878
g74
(dp4879
g82
I5
ssg83
g4873
sg76
(lp4880
g69
(g78
g71
NtRp4881
(dp4882
g74
(dp4883
g82
I4
ssg83
Nsg76
(lp4884
g69
(g85
g71
NtRp4885
(dp4886
g74
(dp4887
sg83
g4881
sg76
(lp4888
g69
(g90
g71
NtRp4889
(dp4890
g74
(dp4891
g94
g95
ssg83
g4885
sg76
(lp4892
S'session_id_themishrms'
p4893
asbag69
(g90
g71
NtRp4894
(dp4895
g74
(dp4896
g101
g102
ssg83
g4885
sg76
(lp4897
S':'
asbag69
(g90
g71
NtRp4898
(dp4899
g74
(dp4900
sg83
g4885
sg76
(lp4901
g69
(g70
g71
NtRp4902
(dp4903
g74
(dp4904
g82
I4
ssg83
g4898
sg76
(lp4905
g69
(g78
g71
NtRp4906
(dp4907
g74
(dp4908
g82
I3
ssg83
Nsg76
(lp4909
g69
(g85
g71
NtRp4910
(dp4911
g74
(dp4912
sg83
g4906
sg76
(lp4913
g69
(g90
g71
NtRp4914
(dp4915
g74
(dp4916
g94
g95
ssg83
g4910
sg76
(lp4917
g283
asbag69
(g90
g71
NtRp4918
(dp4919
g74
(dp4920
g101
g102
ssg83
g4910
sg76
(lp4921
S':'
asbag69
(g90
g71
NtRp4922
(dp4923
g74
(dp4924
sg83
g4910
sg76
(lp4925
g69
(g70
g71
NtRp4926
(dp4927
g74
(dp4928
g82
I3
ssg83
g4922
sg76
(lp4929
S''
asbasbasbag69
(g85
g71
NtRp4930
(dp4931
g74
(dp4932
sg83
g4906
sg76
(lp4933
g69
(g90
g71
NtRp4934
(dp4935
g74
(dp4936
g94
g95
ssg83
g4930
sg76
(lp4937
g304
asbag69
(g90
g71
NtRp4938
(dp4939
g74
(dp4940
g101
g102
ssg83
g4930
sg76
(lp4941
S':'
asbag69
(g90
g71
NtRp4942
(dp4943
g74
(dp4944
sg83
g4930
sg76
(lp4945
g69
(g70
g71
NtRp4946
(dp4947
g74
(dp4948
g82
I3
ssg83
g4942
sg76
(lp4949
S''
asbasbasbag69
(g85
g71
NtRp4950
(dp4951
g74
(dp4952
sg83
g4906
sg76
(lp4953
g69
(g90
g71
NtRp4954
(dp4955
g74
(dp4956
g94
g95
ssg83
g4950
sg76
(lp4957
g325
asbag69
(g90
g71
NtRp4958
(dp4959
g74
(dp4960
g101
g102
ssg83
g4950
sg76
(lp4961
S':'
asbag69
(g90
g71
NtRp4962
(dp4963
g74
(dp4964
sg83
g4950
sg76
(lp4965
g69
(g70
g71
NtRp4966
(dp4967
g74
(dp4968
g82
I3
ssg83
g4962
sg76
(lp4969
S''
asbasbasbag69
(g85
g71
NtRp4970
(dp4971
g74
(dp4972
sg83
g4906
sg76
(lp4973
g69
(g90
g71
NtRp4974
(dp4975
g74
(dp4976
g94
g95
ssg83
g4970
sg76
(lp4977
g346
asbag69
(g90
g71
NtRp4978
(dp4979
g74
(dp4980
g101
g102
ssg83
g4970
sg76
(lp4981
S':'
asbag69
(g90
g71
NtRp4982
(dp4983
g74
(dp4984
sg83
g4970
sg76
(lp4985
g69
(g70
g71
NtRp4986
(dp4987
g74
(dp4988
g82
I3
ssg83
g4982
sg76
(lp4989
S''
asbasbasbag69
(g85
g71
NtRp4990
(dp4991
g74
(dp4992
sg83
g4906
sg76
(lp4993
g69
(g90
g71
NtRp4994
(dp4995
g74
(dp4996
g94
g95
ssg83
g4990
sg76
(lp4997
g367
asbag69
(g90
g71
NtRp4998
(dp4999
g74
(dp5000
g101
g102
ssg83
g4990
sg76
(lp5001
S':'
asbag69
(g90
g71
NtRp5002
(dp5003
g74
(dp5004
sg83
g4990
sg76
(lp5005
g69
(g70
g71
NtRp5006
(dp5007
g74
(dp5008
g82
I3
ssg83
g5002
sg76
(lp5009
S''
asbasbasbag69
(g85
g71
NtRp5010
(dp5011
g74
(dp5012
sg83
g4906
sg76
(lp5013
g69
(g90
g71
NtRp5014
(dp5015
g74
(dp5016
g94
g95
ssg83
g5010
sg76
(lp5017
g388
asbag69
(g90
g71
NtRp5018
(dp5019
g74
(dp5020
g101
g102
ssg83
g5010
sg76
(lp5021
S':'
asbag69
(g90
g71
NtRp5022
(dp5023
g74
(dp5024
sg83
g5010
sg76
(lp5025
g69
(g70
g71
NtRp5026
(dp5027
g74
(dp5028
g82
I3
ssg83
g5022
sg76
(lp5029
S'/'
asbasbasbag69
(g85
g71
NtRp5030
(dp5031
g74
(dp5032
sg83
g4906
sg76
(lp5033
g69
(g90
g71
NtRp5034
(dp5035
g74
(dp5036
g94
g95
ssg83
g5030
sg76
(lp5037
g409
asbag69
(g90
g71
NtRp5038
(dp5039
g74
(dp5040
g101
g102
ssg83
g5030
sg76
(lp5041
S':'
asbag69
(g90
g71
NtRp5042
(dp5043
g74
(dp5044
sg83
g5030
sg76
(lp5045
g69
(g70
g71
NtRp5046
(dp5047
g74
(dp5048
g82
I3
ssg83
g5042
sg76
(lp5049
S''
asbasbasbag69
(g85
g71
NtRp5050
(dp5051
g74
(dp5052
sg83
g4906
sg76
(lp5053
g69
(g90
g71
NtRp5054
(dp5055
g74
(dp5056
g94
g95
ssg83
g5050
sg76
(lp5057
g430
asbag69
(g90
g71
NtRp5058
(dp5059
g74
(dp5060
g101
g102
ssg83
g5050
sg76
(lp5061
S':'
asbag69
(g90
g71
NtRp5062
(dp5063
g74
(dp5064
sg83
g5050
sg76
(lp5065
g69
(g70
g71
NtRp5066
(dp5067
g74
(dp5068
g82
I3
ssg83
g5062
sg76
(lp5069
S''
asbasbasbasbasbasbasbasbasbasbasbag69
(g85
g71
NtRp5070
(dp5071
g74
(dp5072
sg83
g4460
sg76
(lp5073
g69
(g90
g71
NtRp5074
(dp5075
g74
(dp5076
g94
g95
ssg83
g5070
sg76
(lp5077
S'delimiters'
p5078
asbag69
(g90
g71
NtRp5079
(dp5080
g74
(dp5081
g101
g102
ssg83
g5070
sg76
(lp5082
S':'
asbag69
(g90
g71
NtRp5083
(dp5084
g74
(dp5085
sg83
g5070
sg76
(lp5086
g69
(g70
g71
NtRp5087
(dp5088
g74
(dp5089
g82
I5
ssg83
g5083
sg76
(lp5090
g69
(g78
g71
NtRp5091
(dp5092
g74
(dp5093
g82
I4
ssg83
Nsg76
(lp5094
g69
(g85
g71
NtRp5095
(dp5096
g74
(dp5097
sg83
g5091
sg76
(lp5098
g69
(g90
g71
NtRp5099
(dp5100
g74
(dp5101
sg83
g5095
sg76
(lp5102
g69
(g70
g71
NtRp5103
(dp5104
g74
(dp5105
g82
I4
ssg83
g5099
sg76
(lp5106
S'{{'
p5107
asbasbasbag69
(g85
g71
NtRp5108
(dp5109
g74
(dp5110
sg83
g5091
sg76
(lp5111
g69
(g90
g71
NtRp5112
(dp5113
g74
(dp5114
sg83
g5108
sg76
(lp5115
g69
(g70
g71
NtRp5116
(dp5117
g74
(dp5118
g82
I4
ssg83
g5112
sg76
(lp5119
S'}}'
p5120
asbasbasbasbasbasbasbag69
(g85
g71
NtRp5121
(dp5122
g74
(dp5123
sg83
g4460
sg76
(lp5124
g69
(g90
g71
NtRp5125
(dp5126
g74
(dp5127
g94
g95
ssg83
g5121
sg76
(lp5128
S'files'
p5129
asbag69
(g90
g71
NtRp5130
(dp5131
g74
(dp5132
g101
g102
ssg83
g5121
sg76
(lp5133
S':'
asbag69
(g90
g71
NtRp5134
(dp5135
g74
(dp5136
sg83
g5121
sg76
(lp5137
g69
(g70
g71
NtRp5138
(dp5139
g74
(dp5140
g82
I5
ssg83
g5134
sg76
(lp5141
g69
(g78
g71
NtRp5142
(dp5143
g74
(dp5144
g82
I4
ssg83
Nsg76
(lp5145
sbasbasbasbag69
(g85
g71
NtRp5146
(dp5147
g74
(dp5148
sg83
g4460
sg76
(lp5149
g69
(g90
g71
NtRp5150
(dp5151
g74
(dp5152
g94
g95
ssg83
g5146
sg76
(lp5153
S'flash'
p5154
asbag69
(g90
g71
NtRp5155
(dp5156
g74
(dp5157
g101
g102
ssg83
g5146
sg76
(lp5158
S':'
asbag69
(g90
g71
NtRp5159
(dp5160
g74
(dp5161
sg83
g5146
sg76
(lp5162
g69
(g70
g71
NtRp5163
(dp5164
g74
(dp5165
g82
I5
ssg83
g5159
sg76
(lp5166
S''
asbasbasbag69
(g85
g71
NtRp5167
(dp5168
g74
(dp5169
sg83
g4460
sg76
(lp5170
g69
(g90
g71
NtRp5171
(dp5172
g74
(dp5173
g94
g95
ssg83
g5167
sg76
(lp5174
S'generic_patterns'
p5175
asbag69
(g90
g71
NtRp5176
(dp5177
g74
(dp5178
g101
g102
ssg83
g5167
sg76
(lp5179
S':'
asbag69
(g90
g71
NtRp5180
(dp5181
g74
(dp5182
sg83
g5167
sg76
(lp5183
g69
(g70
g71
NtRp5184
(dp5185
g74
(dp5186
g82
I5
ssg83
g5180
sg76
(lp5187
g69
(g78
g71
NtRp5188
(dp5189
g74
(dp5190
g82
I4
ssg83
Nsg76
(lp5191
g69
(g85
g71
NtRp5192
(dp5193
g74
(dp5194
sg83
g5188
sg76
(lp5195
g69
(g90
g71
NtRp5196
(dp5197
g74
(dp5198
sg83
g5192
sg76
(lp5199
g69
(g70
g71
NtRp5200
(dp5201
g74
(dp5202
g82
I4
ssg83
g5196
sg76
(lp5203
S'*'
asbasbasbasbasbasbasbag69
(g85
g71
NtRp5204
(dp5205
g74
(dp5206
sg83
g4460
sg76
(lp5207
g69
(g90
g71
NtRp5208
(dp5209
g74
(dp5210
g94
g95
ssg83
g5204
sg76
(lp5211
S'headers'
p5212
asbag69
(g90
g71
NtRp5213
(dp5214
g74
(dp5215
g101
g102
ssg83
g5204
sg76
(lp5216
S':'
asbag69
(g90
g71
NtRp5217
(dp5218
g74
(dp5219
sg83
g5204
sg76
(lp5220
g69
(g70
g71
NtRp5221
(dp5222
g74
(dp5223
g82
I5
ssg83
g5217
sg76
(lp5224
g69
(g78
g71
NtRp5225
(dp5226
g74
(dp5227
g82
I4
ssg83
Nsg76
(lp5228
g69
(g85
g71
NtRp5229
(dp5230
g74
(dp5231
sg83
g5225
sg76
(lp5232
g69
(g90
g71
NtRp5233
(dp5234
g74
(dp5235
g94
g95
ssg83
g5229
sg76
(lp5236
S'Cache-Control'
p5237
asbag69
(g90
g71
NtRp5238
(dp5239
g74
(dp5240
g101
g102
ssg83
g5229
sg76
(lp5241
S':'
asbag69
(g90
g71
NtRp5242
(dp5243
g74
(dp5244
sg83
g5229
sg76
(lp5245
g69
(g70
g71
NtRp5246
(dp5247
g74
(dp5248
g82
I4
ssg83
g5242
sg76
(lp5249
S'no-store, no-cache, must-revalidate, post-check=0, pre-check=0'
p5250
asbasbasbag69
(g85
g71
NtRp5251
(dp5252
g74
(dp5253
sg83
g5225
sg76
(lp5254
g69
(g90
g71
NtRp5255
(dp5256
g74
(dp5257
g94
g95
ssg83
g5251
sg76
(lp5258
S'Content-Type'
p5259
asbag69
(g90
g71
NtRp5260
(dp5261
g74
(dp5262
g101
g102
ssg83
g5251
sg76
(lp5263
S':'
asbag69
(g90
g71
NtRp5264
(dp5265
g74
(dp5266
sg83
g5251
sg76
(lp5267
g69
(g70
g71
NtRp5268
(dp5269
g74
(dp5270
g82
I4
ssg83
g5264
sg76
(lp5271
S'text/html; charset=utf-8'
p5272
asbasbasbag69
(g85
g71
NtRp5273
(dp5274
g74
(dp5275
sg83
g5225
sg76
(lp5276
g69
(g90
g71
NtRp5277
(dp5278
g74
(dp5279
g94
g95
ssg83
g5273
sg76
(lp5280
S'Expires'
p5281
asbag69
(g90
g71
NtRp5282
(dp5283
g74
(dp5284
g101
g102
ssg83
g5273
sg76
(lp5285
S':'
asbag69
(g90
g71
NtRp5286
(dp5287
g74
(dp5288
sg83
g5273
sg76
(lp5289
g69
(g70
g71
NtRp5290
(dp5291
g74
(dp5292
g82
I4
ssg83
g5286
sg76
(lp5293
S'Mon, 07 May 2012 09:58:41 GMT'
p5294
asbasbasbag69
(g85
g71
NtRp5295
(dp5296
g74
(dp5297
sg83
g5225
sg76
(lp5298
g69
(g90
g71
NtRp5299
(dp5300
g74
(dp5301
g94
g95
ssg83
g5295
sg76
(lp5302
S'Pragma'
p5303
asbag69
(g90
g71
NtRp5304
(dp5305
g74
(dp5306
g101
g102
ssg83
g5295
sg76
(lp5307
S':'
asbag69
(g90
g71
NtRp5308
(dp5309
g74
(dp5310
sg83
g5295
sg76
(lp5311
g69
(g70
g71
NtRp5312
(dp5313
g74
(dp5314
g82
I4
ssg83
g5308
sg76
(lp5315
S'no-cache'
p5316
asbasbasbag69
(g85
g71
NtRp5317
(dp5318
g74
(dp5319
sg83
g5225
sg76
(lp5320
g69
(g90
g71
NtRp5321
(dp5322
g74
(dp5323
g94
g95
ssg83
g5317
sg76
(lp5324
S'X-Powered-By'
p5325
asbag69
(g90
g71
NtRp5326
(dp5327
g74
(dp5328
g101
g102
ssg83
g5317
sg76
(lp5329
S':'
asbag69
(g90
g71
NtRp5330
(dp5331
g74
(dp5332
sg83
g5317
sg76
(lp5333
g69
(g70
g71
NtRp5334
(dp5335
g74
(dp5336
g82
I4
ssg83
g5330
sg76
(lp5337
S'web2py'
p5338
asbasbasbasbasbasbasbag69
(g85
g71
NtRp5339
(dp5340
g74
(dp5341
sg83
g4460
sg76
(lp5342
g69
(g90
g71
NtRp5343
(dp5344
g74
(dp5345
g94
g95
ssg83
g5339
sg76
(lp5346
S'menu'
p5347
asbag69
(g90
g71
NtRp5348
(dp5349
g74
(dp5350
g101
g102
ssg83
g5339
sg76
(lp5351
S':'
asbag69
(g90
g71
NtRp5352
(dp5353
g74
(dp5354
sg83
g5339
sg76
(lp5355
g69
(g70
g71
NtRp5356
(dp5357
g74
(dp5358
g82
I5
ssg83
g5352
sg76
(lp5359
g69
(g78
g71
NtRp5360
(dp5361
g74
(dp5362
g82
I4
ssg83
Nsg76
(lp5363
g69
(g85
g71
NtRp5364
(dp5365
g74
(dp5366
sg83
g5360
sg76
(lp5367
g69
(g90
g71
NtRp5368
(dp5369
g74
(dp5370
sg83
g5364
sg76
(lp5371
g69
(g70
g71
NtRp5372
(dp5373
g74
(dp5374
g82
I4
ssg83
g5368
sg76
(lp5375
g69
(g78
g71
NtRp5376
(dp5377
g74
(dp5378
g82
I3
ssg83
Nsg76
(lp5379
g69
(g85
g71
NtRp5380
(dp5381
g74
(dp5382
sg83
g5376
sg76
(lp5383
g69
(g90
g71
NtRp5384
(dp5385
g74
(dp5386
sg83
g5380
sg76
(lp5387
g69
(g70
g71
NtRp5388
(dp5389
g74
(dp5390
g82
I3
ssg83
g5384
sg76
(lp5391
g4517
(S's\x04\x00\x00\x00HOME'
tRp5392
asbasbasbag69
(g85
g71
NtRp5393
(dp5394
g74
(dp5395
sg83
g5376
sg76
(lp5396
g69
(g90
g71
NtRp5397
(dp5398
g74
(dp5399
sg83
g5393
sg76
(lp5400
g69
(g70
g71
NtRp5401
(dp5402
g74
(dp5403
g82
I3
ssg83
g5397
sg76
(lp5404
g1385
asbasbasbag69
(g85
g71
NtRp5405
(dp5406
g74
(dp5407
sg83
g5376
sg76
(lp5408
g69
(g90
g71
NtRp5409
(dp5410
g74
(dp5411
sg83
g5405
sg76
(lp5412
g69
(g70
g71
NtRp5413
(dp5414
g74
(dp5415
g82
I3
ssg83
g5409
sg76
(lp5416
S'/themishrms/default/index'
p5417
asbasbasbag69
(g85
g71
NtRp5418
(dp5419
g74
(dp5420
sg83
g5376
sg76
(lp5421
g69
(g90
g71
NtRp5422
(dp5423
g74
(dp5424
sg83
g5418
sg76
(lp5425
g69
(g70
g71
NtRp5426
(dp5427
g74
(dp5428
g82
I3
ssg83
g5422
sg76
(lp5429
g69
(g78
g71
NtRp5430
(dp5431
g74
(dp5432
g82
I2
ssg83
Nsg76
(lp5433
sbasbasbasbasbasbasbasbag69
(g85
g71
NtRp5434
(dp5435
g74
(dp5436
sg83
g5360
sg76
(lp5437
g69
(g90
g71
NtRp5438
(dp5439
g74
(dp5440
sg83
g5434
sg76
(lp5441
g69
(g70
g71
NtRp5442
(dp5443
g74
(dp5444
g82
I4
ssg83
g5438
sg76
(lp5445
g69
(g78
g71
NtRp5446
(dp5447
g74
(dp5448
g82
I3
ssg83
Nsg76
(lp5449
g69
(g85
g71
NtRp5450
(dp5451
g74
(dp5452
sg83
g5446
sg76
(lp5453
g69
(g90
g71
NtRp5454
(dp5455
g74
(dp5456
sg83
g5450
sg76
(lp5457
g69
(g70
g71
NtRp5458
(dp5459
g74
(dp5460
g82
I3
ssg83
g5454
sg76
(lp5461
g4517
(S's\t\x00\x00\x00ABOUT US '
tRp5462
asbasbasbag69
(g85
g71
NtRp5463
(dp5464
g74
(dp5465
sg83
g5446
sg76
(lp5466
g69
(g90
g71
NtRp5467
(dp5468
g74
(dp5469
sg83
g5463
sg76
(lp5470
g69
(g70
g71
NtRp5471
(dp5472
g74
(dp5473
g82
I3
ssg83
g5467
sg76
(lp5474
g1385
asbasbasbag69
(g85
g71
NtRp5475
(dp5476
g74
(dp5477
sg83
g5446
sg76
(lp5478
g69
(g90
g71
NtRp5479
(dp5480
g74
(dp5481
sg83
g5475
sg76
(lp5482
g69
(g70
g71
NtRp5483
(dp5484
g74
(dp5485
g82
I3
ssg83
g5479
sg76
(lp5486
S'/themishrms/default/tlsabout'
p5487
asbasbasbag69
(g85
g71
NtRp5488
(dp5489
g74
(dp5490
sg83
g5446
sg76
(lp5491
g69
(g90
g71
NtRp5492
(dp5493
g74
(dp5494
sg83
g5488
sg76
(lp5495
g69
(g70
g71
NtRp5496
(dp5497
g74
(dp5498
g82
I3
ssg83
g5492
sg76
(lp5499
g69
(g78
g71
NtRp5500
(dp5501
g74
(dp5502
g82
I2
ssg83
Nsg76
(lp5503
sbasbasbasbasbasbasbasbag69
(g85
g71
NtRp5504
(dp5505
g74
(dp5506
sg83
g5360
sg76
(lp5507
g69
(g90
g71
NtRp5508
(dp5509
g74
(dp5510
sg83
g5504
sg76
(lp5511
g69
(g70
g71
NtRp5512
(dp5513
g74
(dp5514
g82
I4
ssg83
g5508
sg76
(lp5515
g69
(g78
g71
NtRp5516
(dp5517
g74
(dp5518
g82
I3
ssg83
Nsg76
(lp5519
g69
(g85
g71
NtRp5520
(dp5521
g74
(dp5522
sg83
g5516
sg76
(lp5523
g69
(g90
g71
NtRp5524
(dp5525
g74
(dp5526
sg83
g5520
sg76
(lp5527
g69
(g70
g71
NtRp5528
(dp5529
g74
(dp5530
g82
I3
ssg83
g5524
sg76
(lp5531
g4517
(S's\x0f\x00\x00\x00OUR EXPERTISE  '
tRp5532
asbasbasbag69
(g85
g71
NtRp5533
(dp5534
g74
(dp5535
sg83
g5516
sg76
(lp5536
g69
(g90
g71
NtRp5537
(dp5538
g74
(dp5539
sg83
g5533
sg76
(lp5540
g69
(g70
g71
NtRp5541
(dp5542
g74
(dp5543
g82
I3
ssg83
g5537
sg76
(lp5544
g1385
asbasbasbag69
(g85
g71
NtRp5545
(dp5546
g74
(dp5547
sg83
g5516
sg76
(lp5548
g69
(g90
g71
NtRp5549
(dp5550
g74
(dp5551
sg83
g5545
sg76
(lp5552
g69
(g70
g71
NtRp5553
(dp5554
g74
(dp5555
g82
I3
ssg83
g5549
sg76
(lp5556
S'/themishrms/default/tlsservice'
p5557
asbasbasbag69
(g85
g71
NtRp5558
(dp5559
g74
(dp5560
sg83
g5516
sg76
(lp5561
g69
(g90
g71
NtRp5562
(dp5563
g74
(dp5564
sg83
g5558
sg76
(lp5565
g69
(g70
g71
NtRp5566
(dp5567
g74
(dp5568
g82
I3
ssg83
g5562
sg76
(lp5569
g69
(g78
g71
NtRp5570
(dp5571
g74
(dp5572
g82
I2
ssg83
Nsg76
(lp5573
sbasbasbasbasbasbasbasbag69
(g85
g71
NtRp5574
(dp5575
g74
(dp5576
sg83
g5360
sg76
(lp5577
g69
(g90
g71
NtRp5578
(dp5579
g74
(dp5580
sg83
g5574
sg76
(lp5581
g69
(g70
g71
NtRp5582
(dp5583
g74
(dp5584
g82
I4
ssg83
g5578
sg76
(lp5585
g69
(g78
g71
NtRp5586
(dp5587
g74
(dp5588
g82
I3
ssg83
Nsg76
(lp5589
g69
(g85
g71
NtRp5590
(dp5591
g74
(dp5592
sg83
g5586
sg76
(lp5593
g69
(g90
g71
NtRp5594
(dp5595
g74
(dp5596
sg83
g5590
sg76
(lp5597
g69
(g70
g71
NtRp5598
(dp5599
g74
(dp5600
g82
I3
ssg83
g5594
sg76
(lp5601
g4517
(S's\x08\x00\x00\x00OUR TEAM'
tRp5602
asbasbasbag69
(g85
g71
NtRp5603
(dp5604
g74
(dp5605
sg83
g5586
sg76
(lp5606
g69
(g90
g71
NtRp5607
(dp5608
g74
(dp5609
sg83
g5603
sg76
(lp5610
g69
(g70
g71
NtRp5611
(dp5612
g74
(dp5613
g82
I3
ssg83
g5607
sg76
(lp5614
g1385
asbasbasbag69
(g85
g71
NtRp5615
(dp5616
g74
(dp5617
sg83
g5586
sg76
(lp5618
g69
(g90
g71
NtRp5619
(dp5620
g74
(dp5621
sg83
g5615
sg76
(lp5622
g69
(g70
g71
NtRp5623
(dp5624
g74
(dp5625
g82
I3
ssg83
g5619
sg76
(lp5626
S'/themishrms/default/tlsoteam'
p5627
asbasbasbag69
(g85
g71
NtRp5628
(dp5629
g74
(dp5630
sg83
g5586
sg76
(lp5631
g69
(g90
g71
NtRp5632
(dp5633
g74
(dp5634
sg83
g5628
sg76
(lp5635
g69
(g70
g71
NtRp5636
(dp5637
g74
(dp5638
g82
I3
ssg83
g5632
sg76
(lp5639
g69
(g78
g71
NtRp5640
(dp5641
g74
(dp5642
g82
I2
ssg83
Nsg76
(lp5643
sbasbasbasbasbasbasbasbag69
(g85
g71
NtRp5644
(dp5645
g74
(dp5646
sg83
g5360
sg76
(lp5647
g69
(g90
g71
NtRp5648
(dp5649
g74
(dp5650
sg83
g5644
sg76
(lp5651
g69
(g70
g71
NtRp5652
(dp5653
g74
(dp5654
g82
I4
ssg83
g5648
sg76
(lp5655
g69
(g78
g71
NtRp5656
(dp5657
g74
(dp5658
g82
I3
ssg83
Nsg76
(lp5659
g69
(g85
g71
NtRp5660
(dp5661
g74
(dp5662
sg83
g5656
sg76
(lp5663
g69
(g90
g71
NtRp5664
(dp5665
g74
(dp5666
sg83
g5660
sg76
(lp5667
g69
(g70
g71
NtRp5668
(dp5669
g74
(dp5670
g82
I3
ssg83
g5664
sg76
(lp5671
g4517
(S's\n\x00\x00\x00OPERATIONS'
tRp5672
asbasbasbag69
(g85
g71
NtRp5673
(dp5674
g74
(dp5675
sg83
g5656
sg76
(lp5676
g69
(g90
g71
NtRp5677
(dp5678
g74
(dp5679
sg83
g5673
sg76
(lp5680
g69
(g70
g71
NtRp5681
(dp5682
g74
(dp5683
g82
I3
ssg83
g5677
sg76
(lp5684
g1385
asbasbasbag69
(g85
g71
NtRp5685
(dp5686
g74
(dp5687
sg83
g5656
sg76
(lp5688
g69
(g90
g71
NtRp5689
(dp5690
g74
(dp5691
sg83
g5685
sg76
(lp5692
g69
(g70
g71
NtRp5693
(dp5694
g74
(dp5695
g82
I3
ssg83
g5689
sg76
(lp5696
S'/themishrms/default/tlsoo'
p5697
asbasbasbag69
(g85
g71
NtRp5698
(dp5699
g74
(dp5700
sg83
g5656
sg76
(lp5701
g69
(g90
g71
NtRp5702
(dp5703
g74
(dp5704
sg83
g5698
sg76
(lp5705
g69
(g70
g71
NtRp5706
(dp5707
g74
(dp5708
g82
I3
ssg83
g5702
sg76
(lp5709
g69
(g78
g71
NtRp5710
(dp5711
g74
(dp5712
g82
I2
ssg83
Nsg76
(lp5713
sbasbasbasbasbasbasbasbag69
(g85
g71
NtRp5714
(dp5715
g74
(dp5716
sg83
g5360
sg76
(lp5717
g69
(g90
g71
NtRp5718
(dp5719
g74
(dp5720
sg83
g5714
sg76
(lp5721
g69
(g70
g71
NtRp5722
(dp5723
g74
(dp5724
g82
I4
ssg83
g5718
sg76
(lp5725
g69
(g78
g71
NtRp5726
(dp5727
g74
(dp5728
g82
I3
ssg83
Nsg76
(lp5729
g69
(g85
g71
NtRp5730
(dp5731
g74
(dp5732
sg83
g5726
sg76
(lp5733
g69
(g90
g71
NtRp5734
(dp5735
g74
(dp5736
sg83
g5730
sg76
(lp5737
g69
(g70
g71
NtRp5738
(dp5739
g74
(dp5740
g82
I3
ssg83
g5734
sg76
(lp5741
g4517
(S's\x07\x00\x00\x00JOIN US'
tRp5742
asbasbasbag69
(g85
g71
NtRp5743
(dp5744
g74
(dp5745
sg83
g5726
sg76
(lp5746
g69
(g90
g71
NtRp5747
(dp5748
g74
(dp5749
sg83
g5743
sg76
(lp5750
g69
(g70
g71
NtRp5751
(dp5752
g74
(dp5753
g82
I3
ssg83
g5747
sg76
(lp5754
g1385
asbasbasbag69
(g85
g71
NtRp5755
(dp5756
g74
(dp5757
sg83
g5726
sg76
(lp5758
g69
(g90
g71
NtRp5759
(dp5760
g74
(dp5761
sg83
g5755
sg76
(lp5762
g69
(g70
g71
NtRp5763
(dp5764
g74
(dp5765
g82
I3
ssg83
g5759
sg76
(lp5766
S'/themishrms/default/tlscareer'
p5767
asbasbasbag69
(g85
g71
NtRp5768
(dp5769
g74
(dp5770
sg83
g5726
sg76
(lp5771
g69
(g90
g71
NtRp5772
(dp5773
g74
(dp5774
sg83
g5768
sg76
(lp5775
g69
(g70
g71
NtRp5776
(dp5777
g74
(dp5778
g82
I3
ssg83
g5772
sg76
(lp5779
g69
(g78
g71
NtRp5780
(dp5781
g74
(dp5782
g82
I2
ssg83
Nsg76
(lp5783
sbasbasbasbasbasbasbasbag69
(g85
g71
NtRp5784
(dp5785
g74
(dp5786
sg83
g5360
sg76
(lp5787
g69
(g90
g71
NtRp5788
(dp5789
g74
(dp5790
sg83
g5784
sg76
(lp5791
g69
(g70
g71
NtRp5792
(dp5793
g74
(dp5794
g82
I4
ssg83
g5788
sg76
(lp5795
g69
(g78
g71
NtRp5796
(dp5797
g74
(dp5798
g82
I3
ssg83
Nsg76
(lp5799
g69
(g85
g71
NtRp5800
(dp5801
g74
(dp5802
sg83
g5796
sg76
(lp5803
g69
(g90
g71
NtRp5804
(dp5805
g74
(dp5806
sg83
g5800
sg76
(lp5807
g69
(g70
g71
NtRp5808
(dp5809
g74
(dp5810
g82
I3
ssg83
g5804
sg76
(lp5811
g4517
(S's\n\x00\x00\x00CONTACT US'
tRp5812
asbasbasbag69
(g85
g71
NtRp5813
(dp5814
g74
(dp5815
sg83
g5796
sg76
(lp5816
g69
(g90
g71
NtRp5817
(dp5818
g74
(dp5819
sg83
g5813
sg76
(lp5820
g69
(g70
g71
NtRp5821
(dp5822
g74
(dp5823
g82
I3
ssg83
g5817
sg76
(lp5824
g1385
asbasbasbag69
(g85
g71
NtRp5825
(dp5826
g74
(dp5827
sg83
g5796
sg76
(lp5828
g69
(g90
g71
NtRp5829
(dp5830
g74
(dp5831
sg83
g5825
sg76
(lp5832
g69
(g70
g71
NtRp5833
(dp5834
g74
(dp5835
g82
I3
ssg83
g5829
sg76
(lp5836
S'/themishrms/default/tlscontact'
p5837
asbasbasbag69
(g85
g71
NtRp5838
(dp5839
g74
(dp5840
sg83
g5796
sg76
(lp5841
g69
(g90
g71
NtRp5842
(dp5843
g74
(dp5844
sg83
g5838
sg76
(lp5845
g69
(g70
g71
NtRp5846
(dp5847
g74
(dp5848
g82
I3
ssg83
g5842
sg76
(lp5849
g69
(g78
g71
NtRp5850
(dp5851
g74
(dp5852
g82
I2
ssg83
Nsg76
(lp5853
sbasbasbasbasbasbasbasbasbasbasbasbag69
(g85
g71
NtRp5854
(dp5855
g74
(dp5856
sg83
g4460
sg76
(lp5857
g69
(g90
g71
NtRp5858
(dp5859
g74
(dp5860
g94
g95
ssg83
g5854
sg76
(lp5861
S'meta'
p5862
asbag69
(g90
g71
NtRp5863
(dp5864
g74
(dp5865
g101
g102
ssg83
g5854
sg76
(lp5866
S':'
asbag69
(g90
g71
NtRp5867
(dp5868
g74
(dp5869
sg83
g5854
sg76
(lp5870
g69
(g70
g71
NtRp5871
(dp5872
g74
(dp5873
g82
I5
ssg83
g5867
sg76
(lp5874
g69
(g78
g71
NtRp5875
(dp5876
g74
(dp5877
g82
I4
ssg83
Nsg76
(lp5878
g69
(g85
g71
NtRp5879
(dp5880
g74
(dp5881
sg83
g5875
sg76
(lp5882
g69
(g90
g71
NtRp5883
(dp5884
g74
(dp5885
g94
g95
ssg83
g5879
sg76
(lp5886
S'author'
p5887
asbag69
(g90
g71
NtRp5888
(dp5889
g74
(dp5890
g101
g102
ssg83
g5879
sg76
(lp5891
S':'
asbag69
(g90
g71
NtRp5892
(dp5893
g74
(dp5894
sg83
g5879
sg76
(lp5895
g69
(g70
g71
NtRp5896
(dp5897
g74
(dp5898
g82
I4
ssg83
g5892
sg76
(lp5899
S'Your Name <you@example.com>'
p5900
asbasbasbag69
(g85
g71
NtRp5901
(dp5902
g74
(dp5903
sg83
g5875
sg76
(lp5904
g69
(g90
g71
NtRp5905
(dp5906
g74
(dp5907
g94
g95
ssg83
g5901
sg76
(lp5908
S'copyright'
p5909
asbag69
(g90
g71
NtRp5910
(dp5911
g74
(dp5912
g101
g102
ssg83
g5901
sg76
(lp5913
S':'
asbag69
(g90
g71
NtRp5914
(dp5915
g74
(dp5916
sg83
g5901
sg76
(lp5917
g69
(g70
g71
NtRp5918
(dp5919
g74
(dp5920
g82
I4
ssg83
g5914
sg76
(lp5921
S'Copyright 2011'
p5922
asbasbasbag69
(g85
g71
NtRp5923
(dp5924
g74
(dp5925
sg83
g5875
sg76
(lp5926
g69
(g90
g71
NtRp5927
(dp5928
g74
(dp5929
g94
g95
ssg83
g5923
sg76
(lp5930
S'description'
p5931
asbag69
(g90
g71
NtRp5932
(dp5933
g74
(dp5934
g101
g102
ssg83
g5923
sg76
(lp5935
S':'
asbag69
(g90
g71
NtRp5936
(dp5937
g74
(dp5938
sg83
g5923
sg76
(lp5939
g69
(g70
g71
NtRp5940
(dp5941
g74
(dp5942
g82
I4
ssg83
g5936
sg76
(lp5943
S'a cool new app'
p5944
asbasbasbag69
(g85
g71
NtRp5945
(dp5946
g74
(dp5947
sg83
g5875
sg76
(lp5948
g69
(g90
g71
NtRp5949
(dp5950
g74
(dp5951
g94
g95
ssg83
g5945
sg76
(lp5952
S'generator'
p5953
asbag69
(g90
g71
NtRp5954
(dp5955
g74
(dp5956
g101
g102
ssg83
g5945
sg76
(lp5957
S':'
asbag69
(g90
g71
NtRp5958
(dp5959
g74
(dp5960
sg83
g5945
sg76
(lp5961
g69
(g70
g71
NtRp5962
(dp5963
g74
(dp5964
g82
I4
ssg83
g5958
sg76
(lp5965
S'Web2py Web Framework'
p5966
asbasbasbag69
(g85
g71
NtRp5967
(dp5968
g74
(dp5969
sg83
g5875
sg76
(lp5970
g69
(g90
g71
NtRp5971
(dp5972
g74
(dp5973
g94
g95
ssg83
g5967
sg76
(lp5974
S'keywords'
p5975
asbag69
(g90
g71
NtRp5976
(dp5977
g74
(dp5978
g101
g102
ssg83
g5967
sg76
(lp5979
S':'
asbag69
(g90
g71
NtRp5980
(dp5981
g74
(dp5982
sg83
g5967
sg76
(lp5983
g69
(g70
g71
NtRp5984
(dp5985
g74
(dp5986
g82
I4
ssg83
g5980
sg76
(lp5987
S'web2py, python, framework'
p5988
asbasbasbasbasbasbasbag69
(g85
g71
NtRp5989
(dp5990
g74
(dp5991
sg83
g4460
sg76
(lp5992
g69
(g90
g71
NtRp5993
(dp5994
g74
(dp5995
g94
g95
ssg83
g5989
sg76
(lp5996
S'postprocessing'
p5997
asbag69
(g90
g71
NtRp5998
(dp5999
g74
(dp6000
g101
g102
ssg83
g5989
sg76
(lp6001
S':'
asbag69
(g90
g71
NtRp6002
(dp6003
g74
(dp6004
sg83
g5989
sg76
(lp6005
g69
(g70
g71
NtRp6006
(dp6007
g74
(dp6008
g82
I5
ssg83
g6002
sg76
(lp6009
g69
(g78
g71
NtRp6010
(dp6011
g74
(dp6012
g82
I4
ssg83
Nsg76
(lp6013
sbasbasbasbag69
(g85
g71
NtRp6014
(dp6015
g74
(dp6016
sg83
g4460
sg76
(lp6017
g69
(g90
g71
NtRp6018
(dp6019
g74
(dp6020
g94
g95
ssg83
g6014
sg76
(lp6021
S'session_file'
p6022
asbag69
(g90
g71
NtRp6023
(dp6024
g74
(dp6025
g101
g102
ssg83
g6014
sg76
(lp6026
S':'
asbag69
(g90
g71
NtRp6027
(dp6028
g74
(dp6029
sg83
g6014
sg76
(lp6030
g69
(g70
g71
NtRp6031
(dp6032
g74
(dp6033
g82
I5
ssg83
g6027
sg76
(lp6034
S"<open file '/home/tls-sanjeet/Desktop/HRMS/web2py/applications/themishrms/sessions/127.0.0.1-fd88f4ae-d408-48cb-a841-0dd9fe605769', mode 'rb+' at 0x9357c28>"
p6035
asbasbasbag69
(g85
g71
NtRp6036
(dp6037
g74
(dp6038
sg83
g4460
sg76
(lp6039
g69
(g90
g71
NtRp6040
(dp6041
g74
(dp6042
g94
g95
ssg83
g6036
sg76
(lp6043
S'session_filename'
p6044
asbag69
(g90
g71
NtRp6045
(dp6046
g74
(dp6047
g101
g102
ssg83
g6036
sg76
(lp6048
S':'
asbag69
(g90
g71
NtRp6049
(dp6050
g74
(dp6051
sg83
g6036
sg76
(lp6052
g69
(g70
g71
NtRp6053
(dp6054
g74
(dp6055
g82
I5
ssg83
g6049
sg76
(lp6056
S'/home/tls-sanjeet/Desktop/HRMS/web2py/applications/themishrms/sessions/127.0.0.1-fd88f4ae-d408-48cb-a841-0dd9fe605769'
p6057
asbasbasbag69
(g85
g71
NtRp6058
(dp6059
g74
(dp6060
sg83
g4460
sg76
(lp6061
g69
(g90
g71
NtRp6062
(dp6063
g74
(dp6064
g94
g95
ssg83
g6058
sg76
(lp6065
S'session_id'
p6066
asbag69
(g90
g71
NtRp6067
(dp6068
g74
(dp6069
g101
g102
ssg83
g6058
sg76
(lp6070
S':'
asbag69
(g90
g71
NtRp6071
(dp6072
g74
(dp6073
sg83
g6058
sg76
(lp6074
g69
(g70
g71
NtRp6075
(dp6076
g74
(dp6077
g82
I5
ssg83
g6071
sg76
(lp6078
S'127.0.0.1-fd88f4ae-d408-48cb-a841-0dd9fe605769'
p6079
asbasbasbag69
(g85
g71
NtRp6080
(dp6081
g74
(dp6082
sg83
g4460
sg76
(lp6083
g69
(g90
g71
NtRp6084
(dp6085
g74
(dp6086
g94
g95
ssg83
g6080
sg76
(lp6087
S'session_id_name'
p6088
asbag69
(g90
g71
NtRp6089
(dp6090
g74
(dp6091
g101
g102
ssg83
g6080
sg76
(lp6092
S':'
asbag69
(g90
g71
NtRp6093
(dp6094
g74
(dp6095
sg83
g6080
sg76
(lp6096
g69
(g70
g71
NtRp6097
(dp6098
g74
(dp6099
g82
I5
ssg83
g6093
sg76
(lp6100
g4893
asbasbasbag69
(g85
g71
NtRp6101
(dp6102
g74
(dp6103
sg83
g4460
sg76
(lp6104
g69
(g90
g71
NtRp6105
(dp6106
g74
(dp6107
g94
g95
ssg83
g6101
sg76
(lp6108
S'session_locked'
p6109
asbag69
(g90
g71
NtRp6110
(dp6111
g74
(dp6112
g101
g102
ssg83
g6101
sg76
(lp6113
S':'
asbag69
(g90
g71
NtRp6114
(dp6115
g74
(dp6116
sg83
g6101
sg76
(lp6117
g69
(g70
g71
NtRp6118
(dp6119
g74
(dp6120
g82
I5
ssg83
g6114
sg76
(lp6121
g112
asbasbasbag69
(g85
g71
NtRp6122
(dp6123
g74
(dp6124
sg83
g4460
sg76
(lp6125
g69
(g90
g71
NtRp6126
(dp6127
g74
(dp6128
g94
g95
ssg83
g6122
sg76
(lp6129
S'session_new'
p6130
asbag69
(g90
g71
NtRp6131
(dp6132
g74
(dp6133
g101
g102
ssg83
g6122
sg76
(lp6134
S':'
asbag69
(g90
g71
NtRp6135
(dp6136
g74
(dp6137
sg83
g6122
sg76
(lp6138
g69
(g70
g71
NtRp6139
(dp6140
g74
(dp6141
g82
I5
ssg83
g6135
sg76
(lp6142
g1385
asbasbasbag69
(g85
g71
NtRp6143
(dp6144
g74
(dp6145
sg83
g4460
sg76
(lp6146
g69
(g90
g71
NtRp6147
(dp6148
g74
(dp6149
g94
g95
ssg83
g6143
sg76
(lp6150
S'status'
p6151
asbag69
(g90
g71
NtRp6152
(dp6153
g74
(dp6154
g101
g102
ssg83
g6143
sg76
(lp6155
S':'
asbag69
(g90
g71
NtRp6156
(dp6157
g74
(dp6158
sg83
g6143
sg76
(lp6159
g69
(g70
g71
NtRp6160
(dp6161
g74
(dp6162
g82
I5
ssg83
g6156
sg76
(lp6163
S'200'
p6164
asbasbasbag69
(g85
g71
NtRp6165
(dp6166
g74
(dp6167
sg83
g4460
sg76
(lp6168
g69
(g90
g71
NtRp6169
(dp6170
g74
(dp6171
g94
g95
ssg83
g6165
sg76
(lp6172
S'subtitle'
p6173
asbag69
(g90
g71
NtRp6174
(dp6175
g74
(dp6176
g101
g102
ssg83
g6165
sg76
(lp6177
S':'
asbag69
(g90
g71
NtRp6178
(dp6179
g74
(dp6180
sg83
g6165
sg76
(lp6181
g69
(g70
g71
NtRp6182
(dp6183
g74
(dp6184
g82
I5
ssg83
g6178
sg76
(lp6185
g4517
(S's\r\x00\x00\x00customize me!'
tRp6186
asbasbasbag69
(g85
g71
NtRp6187
(dp6188
g74
(dp6189
sg83
g4460
sg76
(lp6190
g69
(g90
g71
NtRp6191
(dp6192
g74
(dp6193
g94
g95
ssg83
g6187
sg76
(lp6194
S'title'
p6195
asbag69
(g90
g71
NtRp6196
(dp6197
g74
(dp6198
g101
g102
ssg83
g6187
sg76
(lp6199
S':'
asbag69
(g90
g71
NtRp6200
(dp6201
g74
(dp6202
sg83
g6187
sg76
(lp6203
g69
(g70
g71
NtRp6204
(dp6205
g74
(dp6206
g82
I5
ssg83
g6200
sg76
(lp6207
S'Themishrms'
p6208
asbasbasbag69
(g85
g71
NtRp6209
(dp6210
g74
(dp6211
sg83
g4460
sg76
(lp6212
g69
(g90
g71
NtRp6213
(dp6214
g74
(dp6215
g94
g95
ssg83
g6209
sg76
(lp6216
S'tlsmenu'
p6217
asbag69
(g90
g71
NtRp6218
(dp6219
g74
(dp6220
g101
g102
ssg83
g6209
sg76
(lp6221
S':'
asbag69
(g90
g71
NtRp6222
(dp6223
g74
(dp6224
sg83
g6209
sg76
(lp6225
g69
(g70
g71
NtRp6226
(dp6227
g74
(dp6228
g82
I5
ssg83
g6222
sg76
(lp6229
g69
(g78
g71
NtRp6230
(dp6231
g74
(dp6232
g82
I4
ssg83
Nsg76
(lp6233
g69
(g85
g71
NtRp6234
(dp6235
g74
(dp6236
sg83
g6230
sg76
(lp6237
g69
(g90
g71
NtRp6238
(dp6239
g74
(dp6240
sg83
g6234
sg76
(lp6241
g69
(g70
g71
NtRp6242
(dp6243
g74
(dp6244
g82
I4
ssg83
g6238
sg76
(lp6245
g69
(g78
g71
NtRp6246
(dp6247
g74
(dp6248
g82
I3
ssg83
Nsg76
(lp6249
g69
(g85
g71
NtRp6250
(dp6251
g74
(dp6252
sg83
g6246
sg76
(lp6253
g69
(g90
g71
NtRp6254
(dp6255
g74
(dp6256
sg83
g6250
sg76
(lp6257
g69
(g70
g71
NtRp6258
(dp6259
g74
(dp6260
g82
I3
ssg83
g6254
sg76
(lp6261
g4517
(S's\x07\x00\x00\x00Website'
tRp6262
asbasbasbag69
(g85
g71
NtRp6263
(dp6264
g74
(dp6265
sg83
g6246
sg76
(lp6266
g69
(g90
g71
NtRp6267
(dp6268
g74
(dp6269
sg83
g6263
sg76
(lp6270
g69
(g70
g71
NtRp6271
(dp6272
g74
(dp6273
g82
I3
ssg83
g6267
sg76
(lp6274
g1385
asbasbasbag69
(g85
g71
NtRp6275
(dp6276
g74
(dp6277
sg83
g6246
sg76
(lp6278
g69
(g90
g71
NtRp6279
(dp6280
g74
(dp6281
sg83
g6275
sg76
(lp6282
g69
(g70
g71
NtRp6283
(dp6284
g74
(dp6285
g82
I3
ssg83
g6279
sg76
(lp6286
S'/themishrms/default/index'
p6287
asbasbasbag69
(g85
g71
NtRp6288
(dp6289
g74
(dp6290
sg83
g6246
sg76
(lp6291
g69
(g90
g71
NtRp6292
(dp6293
g74
(dp6294
sg83
g6288
sg76
(lp6295
g69
(g70
g71
NtRp6296
(dp6297
g74
(dp6298
g82
I3
ssg83
g6292
sg76
(lp6299
g69
(g78
g71
NtRp6300
(dp6301
g74
(dp6302
g82
I2
ssg83
Nsg76
(lp6303
sbasbasbasbasbasbasbasbag69
(g85
g71
NtRp6304
(dp6305
g74
(dp6306
sg83
g6230
sg76
(lp6307
g69
(g90
g71
NtRp6308
(dp6309
g74
(dp6310
sg83
g6304
sg76
(lp6311
g69
(g70
g71
NtRp6312
(dp6313
g74
(dp6314
g82
I4
ssg83
g6308
sg76
(lp6315
g69
(g78
g71
NtRp6316
(dp6317
g74
(dp6318
g82
I3
ssg83
Nsg76
(lp6319
g69
(g85
g71
NtRp6320
(dp6321
g74
(dp6322
sg83
g6316
sg76
(lp6323
g69
(g90
g71
NtRp6324
(dp6325
g74
(dp6326
sg83
g6320
sg76
(lp6327
g69
(g70
g71
NtRp6328
(dp6329
g74
(dp6330
g82
I3
ssg83
g6324
sg76
(lp6331
g4517
(S's\x07\x00\x00\x00WebMail'
tRp6332
asbasbasbag69
(g85
g71
NtRp6333
(dp6334
g74
(dp6335
sg83
g6316
sg76
(lp6336
g69
(g90
g71
NtRp6337
(dp6338
g74
(dp6339
sg83
g6333
sg76
(lp6340
g69
(g70
g71
NtRp6341
(dp6342
g74
(dp6343
g82
I3
ssg83
g6337
sg76
(lp6344
g1385
asbasbasbag69
(g85
g71
NtRp6345
(dp6346
g74
(dp6347
sg83
g6316
sg76
(lp6348
g69
(g90
g71
NtRp6349
(dp6350
g74
(dp6351
sg83
g6345
sg76
(lp6352
g69
(g70
g71
NtRp6353
(dp6354
g74
(dp6355
g82
I3
ssg83
g6349
sg76
(lp6356
S'/themishrms/default/webmail'
p6357
asbasbasbag69
(g85
g71
NtRp6358
(dp6359
g74
(dp6360
sg83
g6316
sg76
(lp6361
g69
(g90
g71
NtRp6362
(dp6363
g74
(dp6364
sg83
g6358
sg76
(lp6365
g69
(g70
g71
NtRp6366
(dp6367
g74
(dp6368
g82
I3
ssg83
g6362
sg76
(lp6369
g69
(g78
g71
NtRp6370
(dp6371
g74
(dp6372
g82
I2
ssg83
Nsg76
(lp6373
sbasbasbasbasbasbasbasbag69
(g85
g71
NtRp6374
(dp6375
g74
(dp6376
sg83
g6230
sg76
(lp6377
g69
(g90
g71
NtRp6378
(dp6379
g74
(dp6380
sg83
g6374
sg76
(lp6381
g69
(g70
g71
NtRp6382
(dp6383
g74
(dp6384
g82
I4
ssg83
g6378
sg76
(lp6385
g69
(g78
g71
NtRp6386
(dp6387
g74
(dp6388
g82
I3
ssg83
Nsg76
(lp6389
g69
(g85
g71
NtRp6390
(dp6391
g74
(dp6392
sg83
g6386
sg76
(lp6393
g69
(g90
g71
NtRp6394
(dp6395
g74
(dp6396
sg83
g6390
sg76
(lp6397
g69
(g70
g71
NtRp6398
(dp6399
g74
(dp6400
g82
I3
ssg83
g6394
sg76
(lp6401
g4517
(S's\r\x00\x00\x00Themis Portal'
tRp6402
asbasbasbag69
(g85
g71
NtRp6403
(dp6404
g74
(dp6405
sg83
g6386
sg76
(lp6406
g69
(g90
g71
NtRp6407
(dp6408
g74
(dp6409
sg83
g6403
sg76
(lp6410
g69
(g70
g71
NtRp6411
(dp6412
g74
(dp6413
g82
I3
ssg83
g6407
sg76
(lp6414
g1385
asbasbasbag69
(g85
g71
NtRp6415
(dp6416
g74
(dp6417
sg83
g6386
sg76
(lp6418
g69
(g90
g71
NtRp6419
(dp6420
g74
(dp6421
sg83
g6415
sg76
(lp6422
g69
(g70
g71
NtRp6423
(dp6424
g74
(dp6425
g82
I3
ssg83
g6419
sg76
(lp6426
S'/themishrms/default/portal'
p6427
asbasbasbag69
(g85
g71
NtRp6428
(dp6429
g74
(dp6430
sg83
g6386
sg76
(lp6431
g69
(g90
g71
NtRp6432
(dp6433
g74
(dp6434
sg83
g6428
sg76
(lp6435
g69
(g70
g71
NtRp6436
(dp6437
g74
(dp6438
g82
I3
ssg83
g6432
sg76
(lp6439
g69
(g78
g71
NtRp6440
(dp6441
g74
(dp6442
g82
I2
ssg83
Nsg76
(lp6443
sbasbasbasbasbasbasbasbag69
(g85
g71
NtRp6444
(dp6445
g74
(dp6446
sg83
g6230
sg76
(lp6447
g69
(g90
g71
NtRp6448
(dp6449
g74
(dp6450
sg83
g6444
sg76
(lp6451
g69
(g70
g71
NtRp6452
(dp6453
g74
(dp6454
g82
I4
ssg83
g6448
sg76
(lp6455
g69
(g78
g71
NtRp6456
(dp6457
g74
(dp6458
g82
I3
ssg83
Nsg76
(lp6459
g69
(g85
g71
NtRp6460
(dp6461
g74
(dp6462
sg83
g6456
sg76
(lp6463
g69
(g90
g71
NtRp6464
(dp6465
g74
(dp6466
sg83
g6460
sg76
(lp6467
g69
(g70
g71
NtRp6468
(dp6469
g74
(dp6470
g82
I3
ssg83
g6464
sg76
(lp6471
g4517
(S's\x0f\x00\x00\x00Themis Policies'
tRp6472
asbasbasbag69
(g85
g71
NtRp6473
(dp6474
g74
(dp6475
sg83
g6456
sg76
(lp6476
g69
(g90
g71
NtRp6477
(dp6478
g74
(dp6479
sg83
g6473
sg76
(lp6480
g69
(g70
g71
NtRp6481
(dp6482
g74
(dp6483
g82
I3
ssg83
g6477
sg76
(lp6484
g1385
asbasbasbag69
(g85
g71
NtRp6485
(dp6486
g74
(dp6487
sg83
g6456
sg76
(lp6488
g69
(g90
g71
NtRp6489
(dp6490
g74
(dp6491
sg83
g6485
sg76
(lp6492
g69
(g70
g71
NtRp6493
(dp6494
g74
(dp6495
g82
I3
ssg83
g6489
sg76
(lp6496
S'/themishrms/default/ourtrem'
p6497
asbasbasbag69
(g85
g71
NtRp6498
(dp6499
g74
(dp6500
sg83
g6456
sg76
(lp6501
g69
(g90
g71
NtRp6502
(dp6503
g74
(dp6504
sg83
g6498
sg76
(lp6505
g69
(g70
g71
NtRp6506
(dp6507
g74
(dp6508
g82
I3
ssg83
g6502
sg76
(lp6509
g69
(g78
g71
NtRp6510
(dp6511
g74
(dp6512
g82
I2
ssg83
Nsg76
(lp6513
sbasbasbasbasbasbasbasbag69
(g85
g71
NtRp6514
(dp6515
g74
(dp6516
sg83
g6230
sg76
(lp6517
g69
(g90
g71
NtRp6518
(dp6519
g74
(dp6520
sg83
g6514
sg76
(lp6521
g69
(g70
g71
NtRp6522
(dp6523
g74
(dp6524
g82
I4
ssg83
g6518
sg76
(lp6525
g69
(g78
g71
NtRp6526
(dp6527
g74
(dp6528
g82
I3
ssg83
Nsg76
(lp6529
g69
(g85
g71
NtRp6530
(dp6531
g74
(dp6532
sg83
g6526
sg76
(lp6533
g69
(g90
g71
NtRp6534
(dp6535
g74
(dp6536
sg83
g6530
sg76
(lp6537
g69
(g70
g71
NtRp6538
(dp6539
g74
(dp6540
g82
I3
ssg83
g6534
sg76
(lp6541
g4517
(S's\x0f\x00\x00\x00Contact Details'
tRp6542
asbasbasbag69
(g85
g71
NtRp6543
(dp6544
g74
(dp6545
sg83
g6526
sg76
(lp6546
g69
(g90
g71
NtRp6547
(dp6548
g74
(dp6549
sg83
g6543
sg76
(lp6550
g69
(g70
g71
NtRp6551
(dp6552
g74
(dp6553
g82
I3
ssg83
g6547
sg76
(lp6554
g1385
asbasbasbag69
(g85
g71
NtRp6555
(dp6556
g74
(dp6557
sg83
g6526
sg76
(lp6558
g69
(g90
g71
NtRp6559
(dp6560
g74
(dp6561
sg83
g6555
sg76
(lp6562
g69
(g70
g71
NtRp6563
(dp6564
g74
(dp6565
g82
I3
ssg83
g6559
sg76
(lp6566
S'/themishrms/default/emp_contact_detail'
p6567
asbasbasbag69
(g85
g71
NtRp6568
(dp6569
g74
(dp6570
sg83
g6526
sg76
(lp6571
g69
(g90
g71
NtRp6572
(dp6573
g74
(dp6574
sg83
g6568
sg76
(lp6575
g69
(g70
g71
NtRp6576
(dp6577
g74
(dp6578
g82
I3
ssg83
g6572
sg76
(lp6579
g69
(g78
g71
NtRp6580
(dp6581
g74
(dp6582
g82
I2
ssg83
Nsg76
(lp6583
sbasbasbasbasbasbasbasbasbasbasbasbag69
(g85
g71
NtRp6584
(dp6585
g74
(dp6586
sg83
g4460
sg76
(lp6587
g69
(g90
g71
NtRp6588
(dp6589
g74
(dp6590
g94
g95
ssg83
g6584
sg76
(lp6591
g2874
asbag69
(g90
g71
NtRp6592
(dp6593
g74
(dp6594
g101
g102
ssg83
g6584
sg76
(lp6595
S':'
asbag69
(g90
g71
NtRp6596
(dp6597
g74
(dp6598
sg83
g6584
sg76
(lp6599
g69
(g70
g71
NtRp6600
(dp6601
g74
(dp6602
g82
I5
ssg83
g6596
sg76
(lp6603
g2887
asbasbasbag69
(g85
g71
NtRp6604
(dp6605
g74
(dp6606
sg83
g4460
sg76
(lp6607
g69
(g90
g71
NtRp6608
(dp6609
g74
(dp6610
g94
g95
ssg83
g6604
sg76
(lp6611
S'view'
p6612
asbag69
(g90
g71
NtRp6613
(dp6614
g74
(dp6615
g101
g102
ssg83
g6604
sg76
(lp6616
S':'
asbag69
(g90
g71
NtRp6617
(dp6618
g74
(dp6619
sg83
g6604
sg76
(lp6620
g69
(g70
g71
NtRp6621
(dp6622
g74
(dp6623
g82
I5
ssg83
g6617
sg76
(lp6624
S'default/emp_task.html'
p6625
asbasbasbasbasbsS'locals'
p6626
(dp6627
g4
S"'/home/tls-sanjeet/Desktop/HRMS/web2py/applications/themishrms/controllers/default.py'"
p6628
sg6
S"'# -*- coding: utf-8 -*-\\n# this file is released ...ages)\\n\\nresponse._vars=response._caller(emp_task)\\n'"
p6629
sssS'traceback'
p6630
S'Traceback (most recent call last):\n  File "/home/tls-sanjeet/Desktop/HRMS/web2py/gluon/restricted.py", line 204, in restricted\n    ccode = compile2(code,layer)\n  File "/home/tls-sanjeet/Desktop/HRMS/web2py/gluon/restricted.py", line 189, in compile2\n    return compile(code.rstrip().replace(\'\\r\\n\',\'\\n\')+\'\\n\', layer, \'exec\')\n  File "/home/tls-sanjeet/Desktop/HRMS/web2py/applications/themishrms/controllers/default.py", line 1425\n    db.activity_tracker.insert(employee_code=ecode,email=auth.user.email,project_name=request.vars.pro,project_task=request.vars.protsk,task_description=request.vars.tskdisc,date=request.vars.dte,total_time=request.vars.tottme,client_name=request.vars.client,company_name=,company_email=,practice_head=,project_manager=)\n                                                                                                                                                                                                                                                                                ^\nSyntaxError: invalid syntax\n'
p6631
s.