(dp1
S'output'
p2
S"<type 'exceptions.SyntaxError'> invalid syntax (db.py, line 209)"
p3
sS'layer'
p4
S'/home/tls-sanjeet/Desktop/HRMS/web2py/applications/themishrms/models/db.py'
p5
sS'code'
p6
S"# -*- coding: utf-8 -*-\r\n\r\n#########################################################################\r\n## This scaffolding model makes your app work on Google App Engine too\r\n## File is released under public domain and you can use without limitations\r\n#########################################################################\r\n\r\n## if SSL/HTTPS is properly configured and you want all HTTP requests to\r\n## be redirected to HTTPS, uncomment the line below:\r\n# request.requires_https()\r\n\r\nif not request.env.web2py_runtime_gae:\r\n    ## if NOT running on Google App Engine use SQLite or other DB\r\n    db = DAL('sqlite://storage.sqlite')\r\nelse:\r\n    ## connect to Google BigTable (optional 'google:datastore://namespace')\r\n    db = DAL('google:datastore')\r\n    ## store sessions and tickets there\r\n    session.connect(request, response, db = db)\r\n    ## or store session in Memcache, Redis, etc.\r\n    ## from gluon.contrib.memdb import MEMDB\r\n    ## from google.appengine.api.memcache import Client\r\n    ## session.connect(request, response, db = MEMDB(Client()))\r\n\r\n## by default give a view/generic.extension to all actions from localhost\r\n## none otherwise. a pattern can be 'controller/function.extension'\r\nresponse.generic_patterns = ['*'] if request.is_local else []\r\n## (optional) optimize handling of static files\r\n# response.optimize_css = 'concat,minify,inline'\r\n# response.optimize_js = 'concat,minify,inline'\r\n\r\n#########################################################################\r\n## Here is sample code if you need for\r\n## - email capabilities\r\n## - authentication (registration, login, logout, ... )\r\n## - authorization (role based authorization)\r\n## - services (xml, csv, json, xmlrpc, jsonrpc, amf, rss)\r\n## - old style crud actions\r\n## (more options discussed in gluon/tools.py)\r\n#########################################################################\nimport os\nfilepath = os.path.join(request.folder,'uploads')\r\n\r\nfrom gluon.tools import Auth, Crud, Service, PluginManager, prettydate\r\nauth = Auth(db, hmac_key=Auth.get_or_create_key())\r\ncrud, service, plugins = Crud(db), Service(), PluginManager()\r\n\r\n## create all tables needed by auth if not custom tables\n\nauth.settings.extra_fields['auth_user']= [\n\tField('organization_name', 'string', requires=IS_NOT_EMPTY(error_message='Organization name cannot be empty')),\n\tField('location', 'string', requires=IS_NOT_EMPTY(error_message='Location name cannot be empty')),\n\tField('department', 'string', requires=IS_NOT_EMPTY(error_message='Department name cannot be empty')),\n\tField('employee_code', 'string', unique=True, requires=IS_NOT_EMPTY(error_message='Employee code cannot be empty')),\n\tField('personal_email', requires=IS_EMAIL(error_message='Invalid personal email-id')),\n\tField('date_of_joining', 'date', requires=IS_NOT_EMPTY(error_message='Please enter the date of joining of the employee')),\n\tField('reporting_manager', 'string', requires=IS_NOT_EMPTY(error_message='Please enter the Reporting Manager name')),\n\tField('designation', 'string', requires=IS_NOT_EMPTY(error_message='Please enter the employee Designation')),\n\tField('employee_status', requires=IS_IN_SET(['Active','Terminated','Resigned','Leave-of-Absence','Deceased'],error_message='Please select the Employee Status')),\n\tField('date_of_exit', 'date'),\n\tField('exit_remark', 'text')\n  ]\n\r\nauth.define_tables()\n\r\n## configure email\r\nmail=auth.settings.mailer\r\nmail.settings.server = 'logging' or 'smtp.gmail.com:587'\r\nmail.settings.sender = 'you@gmail.com'\r\nmail.settings.login = 'username:password'\r\n\r\n## configure auth policy\nauth.settings.login_onaccept = lambda form: lgin(form)\nauth.settings.logout_onlogout = lambda usr: lgout(usr)\nauth.settings.actions_disabled.append('register')\nauth.settings.actions_disabled.append('profile')\r\nauth.settings.registration_requires_verification = False\r\nauth.settings.registration_requires_approval = False\r\nauth.settings.reset_password_requires_verification = True\r\n\r\n## if you need to use OpenID, Facebook, MySpace, Twitter, Linkedin, etc.\r\n## register with janrain.com, write your domain:api_key in private/janrain.key\r\nfrom gluon.contrib.login_methods.rpx_account import use_janrain\r\nuse_janrain(auth,filename='private/janrain.key')\r\n\r\n#########################################################################\r\n## Define your tables below (or better in another model file) for example\r\n##\r\n## >>> db.define_table('mytable',Field('myfield','string'))\r\n##\r\n## Fields can be 'string','text','password','integer','double','boolean'\r\n##       'date','time','datetime','blob','upload', 'reference TABLENAME'\r\n## There is an implicit 'id integer autoincrement' field\r\n## Consult manual for more options, validators, etc.\r\n##\r\n## More API examples for controllers:\r\n##\r\n## >>> db.mytable.insert(myfield='value')\r\n## >>> rows=db(db.mytable.myfield=='value').select(db.mytable.ALL)\r\n## >>> for row in rows: print row.id, row.myfield\r\n#########################################################################\n\ndef get_org_name(c):\n\trow = db(db.add_new_organization.id == c).select(db.add_new_organization.organization_name).first()\n\treturn row.organization_name\n\ndef get_loc_name(c):\n\trow = db(db.add_new_organization.id == c).select(db.add_new_organization.location).first()\n\treturn row.location\n\t\ndef get_dpt_name(c):\n\trow = db(db.add_new_department.id == c).select(db.add_new_department.department).first()\n\treturn row.department\n\ndef get_project_name(c):\n\trow = db(db.admin_add_project.id == c).select(db.admin_add_project.project_name).first()\n\treturn row.project_name\n\ndef get_emp_name(c):\n\trow = db(db.auth_user.id == c).select(db.auth_user.email).first()\n\treturn row.email\n\t\n\ndb.define_table('add_new_organization',\n\t\t\t\tField('organization_name','string',requires=IS_NOT_EMPTY(error_message='Please enter the Organization Name')),\n\t\t\t\tField('organization_prefix','string',requires=IS_NOT_EMPTY(error_message='Please enter the Organization Prefix')))\n\t\t\t\t\t\t\t\ndb.define_table('add_new_location',\n\t\t\t\tField('organization_name',db.add_new_organization, represent=lambda c, row:get_org_name(c), requires = IS_IN_DB(db,'add_new_organization.id','%(organization_name)s')),\n\t\t\t\tField('location','string',requires=IS_NOT_EMPTY(error_message='Please add the Organization Location')),\n\t\t\t\tField('phone','integer',requires=IS_LENGTH(10)),\n\t\t\t\tField('address','text'))\n\t\t\t\t\ndb.define_table('add_new_department',\n\t\t\t\tField('department','string',requires=IS_NOT_EMPTY(error_message='Please add the Department Name')),\n\t\t\t\tField('description','string',requires=IS_NOT_EMPTY(error_message='Please add the Description of the Department Name')))\n\t\t\t\t\ndb.define_table('practice_area',\n\t\t\t\tField('department',db.add_new_department, represent=lambda c, row:get_dpt_name(c), requires = IS_IN_DB(db,'add_new_department.id','%(department)s')),\n\t\t\t\tField('practice_area'))\n\t\ndb.define_table('employee_login_detail',\r\n\t\t\t\tField('employee_code'),\n\t\t\t\tField('employee_email'),\r\n\t\t\t\tField('employee_name'),\r\n\t\t\t\tField('employee_login_date'),\n\t\t\t\tField('employee_login_time'),\r\n\t\t\t\tField('employee_logout_date',default='Logged in'), \r\n\t\t\t\tField('employee_logout_time',default='Logged in'),\r\n\t\t\t\tField('total_minutes',default='Logged in'),\n\t\t\t\tField('toal_hours',default='Logged in'),\n\t\t\t\tField('ip_address'))\r\n\ndb.define_table('personal_information',\n\t\t\t\tField('employee_code'),\n\t\t\t\tField('email'),\n\t\t\t\tField('date_of_birth','date',requires=IS_NOT_EMPTY(error_message = 'Please Choose your date of birth')),\n\t\t\t\tField('gender',requires=IS_IN_SET(['Male','Female'], error_message='Please Select your Gender')),\n\t\t\t\tField('marital_status',requires=IS_IN_SET(['Maried','Unmaried'], error_message='Please Select your Marital Status')),\n\t\t\t\tField('blood_group',requires=IS_NOT_EMPTY(error_message='Please enter your blood group')),\n\t\t\t\tField('mobile','integer',requires=IS_LENGTH(10)),\n\t\t\t\tField('phone','integer',requires=IS_LENGTH(11)),\n\t\t\t\tField('present_address','text'),\n\t\t\t\tField('permanent_address','text'),\n\t\t\t\tField('citizenship'),\n\t\t\t\tField('state',requires=IS_IN_SET(['Andhra Pradesh','Arunachal Pradesh','Assam','Andaman and Nicobar Islands','Bihar','Chandigarh','Chhattisgarh','Dadar and Nagar Haveli','Daman and Diu','Delhi','Goa','Gujarat','Haryana','Himachal Pradesh','Jammu and Kashmir','Jharkhand','Karnataka','Kerala','Lakshadeep','Madhya Pradesh','Maharashtra','Manipur','Meghalaya','Mizoram','Nagaland','Orissa','Pondicherry','Punjab','Rajasthan','Sikkim','Tamil Nadu','Tripura','Uttaranchal','Uttar Pradesh','West Bengal'], error_message='Please Select your State')),\n\t\t\t\tField('passport_no'),\n\t\t\t\tField('bank_account_no','integer'),\n\t\t\t\tField('pan_card_no'))\n\t\t\t\t\ndb.define_table('qualification',\n\t\t\t\tField('employee_code'),\n\t\t\t\tField('email'),\n\t\t\t\tField('university',requires=IS_NOT_EMPTY(error_message='Please enter the University Name')),\n\t\t\t\tField('name_of_course',requires=IS_NOT_EMPTY(error_message='Please enter the Name of Course')),\n\t\t\t\tField('specification'),\n\t\t\t\tField('grade',requires=IS_NOT_EMPTY(error_message='Please enter grade')),\n\t\t\t\tField('percentage',requires=IS_NOT_EMPTY(error_message='Please enter Percentage')),\n\t\t\t\tField('completion_year','date',requires=IS_NOT_EMPTY(error_message='Please enter Completion Year')))\n\t\t\t\t\ndb.define_table('document',\n\t\t\t\tField('employee_code'),\n\t\t\t\tField('email'),\n\t\t\t\tField('document_description',requires=IS_NOT_EMPTY(error_message='Please enter the description for the Document')),\n\t\t\t\tField('document_upload','upload',uploadfolder=filepath,autodelete=True,requires=[IS_LENGTH(maxsize=1024*20480,error_message='Please Upload the file less than 20 MB'),IS_NOT_EMPTY(error_message='Please Choose the document for upload')]))\n\t\t\t\t\ndb.define_table('image',\n\t\t\t\tField('employee_code'),\n\t\t\t\tField('email'),\n\t\t\t\tField('image','upload',uploadfolder=filepath,autodelete=True,requires=[IS_LENGTH(maxsize=1024*1024,error_message='Please Upload the file less than 1 MB'),IS_IMAGE(extensions=('jpeg','png'),error_message='Please Upload only the jpeg and png files')]))\n\t\t\t\t\ndb.define_table('holiday_list',\n\t\t\t\tField('holiday_date','date',requires=IS_NOT_EMPTY(error_message='Please enter the Holiday date')),\n\t\t\t\tField('holiday_name',requires=IS_NOT_EMPTY(error_message='Please enter the Holiday Name')),\n\t\t\t\tField('remarks','text'))\n\t\t\t\t\ndb.define_table('apply_leave',\n\t\t\t\tField('employee_code'),\n\t\t\t\tField('email'),\n\t\t\t\tField('name'),\n\t\t\t\tField('leave_type',requires=IS_IN_SET(['Casual Leave','Medical Leave','Vacation Leave'], error_message='Please Select Leave type')),\n\t\t\t\tField('from_leave','date'),\n\t\t\t\tField('to_leave','date'),\n\t\t\t\tField('total_day','integer'),\n\t\t\t\tField('reason_for_leave','text'),\n\t\t\t\tField('reporting_manager'),\n\t\t\t\tField('status',requires=IS_IN_SET(['Approved','Pending','Rejected'],default='Pending'))\n\t\t\t\t\ndb.define_table('employee_leave',\n\t\t\t\tField('employee_code'),\n\t\t\t\tField('email'),\n\t\t\t\tField('taken_vacation_leave','integer'),\n\t\t\t\tField('taken_medical_leave','integer'),\n\t\t\t\tField('taken_casual_leave','integer'),\n\t\t\t\tField('left_vacation_leave','integer'),\n\t\t\t\tField('left_medical_leave','integer'),\n\t\t\t\tField('left_casual_leave','integer'))\n"
p7
sS'snapshot'
p8
(dp9
S'exception'
p10
(dp11
S'__getslice__'
p12
S"<method-wrapper '__getslice__' of exceptions.SyntaxError object>"
p13
sS'text'
p14
S'"db.define_table(\'employee_leave\',\\n"'
p15
sS'__str__'
p16
S"<method-wrapper '__str__' of exceptions.SyntaxError object>"
p17
sS'__reduce__'
p18
S'<built-in method __reduce__ of exceptions.SyntaxError object>'
p19
sS'__dict__'
p20
S'{}'
p21
sS'__sizeof__'
p22
S'<built-in method __sizeof__ of exceptions.SyntaxError object>'
p23
sS'__init__'
p24
S"<method-wrapper '__init__' of exceptions.SyntaxError object>"
p25
sS'__setattr__'
p26
S"<method-wrapper '__setattr__' of exceptions.SyntaxError object>"
p27
sS'__reduce_ex__'
p28
S'<built-in method __reduce_ex__ of exceptions.SyntaxError object>'
p29
sS'__new__'
p30
S'<built-in method __new__ of type object>'
p31
sS'__format__'
p32
S'<built-in method __format__ of exceptions.SyntaxError object>'
p33
sS'__class__'
p34
S"<type 'exceptions.SyntaxError'>"
p35
sS'filename'
p36
S"'/home/tls-sanjeet/Desktop/HRMS/web2py/applications/themishrms/models/db.py'"
p37
sS'lineno'
p38
S'209'
p39
sS'msg'
p40
S"'invalid syntax'"
p41
sS'__doc__'
p42
S"'Invalid syntax.'"
p43
sS'__getitem__'
p44
S"<method-wrapper '__getitem__' of exceptions.SyntaxError object>"
p45
sS'__setstate__'
p46
S'<built-in method __setstate__ of exceptions.SyntaxError object>'
p47
sS'__getattribute__'
p48
S"<method-wrapper '__getattribute__' of exceptions.SyntaxError object>"
p49
sS'print_file_and_line'
p50
S'None'
p51
sS'args'
p52
S'(\'invalid syntax\', (\'/home/tls-sanjeet/Desktop/HRMS/web2py/applications/themishrms/models/db.py\', 209, 2, "db.define_table(\'employee_leave\',\\n"))'
p53
sS'__subclasshook__'
p54
S'<built-in method __subclasshook__ of type object>'
p55
sS'offset'
p56
S'2'
sS'__unicode__'
p57
S'<built-in method __unicode__ of exceptions.SyntaxError object>'
p58
sS'__delattr__'
p59
S"<method-wrapper '__delattr__' of exceptions.SyntaxError object>"
p60
sS'__repr__'
p61
S"<method-wrapper '__repr__' of exceptions.SyntaxError object>"
p62
sS'__hash__'
p63
S"<method-wrapper '__hash__' of exceptions.SyntaxError object>"
p64
ssS'evalue'
p65
S'invalid syntax (db.py, line 209)'
p66
sS'request'
p67
ccopy_reg
_reconstructor
p68
(cgluon.html
BEAUTIFY
p69
c__builtin__
object
p70
NtRp71
(dp72
S'attributes'
p73
(dp74
sS'components'
p75
(lp76
g68
(cgluon.html
TABLE
p77
g70
NtRp78
(dp79
g73
(dp80
S'level'
p81
I5
ssS'parent'
p82
Nsg75
(lp83
g68
(cgluon.html
TR
p84
g70
NtRp85
(dp86
g73
(dp87
sg82
g78
sg75
(lp88
g68
(cgluon.html
TD
p89
g70
NtRp90
(dp91
g73
(dp92
S'_style'
p93
S'font-weight:bold;vertical-align:top'
p94
ssg82
g85
sg75
(lp95
S'ajax'
p96
asbag68
(g89
g70
NtRp97
(dp98
g73
(dp99
S'_valign'
p100
S'top'
p101
ssg82
g85
sg75
(lp102
S':'
asbag68
(g89
g70
NtRp103
(dp104
g73
(dp105
sg82
g85
sg75
(lp106
g68
(g69
g70
NtRp107
(dp108
g73
(dp109
g81
I5
ssg82
g103
sg75
(lp110
S'False'
p111
asbasbasbag68
(g84
g70
NtRp112
(dp113
g73
(dp114
sg82
g78
sg75
(lp115
g68
(g89
g70
NtRp116
(dp117
g73
(dp118
g93
g94
ssg82
g112
sg75
(lp119
S'application'
p120
asbag68
(g89
g70
NtRp121
(dp122
g73
(dp123
g100
g101
ssg82
g112
sg75
(lp124
S':'
asbag68
(g89
g70
NtRp125
(dp126
g73
(dp127
sg82
g112
sg75
(lp128
g68
(g69
g70
NtRp129
(dp130
g73
(dp131
g81
I5
ssg82
g125
sg75
(lp132
S'themishrms'
p133
asbasbasbag68
(g84
g70
NtRp134
(dp135
g73
(dp136
sg82
g78
sg75
(lp137
g68
(g89
g70
NtRp138
(dp139
g73
(dp140
g93
g94
ssg82
g134
sg75
(lp141
g52
asbag68
(g89
g70
NtRp142
(dp143
g73
(dp144
g100
g101
ssg82
g134
sg75
(lp145
S':'
asbag68
(g89
g70
NtRp146
(dp147
g73
(dp148
sg82
g134
sg75
(lp149
g68
(g69
g70
NtRp150
(dp151
g73
(dp152
g81
I5
ssg82
g146
sg75
(lp153
g68
(g77
g70
NtRp154
(dp155
g73
(dp156
g81
I4
ssg82
Nsg75
(lp157
sbasbasbasbag68
(g84
g70
NtRp158
(dp159
g73
(dp160
sg82
g78
sg75
(lp161
g68
(g89
g70
NtRp162
(dp163
g73
(dp164
g93
g94
ssg82
g158
sg75
(lp165
S'body'
p166
asbag68
(g89
g70
NtRp167
(dp168
g73
(dp169
g100
g101
ssg82
g158
sg75
(lp170
S':'
asbag68
(g89
g70
NtRp171
(dp172
g73
(dp173
sg82
g158
sg75
(lp174
g68
(g69
g70
NtRp175
(dp176
g73
(dp177
g81
I5
ssg82
g171
sg75
(lp178
S'<cStringIO.StringO object at 0xa6fa5a0>'
p179
asbasbasbag68
(g84
g70
NtRp180
(dp181
g73
(dp182
sg82
g78
sg75
(lp183
g68
(g89
g70
NtRp184
(dp185
g73
(dp186
g93
g94
ssg82
g180
sg75
(lp187
S'client'
p188
asbag68
(g89
g70
NtRp189
(dp190
g73
(dp191
g100
g101
ssg82
g180
sg75
(lp192
S':'
asbag68
(g89
g70
NtRp193
(dp194
g73
(dp195
sg82
g180
sg75
(lp196
g68
(g69
g70
NtRp197
(dp198
g73
(dp199
g81
I5
ssg82
g193
sg75
(lp200
S'127.0.0.1'
p201
asbasbasbag68
(g84
g70
NtRp202
(dp203
g73
(dp204
sg82
g78
sg75
(lp205
g68
(g89
g70
NtRp206
(dp207
g73
(dp208
g93
g94
ssg82
g202
sg75
(lp209
S'controller'
p210
asbag68
(g89
g70
NtRp211
(dp212
g73
(dp213
g100
g101
ssg82
g202
sg75
(lp214
S':'
asbag68
(g89
g70
NtRp215
(dp216
g73
(dp217
sg82
g202
sg75
(lp218
g68
(g69
g70
NtRp219
(dp220
g73
(dp221
g81
I5
ssg82
g215
sg75
(lp222
S'default'
p223
asbasbasbag68
(g84
g70
NtRp224
(dp225
g73
(dp226
sg82
g78
sg75
(lp227
g68
(g89
g70
NtRp228
(dp229
g73
(dp230
g93
g94
ssg82
g224
sg75
(lp231
S'cookies'
p232
asbag68
(g89
g70
NtRp233
(dp234
g73
(dp235
g100
g101
ssg82
g224
sg75
(lp236
S':'
asbag68
(g89
g70
NtRp237
(dp238
g73
(dp239
sg82
g224
sg75
(lp240
g68
(g69
g70
NtRp241
(dp242
g73
(dp243
g81
I5
ssg82
g237
sg75
(lp244
g68
(g77
g70
NtRp245
(dp246
g73
(dp247
g81
I4
ssg82
Nsg75
(lp248
g68
(g84
g70
NtRp249
(dp250
g73
(dp251
sg82
g245
sg75
(lp252
g68
(g89
g70
NtRp253
(dp254
g73
(dp255
g93
g94
ssg82
g249
sg75
(lp256
S'mypanel'
p257
asbag68
(g89
g70
NtRp258
(dp259
g73
(dp260
g100
g101
ssg82
g249
sg75
(lp261
S':'
asbag68
(g89
g70
NtRp262
(dp263
g73
(dp264
sg82
g249
sg75
(lp265
g68
(g69
g70
NtRp266
(dp267
g73
(dp268
g81
I4
ssg82
g262
sg75
(lp269
g68
(g77
g70
NtRp270
(dp271
g73
(dp272
g81
I3
ssg82
Nsg75
(lp273
g68
(g84
g70
NtRp274
(dp275
g73
(dp276
sg82
g270
sg75
(lp277
g68
(g89
g70
NtRp278
(dp279
g73
(dp280
g93
g94
ssg82
g274
sg75
(lp281
S'comment'
p282
asbag68
(g89
g70
NtRp283
(dp284
g73
(dp285
g100
g101
ssg82
g274
sg75
(lp286
S':'
asbag68
(g89
g70
NtRp287
(dp288
g73
(dp289
sg82
g274
sg75
(lp290
g68
(g69
g70
NtRp291
(dp292
g73
(dp293
g81
I3
ssg82
g287
sg75
(lp294
S''
asbasbasbag68
(g84
g70
NtRp295
(dp296
g73
(dp297
sg82
g270
sg75
(lp298
g68
(g89
g70
NtRp299
(dp300
g73
(dp301
g93
g94
ssg82
g295
sg75
(lp302
S'domain'
p303
asbag68
(g89
g70
NtRp304
(dp305
g73
(dp306
g100
g101
ssg82
g295
sg75
(lp307
S':'
asbag68
(g89
g70
NtRp308
(dp309
g73
(dp310
sg82
g295
sg75
(lp311
g68
(g69
g70
NtRp312
(dp313
g73
(dp314
g81
I3
ssg82
g308
sg75
(lp315
S''
asbasbasbag68
(g84
g70
NtRp316
(dp317
g73
(dp318
sg82
g270
sg75
(lp319
g68
(g89
g70
NtRp320
(dp321
g73
(dp322
g93
g94
ssg82
g316
sg75
(lp323
S'expires'
p324
asbag68
(g89
g70
NtRp325
(dp326
g73
(dp327
g100
g101
ssg82
g316
sg75
(lp328
S':'
asbag68
(g89
g70
NtRp329
(dp330
g73
(dp331
sg82
g316
sg75
(lp332
g68
(g69
g70
NtRp333
(dp334
g73
(dp335
g81
I3
ssg82
g329
sg75
(lp336
S''
asbasbasbag68
(g84
g70
NtRp337
(dp338
g73
(dp339
sg82
g270
sg75
(lp340
g68
(g89
g70
NtRp341
(dp342
g73
(dp343
g93
g94
ssg82
g337
sg75
(lp344
S'httponly'
p345
asbag68
(g89
g70
NtRp346
(dp347
g73
(dp348
g100
g101
ssg82
g337
sg75
(lp349
S':'
asbag68
(g89
g70
NtRp350
(dp351
g73
(dp352
sg82
g337
sg75
(lp353
g68
(g69
g70
NtRp354
(dp355
g73
(dp356
g81
I3
ssg82
g350
sg75
(lp357
S''
asbasbasbag68
(g84
g70
NtRp358
(dp359
g73
(dp360
sg82
g270
sg75
(lp361
g68
(g89
g70
NtRp362
(dp363
g73
(dp364
g93
g94
ssg82
g358
sg75
(lp365
S'max-age'
p366
asbag68
(g89
g70
NtRp367
(dp368
g73
(dp369
g100
g101
ssg82
g358
sg75
(lp370
S':'
asbag68
(g89
g70
NtRp371
(dp372
g73
(dp373
sg82
g358
sg75
(lp374
g68
(g69
g70
NtRp375
(dp376
g73
(dp377
g81
I3
ssg82
g371
sg75
(lp378
S''
asbasbasbag68
(g84
g70
NtRp379
(dp380
g73
(dp381
sg82
g270
sg75
(lp382
g68
(g89
g70
NtRp383
(dp384
g73
(dp385
g93
g94
ssg82
g379
sg75
(lp386
S'path'
p387
asbag68
(g89
g70
NtRp388
(dp389
g73
(dp390
g100
g101
ssg82
g379
sg75
(lp391
S':'
asbag68
(g89
g70
NtRp392
(dp393
g73
(dp394
sg82
g379
sg75
(lp395
g68
(g69
g70
NtRp396
(dp397
g73
(dp398
g81
I3
ssg82
g392
sg75
(lp399
S''
asbasbasbag68
(g84
g70
NtRp400
(dp401
g73
(dp402
sg82
g270
sg75
(lp403
g68
(g89
g70
NtRp404
(dp405
g73
(dp406
g93
g94
ssg82
g400
sg75
(lp407
S'secure'
p408
asbag68
(g89
g70
NtRp409
(dp410
g73
(dp411
g100
g101
ssg82
g400
sg75
(lp412
S':'
asbag68
(g89
g70
NtRp413
(dp414
g73
(dp415
sg82
g400
sg75
(lp416
g68
(g69
g70
NtRp417
(dp418
g73
(dp419
g81
I3
ssg82
g413
sg75
(lp420
S''
asbasbasbag68
(g84
g70
NtRp421
(dp422
g73
(dp423
sg82
g270
sg75
(lp424
g68
(g89
g70
NtRp425
(dp426
g73
(dp427
g93
g94
ssg82
g421
sg75
(lp428
S'version'
p429
asbag68
(g89
g70
NtRp430
(dp431
g73
(dp432
g100
g101
ssg82
g421
sg75
(lp433
S':'
asbag68
(g89
g70
NtRp434
(dp435
g73
(dp436
sg82
g421
sg75
(lp437
g68
(g69
g70
NtRp438
(dp439
g73
(dp440
g81
I3
ssg82
g434
sg75
(lp441
S''
asbasbasbasbasbasbasbag68
(g84
g70
NtRp442
(dp443
g73
(dp444
sg82
g245
sg75
(lp445
g68
(g89
g70
NtRp446
(dp447
g73
(dp448
g93
g94
ssg82
g442
sg75
(lp449
S'session_id_admin'
p450
asbag68
(g89
g70
NtRp451
(dp452
g73
(dp453
g100
g101
ssg82
g442
sg75
(lp454
S':'
asbag68
(g89
g70
NtRp455
(dp456
g73
(dp457
sg82
g442
sg75
(lp458
g68
(g69
g70
NtRp459
(dp460
g73
(dp461
g81
I4
ssg82
g455
sg75
(lp462
g68
(g77
g70
NtRp463
(dp464
g73
(dp465
g81
I3
ssg82
Nsg75
(lp466
g68
(g84
g70
NtRp467
(dp468
g73
(dp469
sg82
g463
sg75
(lp470
g68
(g89
g70
NtRp471
(dp472
g73
(dp473
g93
g94
ssg82
g467
sg75
(lp474
g282
asbag68
(g89
g70
NtRp475
(dp476
g73
(dp477
g100
g101
ssg82
g467
sg75
(lp478
S':'
asbag68
(g89
g70
NtRp479
(dp480
g73
(dp481
sg82
g467
sg75
(lp482
g68
(g69
g70
NtRp483
(dp484
g73
(dp485
g81
I3
ssg82
g479
sg75
(lp486
S''
asbasbasbag68
(g84
g70
NtRp487
(dp488
g73
(dp489
sg82
g463
sg75
(lp490
g68
(g89
g70
NtRp491
(dp492
g73
(dp493
g93
g94
ssg82
g487
sg75
(lp494
g303
asbag68
(g89
g70
NtRp495
(dp496
g73
(dp497
g100
g101
ssg82
g487
sg75
(lp498
S':'
asbag68
(g89
g70
NtRp499
(dp500
g73
(dp501
sg82
g487
sg75
(lp502
g68
(g69
g70
NtRp503
(dp504
g73
(dp505
g81
I3
ssg82
g499
sg75
(lp506
S''
asbasbasbag68
(g84
g70
NtRp507
(dp508
g73
(dp509
sg82
g463
sg75
(lp510
g68
(g89
g70
NtRp511
(dp512
g73
(dp513
g93
g94
ssg82
g507
sg75
(lp514
g324
asbag68
(g89
g70
NtRp515
(dp516
g73
(dp517
g100
g101
ssg82
g507
sg75
(lp518
S':'
asbag68
(g89
g70
NtRp519
(dp520
g73
(dp521
sg82
g507
sg75
(lp522
g68
(g69
g70
NtRp523
(dp524
g73
(dp525
g81
I3
ssg82
g519
sg75
(lp526
S''
asbasbasbag68
(g84
g70
NtRp527
(dp528
g73
(dp529
sg82
g463
sg75
(lp530
g68
(g89
g70
NtRp531
(dp532
g73
(dp533
g93
g94
ssg82
g527
sg75
(lp534
g345
asbag68
(g89
g70
NtRp535
(dp536
g73
(dp537
g100
g101
ssg82
g527
sg75
(lp538
S':'
asbag68
(g89
g70
NtRp539
(dp540
g73
(dp541
sg82
g527
sg75
(lp542
g68
(g69
g70
NtRp543
(dp544
g73
(dp545
g81
I3
ssg82
g539
sg75
(lp546
S''
asbasbasbag68
(g84
g70
NtRp547
(dp548
g73
(dp549
sg82
g463
sg75
(lp550
g68
(g89
g70
NtRp551
(dp552
g73
(dp553
g93
g94
ssg82
g547
sg75
(lp554
g366
asbag68
(g89
g70
NtRp555
(dp556
g73
(dp557
g100
g101
ssg82
g547
sg75
(lp558
S':'
asbag68
(g89
g70
NtRp559
(dp560
g73
(dp561
sg82
g547
sg75
(lp562
g68
(g69
g70
NtRp563
(dp564
g73
(dp565
g81
I3
ssg82
g559
sg75
(lp566
S''
asbasbasbag68
(g84
g70
NtRp567
(dp568
g73
(dp569
sg82
g463
sg75
(lp570
g68
(g89
g70
NtRp571
(dp572
g73
(dp573
g93
g94
ssg82
g567
sg75
(lp574
g387
asbag68
(g89
g70
NtRp575
(dp576
g73
(dp577
g100
g101
ssg82
g567
sg75
(lp578
S':'
asbag68
(g89
g70
NtRp579
(dp580
g73
(dp581
sg82
g567
sg75
(lp582
g68
(g69
g70
NtRp583
(dp584
g73
(dp585
g81
I3
ssg82
g579
sg75
(lp586
S''
asbasbasbag68
(g84
g70
NtRp587
(dp588
g73
(dp589
sg82
g463
sg75
(lp590
g68
(g89
g70
NtRp591
(dp592
g73
(dp593
g93
g94
ssg82
g587
sg75
(lp594
g408
asbag68
(g89
g70
NtRp595
(dp596
g73
(dp597
g100
g101
ssg82
g587
sg75
(lp598
S':'
asbag68
(g89
g70
NtRp599
(dp600
g73
(dp601
sg82
g587
sg75
(lp602
g68
(g69
g70
NtRp603
(dp604
g73
(dp605
g81
I3
ssg82
g599
sg75
(lp606
S''
asbasbasbag68
(g84
g70
NtRp607
(dp608
g73
(dp609
sg82
g463
sg75
(lp610
g68
(g89
g70
NtRp611
(dp612
g73
(dp613
g93
g94
ssg82
g607
sg75
(lp614
g429
asbag68
(g89
g70
NtRp615
(dp616
g73
(dp617
g100
g101
ssg82
g607
sg75
(lp618
S':'
asbag68
(g89
g70
NtRp619
(dp620
g73
(dp621
sg82
g607
sg75
(lp622
g68
(g69
g70
NtRp623
(dp624
g73
(dp625
g81
I3
ssg82
g619
sg75
(lp626
S''
asbasbasbasbasbasbasbag68
(g84
g70
NtRp627
(dp628
g73
(dp629
sg82
g245
sg75
(lp630
g68
(g89
g70
NtRp631
(dp632
g73
(dp633
g93
g94
ssg82
g627
sg75
(lp634
S'session_id_themishrms'
p635
asbag68
(g89
g70
NtRp636
(dp637
g73
(dp638
g100
g101
ssg82
g627
sg75
(lp639
S':'
asbag68
(g89
g70
NtRp640
(dp641
g73
(dp642
sg82
g627
sg75
(lp643
g68
(g69
g70
NtRp644
(dp645
g73
(dp646
g81
I4
ssg82
g640
sg75
(lp647
g68
(g77
g70
NtRp648
(dp649
g73
(dp650
g81
I3
ssg82
Nsg75
(lp651
g68
(g84
g70
NtRp652
(dp653
g73
(dp654
sg82
g648
sg75
(lp655
g68
(g89
g70
NtRp656
(dp657
g73
(dp658
g93
g94
ssg82
g652
sg75
(lp659
g282
asbag68
(g89
g70
NtRp660
(dp661
g73
(dp662
g100
g101
ssg82
g652
sg75
(lp663
S':'
asbag68
(g89
g70
NtRp664
(dp665
g73
(dp666
sg82
g652
sg75
(lp667
g68
(g69
g70
NtRp668
(dp669
g73
(dp670
g81
I3
ssg82
g664
sg75
(lp671
S''
asbasbasbag68
(g84
g70
NtRp672
(dp673
g73
(dp674
sg82
g648
sg75
(lp675
g68
(g89
g70
NtRp676
(dp677
g73
(dp678
g93
g94
ssg82
g672
sg75
(lp679
g303
asbag68
(g89
g70
NtRp680
(dp681
g73
(dp682
g100
g101
ssg82
g672
sg75
(lp683
S':'
asbag68
(g89
g70
NtRp684
(dp685
g73
(dp686
sg82
g672
sg75
(lp687
g68
(g69
g70
NtRp688
(dp689
g73
(dp690
g81
I3
ssg82
g684
sg75
(lp691
S''
asbasbasbag68
(g84
g70
NtRp692
(dp693
g73
(dp694
sg82
g648
sg75
(lp695
g68
(g89
g70
NtRp696
(dp697
g73
(dp698
g93
g94
ssg82
g692
sg75
(lp699
g324
asbag68
(g89
g70
NtRp700
(dp701
g73
(dp702
g100
g101
ssg82
g692
sg75
(lp703
S':'
asbag68
(g89
g70
NtRp704
(dp705
g73
(dp706
sg82
g692
sg75
(lp707
g68
(g69
g70
NtRp708
(dp709
g73
(dp710
g81
I3
ssg82
g704
sg75
(lp711
S''
asbasbasbag68
(g84
g70
NtRp712
(dp713
g73
(dp714
sg82
g648
sg75
(lp715
g68
(g89
g70
NtRp716
(dp717
g73
(dp718
g93
g94
ssg82
g712
sg75
(lp719
g345
asbag68
(g89
g70
NtRp720
(dp721
g73
(dp722
g100
g101
ssg82
g712
sg75
(lp723
S':'
asbag68
(g89
g70
NtRp724
(dp725
g73
(dp726
sg82
g712
sg75
(lp727
g68
(g69
g70
NtRp728
(dp729
g73
(dp730
g81
I3
ssg82
g724
sg75
(lp731
S''
asbasbasbag68
(g84
g70
NtRp732
(dp733
g73
(dp734
sg82
g648
sg75
(lp735
g68
(g89
g70
NtRp736
(dp737
g73
(dp738
g93
g94
ssg82
g732
sg75
(lp739
g366
asbag68
(g89
g70
NtRp740
(dp741
g73
(dp742
g100
g101
ssg82
g732
sg75
(lp743
S':'
asbag68
(g89
g70
NtRp744
(dp745
g73
(dp746
sg82
g732
sg75
(lp747
g68
(g69
g70
NtRp748
(dp749
g73
(dp750
g81
I3
ssg82
g744
sg75
(lp751
S''
asbasbasbag68
(g84
g70
NtRp752
(dp753
g73
(dp754
sg82
g648
sg75
(lp755
g68
(g89
g70
NtRp756
(dp757
g73
(dp758
g93
g94
ssg82
g752
sg75
(lp759
g387
asbag68
(g89
g70
NtRp760
(dp761
g73
(dp762
g100
g101
ssg82
g752
sg75
(lp763
S':'
asbag68
(g89
g70
NtRp764
(dp765
g73
(dp766
sg82
g752
sg75
(lp767
g68
(g69
g70
NtRp768
(dp769
g73
(dp770
g81
I3
ssg82
g764
sg75
(lp771
S''
asbasbasbag68
(g84
g70
NtRp772
(dp773
g73
(dp774
sg82
g648
sg75
(lp775
g68
(g89
g70
NtRp776
(dp777
g73
(dp778
g93
g94
ssg82
g772
sg75
(lp779
g408
asbag68
(g89
g70
NtRp780
(dp781
g73
(dp782
g100
g101
ssg82
g772
sg75
(lp783
S':'
asbag68
(g89
g70
NtRp784
(dp785
g73
(dp786
sg82
g772
sg75
(lp787
g68
(g69
g70
NtRp788
(dp789
g73
(dp790
g81
I3
ssg82
g784
sg75
(lp791
S''
asbasbasbag68
(g84
g70
NtRp792
(dp793
g73
(dp794
sg82
g648
sg75
(lp795
g68
(g89
g70
NtRp796
(dp797
g73
(dp798
g93
g94
ssg82
g792
sg75
(lp799
g429
asbag68
(g89
g70
NtRp800
(dp801
g73
(dp802
g100
g101
ssg82
g792
sg75
(lp803
S':'
asbag68
(g89
g70
NtRp804
(dp805
g73
(dp806
sg82
g792
sg75
(lp807
g68
(g69
g70
NtRp808
(dp809
g73
(dp810
g81
I3
ssg82
g804
sg75
(lp811
S''
asbasbasbasbasbasbasbag68
(g84
g70
NtRp812
(dp813
g73
(dp814
sg82
g245
sg75
(lp815
g68
(g89
g70
NtRp816
(dp817
g73
(dp818
g93
g94
ssg82
g812
sg75
(lp819
S'session_id_welcome'
p820
asbag68
(g89
g70
NtRp821
(dp822
g73
(dp823
g100
g101
ssg82
g812
sg75
(lp824
S':'
asbag68
(g89
g70
NtRp825
(dp826
g73
(dp827
sg82
g812
sg75
(lp828
g68
(g69
g70
NtRp829
(dp830
g73
(dp831
g81
I4
ssg82
g825
sg75
(lp832
g68
(g77
g70
NtRp833
(dp834
g73
(dp835
g81
I3
ssg82
Nsg75
(lp836
g68
(g84
g70
NtRp837
(dp838
g73
(dp839
sg82
g833
sg75
(lp840
g68
(g89
g70
NtRp841
(dp842
g73
(dp843
g93
g94
ssg82
g837
sg75
(lp844
g282
asbag68
(g89
g70
NtRp845
(dp846
g73
(dp847
g100
g101
ssg82
g837
sg75
(lp848
S':'
asbag68
(g89
g70
NtRp849
(dp850
g73
(dp851
sg82
g837
sg75
(lp852
g68
(g69
g70
NtRp853
(dp854
g73
(dp855
g81
I3
ssg82
g849
sg75
(lp856
S''
asbasbasbag68
(g84
g70
NtRp857
(dp858
g73
(dp859
sg82
g833
sg75
(lp860
g68
(g89
g70
NtRp861
(dp862
g73
(dp863
g93
g94
ssg82
g857
sg75
(lp864
g303
asbag68
(g89
g70
NtRp865
(dp866
g73
(dp867
g100
g101
ssg82
g857
sg75
(lp868
S':'
asbag68
(g89
g70
NtRp869
(dp870
g73
(dp871
sg82
g857
sg75
(lp872
g68
(g69
g70
NtRp873
(dp874
g73
(dp875
g81
I3
ssg82
g869
sg75
(lp876
S''
asbasbasbag68
(g84
g70
NtRp877
(dp878
g73
(dp879
sg82
g833
sg75
(lp880
g68
(g89
g70
NtRp881
(dp882
g73
(dp883
g93
g94
ssg82
g877
sg75
(lp884
g324
asbag68
(g89
g70
NtRp885
(dp886
g73
(dp887
g100
g101
ssg82
g877
sg75
(lp888
S':'
asbag68
(g89
g70
NtRp889
(dp890
g73
(dp891
sg82
g877
sg75
(lp892
g68
(g69
g70
NtRp893
(dp894
g73
(dp895
g81
I3
ssg82
g889
sg75
(lp896
S''
asbasbasbag68
(g84
g70
NtRp897
(dp898
g73
(dp899
sg82
g833
sg75
(lp900
g68
(g89
g70
NtRp901
(dp902
g73
(dp903
g93
g94
ssg82
g897
sg75
(lp904
g345
asbag68
(g89
g70
NtRp905
(dp906
g73
(dp907
g100
g101
ssg82
g897
sg75
(lp908
S':'
asbag68
(g89
g70
NtRp909
(dp910
g73
(dp911
sg82
g897
sg75
(lp912
g68
(g69
g70
NtRp913
(dp914
g73
(dp915
g81
I3
ssg82
g909
sg75
(lp916
S''
asbasbasbag68
(g84
g70
NtRp917
(dp918
g73
(dp919
sg82
g833
sg75
(lp920
g68
(g89
g70
NtRp921
(dp922
g73
(dp923
g93
g94
ssg82
g917
sg75
(lp924
g366
asbag68
(g89
g70
NtRp925
(dp926
g73
(dp927
g100
g101
ssg82
g917
sg75
(lp928
S':'
asbag68
(g89
g70
NtRp929
(dp930
g73
(dp931
sg82
g917
sg75
(lp932
g68
(g69
g70
NtRp933
(dp934
g73
(dp935
g81
I3
ssg82
g929
sg75
(lp936
S''
asbasbasbag68
(g84
g70
NtRp937
(dp938
g73
(dp939
sg82
g833
sg75
(lp940
g68
(g89
g70
NtRp941
(dp942
g73
(dp943
g93
g94
ssg82
g937
sg75
(lp944
g387
asbag68
(g89
g70
NtRp945
(dp946
g73
(dp947
g100
g101
ssg82
g937
sg75
(lp948
S':'
asbag68
(g89
g70
NtRp949
(dp950
g73
(dp951
sg82
g937
sg75
(lp952
g68
(g69
g70
NtRp953
(dp954
g73
(dp955
g81
I3
ssg82
g949
sg75
(lp956
S''
asbasbasbag68
(g84
g70
NtRp957
(dp958
g73
(dp959
sg82
g833
sg75
(lp960
g68
(g89
g70
NtRp961
(dp962
g73
(dp963
g93
g94
ssg82
g957
sg75
(lp964
g408
asbag68
(g89
g70
NtRp965
(dp966
g73
(dp967
g100
g101
ssg82
g957
sg75
(lp968
S':'
asbag68
(g89
g70
NtRp969
(dp970
g73
(dp971
sg82
g957
sg75
(lp972
g68
(g69
g70
NtRp973
(dp974
g73
(dp975
g81
I3
ssg82
g969
sg75
(lp976
S''
asbasbasbag68
(g84
g70
NtRp977
(dp978
g73
(dp979
sg82
g833
sg75
(lp980
g68
(g89
g70
NtRp981
(dp982
g73
(dp983
g93
g94
ssg82
g977
sg75
(lp984
g429
asbag68
(g89
g70
NtRp985
(dp986
g73
(dp987
g100
g101
ssg82
g977
sg75
(lp988
S':'
asbag68
(g89
g70
NtRp989
(dp990
g73
(dp991
sg82
g977
sg75
(lp992
g68
(g69
g70
NtRp993
(dp994
g73
(dp995
g81
I3
ssg82
g989
sg75
(lp996
S''
asbasbasbasbasbasbasbag68
(g84
g70
NtRp997
(dp998
g73
(dp999
sg82
g245
sg75
(lp1000
g68
(g89
g70
NtRp1001
(dp1002
g73
(dp1003
g93
g94
ssg82
g997
sg75
(lp1004
S'tls'
p1005
asbag68
(g89
g70
NtRp1006
(dp1007
g73
(dp1008
g100
g101
ssg82
g997
sg75
(lp1009
S':'
asbag68
(g89
g70
NtRp1010
(dp1011
g73
(dp1012
sg82
g997
sg75
(lp1013
g68
(g69
g70
NtRp1014
(dp1015
g73
(dp1016
g81
I4
ssg82
g1010
sg75
(lp1017
g68
(g77
g70
NtRp1018
(dp1019
g73
(dp1020
g81
I3
ssg82
Nsg75
(lp1021
g68
(g84
g70
NtRp1022
(dp1023
g73
(dp1024
sg82
g1018
sg75
(lp1025
g68
(g89
g70
NtRp1026
(dp1027
g73
(dp1028
g93
g94
ssg82
g1022
sg75
(lp1029
g282
asbag68
(g89
g70
NtRp1030
(dp1031
g73
(dp1032
g100
g101
ssg82
g1022
sg75
(lp1033
S':'
asbag68
(g89
g70
NtRp1034
(dp1035
g73
(dp1036
sg82
g1022
sg75
(lp1037
g68
(g69
g70
NtRp1038
(dp1039
g73
(dp1040
g81
I3
ssg82
g1034
sg75
(lp1041
S''
asbasbasbag68
(g84
g70
NtRp1042
(dp1043
g73
(dp1044
sg82
g1018
sg75
(lp1045
g68
(g89
g70
NtRp1046
(dp1047
g73
(dp1048
g93
g94
ssg82
g1042
sg75
(lp1049
g303
asbag68
(g89
g70
NtRp1050
(dp1051
g73
(dp1052
g100
g101
ssg82
g1042
sg75
(lp1053
S':'
asbag68
(g89
g70
NtRp1054
(dp1055
g73
(dp1056
sg82
g1042
sg75
(lp1057
g68
(g69
g70
NtRp1058
(dp1059
g73
(dp1060
g81
I3
ssg82
g1054
sg75
(lp1061
S''
asbasbasbag68
(g84
g70
NtRp1062
(dp1063
g73
(dp1064
sg82
g1018
sg75
(lp1065
g68
(g89
g70
NtRp1066
(dp1067
g73
(dp1068
g93
g94
ssg82
g1062
sg75
(lp1069
g324
asbag68
(g89
g70
NtRp1070
(dp1071
g73
(dp1072
g100
g101
ssg82
g1062
sg75
(lp1073
S':'
asbag68
(g89
g70
NtRp1074
(dp1075
g73
(dp1076
sg82
g1062
sg75
(lp1077
g68
(g69
g70
NtRp1078
(dp1079
g73
(dp1080
g81
I3
ssg82
g1074
sg75
(lp1081
S''
asbasbasbag68
(g84
g70
NtRp1082
(dp1083
g73
(dp1084
sg82
g1018
sg75
(lp1085
g68
(g89
g70
NtRp1086
(dp1087
g73
(dp1088
g93
g94
ssg82
g1082
sg75
(lp1089
g345
asbag68
(g89
g70
NtRp1090
(dp1091
g73
(dp1092
g100
g101
ssg82
g1082
sg75
(lp1093
S':'
asbag68
(g89
g70
NtRp1094
(dp1095
g73
(dp1096
sg82
g1082
sg75
(lp1097
g68
(g69
g70
NtRp1098
(dp1099
g73
(dp1100
g81
I3
ssg82
g1094
sg75
(lp1101
S''
asbasbasbag68
(g84
g70
NtRp1102
(dp1103
g73
(dp1104
sg82
g1018
sg75
(lp1105
g68
(g89
g70
NtRp1106
(dp1107
g73
(dp1108
g93
g94
ssg82
g1102
sg75
(lp1109
g366
asbag68
(g89
g70
NtRp1110
(dp1111
g73
(dp1112
g100
g101
ssg82
g1102
sg75
(lp1113
S':'
asbag68
(g89
g70
NtRp1114
(dp1115
g73
(dp1116
sg82
g1102
sg75
(lp1117
g68
(g69
g70
NtRp1118
(dp1119
g73
(dp1120
g81
I3
ssg82
g1114
sg75
(lp1121
S''
asbasbasbag68
(g84
g70
NtRp1122
(dp1123
g73
(dp1124
sg82
g1018
sg75
(lp1125
g68
(g89
g70
NtRp1126
(dp1127
g73
(dp1128
g93
g94
ssg82
g1122
sg75
(lp1129
g387
asbag68
(g89
g70
NtRp1130
(dp1131
g73
(dp1132
g100
g101
ssg82
g1122
sg75
(lp1133
S':'
asbag68
(g89
g70
NtRp1134
(dp1135
g73
(dp1136
sg82
g1122
sg75
(lp1137
g68
(g69
g70
NtRp1138
(dp1139
g73
(dp1140
g81
I3
ssg82
g1134
sg75
(lp1141
S''
asbasbasbag68
(g84
g70
NtRp1142
(dp1143
g73
(dp1144
sg82
g1018
sg75
(lp1145
g68
(g89
g70
NtRp1146
(dp1147
g73
(dp1148
g93
g94
ssg82
g1142
sg75
(lp1149
g408
asbag68
(g89
g70
NtRp1150
(dp1151
g73
(dp1152
g100
g101
ssg82
g1142
sg75
(lp1153
S':'
asbag68
(g89
g70
NtRp1154
(dp1155
g73
(dp1156
sg82
g1142
sg75
(lp1157
g68
(g69
g70
NtRp1158
(dp1159
g73
(dp1160
g81
I3
ssg82
g1154
sg75
(lp1161
S''
asbasbasbag68
(g84
g70
NtRp1162
(dp1163
g73
(dp1164
sg82
g1018
sg75
(lp1165
g68
(g89
g70
NtRp1166
(dp1167
g73
(dp1168
g93
g94
ssg82
g1162
sg75
(lp1169
g429
asbag68
(g89
g70
NtRp1170
(dp1171
g73
(dp1172
g100
g101
ssg82
g1162
sg75
(lp1173
S':'
asbag68
(g89
g70
NtRp1174
(dp1175
g73
(dp1176
sg82
g1162
sg75
(lp1177
g68
(g69
g70
NtRp1178
(dp1179
g73
(dp1180
g81
I3
ssg82
g1174
sg75
(lp1181
S''
asbasbasbasbasbasbasbasbasbasbasbag68
(g84
g70
NtRp1182
(dp1183
g73
(dp1184
sg82
g78
sg75
(lp1185
g68
(g89
g70
NtRp1186
(dp1187
g73
(dp1188
g93
g94
ssg82
g1182
sg75
(lp1189
S'env'
p1190
asbag68
(g89
g70
NtRp1191
(dp1192
g73
(dp1193
g100
g101
ssg82
g1182
sg75
(lp1194
S':'
asbag68
(g89
g70
NtRp1195
(dp1196
g73
(dp1197
sg82
g1182
sg75
(lp1198
g68
(g69
g70
NtRp1199
(dp1200
g73
(dp1201
g81
I5
ssg82
g1195
sg75
(lp1202
g68
(g77
g70
NtRp1203
(dp1204
g73
(dp1205
g81
I4
ssg82
Nsg75
(lp1206
g68
(g84
g70
NtRp1207
(dp1208
g73
(dp1209
sg82
g1203
sg75
(lp1210
g68
(g89
g70
NtRp1211
(dp1212
g73
(dp1213
g93
g94
ssg82
g1207
sg75
(lp1214
S'app_folders'
p1215
asbag68
(g89
g70
NtRp1216
(dp1217
g73
(dp1218
g100
g101
ssg82
g1207
sg75
(lp1219
S':'
asbag68
(g89
g70
NtRp1220
(dp1221
g73
(dp1222
sg82
g1207
sg75
(lp1223
g68
(g69
g70
NtRp1224
(dp1225
g73
(dp1226
g81
I4
ssg82
g1220
sg75
(lp1227
S"set(['/home/tls-sanjeet/Desktop/HRMS/web2py/applications/themishrms/', '/home/tls-sanjeet/Desktop/HRMS/web2py/applications/welcome/', '/home/tls-sanjeet/Desktop/HRMS/web2py/applications/admin/'])"
p1228
asbasbasbag68
(g84
g70
NtRp1229
(dp1230
g73
(dp1231
sg82
g1203
sg75
(lp1232
g68
(g89
g70
NtRp1233
(dp1234
g73
(dp1235
g93
g94
ssg82
g1229
sg75
(lp1236
S'applications_parent'
p1237
asbag68
(g89
g70
NtRp1238
(dp1239
g73
(dp1240
g100
g101
ssg82
g1229
sg75
(lp1241
S':'
asbag68
(g89
g70
NtRp1242
(dp1243
g73
(dp1244
sg82
g1229
sg75
(lp1245
g68
(g69
g70
NtRp1246
(dp1247
g73
(dp1248
g81
I4
ssg82
g1242
sg75
(lp1249
S'/home/tls-sanjeet/Desktop/HRMS/web2py'
p1250
asbasbasbag68
(g84
g70
NtRp1251
(dp1252
g73
(dp1253
sg82
g1203
sg75
(lp1254
g68
(g89
g70
NtRp1255
(dp1256
g73
(dp1257
g93
g94
ssg82
g1251
sg75
(lp1258
S'cmd_args'
p1259
asbag68
(g89
g70
NtRp1260
(dp1261
g73
(dp1262
g100
g101
ssg82
g1251
sg75
(lp1263
S':'
asbag68
(g89
g70
NtRp1264
(dp1265
g73
(dp1266
sg82
g1251
sg75
(lp1267
g68
(g69
g70
NtRp1268
(dp1269
g73
(dp1270
g81
I4
ssg82
g1264
sg75
(lp1271
g68
(g77
g70
NtRp1272
(dp1273
g73
(dp1274
g81
I3
ssg82
Nsg75
(lp1275
sbasbasbasbag68
(g84
g70
NtRp1276
(dp1277
g73
(dp1278
sg82
g1203
sg75
(lp1279
g68
(g89
g70
NtRp1280
(dp1281
g73
(dp1282
g93
g94
ssg82
g1276
sg75
(lp1283
S'cmd_options'
p1284
asbag68
(g89
g70
NtRp1285
(dp1286
g73
(dp1287
g100
g101
ssg82
g1276
sg75
(lp1288
S':'
asbag68
(g89
g70
NtRp1289
(dp1290
g73
(dp1291
sg82
g1276
sg75
(lp1292
g68
(g69
g70
NtRp1293
(dp1294
g73
(dp1295
g81
I4
ssg82
g1289
sg75
(lp1296
S"<Values at 0x933f5cc: {'verbose': False, 'ip': '127.0.0.1', 'shutdown_timeout': 5, 'taskbar': False, 'nocron': False, 'pid_filename': 'httpserver.pid', 'maxthreads': None, 'softcron': False, 'server_name': 'sanjeet-desktop', 'bpython': False, 'nogui': False, 'port': 8000, 'extcron': False, 'debuglevel': 30, 'test': None, 'folder': '/home/tls-sanjeet/Desktop/HRMS/web2py', 'config': '', 'import_models': False, 'winservice': '', 'shell': None, 'run': '', 'log_filename': 'httpserver.log', 'args': [''], 'socket_timeout': 5, 'ssl_ca_certificate': None, 'scheduler': None, 'profiler_filename': None, 'ssl_private_key': '', 'password': 'a', 'request_queue_size': 5, 'ssl_certificate': '', 'cronjob': False, 'numthreads': None, 'quiet': False, 'interfaces': None, 'minthreads': None, 'timeout': 10, 'plain': False, 'nobanner': False}>"
p1297
asbasbasbag68
(g84
g70
NtRp1298
(dp1299
g73
(dp1300
sg82
g1203
sg75
(lp1301
g68
(g89
g70
NtRp1302
(dp1303
g73
(dp1304
g93
g94
ssg82
g1298
sg75
(lp1305
S'db_sessions'
p1306
asbag68
(g89
g70
NtRp1307
(dp1308
g73
(dp1309
g100
g101
ssg82
g1298
sg75
(lp1310
S':'
asbag68
(g89
g70
NtRp1311
(dp1312
g73
(dp1313
sg82
g1298
sg75
(lp1314
g68
(g69
g70
NtRp1315
(dp1316
g73
(dp1317
g81
I4
ssg82
g1311
sg75
(lp1318
S'set([])'
p1319
asbasbasbag68
(g84
g70
NtRp1320
(dp1321
g73
(dp1322
sg82
g1203
sg75
(lp1323
g68
(g89
g70
NtRp1324
(dp1325
g73
(dp1326
g93
g94
ssg82
g1320
sg75
(lp1327
S'debugging'
p1328
asbag68
(g89
g70
NtRp1329
(dp1330
g73
(dp1331
g100
g101
ssg82
g1320
sg75
(lp1332
S':'
asbag68
(g89
g70
NtRp1333
(dp1334
g73
(dp1335
sg82
g1320
sg75
(lp1336
g68
(g69
g70
NtRp1337
(dp1338
g73
(dp1339
g81
I4
ssg82
g1333
sg75
(lp1340
g111
asbasbasbag68
(g84
g70
NtRp1341
(dp1342
g73
(dp1343
sg82
g1203
sg75
(lp1344
g68
(g89
g70
NtRp1345
(dp1346
g73
(dp1347
g93
g94
ssg82
g1341
sg75
(lp1348
S'gluon_parent'
p1349
asbag68
(g89
g70
NtRp1350
(dp1351
g73
(dp1352
g100
g101
ssg82
g1341
sg75
(lp1353
S':'
asbag68
(g89
g70
NtRp1354
(dp1355
g73
(dp1356
sg82
g1341
sg75
(lp1357
g68
(g69
g70
NtRp1358
(dp1359
g73
(dp1360
g81
I4
ssg82
g1354
sg75
(lp1361
S'/home/tls-sanjeet/Desktop/HRMS/web2py'
p1362
asbasbasbag68
(g84
g70
NtRp1363
(dp1364
g73
(dp1365
sg82
g1203
sg75
(lp1366
g68
(g89
g70
NtRp1367
(dp1368
g73
(dp1369
g93
g94
ssg82
g1363
sg75
(lp1370
S'http_accept'
p1371
asbag68
(g89
g70
NtRp1372
(dp1373
g73
(dp1374
g100
g101
ssg82
g1363
sg75
(lp1375
S':'
asbag68
(g89
g70
NtRp1376
(dp1377
g73
(dp1378
sg82
g1363
sg75
(lp1379
g68
(g69
g70
NtRp1380
(dp1381
g73
(dp1382
g81
I4
ssg82
g1376
sg75
(lp1383
S'text/html,application/xhtml+xml,application/xml;q=0.9,*/*;q=0.8'
p1384
asbasbasbag68
(g84
g70
NtRp1385
(dp1386
g73
(dp1387
sg82
g1203
sg75
(lp1388
g68
(g89
g70
NtRp1389
(dp1390
g73
(dp1391
g93
g94
ssg82
g1385
sg75
(lp1392
S'http_accept_charset'
p1393
asbag68
(g89
g70
NtRp1394
(dp1395
g73
(dp1396
g100
g101
ssg82
g1385
sg75
(lp1397
S':'
asbag68
(g89
g70
NtRp1398
(dp1399
g73
(dp1400
sg82
g1385
sg75
(lp1401
g68
(g69
g70
NtRp1402
(dp1403
g73
(dp1404
g81
I4
ssg82
g1398
sg75
(lp1405
S'ISO-8859-1,utf-8;q=0.7,*;q=0.3'
p1406
asbasbasbag68
(g84
g70
NtRp1407
(dp1408
g73
(dp1409
sg82
g1203
sg75
(lp1410
g68
(g89
g70
NtRp1411
(dp1412
g73
(dp1413
g93
g94
ssg82
g1407
sg75
(lp1414
S'http_accept_encoding'
p1415
asbag68
(g89
g70
NtRp1416
(dp1417
g73
(dp1418
g100
g101
ssg82
g1407
sg75
(lp1419
S':'
asbag68
(g89
g70
NtRp1420
(dp1421
g73
(dp1422
sg82
g1407
sg75
(lp1423
g68
(g69
g70
NtRp1424
(dp1425
g73
(dp1426
g81
I4
ssg82
g1420
sg75
(lp1427
S'gzip,deflate,sdch'
p1428
asbasbasbag68
(g84
g70
NtRp1429
(dp1430
g73
(dp1431
sg82
g1203
sg75
(lp1432
g68
(g89
g70
NtRp1433
(dp1434
g73
(dp1435
g93
g94
ssg82
g1429
sg75
(lp1436
S'http_accept_language'
p1437
asbag68
(g89
g70
NtRp1438
(dp1439
g73
(dp1440
g100
g101
ssg82
g1429
sg75
(lp1441
S':'
asbag68
(g89
g70
NtRp1442
(dp1443
g73
(dp1444
sg82
g1429
sg75
(lp1445
g68
(g69
g70
NtRp1446
(dp1447
g73
(dp1448
g81
I4
ssg82
g1442
sg75
(lp1449
S'en-US,en;q=0.8'
p1450
asbasbasbag68
(g84
g70
NtRp1451
(dp1452
g73
(dp1453
sg82
g1203
sg75
(lp1454
g68
(g89
g70
NtRp1455
(dp1456
g73
(dp1457
g93
g94
ssg82
g1451
sg75
(lp1458
S'http_connection'
p1459
asbag68
(g89
g70
NtRp1460
(dp1461
g73
(dp1462
g100
g101
ssg82
g1451
sg75
(lp1463
S':'
asbag68
(g89
g70
NtRp1464
(dp1465
g73
(dp1466
sg82
g1451
sg75
(lp1467
g68
(g69
g70
NtRp1468
(dp1469
g73
(dp1470
g81
I4
ssg82
g1464
sg75
(lp1471
S'keep-alive'
p1472
asbasbasbag68
(g84
g70
NtRp1473
(dp1474
g73
(dp1475
sg82
g1203
sg75
(lp1476
g68
(g89
g70
NtRp1477
(dp1478
g73
(dp1479
g93
g94
ssg82
g1473
sg75
(lp1480
S'http_cookie'
p1481
asbag68
(g89
g70
NtRp1482
(dp1483
g73
(dp1484
g100
g101
ssg82
g1473
sg75
(lp1485
S':'
asbag68
(g89
g70
NtRp1486
(dp1487
g73
(dp1488
sg82
g1473
sg75
(lp1489
g68
(g69
g70
NtRp1490
(dp1491
g73
(dp1492
g81
I4
ssg82
g1486
sg75
(lp1493
S'session_id_welcome=127.0.0.1-b3bf87d3-0dab-4799-b1ad-d313a4be3f78; mypanel=up; tls=up; session_id_themishrms=127.0.0.1-242e7abf-396d-48e9-918e-1c534375193b; session_id_admin=127.0.0.1-78804ccc-e1ec-43c0-afee-38528a7830db'
p1494
asbasbasbag68
(g84
g70
NtRp1495
(dp1496
g73
(dp1497
sg82
g1203
sg75
(lp1498
g68
(g89
g70
NtRp1499
(dp1500
g73
(dp1501
g93
g94
ssg82
g1495
sg75
(lp1502
S'http_host'
p1503
asbag68
(g89
g70
NtRp1504
(dp1505
g73
(dp1506
g100
g101
ssg82
g1495
sg75
(lp1507
S':'
asbag68
(g89
g70
NtRp1508
(dp1509
g73
(dp1510
sg82
g1495
sg75
(lp1511
g68
(g69
g70
NtRp1512
(dp1513
g73
(dp1514
g81
I4
ssg82
g1508
sg75
(lp1515
S'127.0.0.1:8000'
p1516
asbasbasbag68
(g84
g70
NtRp1517
(dp1518
g73
(dp1519
sg82
g1203
sg75
(lp1520
g68
(g89
g70
NtRp1521
(dp1522
g73
(dp1523
g93
g94
ssg82
g1517
sg75
(lp1524
S'http_referer'
p1525
asbag68
(g89
g70
NtRp1526
(dp1527
g73
(dp1528
g100
g101
ssg82
g1517
sg75
(lp1529
S':'
asbag68
(g89
g70
NtRp1530
(dp1531
g73
(dp1532
sg82
g1517
sg75
(lp1533
g68
(g69
g70
NtRp1534
(dp1535
g73
(dp1536
g81
I4
ssg82
g1530
sg75
(lp1537
S'http://127.0.0.1:8000/themishrms/default/emp_myprofile'
p1538
asbasbasbag68
(g84
g70
NtRp1539
(dp1540
g73
(dp1541
sg82
g1203
sg75
(lp1542
g68
(g89
g70
NtRp1543
(dp1544
g73
(dp1545
g93
g94
ssg82
g1539
sg75
(lp1546
S'http_user_agent'
p1547
asbag68
(g89
g70
NtRp1548
(dp1549
g73
(dp1550
g100
g101
ssg82
g1539
sg75
(lp1551
S':'
asbag68
(g89
g70
NtRp1552
(dp1553
g73
(dp1554
sg82
g1539
sg75
(lp1555
g68
(g69
g70
NtRp1556
(dp1557
g73
(dp1558
g81
I4
ssg82
g1552
sg75
(lp1559
S'Mozilla/5.0 (X11; Linux i686) AppleWebKit/535.19 (KHTML, like Gecko) Chrome/18.0.1025.162 Safari/535.19'
p1560
asbasbasbag68
(g84
g70
NtRp1561
(dp1562
g73
(dp1563
sg82
g1203
sg75
(lp1564
g68
(g89
g70
NtRp1565
(dp1566
g73
(dp1567
g93
g94
ssg82
g1561
sg75
(lp1568
S'is_jython'
p1569
asbag68
(g89
g70
NtRp1570
(dp1571
g73
(dp1572
g100
g101
ssg82
g1561
sg75
(lp1573
S':'
asbag68
(g89
g70
NtRp1574
(dp1575
g73
(dp1576
sg82
g1561
sg75
(lp1577
g68
(g69
g70
NtRp1578
(dp1579
g73
(dp1580
g81
I4
ssg82
g1574
sg75
(lp1581
g111
asbasbasbag68
(g84
g70
NtRp1582
(dp1583
g73
(dp1584
sg82
g1203
sg75
(lp1585
g68
(g89
g70
NtRp1586
(dp1587
g73
(dp1588
g93
g94
ssg82
g1582
sg75
(lp1589
S'is_pypy'
p1590
asbag68
(g89
g70
NtRp1591
(dp1592
g73
(dp1593
g100
g101
ssg82
g1582
sg75
(lp1594
S':'
asbag68
(g89
g70
NtRp1595
(dp1596
g73
(dp1597
sg82
g1582
sg75
(lp1598
g68
(g69
g70
NtRp1599
(dp1600
g73
(dp1601
g81
I4
ssg82
g1595
sg75
(lp1602
g111
asbasbasbag68
(g84
g70
NtRp1603
(dp1604
g73
(dp1605
sg82
g1203
sg75
(lp1606
g68
(g89
g70
NtRp1607
(dp1608
g73
(dp1609
g93
g94
ssg82
g1603
sg75
(lp1610
S'path_info'
p1611
asbag68
(g89
g70
NtRp1612
(dp1613
g73
(dp1614
g100
g101
ssg82
g1603
sg75
(lp1615
S':'
asbag68
(g89
g70
NtRp1616
(dp1617
g73
(dp1618
sg82
g1603
sg75
(lp1619
g68
(g69
g70
NtRp1620
(dp1621
g73
(dp1622
g81
I4
ssg82
g1616
sg75
(lp1623
S'/themishrms/default/index'
p1624
asbasbasbag68
(g84
g70
NtRp1625
(dp1626
g73
(dp1627
sg82
g1203
sg75
(lp1628
g68
(g89
g70
NtRp1629
(dp1630
g73
(dp1631
g93
g94
ssg82
g1625
sg75
(lp1632
S'query_string'
p1633
asbag68
(g89
g70
NtRp1634
(dp1635
g73
(dp1636
g100
g101
ssg82
g1625
sg75
(lp1637
S':'
asbag68
(g89
g70
NtRp1638
(dp1639
g73
(dp1640
sg82
g1625
sg75
(lp1641
g68
(g69
g70
NtRp1642
(dp1643
g73
(dp1644
g81
I4
ssg82
g1638
sg75
(lp1645
S''
asbasbasbag68
(g84
g70
NtRp1646
(dp1647
g73
(dp1648
sg82
g1203
sg75
(lp1649
g68
(g89
g70
NtRp1650
(dp1651
g73
(dp1652
g93
g94
ssg82
g1646
sg75
(lp1653
S'remote_addr'
p1654
asbag68
(g89
g70
NtRp1655
(dp1656
g73
(dp1657
g100
g101
ssg82
g1646
sg75
(lp1658
S':'
asbag68
(g89
g70
NtRp1659
(dp1660
g73
(dp1661
sg82
g1646
sg75
(lp1662
g68
(g69
g70
NtRp1663
(dp1664
g73
(dp1665
g81
I4
ssg82
g1659
sg75
(lp1666
g201
asbasbasbag68
(g84
g70
NtRp1667
(dp1668
g73
(dp1669
sg82
g1203
sg75
(lp1670
g68
(g89
g70
NtRp1671
(dp1672
g73
(dp1673
g93
g94
ssg82
g1667
sg75
(lp1674
S'remote_port'
p1675
asbag68
(g89
g70
NtRp1676
(dp1677
g73
(dp1678
g100
g101
ssg82
g1667
sg75
(lp1679
S':'
asbag68
(g89
g70
NtRp1680
(dp1681
g73
(dp1682
sg82
g1667
sg75
(lp1683
g68
(g69
g70
NtRp1684
(dp1685
g73
(dp1686
g81
I4
ssg82
g1680
sg75
(lp1687
S'52518'
p1688
asbasbasbag68
(g84
g70
NtRp1689
(dp1690
g73
(dp1691
sg82
g1203
sg75
(lp1692
g68
(g89
g70
NtRp1693
(dp1694
g73
(dp1695
g93
g94
ssg82
g1689
sg75
(lp1696
S'request_method'
p1697
asbag68
(g89
g70
NtRp1698
(dp1699
g73
(dp1700
g100
g101
ssg82
g1689
sg75
(lp1701
S':'
asbag68
(g89
g70
NtRp1702
(dp1703
g73
(dp1704
sg82
g1689
sg75
(lp1705
g68
(g69
g70
NtRp1706
(dp1707
g73
(dp1708
g81
I4
ssg82
g1702
sg75
(lp1709
S'GET'
p1710
asbasbasbag68
(g84
g70
NtRp1711
(dp1712
g73
(dp1713
sg82
g1203
sg75
(lp1714
g68
(g89
g70
NtRp1715
(dp1716
g73
(dp1717
g93
g94
ssg82
g1711
sg75
(lp1718
S'script_name'
p1719
asbag68
(g89
g70
NtRp1720
(dp1721
g73
(dp1722
g100
g101
ssg82
g1711
sg75
(lp1723
S':'
asbag68
(g89
g70
NtRp1724
(dp1725
g73
(dp1726
sg82
g1711
sg75
(lp1727
g68
(g69
g70
NtRp1728
(dp1729
g73
(dp1730
g81
I4
ssg82
g1724
sg75
(lp1731
S''
asbasbasbag68
(g84
g70
NtRp1732
(dp1733
g73
(dp1734
sg82
g1203
sg75
(lp1735
g68
(g89
g70
NtRp1736
(dp1737
g73
(dp1738
g93
g94
ssg82
g1732
sg75
(lp1739
S'server_name'
p1740
asbag68
(g89
g70
NtRp1741
(dp1742
g73
(dp1743
g100
g101
ssg82
g1732
sg75
(lp1744
S':'
asbag68
(g89
g70
NtRp1745
(dp1746
g73
(dp1747
sg82
g1732
sg75
(lp1748
g68
(g69
g70
NtRp1749
(dp1750
g73
(dp1751
g81
I4
ssg82
g1745
sg75
(lp1752
S'sanjeet-desktop'
p1753
asbasbasbag68
(g84
g70
NtRp1754
(dp1755
g73
(dp1756
sg82
g1203
sg75
(lp1757
g68
(g89
g70
NtRp1758
(dp1759
g73
(dp1760
g93
g94
ssg82
g1754
sg75
(lp1761
S'server_port'
p1762
asbag68
(g89
g70
NtRp1763
(dp1764
g73
(dp1765
g100
g101
ssg82
g1754
sg75
(lp1766
S':'
asbag68
(g89
g70
NtRp1767
(dp1768
g73
(dp1769
sg82
g1754
sg75
(lp1770
g68
(g69
g70
NtRp1771
(dp1772
g73
(dp1773
g81
I4
ssg82
g1767
sg75
(lp1774
S'8000'
p1775
asbasbasbag68
(g84
g70
NtRp1776
(dp1777
g73
(dp1778
sg82
g1203
sg75
(lp1779
g68
(g89
g70
NtRp1780
(dp1781
g73
(dp1782
g93
g94
ssg82
g1776
sg75
(lp1783
S'server_protocol'
p1784
asbag68
(g89
g70
NtRp1785
(dp1786
g73
(dp1787
g100
g101
ssg82
g1776
sg75
(lp1788
S':'
asbag68
(g89
g70
NtRp1789
(dp1790
g73
(dp1791
sg82
g1776
sg75
(lp1792
g68
(g69
g70
NtRp1793
(dp1794
g73
(dp1795
g81
I4
ssg82
g1789
sg75
(lp1796
S'HTTP/1.1'
p1797
asbasbasbag68
(g84
g70
NtRp1798
(dp1799
g73
(dp1800
sg82
g1203
sg75
(lp1801
g68
(g89
g70
NtRp1802
(dp1803
g73
(dp1804
g93
g94
ssg82
g1798
sg75
(lp1805
S'server_software'
p1806
asbag68
(g89
g70
NtRp1807
(dp1808
g73
(dp1809
g100
g101
ssg82
g1798
sg75
(lp1810
S':'
asbag68
(g89
g70
NtRp1811
(dp1812
g73
(dp1813
sg82
g1798
sg75
(lp1814
g68
(g69
g70
NtRp1815
(dp1816
g73
(dp1817
g81
I4
ssg82
g1811
sg75
(lp1818
S'Rocket 1.2.4'
p1819
asbasbasbag68
(g84
g70
NtRp1820
(dp1821
g73
(dp1822
sg82
g1203
sg75
(lp1823
g68
(g89
g70
NtRp1824
(dp1825
g73
(dp1826
g93
g94
ssg82
g1820
sg75
(lp1827
S'web2py_crontype'
p1828
asbag68
(g89
g70
NtRp1829
(dp1830
g73
(dp1831
g100
g101
ssg82
g1820
sg75
(lp1832
S':'
asbag68
(g89
g70
NtRp1833
(dp1834
g73
(dp1835
sg82
g1820
sg75
(lp1836
g68
(g69
g70
NtRp1837
(dp1838
g73
(dp1839
g81
I4
ssg82
g1833
sg75
(lp1840
S'hard'
p1841
asbasbasbag68
(g84
g70
NtRp1842
(dp1843
g73
(dp1844
sg82
g1203
sg75
(lp1845
g68
(g89
g70
NtRp1846
(dp1847
g73
(dp1848
g93
g94
ssg82
g1842
sg75
(lp1849
S'web2py_path'
p1850
asbag68
(g89
g70
NtRp1851
(dp1852
g73
(dp1853
g100
g101
ssg82
g1842
sg75
(lp1854
S':'
asbag68
(g89
g70
NtRp1855
(dp1856
g73
(dp1857
sg82
g1842
sg75
(lp1858
g68
(g69
g70
NtRp1859
(dp1860
g73
(dp1861
g81
I4
ssg82
g1855
sg75
(lp1862
g1250
asbasbasbag68
(g84
g70
NtRp1863
(dp1864
g73
(dp1865
sg82
g1203
sg75
(lp1866
g68
(g89
g70
NtRp1867
(dp1868
g73
(dp1869
g93
g94
ssg82
g1863
sg75
(lp1870
S'web2py_version'
p1871
asbag68
(g89
g70
NtRp1872
(dp1873
g73
(dp1874
g100
g101
ssg82
g1863
sg75
(lp1875
S':'
asbag68
(g89
g70
NtRp1876
(dp1877
g73
(dp1878
sg82
g1863
sg75
(lp1879
g68
(g69
g70
NtRp1880
(dp1881
g73
(dp1882
g81
I4
ssg82
g1876
sg75
(lp1883
g68
(g77
g70
NtRp1884
(dp1885
g73
(dp1886
g81
I3
ssg82
Nsg75
(lp1887
g68
(g84
g70
NtRp1888
(dp1889
g73
(dp1890
sg82
g1884
sg75
(lp1891
g68
(g89
g70
NtRp1892
(dp1893
g73
(dp1894
sg82
g1888
sg75
(lp1895
g68
(g69
g70
NtRp1896
(dp1897
g73
(dp1898
g81
I3
ssg82
g1892
sg75
(lp1899
S'1'
asbasbasbag68
(g84
g70
NtRp1900
(dp1901
g73
(dp1902
sg82
g1884
sg75
(lp1903
g68
(g89
g70
NtRp1904
(dp1905
g73
(dp1906
sg82
g1900
sg75
(lp1907
g68
(g69
g70
NtRp1908
(dp1909
g73
(dp1910
g81
I3
ssg82
g1904
sg75
(lp1911
S'99'
p1912
asbasbasbag68
(g84
g70
NtRp1913
(dp1914
g73
(dp1915
sg82
g1884
sg75
(lp1916
g68
(g89
g70
NtRp1917
(dp1918
g73
(dp1919
sg82
g1913
sg75
(lp1920
g68
(g69
g70
NtRp1921
(dp1922
g73
(dp1923
g81
I3
ssg82
g1917
sg75
(lp1924
S'7'
asbasbasbag68
(g84
g70
NtRp1925
(dp1926
g73
(dp1927
sg82
g1884
sg75
(lp1928
g68
(g89
g70
NtRp1929
(dp1930
g73
(dp1931
sg82
g1925
sg75
(lp1932
g68
(g69
g70
NtRp1933
(dp1934
g73
(dp1935
g81
I3
ssg82
g1929
sg75
(lp1936
S'datetime.datetime(2012, 3, 4, 22, 12, 8)'
p1937
asbasbasbag68
(g84
g70
NtRp1938
(dp1939
g73
(dp1940
sg82
g1884
sg75
(lp1941
g68
(g89
g70
NtRp1942
(dp1943
g73
(dp1944
sg82
g1938
sg75
(lp1945
g68
(g69
g70
NtRp1946
(dp1947
g73
(dp1948
g81
I3
ssg82
g1942
sg75
(lp1949
S'stable'
p1950
asbasbasbasbasbasbasbag68
(g84
g70
NtRp1951
(dp1952
g73
(dp1953
sg82
g1203
sg75
(lp1954
g68
(g89
g70
NtRp1955
(dp1956
g73
(dp1957
g93
g94
ssg82
g1951
sg75
(lp1958
S'wsgi_errors'
p1959
asbag68
(g89
g70
NtRp1960
(dp1961
g73
(dp1962
g100
g101
ssg82
g1951
sg75
(lp1963
S':'
asbag68
(g89
g70
NtRp1964
(dp1965
g73
(dp1966
sg82
g1951
sg75
(lp1967
g68
(g69
g70
NtRp1968
(dp1969
g73
(dp1970
g81
I4
ssg82
g1964
sg75
(lp1971
S"<open file '<stderr>', mode 'w' at 0xb73830d0>"
p1972
asbasbasbag68
(g84
g70
NtRp1973
(dp1974
g73
(dp1975
sg82
g1203
sg75
(lp1976
g68
(g89
g70
NtRp1977
(dp1978
g73
(dp1979
g93
g94
ssg82
g1973
sg75
(lp1980
S'wsgi_file_wrapper'
p1981
asbag68
(g89
g70
NtRp1982
(dp1983
g73
(dp1984
g100
g101
ssg82
g1973
sg75
(lp1985
S':'
asbag68
(g89
g70
NtRp1986
(dp1987
g73
(dp1988
sg82
g1973
sg75
(lp1989
g68
(g69
g70
NtRp1990
(dp1991
g73
(dp1992
g81
I4
ssg82
g1986
sg75
(lp1993
S'<class wsgiref.util.FileWrapper at 0x92dfaac>'
p1994
asbasbasbag68
(g84
g70
NtRp1995
(dp1996
g73
(dp1997
sg82
g1203
sg75
(lp1998
g68
(g89
g70
NtRp1999
(dp2000
g73
(dp2001
g93
g94
ssg82
g1995
sg75
(lp2002
S'wsgi_input'
p2003
asbag68
(g89
g70
NtRp2004
(dp2005
g73
(dp2006
g100
g101
ssg82
g1995
sg75
(lp2007
S':'
asbag68
(g89
g70
NtRp2008
(dp2009
g73
(dp2010
sg82
g1995
sg75
(lp2011
g68
(g69
g70
NtRp2012
(dp2013
g73
(dp2014
g81
I4
ssg82
g2008
sg75
(lp2015
S'<socket._fileobject object at 0x9ae15ac>'
p2016
asbasbasbag68
(g84
g70
NtRp2017
(dp2018
g73
(dp2019
sg82
g1203
sg75
(lp2020
g68
(g89
g70
NtRp2021
(dp2022
g73
(dp2023
g93
g94
ssg82
g2017
sg75
(lp2024
S'wsgi_multiprocess'
p2025
asbag68
(g89
g70
NtRp2026
(dp2027
g73
(dp2028
g100
g101
ssg82
g2017
sg75
(lp2029
S':'
asbag68
(g89
g70
NtRp2030
(dp2031
g73
(dp2032
sg82
g2017
sg75
(lp2033
g68
(g69
g70
NtRp2034
(dp2035
g73
(dp2036
g81
I4
ssg82
g2030
sg75
(lp2037
g111
asbasbasbag68
(g84
g70
NtRp2038
(dp2039
g73
(dp2040
sg82
g1203
sg75
(lp2041
g68
(g89
g70
NtRp2042
(dp2043
g73
(dp2044
g93
g94
ssg82
g2038
sg75
(lp2045
S'wsgi_multithread'
p2046
asbag68
(g89
g70
NtRp2047
(dp2048
g73
(dp2049
g100
g101
ssg82
g2038
sg75
(lp2050
S':'
asbag68
(g89
g70
NtRp2051
(dp2052
g73
(dp2053
sg82
g2038
sg75
(lp2054
g68
(g69
g70
NtRp2055
(dp2056
g73
(dp2057
g81
I4
ssg82
g2051
sg75
(lp2058
S'True'
p2059
asbasbasbag68
(g84
g70
NtRp2060
(dp2061
g73
(dp2062
sg82
g1203
sg75
(lp2063
g68
(g89
g70
NtRp2064
(dp2065
g73
(dp2066
g93
g94
ssg82
g2060
sg75
(lp2067
S'wsgi_run_once'
p2068
asbag68
(g89
g70
NtRp2069
(dp2070
g73
(dp2071
g100
g101
ssg82
g2060
sg75
(lp2072
S':'
asbag68
(g89
g70
NtRp2073
(dp2074
g73
(dp2075
sg82
g2060
sg75
(lp2076
g68
(g69
g70
NtRp2077
(dp2078
g73
(dp2079
g81
I4
ssg82
g2073
sg75
(lp2080
g111
asbasbasbag68
(g84
g70
NtRp2081
(dp2082
g73
(dp2083
sg82
g1203
sg75
(lp2084
g68
(g89
g70
NtRp2085
(dp2086
g73
(dp2087
g93
g94
ssg82
g2081
sg75
(lp2088
S'wsgi_url_scheme'
p2089
asbag68
(g89
g70
NtRp2090
(dp2091
g73
(dp2092
g100
g101
ssg82
g2081
sg75
(lp2093
S':'
asbag68
(g89
g70
NtRp2094
(dp2095
g73
(dp2096
sg82
g2081
sg75
(lp2097
g68
(g69
g70
NtRp2098
(dp2099
g73
(dp2100
g81
I4
ssg82
g2094
sg75
(lp2101
S'http'
p2102
asbasbasbag68
(g84
g70
NtRp2103
(dp2104
g73
(dp2105
sg82
g1203
sg75
(lp2106
g68
(g89
g70
NtRp2107
(dp2108
g73
(dp2109
g93
g94
ssg82
g2103
sg75
(lp2110
S'wsgi_version'
p2111
asbag68
(g89
g70
NtRp2112
(dp2113
g73
(dp2114
g100
g101
ssg82
g2103
sg75
(lp2115
S':'
asbag68
(g89
g70
NtRp2116
(dp2117
g73
(dp2118
sg82
g2103
sg75
(lp2119
g68
(g69
g70
NtRp2120
(dp2121
g73
(dp2122
g81
I4
ssg82
g2116
sg75
(lp2123
g68
(g77
g70
NtRp2124
(dp2125
g73
(dp2126
g81
I3
ssg82
Nsg75
(lp2127
g68
(g84
g70
NtRp2128
(dp2129
g73
(dp2130
sg82
g2124
sg75
(lp2131
g68
(g89
g70
NtRp2132
(dp2133
g73
(dp2134
sg82
g2128
sg75
(lp2135
g68
(g69
g70
NtRp2136
(dp2137
g73
(dp2138
g81
I3
ssg82
g2132
sg75
(lp2139
S'1'
asbasbasbag68
(g84
g70
NtRp2140
(dp2141
g73
(dp2142
sg82
g2124
sg75
(lp2143
g68
(g89
g70
NtRp2144
(dp2145
g73
(dp2146
sg82
g2140
sg75
(lp2147
g68
(g69
g70
NtRp2148
(dp2149
g73
(dp2150
g81
I3
ssg82
g2144
sg75
(lp2151
S'0'
asbasbasbasbasbasbasbasbasbasbasbag68
(g84
g70
NtRp2152
(dp2153
g73
(dp2154
sg82
g78
sg75
(lp2155
g68
(g89
g70
NtRp2156
(dp2157
g73
(dp2158
g93
g94
ssg82
g2152
sg75
(lp2159
S'extension'
p2160
asbag68
(g89
g70
NtRp2161
(dp2162
g73
(dp2163
g100
g101
ssg82
g2152
sg75
(lp2164
S':'
asbag68
(g89
g70
NtRp2165
(dp2166
g73
(dp2167
sg82
g2152
sg75
(lp2168
g68
(g69
g70
NtRp2169
(dp2170
g73
(dp2171
g81
I5
ssg82
g2165
sg75
(lp2172
S'html'
p2173
asbasbasbag68
(g84
g70
NtRp2174
(dp2175
g73
(dp2176
sg82
g78
sg75
(lp2177
g68
(g89
g70
NtRp2178
(dp2179
g73
(dp2180
g93
g94
ssg82
g2174
sg75
(lp2181
S'folder'
p2182
asbag68
(g89
g70
NtRp2183
(dp2184
g73
(dp2185
g100
g101
ssg82
g2174
sg75
(lp2186
S':'
asbag68
(g89
g70
NtRp2187
(dp2188
g73
(dp2189
sg82
g2174
sg75
(lp2190
g68
(g69
g70
NtRp2191
(dp2192
g73
(dp2193
g81
I5
ssg82
g2187
sg75
(lp2194
S'/home/tls-sanjeet/Desktop/HRMS/web2py/applications/themishrms/'
p2195
asbasbasbag68
(g84
g70
NtRp2196
(dp2197
g73
(dp2198
sg82
g78
sg75
(lp2199
g68
(g89
g70
NtRp2200
(dp2201
g73
(dp2202
g93
g94
ssg82
g2196
sg75
(lp2203
S'function'
p2204
asbag68
(g89
g70
NtRp2205
(dp2206
g73
(dp2207
g100
g101
ssg82
g2196
sg75
(lp2208
S':'
asbag68
(g89
g70
NtRp2209
(dp2210
g73
(dp2211
sg82
g2196
sg75
(lp2212
g68
(g69
g70
NtRp2213
(dp2214
g73
(dp2215
g81
I5
ssg82
g2209
sg75
(lp2216
S'index'
p2217
asbasbasbag68
(g84
g70
NtRp2218
(dp2219
g73
(dp2220
sg82
g78
sg75
(lp2221
g68
(g89
g70
NtRp2222
(dp2223
g73
(dp2224
g93
g94
ssg82
g2218
sg75
(lp2225
S'get_vars'
p2226
asbag68
(g89
g70
NtRp2227
(dp2228
g73
(dp2229
g100
g101
ssg82
g2218
sg75
(lp2230
S':'
asbag68
(g89
g70
NtRp2231
(dp2232
g73
(dp2233
sg82
g2218
sg75
(lp2234
g68
(g69
g70
NtRp2235
(dp2236
g73
(dp2237
g81
I5
ssg82
g2231
sg75
(lp2238
g68
(g77
g70
NtRp2239
(dp2240
g73
(dp2241
g81
I4
ssg82
Nsg75
(lp2242
sbasbasbasbag68
(g84
g70
NtRp2243
(dp2244
g73
(dp2245
sg82
g78
sg75
(lp2246
g68
(g89
g70
NtRp2247
(dp2248
g73
(dp2249
g93
g94
ssg82
g2243
sg75
(lp2250
S'global_settings'
p2251
asbag68
(g89
g70
NtRp2252
(dp2253
g73
(dp2254
g100
g101
ssg82
g2243
sg75
(lp2255
S':'
asbag68
(g89
g70
NtRp2256
(dp2257
g73
(dp2258
sg82
g2243
sg75
(lp2259
g68
(g69
g70
NtRp2260
(dp2261
g73
(dp2262
g81
I5
ssg82
g2256
sg75
(lp2263
g68
(g77
g70
NtRp2264
(dp2265
g73
(dp2266
g81
I4
ssg82
Nsg75
(lp2267
g68
(g84
g70
NtRp2268
(dp2269
g73
(dp2270
sg82
g2264
sg75
(lp2271
g68
(g89
g70
NtRp2272
(dp2273
g73
(dp2274
g93
g94
ssg82
g2268
sg75
(lp2275
g1215
asbag68
(g89
g70
NtRp2276
(dp2277
g73
(dp2278
g100
g101
ssg82
g2268
sg75
(lp2279
S':'
asbag68
(g89
g70
NtRp2280
(dp2281
g73
(dp2282
sg82
g2268
sg75
(lp2283
g68
(g69
g70
NtRp2284
(dp2285
g73
(dp2286
g81
I4
ssg82
g2280
sg75
(lp2287
S"set(['/home/tls-sanjeet/Desktop/HRMS/web2py/applications/themishrms/', '/home/tls-sanjeet/Desktop/HRMS/web2py/applications/welcome/', '/home/tls-sanjeet/Desktop/HRMS/web2py/applications/admin/'])"
p2288
asbasbasbag68
(g84
g70
NtRp2289
(dp2290
g73
(dp2291
sg82
g2264
sg75
(lp2292
g68
(g89
g70
NtRp2293
(dp2294
g73
(dp2295
g93
g94
ssg82
g2289
sg75
(lp2296
g1237
asbag68
(g89
g70
NtRp2297
(dp2298
g73
(dp2299
g100
g101
ssg82
g2289
sg75
(lp2300
S':'
asbag68
(g89
g70
NtRp2301
(dp2302
g73
(dp2303
sg82
g2289
sg75
(lp2304
g68
(g69
g70
NtRp2305
(dp2306
g73
(dp2307
g81
I4
ssg82
g2301
sg75
(lp2308
g1250
asbasbasbag68
(g84
g70
NtRp2309
(dp2310
g73
(dp2311
sg82
g2264
sg75
(lp2312
g68
(g89
g70
NtRp2313
(dp2314
g73
(dp2315
g93
g94
ssg82
g2309
sg75
(lp2316
g1259
asbag68
(g89
g70
NtRp2317
(dp2318
g73
(dp2319
g100
g101
ssg82
g2309
sg75
(lp2320
S':'
asbag68
(g89
g70
NtRp2321
(dp2322
g73
(dp2323
sg82
g2309
sg75
(lp2324
g68
(g69
g70
NtRp2325
(dp2326
g73
(dp2327
g81
I4
ssg82
g2321
sg75
(lp2328
g68
(g77
g70
NtRp2329
(dp2330
g73
(dp2331
g81
I3
ssg82
Nsg75
(lp2332
sbasbasbasbag68
(g84
g70
NtRp2333
(dp2334
g73
(dp2335
sg82
g2264
sg75
(lp2336
g68
(g89
g70
NtRp2337
(dp2338
g73
(dp2339
g93
g94
ssg82
g2333
sg75
(lp2340
g1284
asbag68
(g89
g70
NtRp2341
(dp2342
g73
(dp2343
g100
g101
ssg82
g2333
sg75
(lp2344
S':'
asbag68
(g89
g70
NtRp2345
(dp2346
g73
(dp2347
sg82
g2333
sg75
(lp2348
g68
(g69
g70
NtRp2349
(dp2350
g73
(dp2351
g81
I4
ssg82
g2345
sg75
(lp2352
S"<Values at 0x933f5cc: {'verbose': False, 'ip': '127.0.0.1', 'shutdown_timeout': 5, 'taskbar': False, 'nocron': False, 'pid_filename': 'httpserver.pid', 'maxthreads': None, 'softcron': False, 'server_name': 'sanjeet-desktop', 'bpython': False, 'nogui': False, 'port': 8000, 'extcron': False, 'debuglevel': 30, 'test': None, 'folder': '/home/tls-sanjeet/Desktop/HRMS/web2py', 'config': '', 'import_models': False, 'winservice': '', 'shell': None, 'run': '', 'log_filename': 'httpserver.log', 'args': [''], 'socket_timeout': 5, 'ssl_ca_certificate': None, 'scheduler': None, 'profiler_filename': None, 'ssl_private_key': '', 'password': 'a', 'request_queue_size': 5, 'ssl_certificate': '', 'cronjob': False, 'numthreads': None, 'quiet': False, 'interfaces': None, 'minthreads': None, 'timeout': 10, 'plain': False, 'nobanner': False}>"
p2353
asbasbasbag68
(g84
g70
NtRp2354
(dp2355
g73
(dp2356
sg82
g2264
sg75
(lp2357
g68
(g89
g70
NtRp2358
(dp2359
g73
(dp2360
g93
g94
ssg82
g2354
sg75
(lp2361
g1306
asbag68
(g89
g70
NtRp2362
(dp2363
g73
(dp2364
g100
g101
ssg82
g2354
sg75
(lp2365
S':'
asbag68
(g89
g70
NtRp2366
(dp2367
g73
(dp2368
sg82
g2354
sg75
(lp2369
g68
(g69
g70
NtRp2370
(dp2371
g73
(dp2372
g81
I4
ssg82
g2366
sg75
(lp2373
S'set([])'
p2374
asbasbasbag68
(g84
g70
NtRp2375
(dp2376
g73
(dp2377
sg82
g2264
sg75
(lp2378
g68
(g89
g70
NtRp2379
(dp2380
g73
(dp2381
g93
g94
ssg82
g2375
sg75
(lp2382
g1328
asbag68
(g89
g70
NtRp2383
(dp2384
g73
(dp2385
g100
g101
ssg82
g2375
sg75
(lp2386
S':'
asbag68
(g89
g70
NtRp2387
(dp2388
g73
(dp2389
sg82
g2375
sg75
(lp2390
g68
(g69
g70
NtRp2391
(dp2392
g73
(dp2393
g81
I4
ssg82
g2387
sg75
(lp2394
g111
asbasbasbag68
(g84
g70
NtRp2395
(dp2396
g73
(dp2397
sg82
g2264
sg75
(lp2398
g68
(g89
g70
NtRp2399
(dp2400
g73
(dp2401
g93
g94
ssg82
g2395
sg75
(lp2402
g1349
asbag68
(g89
g70
NtRp2403
(dp2404
g73
(dp2405
g100
g101
ssg82
g2395
sg75
(lp2406
S':'
asbag68
(g89
g70
NtRp2407
(dp2408
g73
(dp2409
sg82
g2395
sg75
(lp2410
g68
(g69
g70
NtRp2411
(dp2412
g73
(dp2413
g81
I4
ssg82
g2407
sg75
(lp2414
g1362
asbasbasbag68
(g84
g70
NtRp2415
(dp2416
g73
(dp2417
sg82
g2264
sg75
(lp2418
g68
(g89
g70
NtRp2419
(dp2420
g73
(dp2421
g93
g94
ssg82
g2415
sg75
(lp2422
g1569
asbag68
(g89
g70
NtRp2423
(dp2424
g73
(dp2425
g100
g101
ssg82
g2415
sg75
(lp2426
S':'
asbag68
(g89
g70
NtRp2427
(dp2428
g73
(dp2429
sg82
g2415
sg75
(lp2430
g68
(g69
g70
NtRp2431
(dp2432
g73
(dp2433
g81
I4
ssg82
g2427
sg75
(lp2434
g111
asbasbasbag68
(g84
g70
NtRp2435
(dp2436
g73
(dp2437
sg82
g2264
sg75
(lp2438
g68
(g89
g70
NtRp2439
(dp2440
g73
(dp2441
g93
g94
ssg82
g2435
sg75
(lp2442
g1590
asbag68
(g89
g70
NtRp2443
(dp2444
g73
(dp2445
g100
g101
ssg82
g2435
sg75
(lp2446
S':'
asbag68
(g89
g70
NtRp2447
(dp2448
g73
(dp2449
sg82
g2435
sg75
(lp2450
g68
(g69
g70
NtRp2451
(dp2452
g73
(dp2453
g81
I4
ssg82
g2447
sg75
(lp2454
g111
asbasbasbag68
(g84
g70
NtRp2455
(dp2456
g73
(dp2457
sg82
g2264
sg75
(lp2458
g68
(g89
g70
NtRp2459
(dp2460
g73
(dp2461
g93
g94
ssg82
g2455
sg75
(lp2462
g1828
asbag68
(g89
g70
NtRp2463
(dp2464
g73
(dp2465
g100
g101
ssg82
g2455
sg75
(lp2466
S':'
asbag68
(g89
g70
NtRp2467
(dp2468
g73
(dp2469
sg82
g2455
sg75
(lp2470
g68
(g69
g70
NtRp2471
(dp2472
g73
(dp2473
g81
I4
ssg82
g2467
sg75
(lp2474
g1841
asbasbasbag68
(g84
g70
NtRp2475
(dp2476
g73
(dp2477
sg82
g2264
sg75
(lp2478
g68
(g89
g70
NtRp2479
(dp2480
g73
(dp2481
g93
g94
ssg82
g2475
sg75
(lp2482
g1871
asbag68
(g89
g70
NtRp2483
(dp2484
g73
(dp2485
g100
g101
ssg82
g2475
sg75
(lp2486
S':'
asbag68
(g89
g70
NtRp2487
(dp2488
g73
(dp2489
sg82
g2475
sg75
(lp2490
g68
(g69
g70
NtRp2491
(dp2492
g73
(dp2493
g81
I4
ssg82
g2487
sg75
(lp2494
g68
(g77
g70
NtRp2495
(dp2496
g73
(dp2497
g81
I3
ssg82
Nsg75
(lp2498
g68
(g84
g70
NtRp2499
(dp2500
g73
(dp2501
sg82
g2495
sg75
(lp2502
g68
(g89
g70
NtRp2503
(dp2504
g73
(dp2505
sg82
g2499
sg75
(lp2506
g68
(g69
g70
NtRp2507
(dp2508
g73
(dp2509
g81
I3
ssg82
g2503
sg75
(lp2510
S'1'
asbasbasbag68
(g84
g70
NtRp2511
(dp2512
g73
(dp2513
sg82
g2495
sg75
(lp2514
g68
(g89
g70
NtRp2515
(dp2516
g73
(dp2517
sg82
g2511
sg75
(lp2518
g68
(g69
g70
NtRp2519
(dp2520
g73
(dp2521
g81
I3
ssg82
g2515
sg75
(lp2522
S'99'
p2523
asbasbasbag68
(g84
g70
NtRp2524
(dp2525
g73
(dp2526
sg82
g2495
sg75
(lp2527
g68
(g89
g70
NtRp2528
(dp2529
g73
(dp2530
sg82
g2524
sg75
(lp2531
g68
(g69
g70
NtRp2532
(dp2533
g73
(dp2534
g81
I3
ssg82
g2528
sg75
(lp2535
S'7'
asbasbasbag68
(g84
g70
NtRp2536
(dp2537
g73
(dp2538
sg82
g2495
sg75
(lp2539
g68
(g89
g70
NtRp2540
(dp2541
g73
(dp2542
sg82
g2536
sg75
(lp2543
g68
(g69
g70
NtRp2544
(dp2545
g73
(dp2546
g81
I3
ssg82
g2540
sg75
(lp2547
S'datetime.datetime(2012, 3, 4, 22, 12, 8)'
p2548
asbasbasbag68
(g84
g70
NtRp2549
(dp2550
g73
(dp2551
sg82
g2495
sg75
(lp2552
g68
(g89
g70
NtRp2553
(dp2554
g73
(dp2555
sg82
g2549
sg75
(lp2556
g68
(g69
g70
NtRp2557
(dp2558
g73
(dp2559
g81
I3
ssg82
g2553
sg75
(lp2560
g1950
asbasbasbasbasbasbasbasbasbasbasbag68
(g84
g70
NtRp2561
(dp2562
g73
(dp2563
sg82
g78
sg75
(lp2564
g68
(g89
g70
NtRp2565
(dp2566
g73
(dp2567
g93
g94
ssg82
g2561
sg75
(lp2568
S'is_https'
p2569
asbag68
(g89
g70
NtRp2570
(dp2571
g73
(dp2572
g100
g101
ssg82
g2561
sg75
(lp2573
S':'
asbag68
(g89
g70
NtRp2574
(dp2575
g73
(dp2576
sg82
g2561
sg75
(lp2577
g68
(g69
g70
NtRp2578
(dp2579
g73
(dp2580
g81
I5
ssg82
g2574
sg75
(lp2581
g111
asbasbasbag68
(g84
g70
NtRp2582
(dp2583
g73
(dp2584
sg82
g78
sg75
(lp2585
g68
(g89
g70
NtRp2586
(dp2587
g73
(dp2588
g93
g94
ssg82
g2582
sg75
(lp2589
S'is_local'
p2590
asbag68
(g89
g70
NtRp2591
(dp2592
g73
(dp2593
g100
g101
ssg82
g2582
sg75
(lp2594
S':'
asbag68
(g89
g70
NtRp2595
(dp2596
g73
(dp2597
sg82
g2582
sg75
(lp2598
g68
(g69
g70
NtRp2599
(dp2600
g73
(dp2601
g81
I5
ssg82
g2595
sg75
(lp2602
g2059
asbasbasbag68
(g84
g70
NtRp2603
(dp2604
g73
(dp2605
sg82
g78
sg75
(lp2606
g68
(g89
g70
NtRp2607
(dp2608
g73
(dp2609
g93
g94
ssg82
g2603
sg75
(lp2610
S'is_restful'
p2611
asbag68
(g89
g70
NtRp2612
(dp2613
g73
(dp2614
g100
g101
ssg82
g2603
sg75
(lp2615
S':'
asbag68
(g89
g70
NtRp2616
(dp2617
g73
(dp2618
sg82
g2603
sg75
(lp2619
g68
(g69
g70
NtRp2620
(dp2621
g73
(dp2622
g81
I5
ssg82
g2616
sg75
(lp2623
g111
asbasbasbag68
(g84
g70
NtRp2624
(dp2625
g73
(dp2626
sg82
g78
sg75
(lp2627
g68
(g89
g70
NtRp2628
(dp2629
g73
(dp2630
g93
g94
ssg82
g2624
sg75
(lp2631
S'now'
p2632
asbag68
(g89
g70
NtRp2633
(dp2634
g73
(dp2635
g100
g101
ssg82
g2624
sg75
(lp2636
S':'
asbag68
(g89
g70
NtRp2637
(dp2638
g73
(dp2639
sg82
g2624
sg75
(lp2640
g68
(g69
g70
NtRp2641
(dp2642
g73
(dp2643
g81
I5
ssg82
g2637
sg75
(lp2644
S'datetime.datetime(2012, 4, 26, 14, 4, 21, 538334)'
p2645
asbasbasbag68
(g84
g70
NtRp2646
(dp2647
g73
(dp2648
sg82
g78
sg75
(lp2649
g68
(g89
g70
NtRp2650
(dp2651
g73
(dp2652
g93
g94
ssg82
g2646
sg75
(lp2653
S'post_vars'
p2654
asbag68
(g89
g70
NtRp2655
(dp2656
g73
(dp2657
g100
g101
ssg82
g2646
sg75
(lp2658
S':'
asbag68
(g89
g70
NtRp2659
(dp2660
g73
(dp2661
sg82
g2646
sg75
(lp2662
g68
(g69
g70
NtRp2663
(dp2664
g73
(dp2665
g81
I5
ssg82
g2659
sg75
(lp2666
g68
(g77
g70
NtRp2667
(dp2668
g73
(dp2669
g81
I4
ssg82
Nsg75
(lp2670
sbasbasbasbag68
(g84
g70
NtRp2671
(dp2672
g73
(dp2673
sg82
g78
sg75
(lp2674
g68
(g89
g70
NtRp2675
(dp2676
g73
(dp2677
g93
g94
ssg82
g2671
sg75
(lp2678
S'url'
p2679
asbag68
(g89
g70
NtRp2680
(dp2681
g73
(dp2682
g100
g101
ssg82
g2671
sg75
(lp2683
S':'
asbag68
(g89
g70
NtRp2684
(dp2685
g73
(dp2686
sg82
g2671
sg75
(lp2687
g68
(g69
g70
NtRp2688
(dp2689
g73
(dp2690
g81
I5
ssg82
g2684
sg75
(lp2691
S'/themishrms/default/index'
p2692
asbasbasbag68
(g84
g70
NtRp2693
(dp2694
g73
(dp2695
sg82
g78
sg75
(lp2696
g68
(g89
g70
NtRp2697
(dp2698
g73
(dp2699
g93
g94
ssg82
g2693
sg75
(lp2700
S'utcnow'
p2701
asbag68
(g89
g70
NtRp2702
(dp2703
g73
(dp2704
g100
g101
ssg82
g2693
sg75
(lp2705
S':'
asbag68
(g89
g70
NtRp2706
(dp2707
g73
(dp2708
sg82
g2693
sg75
(lp2709
g68
(g69
g70
NtRp2710
(dp2711
g73
(dp2712
g81
I5
ssg82
g2706
sg75
(lp2713
S'datetime.datetime(2012, 4, 26, 8, 34, 21, 538361)'
p2714
asbasbasbag68
(g84
g70
NtRp2715
(dp2716
g73
(dp2717
sg82
g78
sg75
(lp2718
g68
(g89
g70
NtRp2719
(dp2720
g73
(dp2721
g93
g94
ssg82
g2715
sg75
(lp2722
S'uuid'
p2723
asbag68
(g89
g70
NtRp2724
(dp2725
g73
(dp2726
g100
g101
ssg82
g2715
sg75
(lp2727
S':'
asbag68
(g89
g70
NtRp2728
(dp2729
g73
(dp2730
sg82
g2715
sg75
(lp2731
g68
(g69
g70
NtRp2732
(dp2733
g73
(dp2734
g81
I5
ssg82
g2728
sg75
(lp2735
S'themishrms/127.0.0.1.2012-04-26.14-04-21.3706ace5-82e5-45e6-83a7-949d70e7d827'
p2736
asbasbasbag68
(g84
g70
NtRp2737
(dp2738
g73
(dp2739
sg82
g78
sg75
(lp2740
g68
(g89
g70
NtRp2741
(dp2742
g73
(dp2743
g93
g94
ssg82
g2737
sg75
(lp2744
S'vars'
p2745
asbag68
(g89
g70
NtRp2746
(dp2747
g73
(dp2748
g100
g101
ssg82
g2737
sg75
(lp2749
S':'
asbag68
(g89
g70
NtRp2750
(dp2751
g73
(dp2752
sg82
g2737
sg75
(lp2753
g68
(g69
g70
NtRp2754
(dp2755
g73
(dp2756
g81
I5
ssg82
g2750
sg75
(lp2757
g68
(g77
g70
NtRp2758
(dp2759
g73
(dp2760
g81
I4
ssg82
Nsg75
(lp2761
sbasbasbasbag68
(g84
g70
NtRp2762
(dp2763
g73
(dp2764
sg82
g78
sg75
(lp2765
g68
(g89
g70
NtRp2766
(dp2767
g73
(dp2768
g93
g94
ssg82
g2762
sg75
(lp2769
S'wsgi'
p2770
asbag68
(g89
g70
NtRp2771
(dp2772
g73
(dp2773
g100
g101
ssg82
g2762
sg75
(lp2774
S':'
asbag68
(g89
g70
NtRp2775
(dp2776
g73
(dp2777
sg82
g2762
sg75
(lp2778
g68
(g69
g70
NtRp2779
(dp2780
g73
(dp2781
g81
I5
ssg82
g2775
sg75
(lp2782
g68
(g77
g70
NtRp2783
(dp2784
g73
(dp2785
g81
I4
ssg82
Nsg75
(lp2786
g68
(g84
g70
NtRp2787
(dp2788
g73
(dp2789
sg82
g2783
sg75
(lp2790
g68
(g89
g70
NtRp2791
(dp2792
g73
(dp2793
g93
g94
ssg82
g2787
sg75
(lp2794
S'environ'
p2795
asbag68
(g89
g70
NtRp2796
(dp2797
g73
(dp2798
g100
g101
ssg82
g2787
sg75
(lp2799
S':'
asbag68
(g89
g70
NtRp2800
(dp2801
g73
(dp2802
sg82
g2787
sg75
(lp2803
g68
(g69
g70
NtRp2804
(dp2805
g73
(dp2806
g81
I4
ssg82
g2800
sg75
(lp2807
g68
(g77
g70
NtRp2808
(dp2809
g73
(dp2810
g81
I3
ssg82
Nsg75
(lp2811
g68
(g84
g70
NtRp2812
(dp2813
g73
(dp2814
sg82
g2808
sg75
(lp2815
g68
(g89
g70
NtRp2816
(dp2817
g73
(dp2818
g93
g94
ssg82
g2812
sg75
(lp2819
S'HTTP_ACCEPT'
p2820
asbag68
(g89
g70
NtRp2821
(dp2822
g73
(dp2823
g100
g101
ssg82
g2812
sg75
(lp2824
S':'
asbag68
(g89
g70
NtRp2825
(dp2826
g73
(dp2827
sg82
g2812
sg75
(lp2828
g68
(g69
g70
NtRp2829
(dp2830
g73
(dp2831
g81
I3
ssg82
g2825
sg75
(lp2832
g1384
asbasbasbag68
(g84
g70
NtRp2833
(dp2834
g73
(dp2835
sg82
g2808
sg75
(lp2836
g68
(g89
g70
NtRp2837
(dp2838
g73
(dp2839
g93
g94
ssg82
g2833
sg75
(lp2840
S'HTTP_ACCEPT_CHARSET'
p2841
asbag68
(g89
g70
NtRp2842
(dp2843
g73
(dp2844
g100
g101
ssg82
g2833
sg75
(lp2845
S':'
asbag68
(g89
g70
NtRp2846
(dp2847
g73
(dp2848
sg82
g2833
sg75
(lp2849
g68
(g69
g70
NtRp2850
(dp2851
g73
(dp2852
g81
I3
ssg82
g2846
sg75
(lp2853
g1406
asbasbasbag68
(g84
g70
NtRp2854
(dp2855
g73
(dp2856
sg82
g2808
sg75
(lp2857
g68
(g89
g70
NtRp2858
(dp2859
g73
(dp2860
g93
g94
ssg82
g2854
sg75
(lp2861
S'HTTP_ACCEPT_ENCODING'
p2862
asbag68
(g89
g70
NtRp2863
(dp2864
g73
(dp2865
g100
g101
ssg82
g2854
sg75
(lp2866
S':'
asbag68
(g89
g70
NtRp2867
(dp2868
g73
(dp2869
sg82
g2854
sg75
(lp2870
g68
(g69
g70
NtRp2871
(dp2872
g73
(dp2873
g81
I3
ssg82
g2867
sg75
(lp2874
g1428
asbasbasbag68
(g84
g70
NtRp2875
(dp2876
g73
(dp2877
sg82
g2808
sg75
(lp2878
g68
(g89
g70
NtRp2879
(dp2880
g73
(dp2881
g93
g94
ssg82
g2875
sg75
(lp2882
S'HTTP_ACCEPT_LANGUAGE'
p2883
asbag68
(g89
g70
NtRp2884
(dp2885
g73
(dp2886
g100
g101
ssg82
g2875
sg75
(lp2887
S':'
asbag68
(g89
g70
NtRp2888
(dp2889
g73
(dp2890
sg82
g2875
sg75
(lp2891
g68
(g69
g70
NtRp2892
(dp2893
g73
(dp2894
g81
I3
ssg82
g2888
sg75
(lp2895
g1450
asbasbasbag68
(g84
g70
NtRp2896
(dp2897
g73
(dp2898
sg82
g2808
sg75
(lp2899
g68
(g89
g70
NtRp2900
(dp2901
g73
(dp2902
g93
g94
ssg82
g2896
sg75
(lp2903
S'HTTP_CONNECTION'
p2904
asbag68
(g89
g70
NtRp2905
(dp2906
g73
(dp2907
g100
g101
ssg82
g2896
sg75
(lp2908
S':'
asbag68
(g89
g70
NtRp2909
(dp2910
g73
(dp2911
sg82
g2896
sg75
(lp2912
g68
(g69
g70
NtRp2913
(dp2914
g73
(dp2915
g81
I3
ssg82
g2909
sg75
(lp2916
g1472
asbasbasbag68
(g84
g70
NtRp2917
(dp2918
g73
(dp2919
sg82
g2808
sg75
(lp2920
g68
(g89
g70
NtRp2921
(dp2922
g73
(dp2923
g93
g94
ssg82
g2917
sg75
(lp2924
S'HTTP_COOKIE'
p2925
asbag68
(g89
g70
NtRp2926
(dp2927
g73
(dp2928
g100
g101
ssg82
g2917
sg75
(lp2929
S':'
asbag68
(g89
g70
NtRp2930
(dp2931
g73
(dp2932
sg82
g2917
sg75
(lp2933
g68
(g69
g70
NtRp2934
(dp2935
g73
(dp2936
g81
I3
ssg82
g2930
sg75
(lp2937
g1494
asbasbasbag68
(g84
g70
NtRp2938
(dp2939
g73
(dp2940
sg82
g2808
sg75
(lp2941
g68
(g89
g70
NtRp2942
(dp2943
g73
(dp2944
g93
g94
ssg82
g2938
sg75
(lp2945
S'HTTP_HOST'
p2946
asbag68
(g89
g70
NtRp2947
(dp2948
g73
(dp2949
g100
g101
ssg82
g2938
sg75
(lp2950
S':'
asbag68
(g89
g70
NtRp2951
(dp2952
g73
(dp2953
sg82
g2938
sg75
(lp2954
g68
(g69
g70
NtRp2955
(dp2956
g73
(dp2957
g81
I3
ssg82
g2951
sg75
(lp2958
g1516
asbasbasbag68
(g84
g70
NtRp2959
(dp2960
g73
(dp2961
sg82
g2808
sg75
(lp2962
g68
(g89
g70
NtRp2963
(dp2964
g73
(dp2965
g93
g94
ssg82
g2959
sg75
(lp2966
S'HTTP_REFERER'
p2967
asbag68
(g89
g70
NtRp2968
(dp2969
g73
(dp2970
g100
g101
ssg82
g2959
sg75
(lp2971
S':'
asbag68
(g89
g70
NtRp2972
(dp2973
g73
(dp2974
sg82
g2959
sg75
(lp2975
g68
(g69
g70
NtRp2976
(dp2977
g73
(dp2978
g81
I3
ssg82
g2972
sg75
(lp2979
g1538
asbasbasbag68
(g84
g70
NtRp2980
(dp2981
g73
(dp2982
sg82
g2808
sg75
(lp2983
g68
(g89
g70
NtRp2984
(dp2985
g73
(dp2986
g93
g94
ssg82
g2980
sg75
(lp2987
S'HTTP_USER_AGENT'
p2988
asbag68
(g89
g70
NtRp2989
(dp2990
g73
(dp2991
g100
g101
ssg82
g2980
sg75
(lp2992
S':'
asbag68
(g89
g70
NtRp2993
(dp2994
g73
(dp2995
sg82
g2980
sg75
(lp2996
g68
(g69
g70
NtRp2997
(dp2998
g73
(dp2999
g81
I3
ssg82
g2993
sg75
(lp3000
g1560
asbasbasbag68
(g84
g70
NtRp3001
(dp3002
g73
(dp3003
sg82
g2808
sg75
(lp3004
g68
(g89
g70
NtRp3005
(dp3006
g73
(dp3007
g93
g94
ssg82
g3001
sg75
(lp3008
S'PATH_INFO'
p3009
asbag68
(g89
g70
NtRp3010
(dp3011
g73
(dp3012
g100
g101
ssg82
g3001
sg75
(lp3013
S':'
asbag68
(g89
g70
NtRp3014
(dp3015
g73
(dp3016
sg82
g3001
sg75
(lp3017
g68
(g69
g70
NtRp3018
(dp3019
g73
(dp3020
g81
I3
ssg82
g3014
sg75
(lp3021
g1624
asbasbasbag68
(g84
g70
NtRp3022
(dp3023
g73
(dp3024
sg82
g2808
sg75
(lp3025
g68
(g89
g70
NtRp3026
(dp3027
g73
(dp3028
g93
g94
ssg82
g3022
sg75
(lp3029
S'QUERY_STRING'
p3030
asbag68
(g89
g70
NtRp3031
(dp3032
g73
(dp3033
g100
g101
ssg82
g3022
sg75
(lp3034
S':'
asbag68
(g89
g70
NtRp3035
(dp3036
g73
(dp3037
sg82
g3022
sg75
(lp3038
g68
(g69
g70
NtRp3039
(dp3040
g73
(dp3041
g81
I3
ssg82
g3035
sg75
(lp3042
S''
asbasbasbag68
(g84
g70
NtRp3043
(dp3044
g73
(dp3045
sg82
g2808
sg75
(lp3046
g68
(g89
g70
NtRp3047
(dp3048
g73
(dp3049
g93
g94
ssg82
g3043
sg75
(lp3050
S'REMOTE_ADDR'
p3051
asbag68
(g89
g70
NtRp3052
(dp3053
g73
(dp3054
g100
g101
ssg82
g3043
sg75
(lp3055
S':'
asbag68
(g89
g70
NtRp3056
(dp3057
g73
(dp3058
sg82
g3043
sg75
(lp3059
g68
(g69
g70
NtRp3060
(dp3061
g73
(dp3062
g81
I3
ssg82
g3056
sg75
(lp3063
g201
asbasbasbag68
(g84
g70
NtRp3064
(dp3065
g73
(dp3066
sg82
g2808
sg75
(lp3067
g68
(g89
g70
NtRp3068
(dp3069
g73
(dp3070
g93
g94
ssg82
g3064
sg75
(lp3071
S'REMOTE_PORT'
p3072
asbag68
(g89
g70
NtRp3073
(dp3074
g73
(dp3075
g100
g101
ssg82
g3064
sg75
(lp3076
S':'
asbag68
(g89
g70
NtRp3077
(dp3078
g73
(dp3079
sg82
g3064
sg75
(lp3080
g68
(g69
g70
NtRp3081
(dp3082
g73
(dp3083
g81
I3
ssg82
g3077
sg75
(lp3084
g1688
asbasbasbag68
(g84
g70
NtRp3085
(dp3086
g73
(dp3087
sg82
g2808
sg75
(lp3088
g68
(g89
g70
NtRp3089
(dp3090
g73
(dp3091
g93
g94
ssg82
g3085
sg75
(lp3092
S'REQUEST_METHOD'
p3093
asbag68
(g89
g70
NtRp3094
(dp3095
g73
(dp3096
g100
g101
ssg82
g3085
sg75
(lp3097
S':'
asbag68
(g89
g70
NtRp3098
(dp3099
g73
(dp3100
sg82
g3085
sg75
(lp3101
g68
(g69
g70
NtRp3102
(dp3103
g73
(dp3104
g81
I3
ssg82
g3098
sg75
(lp3105
g1710
asbasbasbag68
(g84
g70
NtRp3106
(dp3107
g73
(dp3108
sg82
g2808
sg75
(lp3109
g68
(g89
g70
NtRp3110
(dp3111
g73
(dp3112
g93
g94
ssg82
g3106
sg75
(lp3113
S'SCRIPT_NAME'
p3114
asbag68
(g89
g70
NtRp3115
(dp3116
g73
(dp3117
g100
g101
ssg82
g3106
sg75
(lp3118
S':'
asbag68
(g89
g70
NtRp3119
(dp3120
g73
(dp3121
sg82
g3106
sg75
(lp3122
g68
(g69
g70
NtRp3123
(dp3124
g73
(dp3125
g81
I3
ssg82
g3119
sg75
(lp3126
S''
asbasbasbag68
(g84
g70
NtRp3127
(dp3128
g73
(dp3129
sg82
g2808
sg75
(lp3130
g68
(g89
g70
NtRp3131
(dp3132
g73
(dp3133
g93
g94
ssg82
g3127
sg75
(lp3134
S'SERVER_NAME'
p3135
asbag68
(g89
g70
NtRp3136
(dp3137
g73
(dp3138
g100
g101
ssg82
g3127
sg75
(lp3139
S':'
asbag68
(g89
g70
NtRp3140
(dp3141
g73
(dp3142
sg82
g3127
sg75
(lp3143
g68
(g69
g70
NtRp3144
(dp3145
g73
(dp3146
g81
I3
ssg82
g3140
sg75
(lp3147
g1753
asbasbasbag68
(g84
g70
NtRp3148
(dp3149
g73
(dp3150
sg82
g2808
sg75
(lp3151
g68
(g89
g70
NtRp3152
(dp3153
g73
(dp3154
g93
g94
ssg82
g3148
sg75
(lp3155
S'SERVER_PORT'
p3156
asbag68
(g89
g70
NtRp3157
(dp3158
g73
(dp3159
g100
g101
ssg82
g3148
sg75
(lp3160
S':'
asbag68
(g89
g70
NtRp3161
(dp3162
g73
(dp3163
sg82
g3148
sg75
(lp3164
g68
(g69
g70
NtRp3165
(dp3166
g73
(dp3167
g81
I3
ssg82
g3161
sg75
(lp3168
g1775
asbasbasbag68
(g84
g70
NtRp3169
(dp3170
g73
(dp3171
sg82
g2808
sg75
(lp3172
g68
(g89
g70
NtRp3173
(dp3174
g73
(dp3175
g93
g94
ssg82
g3169
sg75
(lp3176
S'SERVER_PROTOCOL'
p3177
asbag68
(g89
g70
NtRp3178
(dp3179
g73
(dp3180
g100
g101
ssg82
g3169
sg75
(lp3181
S':'
asbag68
(g89
g70
NtRp3182
(dp3183
g73
(dp3184
sg82
g3169
sg75
(lp3185
g68
(g69
g70
NtRp3186
(dp3187
g73
(dp3188
g81
I3
ssg82
g3182
sg75
(lp3189
g1797
asbasbasbag68
(g84
g70
NtRp3190
(dp3191
g73
(dp3192
sg82
g2808
sg75
(lp3193
g68
(g89
g70
NtRp3194
(dp3195
g73
(dp3196
g93
g94
ssg82
g3190
sg75
(lp3197
S'SERVER_SOFTWARE'
p3198
asbag68
(g89
g70
NtRp3199
(dp3200
g73
(dp3201
g100
g101
ssg82
g3190
sg75
(lp3202
S':'
asbag68
(g89
g70
NtRp3203
(dp3204
g73
(dp3205
sg82
g3190
sg75
(lp3206
g68
(g69
g70
NtRp3207
(dp3208
g73
(dp3209
g81
I3
ssg82
g3203
sg75
(lp3210
g1819
asbasbasbag68
(g84
g70
NtRp3211
(dp3212
g73
(dp3213
sg82
g2808
sg75
(lp3214
g68
(g89
g70
NtRp3215
(dp3216
g73
(dp3217
g93
g94
ssg82
g3211
sg75
(lp3218
S'wsgi.errors'
p3219
asbag68
(g89
g70
NtRp3220
(dp3221
g73
(dp3222
g100
g101
ssg82
g3211
sg75
(lp3223
S':'
asbag68
(g89
g70
NtRp3224
(dp3225
g73
(dp3226
sg82
g3211
sg75
(lp3227
g68
(g69
g70
NtRp3228
(dp3229
g73
(dp3230
g81
I3
ssg82
g3224
sg75
(lp3231
S"<open file '<stderr>', mode 'w' at 0xb73830d0>"
p3232
asbasbasbag68
(g84
g70
NtRp3233
(dp3234
g73
(dp3235
sg82
g2808
sg75
(lp3236
g68
(g89
g70
NtRp3237
(dp3238
g73
(dp3239
g93
g94
ssg82
g3233
sg75
(lp3240
S'wsgi.file_wrapper'
p3241
asbag68
(g89
g70
NtRp3242
(dp3243
g73
(dp3244
g100
g101
ssg82
g3233
sg75
(lp3245
S':'
asbag68
(g89
g70
NtRp3246
(dp3247
g73
(dp3248
sg82
g3233
sg75
(lp3249
g68
(g69
g70
NtRp3250
(dp3251
g73
(dp3252
g81
I3
ssg82
g3246
sg75
(lp3253
S'<class wsgiref.util.FileWrapper at 0x92dfaac>'
p3254
asbasbasbag68
(g84
g70
NtRp3255
(dp3256
g73
(dp3257
sg82
g2808
sg75
(lp3258
g68
(g89
g70
NtRp3259
(dp3260
g73
(dp3261
g93
g94
ssg82
g3255
sg75
(lp3262
S'wsgi.input'
p3263
asbag68
(g89
g70
NtRp3264
(dp3265
g73
(dp3266
g100
g101
ssg82
g3255
sg75
(lp3267
S':'
asbag68
(g89
g70
NtRp3268
(dp3269
g73
(dp3270
sg82
g3255
sg75
(lp3271
g68
(g69
g70
NtRp3272
(dp3273
g73
(dp3274
g81
I3
ssg82
g3268
sg75
(lp3275
S'<cStringIO.StringO object at 0xa6fa5a0>'
p3276
asbasbasbag68
(g84
g70
NtRp3277
(dp3278
g73
(dp3279
sg82
g2808
sg75
(lp3280
g68
(g89
g70
NtRp3281
(dp3282
g73
(dp3283
g93
g94
ssg82
g3277
sg75
(lp3284
S'wsgi.multiprocess'
p3285
asbag68
(g89
g70
NtRp3286
(dp3287
g73
(dp3288
g100
g101
ssg82
g3277
sg75
(lp3289
S':'
asbag68
(g89
g70
NtRp3290
(dp3291
g73
(dp3292
sg82
g3277
sg75
(lp3293
g68
(g69
g70
NtRp3294
(dp3295
g73
(dp3296
g81
I3
ssg82
g3290
sg75
(lp3297
g111
asbasbasbag68
(g84
g70
NtRp3298
(dp3299
g73
(dp3300
sg82
g2808
sg75
(lp3301
g68
(g89
g70
NtRp3302
(dp3303
g73
(dp3304
g93
g94
ssg82
g3298
sg75
(lp3305
S'wsgi.multithread'
p3306
asbag68
(g89
g70
NtRp3307
(dp3308
g73
(dp3309
g100
g101
ssg82
g3298
sg75
(lp3310
S':'
asbag68
(g89
g70
NtRp3311
(dp3312
g73
(dp3313
sg82
g3298
sg75
(lp3314
g68
(g69
g70
NtRp3315
(dp3316
g73
(dp3317
g81
I3
ssg82
g3311
sg75
(lp3318
g2059
asbasbasbag68
(g84
g70
NtRp3319
(dp3320
g73
(dp3321
sg82
g2808
sg75
(lp3322
g68
(g89
g70
NtRp3323
(dp3324
g73
(dp3325
g93
g94
ssg82
g3319
sg75
(lp3326
S'wsgi.run_once'
p3327
asbag68
(g89
g70
NtRp3328
(dp3329
g73
(dp3330
g100
g101
ssg82
g3319
sg75
(lp3331
S':'
asbag68
(g89
g70
NtRp3332
(dp3333
g73
(dp3334
sg82
g3319
sg75
(lp3335
g68
(g69
g70
NtRp3336
(dp3337
g73
(dp3338
g81
I3
ssg82
g3332
sg75
(lp3339
g111
asbasbasbag68
(g84
g70
NtRp3340
(dp3341
g73
(dp3342
sg82
g2808
sg75
(lp3343
g68
(g89
g70
NtRp3344
(dp3345
g73
(dp3346
g93
g94
ssg82
g3340
sg75
(lp3347
S'wsgi.url_scheme'
p3348
asbag68
(g89
g70
NtRp3349
(dp3350
g73
(dp3351
g100
g101
ssg82
g3340
sg75
(lp3352
S':'
asbag68
(g89
g70
NtRp3353
(dp3354
g73
(dp3355
sg82
g3340
sg75
(lp3356
g68
(g69
g70
NtRp3357
(dp3358
g73
(dp3359
g81
I3
ssg82
g3353
sg75
(lp3360
g2102
asbasbasbag68
(g84
g70
NtRp3361
(dp3362
g73
(dp3363
sg82
g2808
sg75
(lp3364
g68
(g89
g70
NtRp3365
(dp3366
g73
(dp3367
g93
g94
ssg82
g3361
sg75
(lp3368
S'wsgi.version'
p3369
asbag68
(g89
g70
NtRp3370
(dp3371
g73
(dp3372
g100
g101
ssg82
g3361
sg75
(lp3373
S':'
asbag68
(g89
g70
NtRp3374
(dp3375
g73
(dp3376
sg82
g3361
sg75
(lp3377
g68
(g69
g70
NtRp3378
(dp3379
g73
(dp3380
g81
I3
ssg82
g3374
sg75
(lp3381
S'1'
asbasbasbasbasbasbasbasbasbasbasbasbasbsS'frames'
p3382
(lp3383
(dp3384
S'file'
p3385
S'/home/tls-sanjeet/Desktop/HRMS/web2py/gluon/restricted.py'
p3386
sS'dump'
p3387
(dp3388
S'code'
p3389
S'"# -*- coding: utf-8 -*-\\r\\n\\r\\n#####################...ger\'),\\n\\t\\t\\t\\tField(\'left_casual_leave\',\'integer\'))\\n"'
p3390
sS'layer'
p3391
S"'/home/tls-sanjeet/Desktop/HRMS/web2py/applications/themishrms/models/db.py'"
p3392
sS'global compile2'
p3393
S'<function compile2>'
p3394
sS'ccode'
p3395
S'undefined'
p3396
ssS'lnum'
p3397
I204
sS'lines'
p3398
(dp3399
I199
S"    environment['__name__'] = '__restricted__'"
p3400
sI200
S'    try:'
p3401
sI201
S'        if type(code) == types.CodeType:'
p3402
sI202
S'            ccode = code'
p3403
sI203
S'        else:'
p3404
sI204
S'            ccode = compile2(code,layer)'
p3405
sI205
S'        exec ccode in environment'
p3406
sI206
S'    except HTTP:'
p3407
sI207
S'        raise'
p3408
sI208
S'    except RestrictedError:'
p3409
ssS'call'
p3410
S'(code="# -*- coding: utf-8 -*-\\r\\n\\r\\n#####################...ger\'),\\n\\t\\t\\t\\tField(\'left_casual_leave\',\'integer\'))\\n", environment={\'A\': <class \'gluon.html.A\'>, \'B\': <class \'gluon.html.B\'>, \'BEAUTIFY\': <class \'gluon.html.BEAUTIFY\'>, \'BODY\': <class \'gluon.html.BODY\'>, \'BR\': <class \'gluon.html.BR\'>, \'BUTTON\': <class \'gluon.html.BUTTON\'>, \'CAT\': <class \'gluon.html.CAT\'>, \'CENTER\': <class \'gluon.html.CENTER\'>, \'CLEANUP\': <class \'gluon.validators.CLEANUP\'>, \'CODE\': <class \'gluon.html.CODE\'>, ...}, layer=\'/home/tls-sanjeet/Desktop/HRMS/web2py/applications/themishrms/models/db.py\')'
p3411
sS'func'
p3412
S'restricted'
p3413
sa(dp3414
g3385
S'/home/tls-sanjeet/Desktop/HRMS/web2py/gluon/restricted.py'
p3415
sg3387
(dp3416
S'builtincompile'
p3417
S'<built-in function compile>'
p3418
sS'code'
p3419
S'"# -*- coding: utf-8 -*-\\r\\n\\r\\n#####################...ger\'),\\n\\t\\t\\t\\tField(\'left_casual_leave\',\'integer\'))\\n"'
p3420
sS'code.rstrip'
p3421
S'<built-in method rstrip of str object>'
p3422
sS').replace'
p3423
g3396
sS'layer'
p3424
S"'/home/tls-sanjeet/Desktop/HRMS/web2py/applications/themishrms/models/db.py'"
p3425
ssg3397
I189
sg3398
(dp3426
I192
S'    """'
p3427
sI193
S'    runs code in environment and returns the output. if an exception occurs'
p3428
sI184
S''
sI185
S'def compile2(code,layer):'
p3429
sI186
S'    """'
p3430
sI187
S"    The +'\\n' is necessary else compile fails when code ends in a comment."
p3431
sI188
S'    """'
p3432
sI189
S"    return compile(code.rstrip().replace('\\r\\n','\\n')+'\\n', layer, 'exec')"
p3433
sI190
S''
sI191
S"def restricted(code, environment=None, layer='Unknown'):"
p3434
ssg3410
S'(code="# -*- coding: utf-8 -*-\\r\\n\\r\\n#####################...ger\'),\\n\\t\\t\\t\\tField(\'left_casual_leave\',\'integer\'))\\n", layer=\'/home/tls-sanjeet/Desktop/HRMS/web2py/applications/themishrms/models/db.py\')'
p3435
sg3412
S'compile2'
p3436
sasS'pyver'
p3437
S'Python 2.6.5: /usr/bin/python'
p3438
sS'session'
p3439
g68
(g69
g70
NtRp3440
(dp3441
g73
(dp3442
sg75
(lp3443
g68
(g77
g70
NtRp3444
(dp3445
g73
(dp3446
g81
I5
ssg82
Nsg75
(lp3447
g68
(g84
g70
NtRp3448
(dp3449
g73
(dp3450
sg82
g3444
sg75
(lp3451
g68
(g89
g70
NtRp3452
(dp3453
g73
(dp3454
g93
g94
ssg82
g3448
sg75
(lp3455
S'auth'
p3456
asbag68
(g89
g70
NtRp3457
(dp3458
g73
(dp3459
g100
g101
ssg82
g3448
sg75
(lp3460
S':'
asbag68
(g89
g70
NtRp3461
(dp3462
g73
(dp3463
sg82
g3448
sg75
(lp3464
g68
(g69
g70
NtRp3465
(dp3466
g73
(dp3467
g81
I5
ssg82
g3461
sg75
(lp3468
g68
(g77
g70
NtRp3469
(dp3470
g73
(dp3471
g81
I4
ssg82
Nsg75
(lp3472
g68
(g84
g70
NtRp3473
(dp3474
g73
(dp3475
sg82
g3469
sg75
(lp3476
g68
(g89
g70
NtRp3477
(dp3478
g73
(dp3479
g93
g94
ssg82
g3473
sg75
(lp3480
S'expiration'
p3481
asbag68
(g89
g70
NtRp3482
(dp3483
g73
(dp3484
g100
g101
ssg82
g3473
sg75
(lp3485
S':'
asbag68
(g89
g70
NtRp3486
(dp3487
g73
(dp3488
sg82
g3473
sg75
(lp3489
g68
(g69
g70
NtRp3490
(dp3491
g73
(dp3492
g81
I4
ssg82
g3486
sg75
(lp3493
S'3600'
p3494
asbasbasbag68
(g84
g70
NtRp3495
(dp3496
g73
(dp3497
sg82
g3469
sg75
(lp3498
g68
(g89
g70
NtRp3499
(dp3500
g73
(dp3501
g93
g94
ssg82
g3495
sg75
(lp3502
S'hmac_key'
p3503
asbag68
(g89
g70
NtRp3504
(dp3505
g73
(dp3506
g100
g101
ssg82
g3495
sg75
(lp3507
S':'
asbag68
(g89
g70
NtRp3508
(dp3509
g73
(dp3510
sg82
g3495
sg75
(lp3511
g68
(g69
g70
NtRp3512
(dp3513
g73
(dp3514
g81
I4
ssg82
g3508
sg75
(lp3515
S'fe0da3c2-52b7-48ef-a48b-77c57a433b37'
p3516
asbasbasbag68
(g84
g70
NtRp3517
(dp3518
g73
(dp3519
sg82
g3469
sg75
(lp3520
g68
(g89
g70
NtRp3521
(dp3522
g73
(dp3523
g93
g94
ssg82
g3517
sg75
(lp3524
S'last_visit'
p3525
asbag68
(g89
g70
NtRp3526
(dp3527
g73
(dp3528
g100
g101
ssg82
g3517
sg75
(lp3529
S':'
asbag68
(g89
g70
NtRp3530
(dp3531
g73
(dp3532
sg82
g3517
sg75
(lp3533
g68
(g69
g70
NtRp3534
(dp3535
g73
(dp3536
g81
I4
ssg82
g3530
sg75
(lp3537
S'datetime.datetime(2012, 4, 26, 13, 27, 33, 885862)'
p3538
asbasbasbag68
(g84
g70
NtRp3539
(dp3540
g73
(dp3541
sg82
g3469
sg75
(lp3542
g68
(g89
g70
NtRp3543
(dp3544
g73
(dp3545
g93
g94
ssg82
g3539
sg75
(lp3546
S'remember'
p3547
asbag68
(g89
g70
NtRp3548
(dp3549
g73
(dp3550
g100
g101
ssg82
g3539
sg75
(lp3551
S':'
asbag68
(g89
g70
NtRp3552
(dp3553
g73
(dp3554
sg82
g3539
sg75
(lp3555
g68
(g69
g70
NtRp3556
(dp3557
g73
(dp3558
g81
I4
ssg82
g3552
sg75
(lp3559
g111
asbasbasbag68
(g84
g70
NtRp3560
(dp3561
g73
(dp3562
sg82
g3469
sg75
(lp3563
g68
(g89
g70
NtRp3564
(dp3565
g73
(dp3566
g93
g94
ssg82
g3560
sg75
(lp3567
S'user'
p3568
asbag68
(g89
g70
NtRp3569
(dp3570
g73
(dp3571
g100
g101
ssg82
g3560
sg75
(lp3572
S':'
asbag68
(g89
g70
NtRp3573
(dp3574
g73
(dp3575
sg82
g3560
sg75
(lp3576
g68
(g69
g70
NtRp3577
(dp3578
g73
(dp3579
g81
I4
ssg82
g3573
sg75
(lp3580
g68
(g77
g70
NtRp3581
(dp3582
g73
(dp3583
g81
I3
ssg82
Nsg75
(lp3584
g68
(g84
g70
NtRp3585
(dp3586
g73
(dp3587
sg82
g3581
sg75
(lp3588
g68
(g89
g70
NtRp3589
(dp3590
g73
(dp3591
g93
g94
ssg82
g3585
sg75
(lp3592
S'date_of_exit'
p3593
asbag68
(g89
g70
NtRp3594
(dp3595
g73
(dp3596
g100
g101
ssg82
g3585
sg75
(lp3597
S':'
asbag68
(g89
g70
NtRp3598
(dp3599
g73
(dp3600
sg82
g3585
sg75
(lp3601
g68
(g69
g70
NtRp3602
(dp3603
g73
(dp3604
g81
I3
ssg82
g3598
sg75
(lp3605
S'None'
p3606
asbasbasbag68
(g84
g70
NtRp3607
(dp3608
g73
(dp3609
sg82
g3581
sg75
(lp3610
g68
(g89
g70
NtRp3611
(dp3612
g73
(dp3613
g93
g94
ssg82
g3607
sg75
(lp3614
S'date_of_joining'
p3615
asbag68
(g89
g70
NtRp3616
(dp3617
g73
(dp3618
g100
g101
ssg82
g3607
sg75
(lp3619
S':'
asbag68
(g89
g70
NtRp3620
(dp3621
g73
(dp3622
sg82
g3607
sg75
(lp3623
g68
(g69
g70
NtRp3624
(dp3625
g73
(dp3626
g81
I3
ssg82
g3620
sg75
(lp3627
S'datetime.date(2012, 2, 1)'
p3628
asbasbasbag68
(g84
g70
NtRp3629
(dp3630
g73
(dp3631
sg82
g3581
sg75
(lp3632
g68
(g89
g70
NtRp3633
(dp3634
g73
(dp3635
g93
g94
ssg82
g3629
sg75
(lp3636
S'department'
p3637
asbag68
(g89
g70
NtRp3638
(dp3639
g73
(dp3640
g100
g101
ssg82
g3629
sg75
(lp3641
S':'
asbag68
(g89
g70
NtRp3642
(dp3643
g73
(dp3644
sg82
g3629
sg75
(lp3645
g68
(g69
g70
NtRp3646
(dp3647
g73
(dp3648
g81
I3
ssg82
g3642
sg75
(lp3649
S'Software'
p3650
asbasbasbag68
(g84
g70
NtRp3651
(dp3652
g73
(dp3653
sg82
g3581
sg75
(lp3654
g68
(g89
g70
NtRp3655
(dp3656
g73
(dp3657
g93
g94
ssg82
g3651
sg75
(lp3658
S'designation'
p3659
asbag68
(g89
g70
NtRp3660
(dp3661
g73
(dp3662
g100
g101
ssg82
g3651
sg75
(lp3663
S':'
asbag68
(g89
g70
NtRp3664
(dp3665
g73
(dp3666
sg82
g3651
sg75
(lp3667
g68
(g69
g70
NtRp3668
(dp3669
g73
(dp3670
g81
I3
ssg82
g3664
sg75
(lp3671
S'Software Developer'
p3672
asbasbasbag68
(g84
g70
NtRp3673
(dp3674
g73
(dp3675
sg82
g3581
sg75
(lp3676
g68
(g89
g70
NtRp3677
(dp3678
g73
(dp3679
g93
g94
ssg82
g3673
sg75
(lp3680
S'email'
p3681
asbag68
(g89
g70
NtRp3682
(dp3683
g73
(dp3684
g100
g101
ssg82
g3673
sg75
(lp3685
S':'
asbag68
(g89
g70
NtRp3686
(dp3687
g73
(dp3688
sg82
g3673
sg75
(lp3689
g68
(g69
g70
NtRp3690
(dp3691
g73
(dp3692
g81
I3
ssg82
g3686
sg75
(lp3693
S'prakhar.tls@gmail.com'
p3694
asbasbasbag68
(g84
g70
NtRp3695
(dp3696
g73
(dp3697
sg82
g3581
sg75
(lp3698
g68
(g89
g70
NtRp3699
(dp3700
g73
(dp3701
g93
g94
ssg82
g3695
sg75
(lp3702
S'employee_code'
p3703
asbag68
(g89
g70
NtRp3704
(dp3705
g73
(dp3706
g100
g101
ssg82
g3695
sg75
(lp3707
S':'
asbag68
(g89
g70
NtRp3708
(dp3709
g73
(dp3710
sg82
g3695
sg75
(lp3711
g68
(g69
g70
NtRp3712
(dp3713
g73
(dp3714
g81
I3
ssg82
g3708
sg75
(lp3715
S'tls001'
p3716
asbasbasbag68
(g84
g70
NtRp3717
(dp3718
g73
(dp3719
sg82
g3581
sg75
(lp3720
g68
(g89
g70
NtRp3721
(dp3722
g73
(dp3723
g93
g94
ssg82
g3717
sg75
(lp3724
S'employee_status'
p3725
asbag68
(g89
g70
NtRp3726
(dp3727
g73
(dp3728
g100
g101
ssg82
g3717
sg75
(lp3729
S':'
asbag68
(g89
g70
NtRp3730
(dp3731
g73
(dp3732
sg82
g3717
sg75
(lp3733
g68
(g69
g70
NtRp3734
(dp3735
g73
(dp3736
g81
I3
ssg82
g3730
sg75
(lp3737
S'Active'
p3738
asbasbasbag68
(g84
g70
NtRp3739
(dp3740
g73
(dp3741
sg82
g3581
sg75
(lp3742
g68
(g89
g70
NtRp3743
(dp3744
g73
(dp3745
g93
g94
ssg82
g3739
sg75
(lp3746
S'exit_remark'
p3747
asbag68
(g89
g70
NtRp3748
(dp3749
g73
(dp3750
g100
g101
ssg82
g3739
sg75
(lp3751
S':'
asbag68
(g89
g70
NtRp3752
(dp3753
g73
(dp3754
sg82
g3739
sg75
(lp3755
g68
(g69
g70
NtRp3756
(dp3757
g73
(dp3758
g81
I3
ssg82
g3752
sg75
(lp3759
S'None'
p3760
asbasbasbag68
(g84
g70
NtRp3761
(dp3762
g73
(dp3763
sg82
g3581
sg75
(lp3764
g68
(g89
g70
NtRp3765
(dp3766
g73
(dp3767
g93
g94
ssg82
g3761
sg75
(lp3768
S'first_name'
p3769
asbag68
(g89
g70
NtRp3770
(dp3771
g73
(dp3772
g100
g101
ssg82
g3761
sg75
(lp3773
S':'
asbag68
(g89
g70
NtRp3774
(dp3775
g73
(dp3776
sg82
g3761
sg75
(lp3777
g68
(g69
g70
NtRp3778
(dp3779
g73
(dp3780
g81
I3
ssg82
g3774
sg75
(lp3781
S'Prakhar'
p3782
asbasbasbag68
(g84
g70
NtRp3783
(dp3784
g73
(dp3785
sg82
g3581
sg75
(lp3786
g68
(g89
g70
NtRp3787
(dp3788
g73
(dp3789
g93
g94
ssg82
g3783
sg75
(lp3790
S'id'
p3791
asbag68
(g89
g70
NtRp3792
(dp3793
g73
(dp3794
g100
g101
ssg82
g3783
sg75
(lp3795
S':'
asbag68
(g89
g70
NtRp3796
(dp3797
g73
(dp3798
sg82
g3783
sg75
(lp3799
g68
(g69
g70
NtRp3800
(dp3801
g73
(dp3802
g81
I3
ssg82
g3796
sg75
(lp3803
S'2'
asbasbasbag68
(g84
g70
NtRp3804
(dp3805
g73
(dp3806
sg82
g3581
sg75
(lp3807
g68
(g89
g70
NtRp3808
(dp3809
g73
(dp3810
g93
g94
ssg82
g3804
sg75
(lp3811
S'last_name'
p3812
asbag68
(g89
g70
NtRp3813
(dp3814
g73
(dp3815
g100
g101
ssg82
g3804
sg75
(lp3816
S':'
asbag68
(g89
g70
NtRp3817
(dp3818
g73
(dp3819
sg82
g3804
sg75
(lp3820
g68
(g69
g70
NtRp3821
(dp3822
g73
(dp3823
g81
I3
ssg82
g3817
sg75
(lp3824
S'Srivastava'
p3825
asbasbasbag68
(g84
g70
NtRp3826
(dp3827
g73
(dp3828
sg82
g3581
sg75
(lp3829
g68
(g89
g70
NtRp3830
(dp3831
g73
(dp3832
g93
g94
ssg82
g3826
sg75
(lp3833
S'location'
p3834
asbag68
(g89
g70
NtRp3835
(dp3836
g73
(dp3837
g100
g101
ssg82
g3826
sg75
(lp3838
S':'
asbag68
(g89
g70
NtRp3839
(dp3840
g73
(dp3841
sg82
g3826
sg75
(lp3842
g68
(g69
g70
NtRp3843
(dp3844
g73
(dp3845
g81
I3
ssg82
g3839
sg75
(lp3846
S'Bangalore'
p3847
asbasbasbag68
(g84
g70
NtRp3848
(dp3849
g73
(dp3850
sg82
g3581
sg75
(lp3851
g68
(g89
g70
NtRp3852
(dp3853
g73
(dp3854
g93
g94
ssg82
g3848
sg75
(lp3855
S'organization_name'
p3856
asbag68
(g89
g70
NtRp3857
(dp3858
g73
(dp3859
g100
g101
ssg82
g3848
sg75
(lp3860
S':'
asbag68
(g89
g70
NtRp3861
(dp3862
g73
(dp3863
sg82
g3848
sg75
(lp3864
g68
(g69
g70
NtRp3865
(dp3866
g73
(dp3867
g81
I3
ssg82
g3861
sg75
(lp3868
S'Themis Lexsol'
p3869
asbasbasbag68
(g84
g70
NtRp3870
(dp3871
g73
(dp3872
sg82
g3581
sg75
(lp3873
g68
(g89
g70
NtRp3874
(dp3875
g73
(dp3876
g93
g94
ssg82
g3870
sg75
(lp3877
S'password'
p3878
asbag68
(g89
g70
NtRp3879
(dp3880
g73
(dp3881
g100
g101
ssg82
g3870
sg75
(lp3882
S':'
asbag68
(g89
g70
NtRp3883
(dp3884
g73
(dp3885
sg82
g3870
sg75
(lp3886
g68
(g69
g70
NtRp3887
(dp3888
g73
(dp3889
g81
I3
ssg82
g3883
sg75
(lp3890
S'3b00954a2acd03e4a32d91f4bdebb4b7'
p3891
asbasbasbag68
(g84
g70
NtRp3892
(dp3893
g73
(dp3894
sg82
g3581
sg75
(lp3895
g68
(g89
g70
NtRp3896
(dp3897
g73
(dp3898
g93
g94
ssg82
g3892
sg75
(lp3899
S'personal_email'
p3900
asbag68
(g89
g70
NtRp3901
(dp3902
g73
(dp3903
g100
g101
ssg82
g3892
sg75
(lp3904
S':'
asbag68
(g89
g70
NtRp3905
(dp3906
g73
(dp3907
sg82
g3892
sg75
(lp3908
g68
(g69
g70
NtRp3909
(dp3910
g73
(dp3911
g81
I3
ssg82
g3905
sg75
(lp3912
S'prakharsrivas@gmail.com'
p3913
asbasbasbag68
(g84
g70
NtRp3914
(dp3915
g73
(dp3916
sg82
g3581
sg75
(lp3917
g68
(g89
g70
NtRp3918
(dp3919
g73
(dp3920
g93
g94
ssg82
g3914
sg75
(lp3921
S'registration_id'
p3922
asbag68
(g89
g70
NtRp3923
(dp3924
g73
(dp3925
g100
g101
ssg82
g3914
sg75
(lp3926
S':'
asbag68
(g89
g70
NtRp3927
(dp3928
g73
(dp3929
sg82
g3914
sg75
(lp3930
g68
(g69
g70
NtRp3931
(dp3932
g73
(dp3933
g81
I3
ssg82
g3927
sg75
(lp3934
S''
asbasbasbag68
(g84
g70
NtRp3935
(dp3936
g73
(dp3937
sg82
g3581
sg75
(lp3938
g68
(g89
g70
NtRp3939
(dp3940
g73
(dp3941
g93
g94
ssg82
g3935
sg75
(lp3942
S'registration_key'
p3943
asbag68
(g89
g70
NtRp3944
(dp3945
g73
(dp3946
g100
g101
ssg82
g3935
sg75
(lp3947
S':'
asbag68
(g89
g70
NtRp3948
(dp3949
g73
(dp3950
sg82
g3935
sg75
(lp3951
g68
(g69
g70
NtRp3952
(dp3953
g73
(dp3954
g81
I3
ssg82
g3948
sg75
(lp3955
S''
asbasbasbag68
(g84
g70
NtRp3956
(dp3957
g73
(dp3958
sg82
g3581
sg75
(lp3959
g68
(g89
g70
NtRp3960
(dp3961
g73
(dp3962
g93
g94
ssg82
g3956
sg75
(lp3963
S'reporting_manager'
p3964
asbag68
(g89
g70
NtRp3965
(dp3966
g73
(dp3967
g100
g101
ssg82
g3956
sg75
(lp3968
S':'
asbag68
(g89
g70
NtRp3969
(dp3970
g73
(dp3971
sg82
g3956
sg75
(lp3972
g68
(g69
g70
NtRp3973
(dp3974
g73
(dp3975
g81
I3
ssg82
g3969
sg75
(lp3976
S'admin@themislexsol.com'
p3977
asbasbasbag68
(g84
g70
NtRp3978
(dp3979
g73
(dp3980
sg82
g3581
sg75
(lp3981
g68
(g89
g70
NtRp3982
(dp3983
g73
(dp3984
g93
g94
ssg82
g3978
sg75
(lp3985
S'reset_password_key'
p3986
asbag68
(g89
g70
NtRp3987
(dp3988
g73
(dp3989
g100
g101
ssg82
g3978
sg75
(lp3990
S':'
asbag68
(g89
g70
NtRp3991
(dp3992
g73
(dp3993
sg82
g3978
sg75
(lp3994
g68
(g69
g70
NtRp3995
(dp3996
g73
(dp3997
g81
I3
ssg82
g3991
sg75
(lp3998
S''
asbasbasbasbasbasbasbag68
(g84
g70
NtRp3999
(dp4000
g73
(dp4001
sg82
g3469
sg75
(lp4002
g68
(g89
g70
NtRp4003
(dp4004
g73
(dp4005
g93
g94
ssg82
g3999
sg75
(lp4006
S'user_groups'
p4007
asbag68
(g89
g70
NtRp4008
(dp4009
g73
(dp4010
g100
g101
ssg82
g3999
sg75
(lp4011
S':'
asbag68
(g89
g70
NtRp4012
(dp4013
g73
(dp4014
sg82
g3999
sg75
(lp4015
g68
(g69
g70
NtRp4016
(dp4017
g73
(dp4018
g81
I4
ssg82
g4012
sg75
(lp4019
g68
(g77
g70
NtRp4020
(dp4021
g73
(dp4022
g81
I3
ssg82
Nsg75
(lp4023
g68
(g84
g70
NtRp4024
(dp4025
g73
(dp4026
sg82
g4020
sg75
(lp4027
g68
(g89
g70
NtRp4028
(dp4029
g73
(dp4030
g93
g94
ssg82
g4024
sg75
(lp4031
S'2'
asbag68
(g89
g70
NtRp4032
(dp4033
g73
(dp4034
g100
g101
ssg82
g4024
sg75
(lp4035
S':'
asbag68
(g89
g70
NtRp4036
(dp4037
g73
(dp4038
sg82
g4024
sg75
(lp4039
g68
(g69
g70
NtRp4040
(dp4041
g73
(dp4042
g81
I3
ssg82
g4036
sg75
(lp4043
S'Emp'
p4044
asbasbasbasbasbasbasbasbasbasbasbag68
(g84
g70
NtRp4045
(dp4046
g73
(dp4047
sg82
g3444
sg75
(lp4048
g68
(g89
g70
NtRp4049
(dp4050
g73
(dp4051
g93
g94
ssg82
g4045
sg75
(lp4052
S'day'
p4053
asbag68
(g89
g70
NtRp4054
(dp4055
g73
(dp4056
g100
g101
ssg82
g4045
sg75
(lp4057
S':'
asbag68
(g89
g70
NtRp4058
(dp4059
g73
(dp4060
sg82
g4045
sg75
(lp4061
g68
(g69
g70
NtRp4062
(dp4063
g73
(dp4064
g81
I5
ssg82
g4058
sg75
(lp4065
S'35'
p4066
asbasbasbag68
(g84
g70
NtRp4067
(dp4068
g73
(dp4069
sg82
g3444
sg75
(lp4070
g68
(g89
g70
NtRp4071
(dp4072
g73
(dp4073
g93
g94
ssg82
g4067
sg75
(lp4074
S'empcode'
p4075
asbag68
(g89
g70
NtRp4076
(dp4077
g73
(dp4078
g100
g101
ssg82
g4067
sg75
(lp4079
S':'
asbag68
(g89
g70
NtRp4080
(dp4081
g73
(dp4082
sg82
g4067
sg75
(lp4083
g68
(g69
g70
NtRp4084
(dp4085
g73
(dp4086
g81
I5
ssg82
g4080
sg75
(lp4087
S'tls001'
p4088
asbasbasbag68
(g84
g70
NtRp4089
(dp4090
g73
(dp4091
sg82
g3444
sg75
(lp4092
g68
(g89
g70
NtRp4093
(dp4094
g73
(dp4095
g93
g94
ssg82
g4089
sg75
(lp4096
S'fname'
p4097
asbag68
(g89
g70
NtRp4098
(dp4099
g73
(dp4100
g100
g101
ssg82
g4089
sg75
(lp4101
S':'
asbag68
(g89
g70
NtRp4102
(dp4103
g73
(dp4104
sg82
g4089
sg75
(lp4105
g68
(g69
g70
NtRp4106
(dp4107
g73
(dp4108
g81
I5
ssg82
g4102
sg75
(lp4109
S'Prakhar'
p4110
asbasbasbag68
(g84
g70
NtRp4111
(dp4112
g73
(dp4113
sg82
g3444
sg75
(lp4114
g68
(g89
g70
NtRp4115
(dp4116
g73
(dp4117
g93
g94
ssg82
g4111
sg75
(lp4118
S'fromdate'
p4119
asbag68
(g89
g70
NtRp4120
(dp4121
g73
(dp4122
g100
g101
ssg82
g4111
sg75
(lp4123
S':'
asbag68
(g89
g70
NtRp4124
(dp4125
g73
(dp4126
sg82
g4111
sg75
(lp4127
g68
(g69
g70
NtRp4128
(dp4129
g73
(dp4130
g81
I5
ssg82
g4124
sg75
(lp4131
S'2012-04-26'
p4132
asbasbasbag68
(g84
g70
NtRp4133
(dp4134
g73
(dp4135
sg82
g3444
sg75
(lp4136
g68
(g89
g70
NtRp4137
(dp4138
g73
(dp4139
g93
g94
ssg82
g4133
sg75
(lp4140
S'last_query'
p4141
asbag68
(g89
g70
NtRp4142
(dp4143
g73
(dp4144
g100
g101
ssg82
g4133
sg75
(lp4145
S':'
asbag68
(g89
g70
NtRp4146
(dp4147
g73
(dp4148
sg82
g4133
sg75
(lp4149
g68
(g69
g70
NtRp4150
(dp4151
g73
(dp4152
g81
I5
ssg82
g4146
sg75
(lp4153
S'db.auth_permission.id>0'
p4154
asbasbasbag68
(g84
g70
NtRp4155
(dp4156
g73
(dp4157
sg82
g3444
sg75
(lp4158
g68
(g89
g70
NtRp4159
(dp4160
g73
(dp4161
g93
g94
ssg82
g4155
sg75
(lp4162
S'rptmgr'
p4163
asbag68
(g89
g70
NtRp4164
(dp4165
g73
(dp4166
g100
g101
ssg82
g4155
sg75
(lp4167
S':'
asbag68
(g89
g70
NtRp4168
(dp4169
g73
(dp4170
sg82
g4155
sg75
(lp4171
g68
(g69
g70
NtRp4172
(dp4173
g73
(dp4174
g81
I5
ssg82
g4168
sg75
(lp4175
S'admin@themislexsol.com'
p4176
asbasbasbag68
(g84
g70
NtRp4177
(dp4178
g73
(dp4179
sg82
g3444
sg75
(lp4180
g68
(g89
g70
NtRp4181
(dp4182
g73
(dp4183
g93
g94
ssg82
g4177
sg75
(lp4184
S'starttime'
p4185
asbag68
(g89
g70
NtRp4186
(dp4187
g73
(dp4188
g100
g101
ssg82
g4177
sg75
(lp4189
S':'
asbag68
(g89
g70
NtRp4190
(dp4191
g73
(dp4192
sg82
g4177
sg75
(lp4193
g68
(g69
g70
NtRp4194
(dp4195
g73
(dp4196
g81
I5
ssg82
g4190
sg75
(lp4197
S'datetime.datetime(2012, 4, 26, 13, 11, 9, 805864)'
p4198
asbasbasbag68
(g84
g70
NtRp4199
(dp4200
g73
(dp4201
sg82
g3444
sg75
(lp4202
g68
(g89
g70
NtRp4203
(dp4204
g73
(dp4205
g93
g94
ssg82
g4199
sg75
(lp4206
S'time'
p4207
asbag68
(g89
g70
NtRp4208
(dp4209
g73
(dp4210
g100
g101
ssg82
g4199
sg75
(lp4211
S':'
asbag68
(g89
g70
NtRp4212
(dp4213
g73
(dp4214
sg82
g4199
sg75
(lp4215
g68
(g69
g70
NtRp4216
(dp4217
g73
(dp4218
g81
I5
ssg82
g4212
sg75
(lp4219
S'13:11:09'
p4220
asbasbasbag68
(g84
g70
NtRp4221
(dp4222
g73
(dp4223
sg82
g3444
sg75
(lp4224
g68
(g89
g70
NtRp4225
(dp4226
g73
(dp4227
g93
g94
ssg82
g4221
sg75
(lp4228
S'todate'
p4229
asbag68
(g89
g70
NtRp4230
(dp4231
g73
(dp4232
g100
g101
ssg82
g4221
sg75
(lp4233
S':'
asbag68
(g89
g70
NtRp4234
(dp4235
g73
(dp4236
sg82
g4221
sg75
(lp4237
g68
(g69
g70
NtRp4238
(dp4239
g73
(dp4240
g81
I5
ssg82
g4234
sg75
(lp4241
S'2012-05-31'
p4242
asbasbasbasbasbsS'etype'
p4243
S"<type 'exceptions.SyntaxError'>"
p4244
sS'date'
p4245
S'Thu Apr 26 14:04:21 2012'
p4246
sS'response'
p4247
g68
(g69
g70
NtRp4248
(dp4249
g73
(dp4250
sg75
(lp4251
g68
(g77
g70
NtRp4252
(dp4253
g73
(dp4254
g81
I5
ssg82
Nsg75
(lp4255
g68
(g84
g70
NtRp4256
(dp4257
g73
(dp4258
sg82
g4252
sg75
(lp4259
g68
(g89
g70
NtRp4260
(dp4261
g73
(dp4262
g93
g94
ssg82
g4256
sg75
(lp4263
g166
asbag68
(g89
g70
NtRp4264
(dp4265
g73
(dp4266
g100
g101
ssg82
g4256
sg75
(lp4267
S':'
asbag68
(g89
g70
NtRp4268
(dp4269
g73
(dp4270
sg82
g4256
sg75
(lp4271
g68
(g69
g70
NtRp4272
(dp4273
g73
(dp4274
g81
I5
ssg82
g4268
sg75
(lp4275
S'<cStringIO.StringO object at 0x9cc6060>'
p4276
asbasbasbag68
(g84
g70
NtRp4277
(dp4278
g73
(dp4279
sg82
g4252
sg75
(lp4280
g68
(g89
g70
NtRp4281
(dp4282
g73
(dp4283
g93
g94
ssg82
g4277
sg75
(lp4284
g232
asbag68
(g89
g70
NtRp4285
(dp4286
g73
(dp4287
g100
g101
ssg82
g4277
sg75
(lp4288
S':'
asbag68
(g89
g70
NtRp4289
(dp4290
g73
(dp4291
sg82
g4277
sg75
(lp4292
g68
(g69
g70
NtRp4293
(dp4294
g73
(dp4295
g81
I5
ssg82
g4289
sg75
(lp4296
g68
(g77
g70
NtRp4297
(dp4298
g73
(dp4299
g81
I4
ssg82
Nsg75
(lp4300
g68
(g84
g70
NtRp4301
(dp4302
g73
(dp4303
sg82
g4297
sg75
(lp4304
g68
(g89
g70
NtRp4305
(dp4306
g73
(dp4307
g93
g94
ssg82
g4301
sg75
(lp4308
S'session_id_themishrms'
p4309
asbag68
(g89
g70
NtRp4310
(dp4311
g73
(dp4312
g100
g101
ssg82
g4301
sg75
(lp4313
S':'
asbag68
(g89
g70
NtRp4314
(dp4315
g73
(dp4316
sg82
g4301
sg75
(lp4317
g68
(g69
g70
NtRp4318
(dp4319
g73
(dp4320
g81
I4
ssg82
g4314
sg75
(lp4321
g68
(g77
g70
NtRp4322
(dp4323
g73
(dp4324
g81
I3
ssg82
Nsg75
(lp4325
g68
(g84
g70
NtRp4326
(dp4327
g73
(dp4328
sg82
g4322
sg75
(lp4329
g68
(g89
g70
NtRp4330
(dp4331
g73
(dp4332
g93
g94
ssg82
g4326
sg75
(lp4333
g282
asbag68
(g89
g70
NtRp4334
(dp4335
g73
(dp4336
g100
g101
ssg82
g4326
sg75
(lp4337
S':'
asbag68
(g89
g70
NtRp4338
(dp4339
g73
(dp4340
sg82
g4326
sg75
(lp4341
g68
(g69
g70
NtRp4342
(dp4343
g73
(dp4344
g81
I3
ssg82
g4338
sg75
(lp4345
S''
asbasbasbag68
(g84
g70
NtRp4346
(dp4347
g73
(dp4348
sg82
g4322
sg75
(lp4349
g68
(g89
g70
NtRp4350
(dp4351
g73
(dp4352
g93
g94
ssg82
g4346
sg75
(lp4353
g303
asbag68
(g89
g70
NtRp4354
(dp4355
g73
(dp4356
g100
g101
ssg82
g4346
sg75
(lp4357
S':'
asbag68
(g89
g70
NtRp4358
(dp4359
g73
(dp4360
sg82
g4346
sg75
(lp4361
g68
(g69
g70
NtRp4362
(dp4363
g73
(dp4364
g81
I3
ssg82
g4358
sg75
(lp4365
S''
asbasbasbag68
(g84
g70
NtRp4366
(dp4367
g73
(dp4368
sg82
g4322
sg75
(lp4369
g68
(g89
g70
NtRp4370
(dp4371
g73
(dp4372
g93
g94
ssg82
g4366
sg75
(lp4373
g324
asbag68
(g89
g70
NtRp4374
(dp4375
g73
(dp4376
g100
g101
ssg82
g4366
sg75
(lp4377
S':'
asbag68
(g89
g70
NtRp4378
(dp4379
g73
(dp4380
sg82
g4366
sg75
(lp4381
g68
(g69
g70
NtRp4382
(dp4383
g73
(dp4384
g81
I3
ssg82
g4378
sg75
(lp4385
S''
asbasbasbag68
(g84
g70
NtRp4386
(dp4387
g73
(dp4388
sg82
g4322
sg75
(lp4389
g68
(g89
g70
NtRp4390
(dp4391
g73
(dp4392
g93
g94
ssg82
g4386
sg75
(lp4393
g345
asbag68
(g89
g70
NtRp4394
(dp4395
g73
(dp4396
g100
g101
ssg82
g4386
sg75
(lp4397
S':'
asbag68
(g89
g70
NtRp4398
(dp4399
g73
(dp4400
sg82
g4386
sg75
(lp4401
g68
(g69
g70
NtRp4402
(dp4403
g73
(dp4404
g81
I3
ssg82
g4398
sg75
(lp4405
S''
asbasbasbag68
(g84
g70
NtRp4406
(dp4407
g73
(dp4408
sg82
g4322
sg75
(lp4409
g68
(g89
g70
NtRp4410
(dp4411
g73
(dp4412
g93
g94
ssg82
g4406
sg75
(lp4413
g366
asbag68
(g89
g70
NtRp4414
(dp4415
g73
(dp4416
g100
g101
ssg82
g4406
sg75
(lp4417
S':'
asbag68
(g89
g70
NtRp4418
(dp4419
g73
(dp4420
sg82
g4406
sg75
(lp4421
g68
(g69
g70
NtRp4422
(dp4423
g73
(dp4424
g81
I3
ssg82
g4418
sg75
(lp4425
S''
asbasbasbag68
(g84
g70
NtRp4426
(dp4427
g73
(dp4428
sg82
g4322
sg75
(lp4429
g68
(g89
g70
NtRp4430
(dp4431
g73
(dp4432
g93
g94
ssg82
g4426
sg75
(lp4433
g387
asbag68
(g89
g70
NtRp4434
(dp4435
g73
(dp4436
g100
g101
ssg82
g4426
sg75
(lp4437
S':'
asbag68
(g89
g70
NtRp4438
(dp4439
g73
(dp4440
sg82
g4426
sg75
(lp4441
g68
(g69
g70
NtRp4442
(dp4443
g73
(dp4444
g81
I3
ssg82
g4438
sg75
(lp4445
S'/'
asbasbasbag68
(g84
g70
NtRp4446
(dp4447
g73
(dp4448
sg82
g4322
sg75
(lp4449
g68
(g89
g70
NtRp4450
(dp4451
g73
(dp4452
g93
g94
ssg82
g4446
sg75
(lp4453
g408
asbag68
(g89
g70
NtRp4454
(dp4455
g73
(dp4456
g100
g101
ssg82
g4446
sg75
(lp4457
S':'
asbag68
(g89
g70
NtRp4458
(dp4459
g73
(dp4460
sg82
g4446
sg75
(lp4461
g68
(g69
g70
NtRp4462
(dp4463
g73
(dp4464
g81
I3
ssg82
g4458
sg75
(lp4465
S''
asbasbasbag68
(g84
g70
NtRp4466
(dp4467
g73
(dp4468
sg82
g4322
sg75
(lp4469
g68
(g89
g70
NtRp4470
(dp4471
g73
(dp4472
g93
g94
ssg82
g4466
sg75
(lp4473
g429
asbag68
(g89
g70
NtRp4474
(dp4475
g73
(dp4476
g100
g101
ssg82
g4466
sg75
(lp4477
S':'
asbag68
(g89
g70
NtRp4478
(dp4479
g73
(dp4480
sg82
g4466
sg75
(lp4481
g68
(g69
g70
NtRp4482
(dp4483
g73
(dp4484
g81
I3
ssg82
g4478
sg75
(lp4485
S''
asbasbasbasbasbasbasbasbasbasbasbag68
(g84
g70
NtRp4486
(dp4487
g73
(dp4488
sg82
g4252
sg75
(lp4489
g68
(g89
g70
NtRp4490
(dp4491
g73
(dp4492
g93
g94
ssg82
g4486
sg75
(lp4493
S'delimiters'
p4494
asbag68
(g89
g70
NtRp4495
(dp4496
g73
(dp4497
g100
g101
ssg82
g4486
sg75
(lp4498
S':'
asbag68
(g89
g70
NtRp4499
(dp4500
g73
(dp4501
sg82
g4486
sg75
(lp4502
g68
(g69
g70
NtRp4503
(dp4504
g73
(dp4505
g81
I5
ssg82
g4499
sg75
(lp4506
g68
(g77
g70
NtRp4507
(dp4508
g73
(dp4509
g81
I4
ssg82
Nsg75
(lp4510
g68
(g84
g70
NtRp4511
(dp4512
g73
(dp4513
sg82
g4507
sg75
(lp4514
g68
(g89
g70
NtRp4515
(dp4516
g73
(dp4517
sg82
g4511
sg75
(lp4518
g68
(g69
g70
NtRp4519
(dp4520
g73
(dp4521
g81
I4
ssg82
g4515
sg75
(lp4522
S'{{'
p4523
asbasbasbag68
(g84
g70
NtRp4524
(dp4525
g73
(dp4526
sg82
g4507
sg75
(lp4527
g68
(g89
g70
NtRp4528
(dp4529
g73
(dp4530
sg82
g4524
sg75
(lp4531
g68
(g69
g70
NtRp4532
(dp4533
g73
(dp4534
g81
I4
ssg82
g4528
sg75
(lp4535
S'}}'
p4536
asbasbasbasbasbasbasbag68
(g84
g70
NtRp4537
(dp4538
g73
(dp4539
sg82
g4252
sg75
(lp4540
g68
(g89
g70
NtRp4541
(dp4542
g73
(dp4543
g93
g94
ssg82
g4537
sg75
(lp4544
S'files'
p4545
asbag68
(g89
g70
NtRp4546
(dp4547
g73
(dp4548
g100
g101
ssg82
g4537
sg75
(lp4549
S':'
asbag68
(g89
g70
NtRp4550
(dp4551
g73
(dp4552
sg82
g4537
sg75
(lp4553
g68
(g69
g70
NtRp4554
(dp4555
g73
(dp4556
g81
I5
ssg82
g4550
sg75
(lp4557
g68
(g77
g70
NtRp4558
(dp4559
g73
(dp4560
g81
I4
ssg82
Nsg75
(lp4561
sbasbasbasbag68
(g84
g70
NtRp4562
(dp4563
g73
(dp4564
sg82
g4252
sg75
(lp4565
g68
(g89
g70
NtRp4566
(dp4567
g73
(dp4568
g93
g94
ssg82
g4562
sg75
(lp4569
S'flash'
p4570
asbag68
(g89
g70
NtRp4571
(dp4572
g73
(dp4573
g100
g101
ssg82
g4562
sg75
(lp4574
S':'
asbag68
(g89
g70
NtRp4575
(dp4576
g73
(dp4577
sg82
g4562
sg75
(lp4578
g68
(g69
g70
NtRp4579
(dp4580
g73
(dp4581
g81
I5
ssg82
g4575
sg75
(lp4582
S''
asbasbasbag68
(g84
g70
NtRp4583
(dp4584
g73
(dp4585
sg82
g4252
sg75
(lp4586
g68
(g89
g70
NtRp4587
(dp4588
g73
(dp4589
g93
g94
ssg82
g4583
sg75
(lp4590
S'generic_patterns'
p4591
asbag68
(g89
g70
NtRp4592
(dp4593
g73
(dp4594
g100
g101
ssg82
g4583
sg75
(lp4595
S':'
asbag68
(g89
g70
NtRp4596
(dp4597
g73
(dp4598
sg82
g4583
sg75
(lp4599
g68
(g69
g70
NtRp4600
(dp4601
g73
(dp4602
g81
I5
ssg82
g4596
sg75
(lp4603
g68
(g77
g70
NtRp4604
(dp4605
g73
(dp4606
g81
I4
ssg82
Nsg75
(lp4607
sbasbasbasbag68
(g84
g70
NtRp4608
(dp4609
g73
(dp4610
sg82
g4252
sg75
(lp4611
g68
(g89
g70
NtRp4612
(dp4613
g73
(dp4614
g93
g94
ssg82
g4608
sg75
(lp4615
S'headers'
p4616
asbag68
(g89
g70
NtRp4617
(dp4618
g73
(dp4619
g100
g101
ssg82
g4608
sg75
(lp4620
S':'
asbag68
(g89
g70
NtRp4621
(dp4622
g73
(dp4623
sg82
g4608
sg75
(lp4624
g68
(g69
g70
NtRp4625
(dp4626
g73
(dp4627
g81
I5
ssg82
g4621
sg75
(lp4628
g68
(g77
g70
NtRp4629
(dp4630
g73
(dp4631
g81
I4
ssg82
Nsg75
(lp4632
g68
(g84
g70
NtRp4633
(dp4634
g73
(dp4635
sg82
g4629
sg75
(lp4636
g68
(g89
g70
NtRp4637
(dp4638
g73
(dp4639
g93
g94
ssg82
g4633
sg75
(lp4640
S'Cache-Control'
p4641
asbag68
(g89
g70
NtRp4642
(dp4643
g73
(dp4644
g100
g101
ssg82
g4633
sg75
(lp4645
S':'
asbag68
(g89
g70
NtRp4646
(dp4647
g73
(dp4648
sg82
g4633
sg75
(lp4649
g68
(g69
g70
NtRp4650
(dp4651
g73
(dp4652
g81
I4
ssg82
g4646
sg75
(lp4653
S'no-store, no-cache, must-revalidate, post-check=0, pre-check=0'
p4654
asbasbasbag68
(g84
g70
NtRp4655
(dp4656
g73
(dp4657
sg82
g4629
sg75
(lp4658
g68
(g89
g70
NtRp4659
(dp4660
g73
(dp4661
g93
g94
ssg82
g4655
sg75
(lp4662
S'Content-Type'
p4663
asbag68
(g89
g70
NtRp4664
(dp4665
g73
(dp4666
g100
g101
ssg82
g4655
sg75
(lp4667
S':'
asbag68
(g89
g70
NtRp4668
(dp4669
g73
(dp4670
sg82
g4655
sg75
(lp4671
g68
(g69
g70
NtRp4672
(dp4673
g73
(dp4674
g81
I4
ssg82
g4668
sg75
(lp4675
S'text/html; charset=utf-8'
p4676
asbasbasbag68
(g84
g70
NtRp4677
(dp4678
g73
(dp4679
sg82
g4629
sg75
(lp4680
g68
(g89
g70
NtRp4681
(dp4682
g73
(dp4683
g93
g94
ssg82
g4677
sg75
(lp4684
S'Expires'
p4685
asbag68
(g89
g70
NtRp4686
(dp4687
g73
(dp4688
g100
g101
ssg82
g4677
sg75
(lp4689
S':'
asbag68
(g89
g70
NtRp4690
(dp4691
g73
(dp4692
sg82
g4677
sg75
(lp4693
g68
(g69
g70
NtRp4694
(dp4695
g73
(dp4696
g81
I4
ssg82
g4690
sg75
(lp4697
S'Thu, 26 Apr 2012 08:34:21 GMT'
p4698
asbasbasbag68
(g84
g70
NtRp4699
(dp4700
g73
(dp4701
sg82
g4629
sg75
(lp4702
g68
(g89
g70
NtRp4703
(dp4704
g73
(dp4705
g93
g94
ssg82
g4699
sg75
(lp4706
S'Pragma'
p4707
asbag68
(g89
g70
NtRp4708
(dp4709
g73
(dp4710
g100
g101
ssg82
g4699
sg75
(lp4711
S':'
asbag68
(g89
g70
NtRp4712
(dp4713
g73
(dp4714
sg82
g4699
sg75
(lp4715
g68
(g69
g70
NtRp4716
(dp4717
g73
(dp4718
g81
I4
ssg82
g4712
sg75
(lp4719
S'no-cache'
p4720
asbasbasbag68
(g84
g70
NtRp4721
(dp4722
g73
(dp4723
sg82
g4629
sg75
(lp4724
g68
(g89
g70
NtRp4725
(dp4726
g73
(dp4727
g93
g94
ssg82
g4721
sg75
(lp4728
S'X-Powered-By'
p4729
asbag68
(g89
g70
NtRp4730
(dp4731
g73
(dp4732
g100
g101
ssg82
g4721
sg75
(lp4733
S':'
asbag68
(g89
g70
NtRp4734
(dp4735
g73
(dp4736
sg82
g4721
sg75
(lp4737
g68
(g69
g70
NtRp4738
(dp4739
g73
(dp4740
g81
I4
ssg82
g4734
sg75
(lp4741
S'web2py'
p4742
asbasbasbasbasbasbasbag68
(g84
g70
NtRp4743
(dp4744
g73
(dp4745
sg82
g4252
sg75
(lp4746
g68
(g89
g70
NtRp4747
(dp4748
g73
(dp4749
g93
g94
ssg82
g4743
sg75
(lp4750
S'menu'
p4751
asbag68
(g89
g70
NtRp4752
(dp4753
g73
(dp4754
g100
g101
ssg82
g4743
sg75
(lp4755
S':'
asbag68
(g89
g70
NtRp4756
(dp4757
g73
(dp4758
sg82
g4743
sg75
(lp4759
g68
(g69
g70
NtRp4760
(dp4761
g73
(dp4762
g81
I5
ssg82
g4756
sg75
(lp4763
g68
(g77
g70
NtRp4764
(dp4765
g73
(dp4766
g81
I4
ssg82
Nsg75
(lp4767
sbasbasbasbag68
(g84
g70
NtRp4768
(dp4769
g73
(dp4770
sg82
g4252
sg75
(lp4771
g68
(g89
g70
NtRp4772
(dp4773
g73
(dp4774
g93
g94
ssg82
g4768
sg75
(lp4775
S'meta'
p4776
asbag68
(g89
g70
NtRp4777
(dp4778
g73
(dp4779
g100
g101
ssg82
g4768
sg75
(lp4780
S':'
asbag68
(g89
g70
NtRp4781
(dp4782
g73
(dp4783
sg82
g4768
sg75
(lp4784
g68
(g69
g70
NtRp4785
(dp4786
g73
(dp4787
g81
I5
ssg82
g4781
sg75
(lp4788
g68
(g77
g70
NtRp4789
(dp4790
g73
(dp4791
g81
I4
ssg82
Nsg75
(lp4792
sbasbasbasbag68
(g84
g70
NtRp4793
(dp4794
g73
(dp4795
sg82
g4252
sg75
(lp4796
g68
(g89
g70
NtRp4797
(dp4798
g73
(dp4799
g93
g94
ssg82
g4793
sg75
(lp4800
S'postprocessing'
p4801
asbag68
(g89
g70
NtRp4802
(dp4803
g73
(dp4804
g100
g101
ssg82
g4793
sg75
(lp4805
S':'
asbag68
(g89
g70
NtRp4806
(dp4807
g73
(dp4808
sg82
g4793
sg75
(lp4809
g68
(g69
g70
NtRp4810
(dp4811
g73
(dp4812
g81
I5
ssg82
g4806
sg75
(lp4813
g68
(g77
g70
NtRp4814
(dp4815
g73
(dp4816
g81
I4
ssg82
Nsg75
(lp4817
sbasbasbasbag68
(g84
g70
NtRp4818
(dp4819
g73
(dp4820
sg82
g4252
sg75
(lp4821
g68
(g89
g70
NtRp4822
(dp4823
g73
(dp4824
g93
g94
ssg82
g4818
sg75
(lp4825
S'session_file'
p4826
asbag68
(g89
g70
NtRp4827
(dp4828
g73
(dp4829
g100
g101
ssg82
g4818
sg75
(lp4830
S':'
asbag68
(g89
g70
NtRp4831
(dp4832
g73
(dp4833
sg82
g4818
sg75
(lp4834
g68
(g69
g70
NtRp4835
(dp4836
g73
(dp4837
g81
I5
ssg82
g4831
sg75
(lp4838
S"<open file '/home/tls-sanjeet/Desktop/HRMS/web2py/applications/themishrms/sessions/127.0.0.1-242e7abf-396d-48e9-918e-1c534375193b', mode 'rb+' at 0xa23aee8>"
p4839
asbasbasbag68
(g84
g70
NtRp4840
(dp4841
g73
(dp4842
sg82
g4252
sg75
(lp4843
g68
(g89
g70
NtRp4844
(dp4845
g73
(dp4846
g93
g94
ssg82
g4840
sg75
(lp4847
S'session_filename'
p4848
asbag68
(g89
g70
NtRp4849
(dp4850
g73
(dp4851
g100
g101
ssg82
g4840
sg75
(lp4852
S':'
asbag68
(g89
g70
NtRp4853
(dp4854
g73
(dp4855
sg82
g4840
sg75
(lp4856
g68
(g69
g70
NtRp4857
(dp4858
g73
(dp4859
g81
I5
ssg82
g4853
sg75
(lp4860
S'/home/tls-sanjeet/Desktop/HRMS/web2py/applications/themishrms/sessions/127.0.0.1-242e7abf-396d-48e9-918e-1c534375193b'
p4861
asbasbasbag68
(g84
g70
NtRp4862
(dp4863
g73
(dp4864
sg82
g4252
sg75
(lp4865
g68
(g89
g70
NtRp4866
(dp4867
g73
(dp4868
g93
g94
ssg82
g4862
sg75
(lp4869
S'session_id'
p4870
asbag68
(g89
g70
NtRp4871
(dp4872
g73
(dp4873
g100
g101
ssg82
g4862
sg75
(lp4874
S':'
asbag68
(g89
g70
NtRp4875
(dp4876
g73
(dp4877
sg82
g4862
sg75
(lp4878
g68
(g69
g70
NtRp4879
(dp4880
g73
(dp4881
g81
I5
ssg82
g4875
sg75
(lp4882
S'127.0.0.1-242e7abf-396d-48e9-918e-1c534375193b'
p4883
asbasbasbag68
(g84
g70
NtRp4884
(dp4885
g73
(dp4886
sg82
g4252
sg75
(lp4887
g68
(g89
g70
NtRp4888
(dp4889
g73
(dp4890
g93
g94
ssg82
g4884
sg75
(lp4891
S'session_id_name'
p4892
asbag68
(g89
g70
NtRp4893
(dp4894
g73
(dp4895
g100
g101
ssg82
g4884
sg75
(lp4896
S':'
asbag68
(g89
g70
NtRp4897
(dp4898
g73
(dp4899
sg82
g4884
sg75
(lp4900
g68
(g69
g70
NtRp4901
(dp4902
g73
(dp4903
g81
I5
ssg82
g4897
sg75
(lp4904
g4309
asbasbasbag68
(g84
g70
NtRp4905
(dp4906
g73
(dp4907
sg82
g4252
sg75
(lp4908
g68
(g89
g70
NtRp4909
(dp4910
g73
(dp4911
g93
g94
ssg82
g4905
sg75
(lp4912
S'session_locked'
p4913
asbag68
(g89
g70
NtRp4914
(dp4915
g73
(dp4916
g100
g101
ssg82
g4905
sg75
(lp4917
S':'
asbag68
(g89
g70
NtRp4918
(dp4919
g73
(dp4920
sg82
g4905
sg75
(lp4921
g68
(g69
g70
NtRp4922
(dp4923
g73
(dp4924
g81
I5
ssg82
g4918
sg75
(lp4925
g2059
asbasbasbag68
(g84
g70
NtRp4926
(dp4927
g73
(dp4928
sg82
g4252
sg75
(lp4929
g68
(g89
g70
NtRp4930
(dp4931
g73
(dp4932
g93
g94
ssg82
g4926
sg75
(lp4933
S'session_new'
p4934
asbag68
(g89
g70
NtRp4935
(dp4936
g73
(dp4937
g100
g101
ssg82
g4926
sg75
(lp4938
S':'
asbag68
(g89
g70
NtRp4939
(dp4940
g73
(dp4941
sg82
g4926
sg75
(lp4942
g68
(g69
g70
NtRp4943
(dp4944
g73
(dp4945
g81
I5
ssg82
g4939
sg75
(lp4946
g111
asbasbasbag68
(g84
g70
NtRp4947
(dp4948
g73
(dp4949
sg82
g4252
sg75
(lp4950
g68
(g89
g70
NtRp4951
(dp4952
g73
(dp4953
g93
g94
ssg82
g4947
sg75
(lp4954
S'status'
p4955
asbag68
(g89
g70
NtRp4956
(dp4957
g73
(dp4958
g100
g101
ssg82
g4947
sg75
(lp4959
S':'
asbag68
(g89
g70
NtRp4960
(dp4961
g73
(dp4962
sg82
g4947
sg75
(lp4963
g68
(g69
g70
NtRp4964
(dp4965
g73
(dp4966
g81
I5
ssg82
g4960
sg75
(lp4967
S'200'
p4968
asbasbasbag68
(g84
g70
NtRp4969
(dp4970
g73
(dp4971
sg82
g4252
sg75
(lp4972
g68
(g89
g70
NtRp4973
(dp4974
g73
(dp4975
g93
g94
ssg82
g4969
sg75
(lp4976
g2723
asbag68
(g89
g70
NtRp4977
(dp4978
g73
(dp4979
g100
g101
ssg82
g4969
sg75
(lp4980
S':'
asbag68
(g89
g70
NtRp4981
(dp4982
g73
(dp4983
sg82
g4969
sg75
(lp4984
g68
(g69
g70
NtRp4985
(dp4986
g73
(dp4987
g81
I5
ssg82
g4981
sg75
(lp4988
g2736
asbasbasbag68
(g84
g70
NtRp4989
(dp4990
g73
(dp4991
sg82
g4252
sg75
(lp4992
g68
(g89
g70
NtRp4993
(dp4994
g73
(dp4995
g93
g94
ssg82
g4989
sg75
(lp4996
S'view'
p4997
asbag68
(g89
g70
NtRp4998
(dp4999
g73
(dp5000
g100
g101
ssg82
g4989
sg75
(lp5001
S':'
asbag68
(g89
g70
NtRp5002
(dp5003
g73
(dp5004
sg82
g4989
sg75
(lp5005
g68
(g69
g70
NtRp5006
(dp5007
g73
(dp5008
g81
I5
ssg82
g5002
sg75
(lp5009
S'default/index.html'
p5010
asbasbasbasbasbsS'locals'
p5011
(dp5012
g4
S"'/home/tls-sanjeet/Desktop/HRMS/web2py/applications/themishrms/models/db.py'"
p5013
sg6
S'"# -*- coding: utf-8 -*-\\r\\n\\r\\n#####################...ger\'),\\n\\t\\t\\t\\tField(\'left_casual_leave\',\'integer\'))\\n"'
p5014
sssS'traceback'
p5015
S'Traceback (most recent call last):\n  File "/home/tls-sanjeet/Desktop/HRMS/web2py/gluon/restricted.py", line 204, in restricted\n    ccode = compile2(code,layer)\n  File "/home/tls-sanjeet/Desktop/HRMS/web2py/gluon/restricted.py", line 189, in compile2\n    return compile(code.rstrip().replace(\'\\r\\n\',\'\\n\')+\'\\n\', layer, \'exec\')\n  File "/home/tls-sanjeet/Desktop/HRMS/web2py/applications/themishrms/models/db.py", line 209\n    db.define_table(\'employee_leave\',\n     ^\nSyntaxError: invalid syntax\n'
p5016
s.