(dp1
S'output'
p2
S"<type 'exceptions.ValueError'> invalid literal for int() with base 10: 'admin_submit_edit_leave_status'"
p3
sS'layer'
p4
S'/home/tls-sanjeet/Desktop/HRMS/web2py/applications/themishrms/controllers/default.py'
p5
sS'code'
p6
S'# -*- coding: utf-8 -*-\n# this file is released under public domain and you can use without limitations\n\n#########################################################################\n## This is a samples controller\n## - index is the default action of any application\n## - user is required for authentication and authorization\n## - download is for downloading files uploaded in the db (does streaming)\n## - call exposes all registered services (none by default)\n#########################################################################\n\ndef index():\n    """\n    example action using the internationalization operator T and flash\n    rendered by views/default/index.html or views/generic.html\n    """\n    response.flash = "Welcome to Themis Lexsol"\n    return dict(message=T(\'Hello World\'))\n\t\n\t\ndef tlscareer():\n    return dict()\n\ndef tlsabout():\n    return dict()\n    \ndef rt():\n    return dict()\n\ndef employee():\n    return dict()\n    \ndef tlsservice():\n    return dict()\n\n\ndef tlsoo():\n    return dict()   \n\ndef tlsleads():\n    return dict()   \n\ndef tlsoteam():\t\n\t return dict()\n\t\ndef tlscontact(): \r\n    use_recaptcha = True \r\n    form = SQLFORM.factory(Field(\'Name\',requires=IS_NOT_EMPTY()),Field (\'your_email\',requires=IS_EMAIL()),Field(\'your_message\',\'text\')) \r\n    return dict(form=form)\r\n\t\t\r\ndef tlscareer(): \r\n    form = SQLFORM.factory(Field(\'name\',requires=IS_NOT_EMPTY()),\n    \t\t\t\t\t\t\t\tField (\'your_email\',requires=IS_EMAIL()),\n    \t\t\t\t\t\t\t\tSQLField(\'contact_details\',requires=IS_NOT_EMPTY()),\n    \t\t\t\t\t\t\t\tField(\'your_message\',\'text\'),\n    \t\t\t\t\t\t\t\tSQLField(\'looking_for_position\',requires=IS_IN_SET([\'Admin\', \'Legal\', \'Finance\',\'IT\'])),\n    \t\t\t\t\t\t\t\tSQLField(\'your_resume\',\'upload\')) \n    if form.accepts(request,session):\n    \tsession.name = form.vars.name\n    \t#careermail() \r\n    return dict(form=form)\t\r\n\t\t\r\ndef careermail():\n    from gluon.tools import Mail\n    mail = Mail()\n        #specify server\n    mail=auth.settings.mailer\n    mail.settings.server = \'smtp.gmail.com:587\'\n    #specify address to send as\n    mail.settings.sender = \'themisdemo1@gmail.com\'\n    mail.settings.login = \'themisdemo1@gmail.com:123456asdfg\'\n    #send the message                             \n    mail.send(to=[\'sanjeet.tls@gmail.com\',\'prakhar.tls@gmail.com\'],\n            subject=\'Welcome User\',\n            message=\'<html>\'\n                        \'<body>\'\n                            \'<span style="font-family: Bodoni MT Ultra Bold;color:  #000000 ;font-size : 18pt;"><b>Themis </span></h1><span style="font-family: Bodoni MT Ultra Bold;color:#C7A317   ;font-size :18pt;"><b>Lexsol</b></span>\'\n                            \n                            \'<p>Dear &nbsp;\'+session.name+\'</p>\'\n                            \n                            \'<p>I just wanted to drop you a quick message to say thank you for joining the LCM Plus. I appreciate you taking the time to register and really look forward to reading your compliances. Your user name is \'+session.mail+\' and please click below to reset your password.<h1>http://jmdlcmplus.fluxflex.com/jmdlcmplus/default/user/request_reset_password</h1>If you need help at any time, please contact me by replying to this message. Similarly, if you ever have any questions then please do not hesitate to send me a message or email.</p>\'\n                            \'<center><p>_________________________________________________________</p><p style="color:red;font-size :5pt;">This email comes to you since your company has subcribed for LCM Plus. TO unsubcribed please contact to your Compliance Manager</p></center>\'\n                      \n                        \'</body>\'\n                    \'</html>\'\n                    \n  )\n    response.flash=\'mail send\'\n    return \'\'\r\n\ndef user():\n    """\n    exposes:\n    http://..../[app]/default/user/login\n    http://..../[app]/default/user/logout\n    http://..../[app]/default/user/register\n    http://..../[app]/default/user/profile\n    http://..../[app]/default/user/retrieve_password\n    http://..../[app]/default/user/change_password\n    use @auth.requires_login()\n        @auth.requires_membership(\'group name\')\n        @auth.requires_permission(\'read\',\'table name\',record_id)\n    to decorate functions that need access control\n    """\n    return dict(form=auth())\n\n\ndef download():\n    """\n    allows downloading of uploaded files\n    http://..../[app]/default/download/[filename]\n    """\n    return response.download(request,db)\n\n\ndef call():\n    """\n    exposes services. for example:\n    http://..../[app]/default/call/jsonrpc\n    decorate with @services.jsonrpc the functions to expose\n    supports xml, json, xmlrpc, jsonrpc, amfrpc, rss, csv\n    """\n    return service()\n\n\n@auth.requires_signature()\ndef data():\n    """\n    http://..../[app]/default/data/tables\n    http://..../[app]/default/data/create/[table]\n    http://..../[app]/default/data/read/[table]/[id]\n    http://..../[app]/default/data/update/[table]/[id]\n    http://..../[app]/default/data/delete/[table]/[id]\n    http://..../[app]/default/data/select/[table]\n    http://..../[app]/default/data/search/[table]\n    but URLs must be signed, i.e. linked with\n      A(\'table\',_href=URL(\'data/tables\',user_signature=True))\n    or with the signed load operator\n      LOAD(\'default\',\'data.load\',args=\'tables\',ajax=True,user_signature=True)\n    """\n    return dict(form=crud())\n    \ndef welcome():\n\t""" First page to be visited after installation. Will create necessary roles and permissions for admin and redirects to index."""\n\tcreate_user()\n\tcreate_group()\n\tcreate_membership()\n\tcreate_permission()\n\tsession.flash = "Welcome to Themis"\n\tredirect(URL(c=\'default\', f=\'index\'))\n\t\ndef create_user():\n\t username = \'admin\'\n\t password = username\n\t if \'username\' in auth.settings.table_user.fields():\n\t \tuserkey = \'username\'\n\t elif \'email\' in auth.settings.table_user.fields():\n\t \tuserkey = \'email\'\n\t \tusername = username + \'@themislexsol.com\'\n\t passfield = auth.settings.password_field \n\t user = db(auth.settings.table_user[userkey] == username).select().first()\n\t if not user:\n\t \tuser_id = db.auth_user.insert(**{userkey:username,passfield:CRYPT(auth.settings.hmac_key)(password)[0]})\n\t \tuser = auth.settings.table_user(user_id)\n\t return user\n\t \ndef create_group():\n    group = db(auth.settings.table_group.role == \'Admin\').select().first()\n    if not group:\n        group_id = auth.add_group(role = \'Admin\', description = \'All Permissions\')\n        group = auth.settings.table_group(group_id)\n    return group\n    \ndef create_membership():\n\tgroup = db(db.auth_group.role == \'Admin\').select().first()\n\tuser = db(db.auth_user.email == \'admin@themislexsol.com\').select().first()\n\tmembership = db(auth.settings.table_membership.group_id == group.id).select().first()\n\tif not membership:\n\t\tmembership_id = auth.add_membership(group_id = group.id, user_id = user.id)\n\t\tmembership = auth.settings.table_membership(membership_id)\n\treturn membership\n\t\ndef create_permission():\n\ttables = list(db.tables)\n\tfor table in tables:\n\t\tgroup = db(db.auth_group.role == \'Admin\').select().first()\n\t\tquery = auth.settings.table_permission.group_id == group.id\n\t\tquery = query & (auth.settings.table_permission.name == \'CRUD\')\n\t\tquery = query & (auth.settings.table_permission.table_name == table)\n\t\tpermission = db(query).select().first()\n\t\tif not permission:\n\t\t\tpermission_id = auth.add_permission(group_id = group.id, name = \'CRUD\', table_name = table)\n\t\t\tpermission = auth.settings.table_permission(permission_id)\n\treturn permission\n\t\ndef lgin(form):\n\tif auth.user.email == \'admin@themislexsol.com\':\n\t\tadmin=db(db.image.email==auth.user.email).select().first()\n\t\tif not admin:\n\t\t\tdb.image.insert(email=auth.user.email)\n\t\t\tredirect(URL(c=\'default\', f=\'admindash\'))\n\t\telse:\n\t\t\tredirect(URL(c=\'default\', f=\'admindash\'))\t\t\t\n\telse:\n\t\tredirect(URL(c=\'default\', f=\'emp_time\'))\n\treturn dict()\n\t\ndef lgout(usr):\n\tif auth.user.email == \'admin@themislexsol.com\':\n\t\tpass\n\telse:\n\t\timport datetime\n\t\timport time, os\n\t\tos.environ[\'TZ\'] = \'Asia/Kolkata\'\n\t\ttime.tzset()\n\t\tcurrentdate=datetime.date.today()\n\t\tnow = time.localtime(time.time())\n\t\tendtime=datetime.datetime.now()\n\t\tstarttime = session.starttime\n\t\tdelta = (endtime - starttime)\n\t\ttotalminutes = str(delta.seconds / 60)\n\t\ttotalhours = str(delta.seconds / 3600)\n\t\ttotmin = totalminutes + \'\\t min\'\n\t\ttothr = totalhours + \'\\t hrs\'\n\t\tcurrenttime = time.strftime("%H:%M:%S", now)\n\t\tdb((db.employee_login_detail.employee_email == auth.user.email) & (db.employee_login_detail.employee_login_date == currentdate) & (db.employee_login_detail.employee_login_time == session.cutime)).update(employee_logout_date=currentdate, employee_logout_time=currenttime, total_minutes=totmin, toal_hours=tothr)\n\t\tdb.commit()\n\treturn dict()\n\n#### Admin Controller Starts from here ####\t\n\t\n@auth.requires(auth.login() and auth.has_permission(\'CRUD\', \'auth_user\'))    \ndef admindash():\n\tfor row in db(db.image.email == auth.user.email).select():\n\t\timages=row.image\n\treturn dict(images=images)\t \n\n@auth.requires_permission(\'CRUD\', \'auth_user\')\t\t\ndef admin_organization():\n\tfor row in db(db.image.email == auth.user.email).select():\n\t\timages=row.image\n\tdb.add_new_organization.id.readable = False\n\tform=SQLFORM.grid(db.add_new_organization, selectable = lambda ids: del_org(ids))\n\treturn dict(images=images,form=form)\n\t\n@auth.requires_permission(\'CRUD\', \'auth_user\')\t\ndef del_org(ids):\n\tif not ids:\n\t\tresponse.flash=\'Please Select the Check-box to Delete\'\n\telse:\n\t\tfor row in ids:\n\t\t\tdb(db.add_new_organization.id == row).delete()\n\t\tpass\n\tpass\n\treturn \'\'\n\t\n@auth.requires_permission(\'CRUD\', \'auth_user\')\t\t\ndef admin_location():\n\tfor row in db(db.image.email == auth.user.email).select():\n\t\timages=row.image\n\tdb.add_new_location.id.readable = False\n\tform=SQLFORM.grid(db.add_new_location, selectable = lambda ids: del_loc(ids))\n\treturn dict(images=images,form=form)\n\t\n@auth.requires_permission(\'CRUD\', \'auth_user\')\t\ndef del_loc(ids):\n\tif not ids:\n\t\tresponse.flash=\'Please Select the Check-box to Delete\'\n\telse:\n\t\tfor row in ids:\n\t\t\tdb(db.add_new_location.id == row).delete()\n\t\tpass\n\tpass\n\treturn \'\'\n\t\n@auth.requires_permission(\'CRUD\', \'auth_user\')\t\t\ndef admin_department():\n\tfor row in db(db.image.email == auth.user.email).select():\n\t\timages=row.image\n\tdb.add_new_department.id.readable = False\n\tform=SQLFORM.grid(db.add_new_department, selectable = lambda ids: del_dpt(ids))\n\treturn dict(images=images,form=form)\n\t\n@auth.requires_permission(\'CRUD\', \'auth_user\')\t\ndef del_dpt(ids):\n\tif not ids:\n\t\tresponse.flash=\'Please Select the Check-box to Delete\'\n\telse:\n\t\tfor row in ids:\n\t\t\tdb(db.add_new_department.id == row).delete()\n\t\tpass\n\tpass\n\treturn \'\'\n\n@auth.requires_permission(\'CRUD\', \'auth_user\')\t\ndef locn(): \n\torg = request.vars.org\n\tloc = db(db.add_new_location.organization_name == org).select()\n\treturn SELECT(_id="locn",_name="locn",*[OPTION(loc [i].location, _value=str (loc[i].location)) for i in range(len(loc))])\n\n@auth.requires_permission(\'CRUD\', \'auth_user\')\t  \ndef admin_newuser():\n\tfor row in db(db.image.email == auth.user.email).select():\n\t\timages=row.image\n\tdb.auth_user.id.readable = False\n\tform=SQLFORM.grid(db.auth_user, create=False, selectable = lambda ids: del_emp(ids))\n\treturn dict(images=images,form=form)\n\t\n@auth.requires_permission(\'CRUD\', \'auth_user\')\t\ndef del_emp(ids):\n\tif not ids:\n\t\tresponse.flash=\'Please Select the Check-box to Delete\'\n\telse:\n\t\tfor row in ids:\n\t\t\tdb(db.auth_user.id == row).delete()\n\t\tpass\n\tpass\n\treturn \'\'\n\n@auth.requires_permission(\'CRUD\', \'auth_user\')\t\ndef admin_create_new_user():\n\tfor row in db(db.image.email == auth.user.email).select():\n\t\timages=row.image\n\t\n\tadmin_create_new_user.count=0\n\tdef counting():\n\t\tfor row in db(db.auth_user.id >= 1).select():\n\t\t\tadmin_create_new_user.count += 1\n\tcounting()\n\tcount=admin_create_new_user.count\n\tprefix=\'00\'\n\tpre=\'0\'\n\tpr=\'\'\n\tif count < 10:\n\t\tid=prefix+str(count)\n\telif count >= 10 and count <= 99:\n\t\tid=pre+str(count)\n\telse:\n\t\tid=pr+str(count)\n\t\t\n\torg = db().select(db.add_new_organization.ALL)\n\tdpt = db().select(db.add_new_department.ALL)\n\trmgr = db().select(db.auth_user.ALL)\n\tstat = [\'Active\',\'Terminated\',\'Resigned\',\'Leave-of-Absence\',\'Deceased\']\n\t\n\tif request.vars.mailerror:\n\t\tvar = \'This email (\'+request.vars.mailerror+\') is allready taken. Please choose another email address.\'\n\telif request.vars.mailerr:\n\t\tvar = \'This email (\'+request.vars.mailerr+\') is Successfully Registered with HRMS.\'\n\telse:\n\t\tvar = \'Add New Employee\'\n\treturn dict(images=images, org=org, dpt=dpt, stat=stat, id=id, var=var,rmgr=rmgr)\n\t\n@auth.requires_permission(\'CRUD\', \'auth_user\')\t\ndef admin_submit_newuser():\n\tfor row in db(db.auth_user.email==request.vars.orgemail).select():\n\t\tsession.regmail=row.email\n\t\tpass\n\tif session.regmail == request.vars.orgemail:\n\t\tredirect(URL(c=\'default\', f=\'admin_create_new_user\', vars={\'mailerror\' :request.vars.orgemail}))\n\telse:\n\t\tsession.mail = request.vars.orgemail\n\t\tsession.pmail = request.vars.pemail\n\t\tsession.fname = request.vars.fname\n\t\tsession.mgr = request.vars.rmgr\n\t\tfor row1 in db(db.add_new_organization.id==request.vars.org).select():\n\t\t\tpr = row1.organization_prefix\n\t\t\tcmpny = row1.organization_name\n\t\tprefix = str(pr+request.vars.empcode)\n\t\tdb.auth_user.bulk_insert([{\'first_name\' : session.fname,\'last_name\' : request.vars.lname,\'email\' : session.mail,\'password\' : db.auth_user.password.validate(\'1234\')[0],\'organization_name\' : cmpny, \'location\' : request.vars.locn, \'department\' : request.vars.dpt, \'employee_code\' : prefix, \'personal_email\' : session.pmail, \'date_of_joining\' : request.vars.doj, \'reporting_manager\' : request.vars.rmgr, \'designation\' : request.vars.dgn, \'employee_status\' : request.vars.stat}])\n\t\tcreate_emp_group()\n\t\tcreate_emp_membership()\n\t\tcreate_emp_permission()\n\t\tcreate_mgr_group()\n\t\tcreate_mgr_membership()\n\t\tcreate_mgr_permission()\n\t\tdb.personal_information.insert(email=session.mail,employee_code=prefix)\n\t\tdb.qualification.insert(email=session.mail,employee_code=prefix)\n\t\tdb.document.insert(email=session.mail,employee_code=prefix)\n\t\tdb.image.insert(email=session.mail,employee_code=prefix)\n\t\t\n\t\ttotvacationleave=18\n\t\ttotmedicalleave=6\n\t\ttotcasualleave=6\n\t\timport datetime\n\t\tmonth = datetime.datetime.now().month\n\t\ttotmonth = 12\n\t\tcurmnth = totmonth - month\n\t\tvacleave = int(curmnth * 1.5)\n\t\tmedleave = int(curmnth * 0.5)\n\t\tcasulleave = int(curmnth * 0.5)\n\t\ttackenvacleave = 0\n\t\ttackenmedleave = 0\n\t\ttakencasulleave = 0\n\t\tdb.employee_leave.insert(employee_code=prefix,email=session.mail,taken_vacation_leave=tackenvacleave,taken_medical_leave=tackenmedleave,taken_casual_leave=takencasulleave,left_vacation_leave=vacleave,left_medical_leave=medleave,left_casual_leave=casulleave)\n\t\tdb.commit()\n\t\twelcome_mail()\n\t\tredirect(URL(c=\'default\', f=\'admin_create_new_user\', vars={\'mailerr\' :request.vars.orgemail}))\n\treturn dict()\n\t\n@auth.requires_permission(\'CRUD\', \'auth_user\')\r\ndef welcome_mail():\r\n    from gluon.tools import Mail\r\n    mail=Mail()\r\n    #specify server\n    \n    mail=auth.settings.mailer\r\n    mail.settings.server=\'smtp.gmail.com:587\'\r\n    mail.settings.login=\'themisdemo1@gmail.com:123456asdfg\'\r\n    #specify address to send as\r\n    mail.settings.sender=\'themisdemo1@gmail.com\'\r\n    #send the message                             \r\n    mail.send(to=[session.mail, session.pmail],\r\n            subject=\'Welcome User\',\r\n            message=\'<html>\'\r\n                        \'<body>\'\r\n                            \'<span style="font-family: Bodoni MT Ultra Bold;color:  #000000 ;font-size : 18pt;"><b>Themis </span></h1><span style="font-family: Bodoni MT Ultra Bold;color:#C7A317   ;font-size :18pt;"><b>Lexsol</b></span>\'\r\n                            \r\n                            \'<p>Dear &nbsp;\'+session.fname+\'</p>\'\r\n                            \r\n                            \'<p>I just wanted to drop you a quick message to say thank you for joining the Themis Lexsol.Your user name is \'+session.mail+\' and please click below to reset your password.<h1>http://jmdlcmplus.fluxflex.com/jmdlcmplus/default/user/request_reset_password</h1>If you need help at any time, please contact me by replying to this message. Similarly, if you ever have any questions then please do not hesitate to send me a message or email.</p>\'\r\n                            \'<center><p>_________________________________________________________</p><p style="color:red;font-size :5pt;">This email comes to you since your company has subcribed for LCM Plus. TO unsubcribed please contact to Themis Lexsol</p></center>\'\r\n                      \r\n                        \'</body>\'\r\n                    \'</html>\'\r\n                    \r\n  )\r\n    response.flash=\'mail send\'\r\n    return \'\'\t\n\t\n@auth.requires_permission(\'CRUD\', \'auth_user\')    \ndef create_emp_group():\r\n    group = db(auth.settings.table_group.role == \'Emp\').select().first()\r\n    if not group:\r\n        group_id = auth.add_group(role = \'Emp\', description = \'Only Employee Permissions\')\r\n        group = auth.settings.table_group(group_id)\r\n    return group\n\n@auth.requires_permission(\'CRUD\', \'auth_user\')    \ndef create_emp_membership():\r\n\tgroup = db(db.auth_group.role == \'Emp\').select().first()\r\n\tuser = db(db.auth_user.email == session.mail).select().first()\r\n\tmembership = db((auth.settings.table_membership.group_id == group.id) & (auth.settings.table_membership.user_id == user.id)).select().first()\r\n\tif not membership:\r\n\t\tmembership_id = auth.add_membership(group_id = group.id, user_id = user.id)\r\n\t\tmembership = auth.settings.table_membership(membership_id)\r\n\treturn membership\n\n@auth.requires_permission(\'CRUD\', \'auth_user\')\t\ndef create_emp_permission():\r\n\tgroup = db(db.auth_group.role == \'Emp\').select().first()\n\tquery = auth.settings.table_permission.group_id == group.id\n\tquery = query & (auth.settings.table_permission.name == \'Emp\')\n\tpermission = db(query).select().first()\n\tif not permission:\n\t\tpermission_id = auth.add_permission(group_id = group.id, name = \'Emp\', table_name = \'auth_user\')\n\t\tpermission = auth.settings.table_permission(permission_id)\n\treturn permission\n\t\n@auth.requires_permission(\'CRUD\', \'auth_user\')    \ndef create_mgr_group():\n    group = db(auth.settings.table_group.role == \'Mgr\').select().first()\n    if not group:\n        group_id = auth.add_group(role = \'Mgr\', description = \'Only Manager Permissions\')\n        group = auth.settings.table_group(group_id)\n    return group\n\n@auth.requires_permission(\'CRUD\', \'auth_user\')    \ndef create_mgr_membership():\n\tgroup = db(db.auth_group.role == \'Mgr\').select().first()\n\tuser = db(db.auth_user.email == session.mgr).select().first()\n\tmembership = db((auth.settings.table_membership.group_id == group.id) & (auth.settings.table_membership.user_id == user.id)).select().first()\n\tif not membership:\n\t\tmembership_id = auth.add_membership(group_id = group.id, user_id = user.id)\n\t\tmembership = auth.settings.table_membership(membership_id)\n\treturn membership\n\n@auth.requires_permission(\'CRUD\', \'auth_user\')\t\ndef create_mgr_permission():\n\tgroup = db(db.auth_group.role == \'Mgr\').select().first()\n\tquery = auth.settings.table_permission.group_id == group.id\n\tquery = query & (auth.settings.table_permission.name == \'Mgr\')\n\tpermission = db(query).select().first()\n\tif not permission:\n\t\tpermission_id = auth.add_permission(group_id = group.id, name = \'Mgr\', table_name = \'auth_user\')\n\t\tpermission = auth.settings.table_permission(permission_id)\n\treturn permission\n\n@auth.requires_permission(\'CRUD\', \'auth_user\')\t\ndef admin_newholiday():\n\tfor row in db(db.image.email == auth.user.email).select():\n\t\timages=row.image\n\tdb.holiday_list.id.readable=False\n\tform=SQLFORM.grid(db.holiday_list, selectable = lambda ids: del_hlist(ids))\n\treturn dict(images=images,form=form)\n\t\n@auth.requires_permission(\'CRUD\', \'auth_user\')\t\ndef del_hlist(ids):\n\tif not ids:\n\t\tresponse.flash=\'Please Select the Check-box to Delete\'\n\telse:\n\t\tfor row in ids:\n\t\t\tdb(db.holiday_list.id == row).delete()\n\t\tpass\n\tpass\n\treturn \'\'\n\n@auth.requires_permission(\'CRUD\', \'auth_user\')    \ndef addthemis():\n\tfor row in db(db.image.email == auth.user.email).select():\n\t\timages=row.image\n\treturn dict(images=images)\n\n@auth.requires_permission(\'CRUD\', \'auth_user\')\t\ndef admin_timesheet():\n\tfor row in db(db.image.email == auth.user.email).select():\n\t\timages=row.image\n\treturn dict(images=images)\n\t\n@auth.requires_permission(\'CRUD\', \'auth_user\')\t\ndef admin_attendance():\n\tfor row in db(db.image.email == auth.user.email).select():\n\t\timages=row.image\n\tdb.employee_login_detail.id.readable=False\n\tform=SQLFORM.grid(db.employee_login_detail, selectable = lambda ids: del_att(ids))\n\treturn dict(form=form,images=images)\n\t\n@auth.requires_permission(\'CRUD\', \'auth_user\')\t\ndef del_att(ids):\n\tif not ids:\n\t\tresponse.flash=\'Please Select the Check-box to Delete\'\n\telse:\n\t\tfor row in ids:\n\t\t\tdb(db.employee_login_detail.id == row).delete()\n\t\tpass\n\tpass\n\treturn \'\'\n\n@auth.requires_permission(\'CRUD\', \'auth_user\')\t\t\ndef admin_report():\n\tfor row in db(db.image.email == auth.user.email).select():\n\t\timages=row.image\n\treturn dict(images=images)\n\n@auth.requires_permission(\'CRUD\', \'auth_user\')    \ndef admin_mydoc():\n\tfor row in db(db.image.email == auth.user.email).select():\n\t\timages=row.image\n\treturn dict(images=images)\n\n@auth.requires_permission(\'CRUD\', \'auth_user\')\t\t\ndef admin_salary():\n\tfor row in db(db.image.email == auth.user.email).select():\n\t\timages=row.image\n\treturn dict(images=images)\n\t\n@auth.requires_permission(\'CRUD\', \'auth_user\')\ndef admin_update_image():\n\tfor row in db(db.image.email == auth.user.email).select():\n\t\timages=row.image\n\tfor row1 in db(db.image.email == auth.user.email).select():\n\t\tmail=row.email\n\t\tecode=row.employee_code\n\t\t\n\tdb.image.email.writable=False\n\tdb.image.employee_code.writable=db.image.employee_code.readable=False\n\tdb.image.email.default=mail\n\tform=SQLFORM(db.image)\n\tif form.accepts(request.vars, session):\n\t\timg = form.vars.image\n\t\tdb(db.image.email == auth.user.email).update(image=img)\n\t\tredirect(URL(c=\'default\', f=\'admindash\'))\n\treturn dict(images=images,form=form)\n\n@auth.requires_permission(\'CRUD\', \'auth_user\')\t\ndef admin_calendar():\n\tfor row in db(db.image.email == auth.user.email).select():\n\t\timages=row.image\n\tcaland=db().select(db.holiday_list.ALL)\r\n\treturn dict(images=images,rows=caland)\n\n@auth.requires_permission(\'CRUD\', \'auth_user\')\t\ndef admin_calread():\r\n    record = db.holiday_list(request.args(0)) or redirect(URL(\'error\'))\r\n    form=crud.read(db.holiday_list,record)\r\n    return dict(form=form)\n    \n@auth.requires_permission(\'CRUD\', \'auth_user\')\t\ndef admin_leave_stat():\n\tfor row in db(db.image.email == auth.user.email).select():\n\t\timages=row.image\n\tadminleave=db().select(db.apply_leave.ALL)\n\treturn dict(images=images,adminleave=adminleave)\n\n@auth.requires_permission(\'CRUD\', \'auth_user\')\t\t\ndef admin_edit_leave():\n\tfor row in db(db.image.email == auth.user.email).select():\n\t\timages=row.image\n\tfor row in db(db.apply_leave.id==request.args(0)).select():\n\t\tid=row.id\n\t\teid=row.employee_code\n\t\testat=row.status\n\t\teltype=row.leave_type\n\t\tefrom=row.from_leave\n\t\teto=row.to_leave\n\t\tereason=row.reason_for_leave\n\t\tetotday=row.total_day\n\treturn dict(id=id,images=images,eid=eid,estat=estat,eltype=eltype,efrom=efrom,eto=eto,ereason=ereason,etotday=etotday)\n\n@auth.requires_permission(\'CRUD\', \'auth_user\')\t\ndef admin_approve_leave():\n\tfor row in db(db.apply_leave.id==request.args(0)).select():\n\t\tsession.lmail=row.email\n\t\tsession.empname=row.name\n\t\tsession.efrom=row.from_leave\n\t\tsession.eto=row.to_leave\n\t\tsession.status=request.vars.status\n\t\tsession.ltype=row.leave_type\n\t\tsession.tday=row.total_day\n\tif session.status == \'Approved\':\n\t\tif session.ltype == \'Casual Leave\':\n\t\t\tfor row in db(db.employee_leave.email==session.lmail).select():\n\t\t\t\ttotday=row.left_casual_leave - session.tday\n\t\t\tdb(db.apply_leave.id==request.args(0)).update(status=session.status, approved_by=\'Administrator\')\n\t\t\tdb(db.employee_leave.email==session.lmail).update(taken_casual_leave=session.tday,left_casual_leave=totday)\n\t\t\tdb.commit()\n\t\t\tredirect(URL(c=\'default\', f=\'admin_leave_mail\'))\n\t\telif session.ltype == \'Medical Leave\':\n\t\t\tfor row in db(db.employee_leave.email==session.lmail).select():\n\t\t\t\ttotday=row.left_medical_leave - session.tday\n\t\t\tdb(db.apply_leave.id==request.args(0)).update(status=session.status, approved_by=\'Administrator\')\n\t\t\tdb(db.employee_leave.email==session.lmail).update(taken_medical_leave=session.tday,left_medical_leave=totday)\n\t\t\tdb.commit()\n\t\t\tredirect(URL(c=\'default\', f=\'admin_leave_mail\'))\n\t\telif session.ltype == \'Vacation Leave\':\n\t\t\tfor row in db(db.employee_leave.email==session.lmail).select():\n\t\t\t\ttotday=row.left_vacation_leave - session.tday\n\t\t\tdb(db.apply_leave.id==request.args(0)).update(status=session.status, approved_by=\'Administrator\')\n\t\t\tdb(db.employee_leave.email==session.lmail).update(taken_vacation_leave=session.tday,left_vacation_leave=totday)\n\t\t\tdb.commit()\n\t\t\tredirect(URL(c=\'default\', f=\'admin_leave_mail\'))\n\t\telse:\n\t\t\tpass\n\telse:\n\t\tdb(db.apply_leave.id==request.args(0)).update(status=session.status, approved_by=\'Administrator\')\n\t\tdb.commit()\n\t\tredirect(URL(c=\'default\', f=\'admin_leave_mail\'))\n\treturn \'\'\n\n@auth.requires_permission(\'CRUD\', \'auth_user\')\ndef admin_edit_leave_status():\n\tfor row2 in db(db.image.email == auth.user.email).select():\n\t\timages=row2.image\n\tltype=[\'Casual Leave\',\'Medical Leave\',\'Vacation Leave\']\n\tsession.eleaveid=request.args(0)\n\tfor row in db(db.apply_leave.id==session.eleaveid).select():\n\t\tecode=row.employee_code\n\t\tname=row.name\n\t\tfle=row.from_leave\n\t\ttle=row.to_leave\n\t\ttday=row.total_day\n\t\trle=row.reason_for_leave\n\treturn dict(ltype=ltype,images=images,ecode=ecode,name=name,fle=fle,tle=tle,tday=tday,rle=rle)\n\n@auth.requires_permission(\'CRUD\', \'auth_user\')\t\ndef admin_submit_edit_leave_status():\n\tdb(db.apply_leave.id == session.eleaveid).update(name=request.vars.name, leave_type=request.vars.ltype, from_leave=request.vars.fleave, to_leave=request.vars.tleave, total_day=request.vars.tday, reason_for_leave=request.vars.rleave)\n\tdb.commit()\n\tredirect(URL(c=\'default\',f=\'admin_leave_stat\'))\n\treturn \'\'\n\n@auth.requires_permission(\'CRUD\', \'auth_user\')\ndef admin_leave_mail():\n    from gluon.tools import Mail\n    mail=Mail()\n    #specify server\n    mail=auth.settings.mailer\n    mail.settings.server=\'smtp.gmail.com:587\'\n    mail.settings.login=\'themisdemo1@gmail.com:123456asdfg\'\n    #specify address to send as\n    mail.settings.sender=\'themisdemo1@gmail.com\'\n    #send the message                             \n    mail.send(to=[session.lmail],\n            subject=\'Leave Status\',\n            message=\'<html>\'\n                        \'<body>\'\n                            \'<span style="font-family: Bodoni MT Ultra Bold;color:  #000000 ;font-size : 18pt;"><b>Themis </span></h1><span style="font-family: Bodoni MT Ultra Bold;color:#C7A317   ;font-size :18pt;"><b>Lexsol</b></span>\'\n                            \n                            \'<p>Dear &nbsp;\'+session.empname+\'</p>\'\n                            \n                            \'<p>I just wanted to drop you a quick message to say Your leave request from \'+str(session.efrom)+\' to \'+str(session.eto)+\' is \'+session.status+\' If you need help at any time, please contact me by replying to this message. Similarly, if you ever have any questions then please do not hesitate to send me a message or email.</p>\'\n                            \'<center><p>_________________________________________________________</p><p style="color:red;font-size :5pt;">This email comes to you since you are subcribed for HRMS. TO unsubcribed please contact to Themis Lexsol</p></center>\'\n                      \n                        \'</body>\'\n                    \'</html>\'\n                    \n  )\n    redirect(URL(c=\'default\', f=\'admin_cnf_leave\'))\t\n    return \'\'\n    \n@auth.requires_permission(\'CRUD\', \'auth_user\')\t\ndef admin_cnf_leave():\n\tfor row2 in db(db.image.email == auth.user.email).select():\n\t\timages=row2.image\n\treturn dict(images=images,status=session.status,efrom=session.efrom,eto=session.eto,empname=session.empname)\n\t\n@auth.requires_permission(\'CRUD\', \'auth_user\')\t\ndef admin_contact_detail():\n\tfor row2 in db(db.image.email == auth.user.email).select():\n\t\timages=row2.image\n\treturn dict(images=images)\n\n@auth.requires_permission(\'CRUD\', \'auth_user\')\t\ndef admin_add_project():\n\tfor row2 in db(db.image.email == auth.user.email).select():\n\t\timages=row2.image\n\t\n\treturn dict(images=images)\n\n@auth.requires_permission(\'CRUD\', \'auth_user\')\t\ndef admin_submit_project():\n\tfor row2 in db(db.image.email == auth.user.email).select():\n\t\timages=row2.image\n\t\n\treturn dict(images=images)\n\t\n@auth.requires_permission(\'CRUD\', \'auth_user\')\ndef admin_assign_project():\n\tfor row2 in db(db.image.email == auth.user.email).select():\n\t\timages=row2.image\n\treturn dict(images=images)\n\t\n\n#### Employee Controller Starts from here ####\n\ndef emp_time():\n\timport datetime\n\timport time, os\n\tos.environ[\'TZ\'] = \'Asia/Kolkata\'\n\ttime.tzset()\n\tnow = time.localtime(time.time())\n\tsession.cutime = time.strftime("%H:%M:%S", now)\t\n\tredirect(URL(c=\'default\',f=\'employee\'))\n\treturn \'\'\n\n@auth.requires(auth.login() and auth.has_permission(\'Emp\', \'auth_user\'))\ndef employee():\n\tresponse.flash = "Welcome to Employee Lgoin"\n\tfor row in db(db.image.email == auth.user.email).select():\n\t\timages=row.image\n\tllgin=[]\n\tfor log in db(db.employee_login_detail.employee_logout_date==\'Logged in\').select():\n\t\tllgin.append(log.employee_name)\n\tblgin=set(llgin)\n\talgin=list(blgin)\n\t\t\n\tipa = request.env.remote_addr\n\tipaddr = str(ipa[33:])\n\timport datetime\n\timport time, os\n\tos.environ[\'TZ\'] = \'Asia/Kolkata\'\n\ttime.tzset()\n\tcurrentdate=datetime.date.today()\n\tnow = time.localtime(time.time())\n\tstarttime = datetime.datetime.now()\n\tsession.starttime = starttime\n\tcurrenttime = time.strftime("%H:%M:%S", now)\n\tsession.time = currenttime\n\tif session.cutime == session.time:\n\t\tfor row in db(db.auth_user.email == auth.user.email).select(db.auth_user.first_name, db.auth_user.employee_code):\n\t\t\tfirstname=row.first_name\n\t\t\tempcode=row.employee_code\n\t\tdb.employee_login_detail.insert(employee_code = empcode, employee_email = auth.user.email, employee_name=firstname, employee_login_date=currentdate, employee_login_time=currenttime, ip_address=ipaddr)\n\t\tdb.commit()\n\telse:\n\t\tpass\n\treturn dict(algin=algin,images=images)\t\n\n@auth.requires_permission(\'Emp\', \'auth_user\')\t\ndef emp_mydoc():\n\tfor row in db(db.image.email == auth.user.email).select():\n\t\timages=row.image\n\t\n\tllgin=[]\n\tfor log in db(db.employee_login_detail.employee_logout_date==\'Logged in\').select():\n\t\tllgin.append(log.employee_name)\n\tblgin=set(llgin)\n\talgin=list(blgin)\t\n\tfor row in db(db.auth_user.email==auth.user.email).select(db.auth_user.employee_code):\r\n\t\t\tecode=row.employee_code\n\t\t\t\n\tdb.document.id.readable=False\t\n\tdb.document.email.writable=False\n\tdb.document.email.default=auth.user.email\n\tdb.document.employee_code.writable=False\n\tdb.document.employee_code.default=ecode\n\ttable=SQLFORM.grid(db.document.email==auth.user.email)\n\treturn dict(algin=algin,images=images,table=table)\n\n@auth.requires_permission(\'Emp\', \'auth_user\')\t\ndef emp_compliance():\n\tfor row in db(db.image.email == auth.user.email).select():\n\t\timages=row.image\n\t\t\n\tllgin=[]\n\tfor log in db(db.employee_login_detail.employee_logout_date==\'Logged in\').select():\n\t\tllgin.append(log.employee_name)\n\tblgin=set(llgin)\n\talgin=list(blgin)\n\treturn dict(algin=algin,images=images)\n\n@auth.requires_permission(\'Emp\', \'auth_user\')\t\ndef emp_all():\n\tfor row in db(db.image.email == auth.user.email).select():\n\t\timages=row.image\n\tllgin=[]\n\tfor log in db(db.employee_login_detail.employee_logout_date==\'Logged in\').select():\n\t\tllgin.append(log.employee_name)\n\tblgin=set(llgin)\n\talgin=list(blgin)\n\treturn dict(algin=algin,images=images)\n\n@auth.requires_permission(\'Emp\', \'auth_user\')   \ndef emp_myprofile():\n\tfor row2 in db(db.image.email == auth.user.email).select():\n\t\timages=row2.image\n\t\t\n\tllgin=[]\n\tfor log in db(db.employee_login_detail.employee_logout_date==\'Logged in\').select():\n\t\tllgin.append(log.employee_name)\n\tblgin=set(llgin)\n\talgin=list(blgin)\n\tfor row in db(db.auth_user.email == auth.user.email).select():\n\t\tempcode=row.employee_code\n\t\tempfname=row.first_name\n\t\templname=row.last_name\n\t\tempemail=auth.user.email \n\t\temppemail=row.personal_email\n\t\tempdoj=row.date_of_joining\n\t\tempdpt=row.department\n\t\temprptmgr=row.reporting_manager\n\t\tempdgn=row.designation\n\t\t\n\tfor row1 in db(db.personal_information.email == auth.user.email).select():\n\t\tsession.empdob=row1.date_of_birth\n\t\tsession.empgndr=row1.gender\n\t\tsession.empstatus=row1.marital_status\n\t\tsession.empgrp=row1.blood_group\n\t\tsession.empmbl=row1.mobile\n\t\tsession.empphone=row1.phone\n\t\tsession.emppaddr=row1.present_address\n\t\tsession.empperaddr=row1.permanent_address\n\t\tsession.empctz=row1.citizenship\n\t\tsession.empst=row1.state\n\t\tsession.emppassno=row1.passport_no\n\t\tsession.empbank=row1.bank_account_no\n\t\tsession.emppancard=row1.pan_card_no\r\n\tedtable = db(db.qualification.email==auth.user.email).select(db.qualification.ALL) \n\treturn dict(algin=algin,images=images,empcode=empcode,empfname=empfname,emplname=emplname,empemail=empemail,emppemail=emppemail,empdoj=empdoj,empdpt=empdpt,emprptmgr=emprptmgr,empdgn=empdgn,empdob=session.empdob,empgndr=session.empgndr,empstatus=session.empstatus,empgrp=session.empgrp,empmbl=session.empmbl,empphone=session.empphone,emppaddr=session.emppaddr,empperaddr=session.empperaddr,empctz=session.empctz,empst=session.empst,emppassno=session.emppassno,empbank=session.empbank,emppancard=session.emppancard,edtable=edtable)\n\n@auth.requires_permission(\'Emp\', \'auth_user\')\t\ndef emp_update_edu_info():\n\tfor row in db(db.image.email == auth.user.email).select():\n\t\timages=row.image\n\tllgin=[]\n\tfor log in db(db.employee_login_detail.employee_logout_date==\'Logged in\').select():\n\t\tllgin.append(log.employee_name)\n\tblgin=set(llgin)\n\talgin=list(blgin)\n\t\t\n\tfor row in db(db.auth_user.email==auth.user.email).select(db.auth_user.employee_code):\r\n\t\t\tecode=row.employee_code\n\t\t\t\n\tdb.qualification.id.readable=False\t\n\tdb.qualification.email.writable=False\n\tdb.qualification.email.default=auth.user.email\n\tdb.qualification.employee_code.writable=False\n\tdb.qualification.employee_code.default=ecode\n\ttable=SQLFORM.grid(db.qualification.email==auth.user.email)\n\treturn dict(algin=algin,images=images,table=table)\n\n@auth.requires_permission(\'Emp\', \'auth_user\')\ndef emp_update_personal_info():\n\tfor row1 in db(db.image.email == auth.user.email).select():\n\t\timages=row1.image\n\tllgin=[]\n\tfor log in db(db.employee_login_detail.employee_logout_date==\'Logged in\').select():\n\t\tllgin.append(log.employee_name)\n\tblgin=set(llgin)\n\talgin=list(blgin)\n\t\n\tfor row in db(db.personal_information.email == auth.user.email).select():\n\t\tecode=row.employee_code\n\t\tdbr=row.date_of_birth\n\t\tgndr=row.gender\n\t\tmstat=row.marital_status\n\t\tbgrp=row.blood_group\n\t\tmbl=row.mobile\n\t\tph=row.phone\n\t\tpaddr=row.present_address\n\t\tperaddr=row.permanent_address\n\t\tctz=row.citizenship\n\t\tst=row.state\n\t\tpno=row.passport_no\n\t\tbno=row.bank_account_no\n\t\tpcard=row.pan_card_no\t\t\n\t\t\n\tdb.personal_information.email.writable=False\n\tdb.personal_information.employee_code.writable=False\n\tdb.personal_information.email.default=auth.user.email\n\tdb.personal_information.employee_code.default=ecode\n\t\n\tdb.personal_information.date_of_birth.default=dbr \n\tdb.personal_information.gender.default=gndr\n\tdb.personal_information.marital_status.default=mstat\n\tdb.personal_information.blood_group.default=bgrp\n\tdb.personal_information.mobile.default=mbl\n\tdb.personal_information.phone.default=ph\n\tdb.personal_information.present_address.default=paddr \n\tdb.personal_information.permanent_address.default=peraddr\n\tdb.personal_information.citizenship.default=ctz\n\tdb.personal_information.state.default=st\n\tdb.personal_information.passport_no.default=pno\n\tdb.personal_information.bank_account_no.default=bno\n\tdb.personal_information.pan_card_no.default=pcard \n\t\n\tform = SQLFORM(db.personal_information)\n\tif form.accepts(request.vars, session):\n\t\tdob = form.vars.date_of_birth\n\t\tgndr = form.vars.gender\n\t\tmstatus = form.vars.marital_status\n\t\tbgrp = form.vars.blood_group\n\t\tmbl = form.vars.mobile\n\t\tphone = form.vars.phone\n\t\tpaddr = form.vars.present_address\n\t\tperaddr = form.vars.permanent_address\n\t\tctz = form.vars.citizenship\n\t\tst = form.vars.state\n\t\tpno = form.vars.passport_no\n\t\tbaccno = form.vars.bank_account_no\n\t\tpcard = form.vars.pan_card_no\n\t\timg = form.vars.image\n\t\tdb(db.personal_information.email == auth.user.email).update(date_of_birth=dob, gender=gndr, marital_status=mstatus, blood_group=bgrp, mobile=mbl, phone=phone, present_address=paddr, permanent_address=peraddr, citizenship=ctz, state=st, passport_no=pno, bank_account_no=baccno, pan_card_no=pcard)\n\t\tredirect(URL(c=\'default\', f=\'emp_myprofile\'))\n\treturn dict(algin=algin,form=form,images=images)\n\n@auth.requires_permission(\'Emp\', \'auth_user\')\ndef emp_update_image():\n\tfor row in db(db.image.email == auth.user.email).select():\n\t\timages=row.image\n\t\t\n\tllgin=[]\n\tfor log in db(db.employee_login_detail.employee_logout_date==\'Logged in\').select():\n\t\tllgin.append(log.employee_name)\n\tblgin=set(llgin)\n\talgin=list(blgin)\n\tfor row1 in db(db.image.email == auth.user.email).select():\n\t\tmail=row.email\n\t\tecode=row.employee_code\n\t\t\n\tdb.image.email.writable=False\n\tdb.image.employee_code.writable=db.image.employee_code.readable=False\n\tdb.image.email.default=mail\n\tform=SQLFORM(db.image)\n\tif form.accepts(request.vars, session):\n\t\timg = form.vars.image\n\t\tdb(db.image.email == auth.user.email).update(image=img)\n\t\tredirect(URL(c=\'default\', f=\'emp_myprofile\'))\n\treturn dict(algin=algin,images=images,form=form)\n\n@auth.requires_permission(\'Emp\', \'auth_user\')\ndef emp_company():\n\tfor row in db(db.image.email == auth.user.email).select():\n\t\timages=row.image\n\t\t\n\tllgin=[]\n\tfor log in db(db.employee_login_detail.employee_logout_date==\'Logged in\').select():\n\t\tllgin.append(log.employee_name)\n\tblgin=set(llgin)\n\talgin=list(blgin)\n\treturn dict(algin=algin,images=images)\n\n@auth.requires_permission(\'Emp\', \'auth_user\')\t\ndef emp_organization():\n\tfor row in db(db.image.email == auth.user.email).select():\n\t\timages=row.image\n\tllgin=[]\n\tfor log in db(db.employee_login_detail.employee_logout_date==\'Logged in\').select():\n\t\tllgin.append(log.employee_name)\n\tblgin=set(llgin)\n\talgin=list(blgin)\n\treturn dict(algin=algin,images=images)\n\n@auth.requires_permission(\'Emp\', \'auth_user\')\t\ndef emp_leavecalendar():\n\tfor row in db(db.image.email == auth.user.email).select():\n\t\timages=row.image\n\t\n\tllgin=[]\n\tfor log in db(db.employee_login_detail.employee_logout_date==\'Logged in\').select():\n\t\tllgin.append(log.employee_name)\n\tblgin=set(llgin)\n\talgin=list(blgin)\n\ttotvacationleave=18\n\ttotmedicalleave=6\n\ttotcasualleave=6\n\templeave = db(db.employee_leave.email==auth.user.email).select(db.employee_leave.ALL)\n\tempstat = db(db.apply_leave.email==auth.user.email).select(db.apply_leave.ALL)\n\treturn dict(algin=algin,empstat=empstat,images=images,empleave=empleave,totvacationleave=totvacationleave,totmedicalleave=totmedicalleave,totcasualleave=totcasualleave)\n\t\ndef cron_leave():\n\ttotvacationleave=18\n\ttotmedicalleave=6\n\ttotcasualleave=6\n\ttvl=0\n\ttml=0\n\ttcl=0\n\tfor row in db(db.employee_leave.id>0).select():\n\t\tfor row1 in db(db.employee_leave.id==row.id).select():\n\t\t\ttotvacleave = totvacationleave + row1.left_vacation_leave\n\t\t\tdb(db.employee_leave.id==row.id).update(taken_vacation_leave=tvl, taken_medical_leave=tml, taken_casual_leave=tcl, left_vacation_leave=totvacleave, left_medical_leave=totmedicalleave, left_casual_leave=totcasualleave)\n\t\t\tdb.commit()\n\treturn \'\'\t\n\t\n@auth.requires_permission(\'Emp\', \'auth_user\')\t\ndef emp_calendar():\n\tfor row in db(db.image.email == auth.user.email).select():\n\t\timages=row.image\n\t\t\n\tllgin=[]\n\tfor log in db(db.employee_login_detail.employee_logout_date==\'Logged in\').select():\n\t\tllgin.append(log.employee_name)\n\tblgin=set(llgin)\n\talgin=list(blgin)\n\tcaland=db().select(db.holiday_list.ALL)\r\n\treturn dict(algin=algin,images=images,rows=caland)\n\n@auth.requires_permission(\'Emp\', \'auth_user\')\t\ndef emp_calread():\r\n    record = db.holiday_list(request.args(0)) or redirect(URL(\'error\'))\r\n    form=crud.read(db.holiday_list,record)\r\n    return dict(form=form)\n    \n@auth.requires_permission(\'Emp\', \'auth_user\')\t\ndef emp_apply_leave():\n\tfor row in db(db.image.email == auth.user.email).select():\n\t\timages=row.image\n\tllgin=[]\n\tfor log in db(db.employee_login_detail.employee_logout_date==\'Logged in\').select():\n\t\tllgin.append(log.employee_name)\n\tblgin=set(llgin)\n\talgin=list(blgin)\n\tfor row in db(db.auth_user.email==auth.user.email).select():\n\t\trptmgr=row.reporting_manager\n\treturn dict(algin=algin,images=images)\n\n@auth.requires_permission(\'Emp\', \'auth_user\')\t\ndef submit_emp_apply_leave():\n\tfor row in db(db.image.email == auth.user.email).select():\n\t\timages=row.image\n\tllgin=[]\n\tfor log in db(db.employee_login_detail.employee_logout_date==\'Logged in\').select():\n\t\tllgin.append(log.employee_name)\n\tblgin=set(llgin)\n\talgin=list(blgin)\n\t\t\n\timport datetime\n\tsession.fromdate=request.vars.fromleave\n\tsession.todate=request.vars.toleave\n\tfdate=datetime.date(*map(int, session.fromdate.split(\'-\')))\n\ttdate=datetime.date(*map(int, session.todate.split(\'-\')))\n\ttotday=tdate-fdate\n\tsession.day=totday.days\n\tfor row in db(db.auth_user.email==auth.user.email).select():\n\t\tsession.rptmgr=row.reporting_manager\n\t\tsession.empcode=row.employee_code\n\t\tsession.fname=row.first_name\n\tdb.apply_leave.insert(employee_code=session.empcode,email=auth.user.email,name=session.fname,leave_type=request.vars.apply,from_leave=session.fromdate,to_leave=session.todate,total_day=session.day,reason_for_leave=request.vars.reason,reporting_manager=session.rptmgr)\n\t#leavemail()\n\treturn dict(algin=algin,images=images)\t\n\n@auth.requires_permission(\'Emp\', \'auth_user\')\t\ndef leavemail():\n    from gluon.tools import Mail\n    mail=Mail()\n    #specify server\n    \n    mail=auth.settings.mailer\n    mail.settings.server=\'smtp.gmail.com:587\'\n    mail.settings.login=\'themisdemo1@gmail.com:123456asdfg\'\n    #specify address to send as\n    mail.settings.sender=\'themisdemo1@gmail.com\'\n    #send the message                             \n    mail.send(to=[session.rptmgr],\n            subject=\'Request for Leave\',\n            message=\'<html>\'\n                        \'<body>\'\n                            \'<span style="font-family: Bodoni MT Ultra Bold;color:  #000000 ;font-size : 18pt;"><b>Themis </span></h1><span style="font-family: Bodoni MT Ultra Bold;color:#C7A317   ;font-size :18pt;"><b>Lexsol</b></span>\'\n                            \n                            \'<p>Dear &nbsp;\'+session.fname+\' applied for leave</p>\'\n                            \'<p>Emp Code &nbsp;\'+session.empcode+\' </p>\'\n                             \'<p>From Date &nbsp;\'+session.fromdate+\' </p>\'\n                              \'<p>To Date &nbsp;\'+session.todate+\' </p>\'\n                               \'<p>Total Day &nbsp;\'+str(session.day)+\' </p>\'\n                            \n                            \'<p></p>\'\n                            \'<center><p>_________________________________________________________</p><p style="color:red;font-size :5pt;">This email comes to you since your company has subcribed for LCM Plus. TO unsubcribed please contact to Themis Lexsol</p></center>\'\n                      \n                        \'</body>\'\n                    \'</html>\'\n                    \n  )\n    response.flash=\'mail send\'\n    redirect(URL(c=\'default\',f=\'emp_leavecalendar\'))\n    return \'\'\t\n\n\t\n@auth.requires_permission(\'Mgr\', \'auth_user\')\t\ndef emp_leave_stat():\n\tfor row in db(db.image.email == auth.user.email).select():\n\t\timages=row.image\n\t\t\n\tllgin=[]\n\tfor log in db(db.employee_login_detail.employee_logout_date==\'Logged in\').select():\n\t\tllgin.append(log.employee_name)\n\tblgin=set(llgin)\n\talgin=list(blgin)\n\tdb.apply_leave.id.readable=False\t\n\tdb.apply_leave.reporting_manager.readable=False\n\ttable=SQLFORM.grid(db.apply_leave.reporting_manager==auth.user.email,create = False,selectable = lambda ids: del_leave_stat(ids))\n\treturn dict(algin=algin,images=images,table=table)\n\t\n@auth.requires_permission(\'Mgr\', \'auth_user\')\t\t\ndef del_leave_stat(ids):\n\tif not ids:\n\t\tresponse.flash=\'Please Select the Check-box to Delete\'\n\telse:\n\t\tfor row in ids:\n\t\t\tdb(db.apply_leave.id == row).delete()\n\t\tpass\n\tpass\n\treturn \'\'\n\n\nresponse._vars=response._caller(admin_edit_leave_status)\n'
p7
sS'snapshot'
p8
(dp9
S'exception'
p10
(dp11
S'__hash__'
p12
S"<method-wrapper '__hash__' of exceptions.ValueError object>"
p13
sS'__setattr__'
p14
S"<method-wrapper '__setattr__' of exceptions.ValueError object>"
p15
sS'__reduce_ex__'
p16
S'<built-in method __reduce_ex__ of exceptions.ValueError object>'
p17
sS'__getslice__'
p18
S"<method-wrapper '__getslice__' of exceptions.ValueError object>"
p19
sS'__getitem__'
p20
S"<method-wrapper '__getitem__' of exceptions.ValueError object>"
p21
sS'__setstate__'
p22
S'<built-in method __setstate__ of exceptions.ValueError object>'
p23
sS'__reduce__'
p24
S'<built-in method __reduce__ of exceptions.ValueError object>'
p25
sS'__str__'
p26
S"<method-wrapper '__str__' of exceptions.ValueError object>"
p27
sS'__format__'
p28
S'<built-in method __format__ of exceptions.ValueError object>'
p29
sS'__getattribute__'
p30
S"<method-wrapper '__getattribute__' of exceptions.ValueError object>"
p31
sS'__class__'
p32
S"<type 'exceptions.ValueError'>"
p33
sS'__unicode__'
p34
S'<built-in method __unicode__ of exceptions.ValueError object>'
p35
sS'__delattr__'
p36
S"<method-wrapper '__delattr__' of exceptions.ValueError object>"
p37
sS'__subclasshook__'
p38
S'<built-in method __subclasshook__ of type object>'
p39
sS'__repr__'
p40
S"<method-wrapper '__repr__' of exceptions.ValueError object>"
p41
sS'args'
p42
S'("invalid literal for int() with base 10: \'admin_submit_edit_leave_status\'",)'
p43
sS'__dict__'
p44
S'{}'
p45
sS'__sizeof__'
p46
S'<built-in method __sizeof__ of exceptions.ValueError object>'
p47
sS'__doc__'
p48
S"'Inappropriate argument value (of correct type).'"
p49
sS'__init__'
p50
S"<method-wrapper '__init__' of exceptions.ValueError object>"
p51
sS'__new__'
p52
S'<built-in method __new__ of type object>'
p53
ssS'evalue'
p54
S"invalid literal for int() with base 10: 'admin_submit_edit_leave_status'"
p55
sS'request'
p56
ccopy_reg
_reconstructor
p57
(cgluon.html
BEAUTIFY
p58
c__builtin__
object
p59
NtRp60
(dp61
S'attributes'
p62
(dp63
sS'components'
p64
(lp65
g57
(cgluon.html
TABLE
p66
g59
NtRp67
(dp68
g62
(dp69
S'level'
p70
I5
ssS'parent'
p71
Nsg64
(lp72
g57
(cgluon.html
TR
p73
g59
NtRp74
(dp75
g62
(dp76
sg71
g67
sg64
(lp77
g57
(cgluon.html
TD
p78
g59
NtRp79
(dp80
g62
(dp81
S'_style'
p82
S'font-weight:bold;vertical-align:top'
p83
ssg71
g74
sg64
(lp84
S'ajax'
p85
asbag57
(g78
g59
NtRp86
(dp87
g62
(dp88
S'_valign'
p89
S'top'
p90
ssg71
g74
sg64
(lp91
S':'
asbag57
(g78
g59
NtRp92
(dp93
g62
(dp94
sg71
g74
sg64
(lp95
g57
(g58
g59
NtRp96
(dp97
g62
(dp98
g70
I5
ssg71
g92
sg64
(lp99
S'False'
p100
asbasbasbag57
(g73
g59
NtRp101
(dp102
g62
(dp103
sg71
g67
sg64
(lp104
g57
(g78
g59
NtRp105
(dp106
g62
(dp107
g82
g83
ssg71
g101
sg64
(lp108
S'application'
p109
asbag57
(g78
g59
NtRp110
(dp111
g62
(dp112
g89
g90
ssg71
g101
sg64
(lp113
S':'
asbag57
(g78
g59
NtRp114
(dp115
g62
(dp116
sg71
g101
sg64
(lp117
g57
(g58
g59
NtRp118
(dp119
g62
(dp120
g70
I5
ssg71
g114
sg64
(lp121
S'themishrms'
p122
asbasbasbag57
(g73
g59
NtRp123
(dp124
g62
(dp125
sg71
g67
sg64
(lp126
g57
(g78
g59
NtRp127
(dp128
g62
(dp129
g82
g83
ssg71
g123
sg64
(lp130
g42
asbag57
(g78
g59
NtRp131
(dp132
g62
(dp133
g89
g90
ssg71
g123
sg64
(lp134
S':'
asbag57
(g78
g59
NtRp135
(dp136
g62
(dp137
sg71
g123
sg64
(lp138
g57
(g58
g59
NtRp139
(dp140
g62
(dp141
g70
I5
ssg71
g135
sg64
(lp142
g57
(g66
g59
NtRp143
(dp144
g62
(dp145
g70
I4
ssg71
Nsg64
(lp146
g57
(g73
g59
NtRp147
(dp148
g62
(dp149
sg71
g143
sg64
(lp150
g57
(g78
g59
NtRp151
(dp152
g62
(dp153
sg71
g147
sg64
(lp154
g57
(g58
g59
NtRp155
(dp156
g62
(dp157
g70
I4
ssg71
g151
sg64
(lp158
S'admin_submit_edit_leave_status'
p159
asbasbasbasbasbasbasbag57
(g73
g59
NtRp160
(dp161
g62
(dp162
sg71
g67
sg64
(lp163
g57
(g78
g59
NtRp164
(dp165
g62
(dp166
g82
g83
ssg71
g160
sg64
(lp167
S'body'
p168
asbag57
(g78
g59
NtRp169
(dp170
g62
(dp171
g89
g90
ssg71
g160
sg64
(lp172
S':'
asbag57
(g78
g59
NtRp173
(dp174
g62
(dp175
sg71
g160
sg64
(lp176
g57
(g58
g59
NtRp177
(dp178
g62
(dp179
g70
I5
ssg71
g173
sg64
(lp180
S"<open file '<fdopen>', mode 'w+b' at 0x9a825a0>"
p181
asbasbasbag57
(g73
g59
NtRp182
(dp183
g62
(dp184
sg71
g67
sg64
(lp185
g57
(g78
g59
NtRp186
(dp187
g62
(dp188
g82
g83
ssg71
g182
sg64
(lp189
S'client'
p190
asbag57
(g78
g59
NtRp191
(dp192
g62
(dp193
g89
g90
ssg71
g182
sg64
(lp194
S':'
asbag57
(g78
g59
NtRp195
(dp196
g62
(dp197
sg71
g182
sg64
(lp198
g57
(g58
g59
NtRp199
(dp200
g62
(dp201
g70
I5
ssg71
g195
sg64
(lp202
S'127.0.0.1'
p203
asbasbasbag57
(g73
g59
NtRp204
(dp205
g62
(dp206
sg71
g67
sg64
(lp207
g57
(g78
g59
NtRp208
(dp209
g62
(dp210
g82
g83
ssg71
g204
sg64
(lp211
S'controller'
p212
asbag57
(g78
g59
NtRp213
(dp214
g62
(dp215
g89
g90
ssg71
g204
sg64
(lp216
S':'
asbag57
(g78
g59
NtRp217
(dp218
g62
(dp219
sg71
g204
sg64
(lp220
g57
(g58
g59
NtRp221
(dp222
g62
(dp223
g70
I5
ssg71
g217
sg64
(lp224
S'default'
p225
asbasbasbag57
(g73
g59
NtRp226
(dp227
g62
(dp228
sg71
g67
sg64
(lp229
g57
(g78
g59
NtRp230
(dp231
g62
(dp232
g82
g83
ssg71
g226
sg64
(lp233
S'cookies'
p234
asbag57
(g78
g59
NtRp235
(dp236
g62
(dp237
g89
g90
ssg71
g226
sg64
(lp238
S':'
asbag57
(g78
g59
NtRp239
(dp240
g62
(dp241
sg71
g226
sg64
(lp242
g57
(g58
g59
NtRp243
(dp244
g62
(dp245
g70
I5
ssg71
g239
sg64
(lp246
g57
(g66
g59
NtRp247
(dp248
g62
(dp249
g70
I4
ssg71
Nsg64
(lp250
g57
(g73
g59
NtRp251
(dp252
g62
(dp253
sg71
g247
sg64
(lp254
g57
(g78
g59
NtRp255
(dp256
g62
(dp257
g82
g83
ssg71
g251
sg64
(lp258
S'mypanel'
p259
asbag57
(g78
g59
NtRp260
(dp261
g62
(dp262
g89
g90
ssg71
g251
sg64
(lp263
S':'
asbag57
(g78
g59
NtRp264
(dp265
g62
(dp266
sg71
g251
sg64
(lp267
g57
(g58
g59
NtRp268
(dp269
g62
(dp270
g70
I4
ssg71
g264
sg64
(lp271
g57
(g66
g59
NtRp272
(dp273
g62
(dp274
g70
I3
ssg71
Nsg64
(lp275
g57
(g73
g59
NtRp276
(dp277
g62
(dp278
sg71
g272
sg64
(lp279
g57
(g78
g59
NtRp280
(dp281
g62
(dp282
g82
g83
ssg71
g276
sg64
(lp283
S'comment'
p284
asbag57
(g78
g59
NtRp285
(dp286
g62
(dp287
g89
g90
ssg71
g276
sg64
(lp288
S':'
asbag57
(g78
g59
NtRp289
(dp290
g62
(dp291
sg71
g276
sg64
(lp292
g57
(g58
g59
NtRp293
(dp294
g62
(dp295
g70
I3
ssg71
g289
sg64
(lp296
S''
asbasbasbag57
(g73
g59
NtRp297
(dp298
g62
(dp299
sg71
g272
sg64
(lp300
g57
(g78
g59
NtRp301
(dp302
g62
(dp303
g82
g83
ssg71
g297
sg64
(lp304
S'domain'
p305
asbag57
(g78
g59
NtRp306
(dp307
g62
(dp308
g89
g90
ssg71
g297
sg64
(lp309
S':'
asbag57
(g78
g59
NtRp310
(dp311
g62
(dp312
sg71
g297
sg64
(lp313
g57
(g58
g59
NtRp314
(dp315
g62
(dp316
g70
I3
ssg71
g310
sg64
(lp317
S''
asbasbasbag57
(g73
g59
NtRp318
(dp319
g62
(dp320
sg71
g272
sg64
(lp321
g57
(g78
g59
NtRp322
(dp323
g62
(dp324
g82
g83
ssg71
g318
sg64
(lp325
S'expires'
p326
asbag57
(g78
g59
NtRp327
(dp328
g62
(dp329
g89
g90
ssg71
g318
sg64
(lp330
S':'
asbag57
(g78
g59
NtRp331
(dp332
g62
(dp333
sg71
g318
sg64
(lp334
g57
(g58
g59
NtRp335
(dp336
g62
(dp337
g70
I3
ssg71
g331
sg64
(lp338
S''
asbasbasbag57
(g73
g59
NtRp339
(dp340
g62
(dp341
sg71
g272
sg64
(lp342
g57
(g78
g59
NtRp343
(dp344
g62
(dp345
g82
g83
ssg71
g339
sg64
(lp346
S'httponly'
p347
asbag57
(g78
g59
NtRp348
(dp349
g62
(dp350
g89
g90
ssg71
g339
sg64
(lp351
S':'
asbag57
(g78
g59
NtRp352
(dp353
g62
(dp354
sg71
g339
sg64
(lp355
g57
(g58
g59
NtRp356
(dp357
g62
(dp358
g70
I3
ssg71
g352
sg64
(lp359
S''
asbasbasbag57
(g73
g59
NtRp360
(dp361
g62
(dp362
sg71
g272
sg64
(lp363
g57
(g78
g59
NtRp364
(dp365
g62
(dp366
g82
g83
ssg71
g360
sg64
(lp367
S'max-age'
p368
asbag57
(g78
g59
NtRp369
(dp370
g62
(dp371
g89
g90
ssg71
g360
sg64
(lp372
S':'
asbag57
(g78
g59
NtRp373
(dp374
g62
(dp375
sg71
g360
sg64
(lp376
g57
(g58
g59
NtRp377
(dp378
g62
(dp379
g70
I3
ssg71
g373
sg64
(lp380
S''
asbasbasbag57
(g73
g59
NtRp381
(dp382
g62
(dp383
sg71
g272
sg64
(lp384
g57
(g78
g59
NtRp385
(dp386
g62
(dp387
g82
g83
ssg71
g381
sg64
(lp388
S'path'
p389
asbag57
(g78
g59
NtRp390
(dp391
g62
(dp392
g89
g90
ssg71
g381
sg64
(lp393
S':'
asbag57
(g78
g59
NtRp394
(dp395
g62
(dp396
sg71
g381
sg64
(lp397
g57
(g58
g59
NtRp398
(dp399
g62
(dp400
g70
I3
ssg71
g394
sg64
(lp401
S''
asbasbasbag57
(g73
g59
NtRp402
(dp403
g62
(dp404
sg71
g272
sg64
(lp405
g57
(g78
g59
NtRp406
(dp407
g62
(dp408
g82
g83
ssg71
g402
sg64
(lp409
S'secure'
p410
asbag57
(g78
g59
NtRp411
(dp412
g62
(dp413
g89
g90
ssg71
g402
sg64
(lp414
S':'
asbag57
(g78
g59
NtRp415
(dp416
g62
(dp417
sg71
g402
sg64
(lp418
g57
(g58
g59
NtRp419
(dp420
g62
(dp421
g70
I3
ssg71
g415
sg64
(lp422
S''
asbasbasbag57
(g73
g59
NtRp423
(dp424
g62
(dp425
sg71
g272
sg64
(lp426
g57
(g78
g59
NtRp427
(dp428
g62
(dp429
g82
g83
ssg71
g423
sg64
(lp430
S'version'
p431
asbag57
(g78
g59
NtRp432
(dp433
g62
(dp434
g89
g90
ssg71
g423
sg64
(lp435
S':'
asbag57
(g78
g59
NtRp436
(dp437
g62
(dp438
sg71
g423
sg64
(lp439
g57
(g58
g59
NtRp440
(dp441
g62
(dp442
g70
I3
ssg71
g436
sg64
(lp443
S''
asbasbasbasbasbasbasbag57
(g73
g59
NtRp444
(dp445
g62
(dp446
sg71
g247
sg64
(lp447
g57
(g78
g59
NtRp448
(dp449
g62
(dp450
g82
g83
ssg71
g444
sg64
(lp451
S'session_id_admin'
p452
asbag57
(g78
g59
NtRp453
(dp454
g62
(dp455
g89
g90
ssg71
g444
sg64
(lp456
S':'
asbag57
(g78
g59
NtRp457
(dp458
g62
(dp459
sg71
g444
sg64
(lp460
g57
(g58
g59
NtRp461
(dp462
g62
(dp463
g70
I4
ssg71
g457
sg64
(lp464
g57
(g66
g59
NtRp465
(dp466
g62
(dp467
g70
I3
ssg71
Nsg64
(lp468
g57
(g73
g59
NtRp469
(dp470
g62
(dp471
sg71
g465
sg64
(lp472
g57
(g78
g59
NtRp473
(dp474
g62
(dp475
g82
g83
ssg71
g469
sg64
(lp476
g284
asbag57
(g78
g59
NtRp477
(dp478
g62
(dp479
g89
g90
ssg71
g469
sg64
(lp480
S':'
asbag57
(g78
g59
NtRp481
(dp482
g62
(dp483
sg71
g469
sg64
(lp484
g57
(g58
g59
NtRp485
(dp486
g62
(dp487
g70
I3
ssg71
g481
sg64
(lp488
S''
asbasbasbag57
(g73
g59
NtRp489
(dp490
g62
(dp491
sg71
g465
sg64
(lp492
g57
(g78
g59
NtRp493
(dp494
g62
(dp495
g82
g83
ssg71
g489
sg64
(lp496
g305
asbag57
(g78
g59
NtRp497
(dp498
g62
(dp499
g89
g90
ssg71
g489
sg64
(lp500
S':'
asbag57
(g78
g59
NtRp501
(dp502
g62
(dp503
sg71
g489
sg64
(lp504
g57
(g58
g59
NtRp505
(dp506
g62
(dp507
g70
I3
ssg71
g501
sg64
(lp508
S''
asbasbasbag57
(g73
g59
NtRp509
(dp510
g62
(dp511
sg71
g465
sg64
(lp512
g57
(g78
g59
NtRp513
(dp514
g62
(dp515
g82
g83
ssg71
g509
sg64
(lp516
g326
asbag57
(g78
g59
NtRp517
(dp518
g62
(dp519
g89
g90
ssg71
g509
sg64
(lp520
S':'
asbag57
(g78
g59
NtRp521
(dp522
g62
(dp523
sg71
g509
sg64
(lp524
g57
(g58
g59
NtRp525
(dp526
g62
(dp527
g70
I3
ssg71
g521
sg64
(lp528
S''
asbasbasbag57
(g73
g59
NtRp529
(dp530
g62
(dp531
sg71
g465
sg64
(lp532
g57
(g78
g59
NtRp533
(dp534
g62
(dp535
g82
g83
ssg71
g529
sg64
(lp536
g347
asbag57
(g78
g59
NtRp537
(dp538
g62
(dp539
g89
g90
ssg71
g529
sg64
(lp540
S':'
asbag57
(g78
g59
NtRp541
(dp542
g62
(dp543
sg71
g529
sg64
(lp544
g57
(g58
g59
NtRp545
(dp546
g62
(dp547
g70
I3
ssg71
g541
sg64
(lp548
S''
asbasbasbag57
(g73
g59
NtRp549
(dp550
g62
(dp551
sg71
g465
sg64
(lp552
g57
(g78
g59
NtRp553
(dp554
g62
(dp555
g82
g83
ssg71
g549
sg64
(lp556
g368
asbag57
(g78
g59
NtRp557
(dp558
g62
(dp559
g89
g90
ssg71
g549
sg64
(lp560
S':'
asbag57
(g78
g59
NtRp561
(dp562
g62
(dp563
sg71
g549
sg64
(lp564
g57
(g58
g59
NtRp565
(dp566
g62
(dp567
g70
I3
ssg71
g561
sg64
(lp568
S''
asbasbasbag57
(g73
g59
NtRp569
(dp570
g62
(dp571
sg71
g465
sg64
(lp572
g57
(g78
g59
NtRp573
(dp574
g62
(dp575
g82
g83
ssg71
g569
sg64
(lp576
g389
asbag57
(g78
g59
NtRp577
(dp578
g62
(dp579
g89
g90
ssg71
g569
sg64
(lp580
S':'
asbag57
(g78
g59
NtRp581
(dp582
g62
(dp583
sg71
g569
sg64
(lp584
g57
(g58
g59
NtRp585
(dp586
g62
(dp587
g70
I3
ssg71
g581
sg64
(lp588
S''
asbasbasbag57
(g73
g59
NtRp589
(dp590
g62
(dp591
sg71
g465
sg64
(lp592
g57
(g78
g59
NtRp593
(dp594
g62
(dp595
g82
g83
ssg71
g589
sg64
(lp596
g410
asbag57
(g78
g59
NtRp597
(dp598
g62
(dp599
g89
g90
ssg71
g589
sg64
(lp600
S':'
asbag57
(g78
g59
NtRp601
(dp602
g62
(dp603
sg71
g589
sg64
(lp604
g57
(g58
g59
NtRp605
(dp606
g62
(dp607
g70
I3
ssg71
g601
sg64
(lp608
S''
asbasbasbag57
(g73
g59
NtRp609
(dp610
g62
(dp611
sg71
g465
sg64
(lp612
g57
(g78
g59
NtRp613
(dp614
g62
(dp615
g82
g83
ssg71
g609
sg64
(lp616
g431
asbag57
(g78
g59
NtRp617
(dp618
g62
(dp619
g89
g90
ssg71
g609
sg64
(lp620
S':'
asbag57
(g78
g59
NtRp621
(dp622
g62
(dp623
sg71
g609
sg64
(lp624
g57
(g58
g59
NtRp625
(dp626
g62
(dp627
g70
I3
ssg71
g621
sg64
(lp628
S''
asbasbasbasbasbasbasbag57
(g73
g59
NtRp629
(dp630
g62
(dp631
sg71
g247
sg64
(lp632
g57
(g78
g59
NtRp633
(dp634
g62
(dp635
g82
g83
ssg71
g629
sg64
(lp636
S'session_id_themishrms'
p637
asbag57
(g78
g59
NtRp638
(dp639
g62
(dp640
g89
g90
ssg71
g629
sg64
(lp641
S':'
asbag57
(g78
g59
NtRp642
(dp643
g62
(dp644
sg71
g629
sg64
(lp645
g57
(g58
g59
NtRp646
(dp647
g62
(dp648
g70
I4
ssg71
g642
sg64
(lp649
g57
(g66
g59
NtRp650
(dp651
g62
(dp652
g70
I3
ssg71
Nsg64
(lp653
g57
(g73
g59
NtRp654
(dp655
g62
(dp656
sg71
g650
sg64
(lp657
g57
(g78
g59
NtRp658
(dp659
g62
(dp660
g82
g83
ssg71
g654
sg64
(lp661
g284
asbag57
(g78
g59
NtRp662
(dp663
g62
(dp664
g89
g90
ssg71
g654
sg64
(lp665
S':'
asbag57
(g78
g59
NtRp666
(dp667
g62
(dp668
sg71
g654
sg64
(lp669
g57
(g58
g59
NtRp670
(dp671
g62
(dp672
g70
I3
ssg71
g666
sg64
(lp673
S''
asbasbasbag57
(g73
g59
NtRp674
(dp675
g62
(dp676
sg71
g650
sg64
(lp677
g57
(g78
g59
NtRp678
(dp679
g62
(dp680
g82
g83
ssg71
g674
sg64
(lp681
g305
asbag57
(g78
g59
NtRp682
(dp683
g62
(dp684
g89
g90
ssg71
g674
sg64
(lp685
S':'
asbag57
(g78
g59
NtRp686
(dp687
g62
(dp688
sg71
g674
sg64
(lp689
g57
(g58
g59
NtRp690
(dp691
g62
(dp692
g70
I3
ssg71
g686
sg64
(lp693
S''
asbasbasbag57
(g73
g59
NtRp694
(dp695
g62
(dp696
sg71
g650
sg64
(lp697
g57
(g78
g59
NtRp698
(dp699
g62
(dp700
g82
g83
ssg71
g694
sg64
(lp701
g326
asbag57
(g78
g59
NtRp702
(dp703
g62
(dp704
g89
g90
ssg71
g694
sg64
(lp705
S':'
asbag57
(g78
g59
NtRp706
(dp707
g62
(dp708
sg71
g694
sg64
(lp709
g57
(g58
g59
NtRp710
(dp711
g62
(dp712
g70
I3
ssg71
g706
sg64
(lp713
S''
asbasbasbag57
(g73
g59
NtRp714
(dp715
g62
(dp716
sg71
g650
sg64
(lp717
g57
(g78
g59
NtRp718
(dp719
g62
(dp720
g82
g83
ssg71
g714
sg64
(lp721
g347
asbag57
(g78
g59
NtRp722
(dp723
g62
(dp724
g89
g90
ssg71
g714
sg64
(lp725
S':'
asbag57
(g78
g59
NtRp726
(dp727
g62
(dp728
sg71
g714
sg64
(lp729
g57
(g58
g59
NtRp730
(dp731
g62
(dp732
g70
I3
ssg71
g726
sg64
(lp733
S''
asbasbasbag57
(g73
g59
NtRp734
(dp735
g62
(dp736
sg71
g650
sg64
(lp737
g57
(g78
g59
NtRp738
(dp739
g62
(dp740
g82
g83
ssg71
g734
sg64
(lp741
g368
asbag57
(g78
g59
NtRp742
(dp743
g62
(dp744
g89
g90
ssg71
g734
sg64
(lp745
S':'
asbag57
(g78
g59
NtRp746
(dp747
g62
(dp748
sg71
g734
sg64
(lp749
g57
(g58
g59
NtRp750
(dp751
g62
(dp752
g70
I3
ssg71
g746
sg64
(lp753
S''
asbasbasbag57
(g73
g59
NtRp754
(dp755
g62
(dp756
sg71
g650
sg64
(lp757
g57
(g78
g59
NtRp758
(dp759
g62
(dp760
g82
g83
ssg71
g754
sg64
(lp761
g389
asbag57
(g78
g59
NtRp762
(dp763
g62
(dp764
g89
g90
ssg71
g754
sg64
(lp765
S':'
asbag57
(g78
g59
NtRp766
(dp767
g62
(dp768
sg71
g754
sg64
(lp769
g57
(g58
g59
NtRp770
(dp771
g62
(dp772
g70
I3
ssg71
g766
sg64
(lp773
S''
asbasbasbag57
(g73
g59
NtRp774
(dp775
g62
(dp776
sg71
g650
sg64
(lp777
g57
(g78
g59
NtRp778
(dp779
g62
(dp780
g82
g83
ssg71
g774
sg64
(lp781
g410
asbag57
(g78
g59
NtRp782
(dp783
g62
(dp784
g89
g90
ssg71
g774
sg64
(lp785
S':'
asbag57
(g78
g59
NtRp786
(dp787
g62
(dp788
sg71
g774
sg64
(lp789
g57
(g58
g59
NtRp790
(dp791
g62
(dp792
g70
I3
ssg71
g786
sg64
(lp793
S''
asbasbasbag57
(g73
g59
NtRp794
(dp795
g62
(dp796
sg71
g650
sg64
(lp797
g57
(g78
g59
NtRp798
(dp799
g62
(dp800
g82
g83
ssg71
g794
sg64
(lp801
g431
asbag57
(g78
g59
NtRp802
(dp803
g62
(dp804
g89
g90
ssg71
g794
sg64
(lp805
S':'
asbag57
(g78
g59
NtRp806
(dp807
g62
(dp808
sg71
g794
sg64
(lp809
g57
(g58
g59
NtRp810
(dp811
g62
(dp812
g70
I3
ssg71
g806
sg64
(lp813
S''
asbasbasbasbasbasbasbag57
(g73
g59
NtRp814
(dp815
g62
(dp816
sg71
g247
sg64
(lp817
g57
(g78
g59
NtRp818
(dp819
g62
(dp820
g82
g83
ssg71
g814
sg64
(lp821
S'tls'
p822
asbag57
(g78
g59
NtRp823
(dp824
g62
(dp825
g89
g90
ssg71
g814
sg64
(lp826
S':'
asbag57
(g78
g59
NtRp827
(dp828
g62
(dp829
sg71
g814
sg64
(lp830
g57
(g58
g59
NtRp831
(dp832
g62
(dp833
g70
I4
ssg71
g827
sg64
(lp834
g57
(g66
g59
NtRp835
(dp836
g62
(dp837
g70
I3
ssg71
Nsg64
(lp838
g57
(g73
g59
NtRp839
(dp840
g62
(dp841
sg71
g835
sg64
(lp842
g57
(g78
g59
NtRp843
(dp844
g62
(dp845
g82
g83
ssg71
g839
sg64
(lp846
g284
asbag57
(g78
g59
NtRp847
(dp848
g62
(dp849
g89
g90
ssg71
g839
sg64
(lp850
S':'
asbag57
(g78
g59
NtRp851
(dp852
g62
(dp853
sg71
g839
sg64
(lp854
g57
(g58
g59
NtRp855
(dp856
g62
(dp857
g70
I3
ssg71
g851
sg64
(lp858
S''
asbasbasbag57
(g73
g59
NtRp859
(dp860
g62
(dp861
sg71
g835
sg64
(lp862
g57
(g78
g59
NtRp863
(dp864
g62
(dp865
g82
g83
ssg71
g859
sg64
(lp866
g305
asbag57
(g78
g59
NtRp867
(dp868
g62
(dp869
g89
g90
ssg71
g859
sg64
(lp870
S':'
asbag57
(g78
g59
NtRp871
(dp872
g62
(dp873
sg71
g859
sg64
(lp874
g57
(g58
g59
NtRp875
(dp876
g62
(dp877
g70
I3
ssg71
g871
sg64
(lp878
S''
asbasbasbag57
(g73
g59
NtRp879
(dp880
g62
(dp881
sg71
g835
sg64
(lp882
g57
(g78
g59
NtRp883
(dp884
g62
(dp885
g82
g83
ssg71
g879
sg64
(lp886
g326
asbag57
(g78
g59
NtRp887
(dp888
g62
(dp889
g89
g90
ssg71
g879
sg64
(lp890
S':'
asbag57
(g78
g59
NtRp891
(dp892
g62
(dp893
sg71
g879
sg64
(lp894
g57
(g58
g59
NtRp895
(dp896
g62
(dp897
g70
I3
ssg71
g891
sg64
(lp898
S''
asbasbasbag57
(g73
g59
NtRp899
(dp900
g62
(dp901
sg71
g835
sg64
(lp902
g57
(g78
g59
NtRp903
(dp904
g62
(dp905
g82
g83
ssg71
g899
sg64
(lp906
g347
asbag57
(g78
g59
NtRp907
(dp908
g62
(dp909
g89
g90
ssg71
g899
sg64
(lp910
S':'
asbag57
(g78
g59
NtRp911
(dp912
g62
(dp913
sg71
g899
sg64
(lp914
g57
(g58
g59
NtRp915
(dp916
g62
(dp917
g70
I3
ssg71
g911
sg64
(lp918
S''
asbasbasbag57
(g73
g59
NtRp919
(dp920
g62
(dp921
sg71
g835
sg64
(lp922
g57
(g78
g59
NtRp923
(dp924
g62
(dp925
g82
g83
ssg71
g919
sg64
(lp926
g368
asbag57
(g78
g59
NtRp927
(dp928
g62
(dp929
g89
g90
ssg71
g919
sg64
(lp930
S':'
asbag57
(g78
g59
NtRp931
(dp932
g62
(dp933
sg71
g919
sg64
(lp934
g57
(g58
g59
NtRp935
(dp936
g62
(dp937
g70
I3
ssg71
g931
sg64
(lp938
S''
asbasbasbag57
(g73
g59
NtRp939
(dp940
g62
(dp941
sg71
g835
sg64
(lp942
g57
(g78
g59
NtRp943
(dp944
g62
(dp945
g82
g83
ssg71
g939
sg64
(lp946
g389
asbag57
(g78
g59
NtRp947
(dp948
g62
(dp949
g89
g90
ssg71
g939
sg64
(lp950
S':'
asbag57
(g78
g59
NtRp951
(dp952
g62
(dp953
sg71
g939
sg64
(lp954
g57
(g58
g59
NtRp955
(dp956
g62
(dp957
g70
I3
ssg71
g951
sg64
(lp958
S''
asbasbasbag57
(g73
g59
NtRp959
(dp960
g62
(dp961
sg71
g835
sg64
(lp962
g57
(g78
g59
NtRp963
(dp964
g62
(dp965
g82
g83
ssg71
g959
sg64
(lp966
g410
asbag57
(g78
g59
NtRp967
(dp968
g62
(dp969
g89
g90
ssg71
g959
sg64
(lp970
S':'
asbag57
(g78
g59
NtRp971
(dp972
g62
(dp973
sg71
g959
sg64
(lp974
g57
(g58
g59
NtRp975
(dp976
g62
(dp977
g70
I3
ssg71
g971
sg64
(lp978
S''
asbasbasbag57
(g73
g59
NtRp979
(dp980
g62
(dp981
sg71
g835
sg64
(lp982
g57
(g78
g59
NtRp983
(dp984
g62
(dp985
g82
g83
ssg71
g979
sg64
(lp986
g431
asbag57
(g78
g59
NtRp987
(dp988
g62
(dp989
g89
g90
ssg71
g979
sg64
(lp990
S':'
asbag57
(g78
g59
NtRp991
(dp992
g62
(dp993
sg71
g979
sg64
(lp994
g57
(g58
g59
NtRp995
(dp996
g62
(dp997
g70
I3
ssg71
g991
sg64
(lp998
S''
asbasbasbasbasbasbasbasbasbasbasbag57
(g73
g59
NtRp999
(dp1000
g62
(dp1001
sg71
g67
sg64
(lp1002
g57
(g78
g59
NtRp1003
(dp1004
g62
(dp1005
g82
g83
ssg71
g999
sg64
(lp1006
S'env'
p1007
asbag57
(g78
g59
NtRp1008
(dp1009
g62
(dp1010
g89
g90
ssg71
g999
sg64
(lp1011
S':'
asbag57
(g78
g59
NtRp1012
(dp1013
g62
(dp1014
sg71
g999
sg64
(lp1015
g57
(g58
g59
NtRp1016
(dp1017
g62
(dp1018
g70
I5
ssg71
g1012
sg64
(lp1019
g57
(g66
g59
NtRp1020
(dp1021
g62
(dp1022
g70
I4
ssg71
Nsg64
(lp1023
g57
(g73
g59
NtRp1024
(dp1025
g62
(dp1026
sg71
g1020
sg64
(lp1027
g57
(g78
g59
NtRp1028
(dp1029
g62
(dp1030
g82
g83
ssg71
g1024
sg64
(lp1031
S'app_folders'
p1032
asbag57
(g78
g59
NtRp1033
(dp1034
g62
(dp1035
g89
g90
ssg71
g1024
sg64
(lp1036
S':'
asbag57
(g78
g59
NtRp1037
(dp1038
g62
(dp1039
sg71
g1024
sg64
(lp1040
g57
(g58
g59
NtRp1041
(dp1042
g62
(dp1043
g70
I4
ssg71
g1037
sg64
(lp1044
S"set(['/home/tls-sanjeet/Desktop/HRMS/web2py/applications/themishrms/', '/home/tls-sanjeet/Desktop/HRMS/web2py/applications/admin/'])"
p1045
asbasbasbag57
(g73
g59
NtRp1046
(dp1047
g62
(dp1048
sg71
g1020
sg64
(lp1049
g57
(g78
g59
NtRp1050
(dp1051
g62
(dp1052
g82
g83
ssg71
g1046
sg64
(lp1053
S'applications_parent'
p1054
asbag57
(g78
g59
NtRp1055
(dp1056
g62
(dp1057
g89
g90
ssg71
g1046
sg64
(lp1058
S':'
asbag57
(g78
g59
NtRp1059
(dp1060
g62
(dp1061
sg71
g1046
sg64
(lp1062
g57
(g58
g59
NtRp1063
(dp1064
g62
(dp1065
g70
I4
ssg71
g1059
sg64
(lp1066
S'/home/tls-sanjeet/Desktop/HRMS/web2py'
p1067
asbasbasbag57
(g73
g59
NtRp1068
(dp1069
g62
(dp1070
sg71
g1020
sg64
(lp1071
g57
(g78
g59
NtRp1072
(dp1073
g62
(dp1074
g82
g83
ssg71
g1068
sg64
(lp1075
S'cmd_args'
p1076
asbag57
(g78
g59
NtRp1077
(dp1078
g62
(dp1079
g89
g90
ssg71
g1068
sg64
(lp1080
S':'
asbag57
(g78
g59
NtRp1081
(dp1082
g62
(dp1083
sg71
g1068
sg64
(lp1084
g57
(g58
g59
NtRp1085
(dp1086
g62
(dp1087
g70
I4
ssg71
g1081
sg64
(lp1088
g57
(g66
g59
NtRp1089
(dp1090
g62
(dp1091
g70
I3
ssg71
Nsg64
(lp1092
sbasbasbasbag57
(g73
g59
NtRp1093
(dp1094
g62
(dp1095
sg71
g1020
sg64
(lp1096
g57
(g78
g59
NtRp1097
(dp1098
g62
(dp1099
g82
g83
ssg71
g1093
sg64
(lp1100
S'cmd_options'
p1101
asbag57
(g78
g59
NtRp1102
(dp1103
g62
(dp1104
g89
g90
ssg71
g1093
sg64
(lp1105
S':'
asbag57
(g78
g59
NtRp1106
(dp1107
g62
(dp1108
sg71
g1093
sg64
(lp1109
g57
(g58
g59
NtRp1110
(dp1111
g62
(dp1112
g70
I4
ssg71
g1106
sg64
(lp1113
S"<Values at 0x8fdd5cc: {'verbose': False, 'ip': '127.0.0.1', 'shutdown_timeout': 5, 'taskbar': False, 'nocron': False, 'pid_filename': 'httpserver.pid', 'maxthreads': None, 'softcron': False, 'server_name': 'sanjeet-desktop', 'bpython': False, 'nogui': False, 'port': 8000, 'extcron': False, 'debuglevel': 30, 'test': None, 'folder': '/home/tls-sanjeet/Desktop/HRMS/web2py', 'config': '', 'import_models': False, 'winservice': '', 'shell': None, 'run': '', 'log_filename': 'httpserver.log', 'args': [''], 'socket_timeout': 5, 'ssl_ca_certificate': None, 'scheduler': None, 'profiler_filename': None, 'ssl_private_key': '', 'password': 'a', 'request_queue_size': 5, 'ssl_certificate': '', 'cronjob': False, 'numthreads': None, 'quiet': False, 'interfaces': None, 'minthreads': None, 'timeout': 10, 'plain': False, 'nobanner': False}>"
p1114
asbasbasbag57
(g73
g59
NtRp1115
(dp1116
g62
(dp1117
sg71
g1020
sg64
(lp1118
g57
(g78
g59
NtRp1119
(dp1120
g62
(dp1121
g82
g83
ssg71
g1115
sg64
(lp1122
S'content_length'
p1123
asbag57
(g78
g59
NtRp1124
(dp1125
g62
(dp1126
g89
g90
ssg71
g1115
sg64
(lp1127
S':'
asbag57
(g78
g59
NtRp1128
(dp1129
g62
(dp1130
sg71
g1115
sg64
(lp1131
g57
(g58
g59
NtRp1132
(dp1133
g62
(dp1134
g70
I4
ssg71
g1128
sg64
(lp1135
S'108'
p1136
asbasbasbag57
(g73
g59
NtRp1137
(dp1138
g62
(dp1139
sg71
g1020
sg64
(lp1140
g57
(g78
g59
NtRp1141
(dp1142
g62
(dp1143
g82
g83
ssg71
g1137
sg64
(lp1144
S'content_type'
p1145
asbag57
(g78
g59
NtRp1146
(dp1147
g62
(dp1148
g89
g90
ssg71
g1137
sg64
(lp1149
S':'
asbag57
(g78
g59
NtRp1150
(dp1151
g62
(dp1152
sg71
g1137
sg64
(lp1153
g57
(g58
g59
NtRp1154
(dp1155
g62
(dp1156
g70
I4
ssg71
g1150
sg64
(lp1157
S'application/x-www-form-urlencoded'
p1158
asbasbasbag57
(g73
g59
NtRp1159
(dp1160
g62
(dp1161
sg71
g1020
sg64
(lp1162
g57
(g78
g59
NtRp1163
(dp1164
g62
(dp1165
g82
g83
ssg71
g1159
sg64
(lp1166
S'db_sessions'
p1167
asbag57
(g78
g59
NtRp1168
(dp1169
g62
(dp1170
g89
g90
ssg71
g1159
sg64
(lp1171
S':'
asbag57
(g78
g59
NtRp1172
(dp1173
g62
(dp1174
sg71
g1159
sg64
(lp1175
g57
(g58
g59
NtRp1176
(dp1177
g62
(dp1178
g70
I4
ssg71
g1172
sg64
(lp1179
S'set([])'
p1180
asbasbasbag57
(g73
g59
NtRp1181
(dp1182
g62
(dp1183
sg71
g1020
sg64
(lp1184
g57
(g78
g59
NtRp1185
(dp1186
g62
(dp1187
g82
g83
ssg71
g1181
sg64
(lp1188
S'debugging'
p1189
asbag57
(g78
g59
NtRp1190
(dp1191
g62
(dp1192
g89
g90
ssg71
g1181
sg64
(lp1193
S':'
asbag57
(g78
g59
NtRp1194
(dp1195
g62
(dp1196
sg71
g1181
sg64
(lp1197
g57
(g58
g59
NtRp1198
(dp1199
g62
(dp1200
g70
I4
ssg71
g1194
sg64
(lp1201
g100
asbasbasbag57
(g73
g59
NtRp1202
(dp1203
g62
(dp1204
sg71
g1020
sg64
(lp1205
g57
(g78
g59
NtRp1206
(dp1207
g62
(dp1208
g82
g83
ssg71
g1202
sg64
(lp1209
S'gluon_parent'
p1210
asbag57
(g78
g59
NtRp1211
(dp1212
g62
(dp1213
g89
g90
ssg71
g1202
sg64
(lp1214
S':'
asbag57
(g78
g59
NtRp1215
(dp1216
g62
(dp1217
sg71
g1202
sg64
(lp1218
g57
(g58
g59
NtRp1219
(dp1220
g62
(dp1221
g70
I4
ssg71
g1215
sg64
(lp1222
S'/home/tls-sanjeet/Desktop/HRMS/web2py'
p1223
asbasbasbag57
(g73
g59
NtRp1224
(dp1225
g62
(dp1226
sg71
g1020
sg64
(lp1227
g57
(g78
g59
NtRp1228
(dp1229
g62
(dp1230
g82
g83
ssg71
g1224
sg64
(lp1231
S'http_accept'
p1232
asbag57
(g78
g59
NtRp1233
(dp1234
g62
(dp1235
g89
g90
ssg71
g1224
sg64
(lp1236
S':'
asbag57
(g78
g59
NtRp1237
(dp1238
g62
(dp1239
sg71
g1224
sg64
(lp1240
g57
(g58
g59
NtRp1241
(dp1242
g62
(dp1243
g70
I4
ssg71
g1237
sg64
(lp1244
S'text/html,application/xhtml+xml,application/xml;q=0.9,*/*;q=0.8'
p1245
asbasbasbag57
(g73
g59
NtRp1246
(dp1247
g62
(dp1248
sg71
g1020
sg64
(lp1249
g57
(g78
g59
NtRp1250
(dp1251
g62
(dp1252
g82
g83
ssg71
g1246
sg64
(lp1253
S'http_accept_charset'
p1254
asbag57
(g78
g59
NtRp1255
(dp1256
g62
(dp1257
g89
g90
ssg71
g1246
sg64
(lp1258
S':'
asbag57
(g78
g59
NtRp1259
(dp1260
g62
(dp1261
sg71
g1246
sg64
(lp1262
g57
(g58
g59
NtRp1263
(dp1264
g62
(dp1265
g70
I4
ssg71
g1259
sg64
(lp1266
S'ISO-8859-1,utf-8;q=0.7,*;q=0.3'
p1267
asbasbasbag57
(g73
g59
NtRp1268
(dp1269
g62
(dp1270
sg71
g1020
sg64
(lp1271
g57
(g78
g59
NtRp1272
(dp1273
g62
(dp1274
g82
g83
ssg71
g1268
sg64
(lp1275
S'http_accept_encoding'
p1276
asbag57
(g78
g59
NtRp1277
(dp1278
g62
(dp1279
g89
g90
ssg71
g1268
sg64
(lp1280
S':'
asbag57
(g78
g59
NtRp1281
(dp1282
g62
(dp1283
sg71
g1268
sg64
(lp1284
g57
(g58
g59
NtRp1285
(dp1286
g62
(dp1287
g70
I4
ssg71
g1281
sg64
(lp1288
S'gzip,deflate,sdch'
p1289
asbasbasbag57
(g73
g59
NtRp1290
(dp1291
g62
(dp1292
sg71
g1020
sg64
(lp1293
g57
(g78
g59
NtRp1294
(dp1295
g62
(dp1296
g82
g83
ssg71
g1290
sg64
(lp1297
S'http_accept_language'
p1298
asbag57
(g78
g59
NtRp1299
(dp1300
g62
(dp1301
g89
g90
ssg71
g1290
sg64
(lp1302
S':'
asbag57
(g78
g59
NtRp1303
(dp1304
g62
(dp1305
sg71
g1290
sg64
(lp1306
g57
(g58
g59
NtRp1307
(dp1308
g62
(dp1309
g70
I4
ssg71
g1303
sg64
(lp1310
S'en-US,en;q=0.8'
p1311
asbasbasbag57
(g73
g59
NtRp1312
(dp1313
g62
(dp1314
sg71
g1020
sg64
(lp1315
g57
(g78
g59
NtRp1316
(dp1317
g62
(dp1318
g82
g83
ssg71
g1312
sg64
(lp1319
S'http_cache_control'
p1320
asbag57
(g78
g59
NtRp1321
(dp1322
g62
(dp1323
g89
g90
ssg71
g1312
sg64
(lp1324
S':'
asbag57
(g78
g59
NtRp1325
(dp1326
g62
(dp1327
sg71
g1312
sg64
(lp1328
g57
(g58
g59
NtRp1329
(dp1330
g62
(dp1331
g70
I4
ssg71
g1325
sg64
(lp1332
S'max-age=0'
p1333
asbasbasbag57
(g73
g59
NtRp1334
(dp1335
g62
(dp1336
sg71
g1020
sg64
(lp1337
g57
(g78
g59
NtRp1338
(dp1339
g62
(dp1340
g82
g83
ssg71
g1334
sg64
(lp1341
S'http_connection'
p1342
asbag57
(g78
g59
NtRp1343
(dp1344
g62
(dp1345
g89
g90
ssg71
g1334
sg64
(lp1346
S':'
asbag57
(g78
g59
NtRp1347
(dp1348
g62
(dp1349
sg71
g1334
sg64
(lp1350
g57
(g58
g59
NtRp1351
(dp1352
g62
(dp1353
g70
I4
ssg71
g1347
sg64
(lp1354
S'keep-alive'
p1355
asbasbasbag57
(g73
g59
NtRp1356
(dp1357
g62
(dp1358
sg71
g1020
sg64
(lp1359
g57
(g78
g59
NtRp1360
(dp1361
g62
(dp1362
g82
g83
ssg71
g1356
sg64
(lp1363
S'http_content_length'
p1364
asbag57
(g78
g59
NtRp1365
(dp1366
g62
(dp1367
g89
g90
ssg71
g1356
sg64
(lp1368
S':'
asbag57
(g78
g59
NtRp1369
(dp1370
g62
(dp1371
sg71
g1356
sg64
(lp1372
g57
(g58
g59
NtRp1373
(dp1374
g62
(dp1375
g70
I4
ssg71
g1369
sg64
(lp1376
g1136
asbasbasbag57
(g73
g59
NtRp1377
(dp1378
g62
(dp1379
sg71
g1020
sg64
(lp1380
g57
(g78
g59
NtRp1381
(dp1382
g62
(dp1383
g82
g83
ssg71
g1377
sg64
(lp1384
S'http_content_type'
p1385
asbag57
(g78
g59
NtRp1386
(dp1387
g62
(dp1388
g89
g90
ssg71
g1377
sg64
(lp1389
S':'
asbag57
(g78
g59
NtRp1390
(dp1391
g62
(dp1392
sg71
g1377
sg64
(lp1393
g57
(g58
g59
NtRp1394
(dp1395
g62
(dp1396
g70
I4
ssg71
g1390
sg64
(lp1397
g1158
asbasbasbag57
(g73
g59
NtRp1398
(dp1399
g62
(dp1400
sg71
g1020
sg64
(lp1401
g57
(g78
g59
NtRp1402
(dp1403
g62
(dp1404
g82
g83
ssg71
g1398
sg64
(lp1405
S'http_cookie'
p1406
asbag57
(g78
g59
NtRp1407
(dp1408
g62
(dp1409
g89
g90
ssg71
g1398
sg64
(lp1410
S':'
asbag57
(g78
g59
NtRp1411
(dp1412
g62
(dp1413
sg71
g1398
sg64
(lp1414
g57
(g58
g59
NtRp1415
(dp1416
g62
(dp1417
g70
I4
ssg71
g1411
sg64
(lp1418
S'mypanel=up; tls=up; session_id_themishrms=127.0.0.1-b910a411-6665-41e9-bb70-b56cf32909ab; session_id_admin=127.0.0.1-46fd345c-86b7-49fb-ba51-4477e56d85e4'
p1419
asbasbasbag57
(g73
g59
NtRp1420
(dp1421
g62
(dp1422
sg71
g1020
sg64
(lp1423
g57
(g78
g59
NtRp1424
(dp1425
g62
(dp1426
g82
g83
ssg71
g1420
sg64
(lp1427
S'http_host'
p1428
asbag57
(g78
g59
NtRp1429
(dp1430
g62
(dp1431
g89
g90
ssg71
g1420
sg64
(lp1432
S':'
asbag57
(g78
g59
NtRp1433
(dp1434
g62
(dp1435
sg71
g1420
sg64
(lp1436
g57
(g58
g59
NtRp1437
(dp1438
g62
(dp1439
g70
I4
ssg71
g1433
sg64
(lp1440
S'127.0.0.1:8000'
p1441
asbasbasbag57
(g73
g59
NtRp1442
(dp1443
g62
(dp1444
sg71
g1020
sg64
(lp1445
g57
(g78
g59
NtRp1446
(dp1447
g62
(dp1448
g82
g83
ssg71
g1442
sg64
(lp1449
S'http_origin'
p1450
asbag57
(g78
g59
NtRp1451
(dp1452
g62
(dp1453
g89
g90
ssg71
g1442
sg64
(lp1454
S':'
asbag57
(g78
g59
NtRp1455
(dp1456
g62
(dp1457
sg71
g1442
sg64
(lp1458
g57
(g58
g59
NtRp1459
(dp1460
g62
(dp1461
g70
I4
ssg71
g1455
sg64
(lp1462
S'http://127.0.0.1:8000'
p1463
asbasbasbag57
(g73
g59
NtRp1464
(dp1465
g62
(dp1466
sg71
g1020
sg64
(lp1467
g57
(g78
g59
NtRp1468
(dp1469
g62
(dp1470
g82
g83
ssg71
g1464
sg64
(lp1471
S'http_referer'
p1472
asbag57
(g78
g59
NtRp1473
(dp1474
g62
(dp1475
g89
g90
ssg71
g1464
sg64
(lp1476
S':'
asbag57
(g78
g59
NtRp1477
(dp1478
g62
(dp1479
sg71
g1464
sg64
(lp1480
g57
(g58
g59
NtRp1481
(dp1482
g62
(dp1483
g70
I4
ssg71
g1477
sg64
(lp1484
S'http://127.0.0.1:8000/themishrms/default/admin_edit_leave_status/4'
p1485
asbasbasbag57
(g73
g59
NtRp1486
(dp1487
g62
(dp1488
sg71
g1020
sg64
(lp1489
g57
(g78
g59
NtRp1490
(dp1491
g62
(dp1492
g82
g83
ssg71
g1486
sg64
(lp1493
S'http_user_agent'
p1494
asbag57
(g78
g59
NtRp1495
(dp1496
g62
(dp1497
g89
g90
ssg71
g1486
sg64
(lp1498
S':'
asbag57
(g78
g59
NtRp1499
(dp1500
g62
(dp1501
sg71
g1486
sg64
(lp1502
g57
(g58
g59
NtRp1503
(dp1504
g62
(dp1505
g70
I4
ssg71
g1499
sg64
(lp1506
S'Mozilla/5.0 (X11; Linux i686) AppleWebKit/535.19 (KHTML, like Gecko) Chrome/18.0.1025.162 Safari/535.19'
p1507
asbasbasbag57
(g73
g59
NtRp1508
(dp1509
g62
(dp1510
sg71
g1020
sg64
(lp1511
g57
(g78
g59
NtRp1512
(dp1513
g62
(dp1514
g82
g83
ssg71
g1508
sg64
(lp1515
S'is_jython'
p1516
asbag57
(g78
g59
NtRp1517
(dp1518
g62
(dp1519
g89
g90
ssg71
g1508
sg64
(lp1520
S':'
asbag57
(g78
g59
NtRp1521
(dp1522
g62
(dp1523
sg71
g1508
sg64
(lp1524
g57
(g58
g59
NtRp1525
(dp1526
g62
(dp1527
g70
I4
ssg71
g1521
sg64
(lp1528
g100
asbasbasbag57
(g73
g59
NtRp1529
(dp1530
g62
(dp1531
sg71
g1020
sg64
(lp1532
g57
(g78
g59
NtRp1533
(dp1534
g62
(dp1535
g82
g83
ssg71
g1529
sg64
(lp1536
S'is_pypy'
p1537
asbag57
(g78
g59
NtRp1538
(dp1539
g62
(dp1540
g89
g90
ssg71
g1529
sg64
(lp1541
S':'
asbag57
(g78
g59
NtRp1542
(dp1543
g62
(dp1544
sg71
g1529
sg64
(lp1545
g57
(g58
g59
NtRp1546
(dp1547
g62
(dp1548
g70
I4
ssg71
g1542
sg64
(lp1549
g100
asbasbasbag57
(g73
g59
NtRp1550
(dp1551
g62
(dp1552
sg71
g1020
sg64
(lp1553
g57
(g78
g59
NtRp1554
(dp1555
g62
(dp1556
g82
g83
ssg71
g1550
sg64
(lp1557
S'path_info'
p1558
asbag57
(g78
g59
NtRp1559
(dp1560
g62
(dp1561
g89
g90
ssg71
g1550
sg64
(lp1562
S':'
asbag57
(g78
g59
NtRp1563
(dp1564
g62
(dp1565
sg71
g1550
sg64
(lp1566
g57
(g58
g59
NtRp1567
(dp1568
g62
(dp1569
g70
I4
ssg71
g1563
sg64
(lp1570
S'/themishrms/default/admin_edit_leave_status/admin_submit_edit_leave_status'
p1571
asbasbasbag57
(g73
g59
NtRp1572
(dp1573
g62
(dp1574
sg71
g1020
sg64
(lp1575
g57
(g78
g59
NtRp1576
(dp1577
g62
(dp1578
g82
g83
ssg71
g1572
sg64
(lp1579
S'query_string'
p1580
asbag57
(g78
g59
NtRp1581
(dp1582
g62
(dp1583
g89
g90
ssg71
g1572
sg64
(lp1584
S':'
asbag57
(g78
g59
NtRp1585
(dp1586
g62
(dp1587
sg71
g1572
sg64
(lp1588
g57
(g58
g59
NtRp1589
(dp1590
g62
(dp1591
g70
I4
ssg71
g1585
sg64
(lp1592
S''
asbasbasbag57
(g73
g59
NtRp1593
(dp1594
g62
(dp1595
sg71
g1020
sg64
(lp1596
g57
(g78
g59
NtRp1597
(dp1598
g62
(dp1599
g82
g83
ssg71
g1593
sg64
(lp1600
S'remote_addr'
p1601
asbag57
(g78
g59
NtRp1602
(dp1603
g62
(dp1604
g89
g90
ssg71
g1593
sg64
(lp1605
S':'
asbag57
(g78
g59
NtRp1606
(dp1607
g62
(dp1608
sg71
g1593
sg64
(lp1609
g57
(g58
g59
NtRp1610
(dp1611
g62
(dp1612
g70
I4
ssg71
g1606
sg64
(lp1613
g203
asbasbasbag57
(g73
g59
NtRp1614
(dp1615
g62
(dp1616
sg71
g1020
sg64
(lp1617
g57
(g78
g59
NtRp1618
(dp1619
g62
(dp1620
g82
g83
ssg71
g1614
sg64
(lp1621
S'remote_port'
p1622
asbag57
(g78
g59
NtRp1623
(dp1624
g62
(dp1625
g89
g90
ssg71
g1614
sg64
(lp1626
S':'
asbag57
(g78
g59
NtRp1627
(dp1628
g62
(dp1629
sg71
g1614
sg64
(lp1630
g57
(g58
g59
NtRp1631
(dp1632
g62
(dp1633
g70
I4
ssg71
g1627
sg64
(lp1634
S'40971'
p1635
asbasbasbag57
(g73
g59
NtRp1636
(dp1637
g62
(dp1638
sg71
g1020
sg64
(lp1639
g57
(g78
g59
NtRp1640
(dp1641
g62
(dp1642
g82
g83
ssg71
g1636
sg64
(lp1643
S'request_method'
p1644
asbag57
(g78
g59
NtRp1645
(dp1646
g62
(dp1647
g89
g90
ssg71
g1636
sg64
(lp1648
S':'
asbag57
(g78
g59
NtRp1649
(dp1650
g62
(dp1651
sg71
g1636
sg64
(lp1652
g57
(g58
g59
NtRp1653
(dp1654
g62
(dp1655
g70
I4
ssg71
g1649
sg64
(lp1656
S'POST'
p1657
asbasbasbag57
(g73
g59
NtRp1658
(dp1659
g62
(dp1660
sg71
g1020
sg64
(lp1661
g57
(g78
g59
NtRp1662
(dp1663
g62
(dp1664
g82
g83
ssg71
g1658
sg64
(lp1665
S'script_name'
p1666
asbag57
(g78
g59
NtRp1667
(dp1668
g62
(dp1669
g89
g90
ssg71
g1658
sg64
(lp1670
S':'
asbag57
(g78
g59
NtRp1671
(dp1672
g62
(dp1673
sg71
g1658
sg64
(lp1674
g57
(g58
g59
NtRp1675
(dp1676
g62
(dp1677
g70
I4
ssg71
g1671
sg64
(lp1678
S''
asbasbasbag57
(g73
g59
NtRp1679
(dp1680
g62
(dp1681
sg71
g1020
sg64
(lp1682
g57
(g78
g59
NtRp1683
(dp1684
g62
(dp1685
g82
g83
ssg71
g1679
sg64
(lp1686
S'server_name'
p1687
asbag57
(g78
g59
NtRp1688
(dp1689
g62
(dp1690
g89
g90
ssg71
g1679
sg64
(lp1691
S':'
asbag57
(g78
g59
NtRp1692
(dp1693
g62
(dp1694
sg71
g1679
sg64
(lp1695
g57
(g58
g59
NtRp1696
(dp1697
g62
(dp1698
g70
I4
ssg71
g1692
sg64
(lp1699
S'sanjeet-desktop'
p1700
asbasbasbag57
(g73
g59
NtRp1701
(dp1702
g62
(dp1703
sg71
g1020
sg64
(lp1704
g57
(g78
g59
NtRp1705
(dp1706
g62
(dp1707
g82
g83
ssg71
g1701
sg64
(lp1708
S'server_port'
p1709
asbag57
(g78
g59
NtRp1710
(dp1711
g62
(dp1712
g89
g90
ssg71
g1701
sg64
(lp1713
S':'
asbag57
(g78
g59
NtRp1714
(dp1715
g62
(dp1716
sg71
g1701
sg64
(lp1717
g57
(g58
g59
NtRp1718
(dp1719
g62
(dp1720
g70
I4
ssg71
g1714
sg64
(lp1721
S'8000'
p1722
asbasbasbag57
(g73
g59
NtRp1723
(dp1724
g62
(dp1725
sg71
g1020
sg64
(lp1726
g57
(g78
g59
NtRp1727
(dp1728
g62
(dp1729
g82
g83
ssg71
g1723
sg64
(lp1730
S'server_protocol'
p1731
asbag57
(g78
g59
NtRp1732
(dp1733
g62
(dp1734
g89
g90
ssg71
g1723
sg64
(lp1735
S':'
asbag57
(g78
g59
NtRp1736
(dp1737
g62
(dp1738
sg71
g1723
sg64
(lp1739
g57
(g58
g59
NtRp1740
(dp1741
g62
(dp1742
g70
I4
ssg71
g1736
sg64
(lp1743
S'HTTP/1.1'
p1744
asbasbasbag57
(g73
g59
NtRp1745
(dp1746
g62
(dp1747
sg71
g1020
sg64
(lp1748
g57
(g78
g59
NtRp1749
(dp1750
g62
(dp1751
g82
g83
ssg71
g1745
sg64
(lp1752
S'server_software'
p1753
asbag57
(g78
g59
NtRp1754
(dp1755
g62
(dp1756
g89
g90
ssg71
g1745
sg64
(lp1757
S':'
asbag57
(g78
g59
NtRp1758
(dp1759
g62
(dp1760
sg71
g1745
sg64
(lp1761
g57
(g58
g59
NtRp1762
(dp1763
g62
(dp1764
g70
I4
ssg71
g1758
sg64
(lp1765
S'Rocket 1.2.4'
p1766
asbasbasbag57
(g73
g59
NtRp1767
(dp1768
g62
(dp1769
sg71
g1020
sg64
(lp1770
g57
(g78
g59
NtRp1771
(dp1772
g62
(dp1773
g82
g83
ssg71
g1767
sg64
(lp1774
S'web2py_crontype'
p1775
asbag57
(g78
g59
NtRp1776
(dp1777
g62
(dp1778
g89
g90
ssg71
g1767
sg64
(lp1779
S':'
asbag57
(g78
g59
NtRp1780
(dp1781
g62
(dp1782
sg71
g1767
sg64
(lp1783
g57
(g58
g59
NtRp1784
(dp1785
g62
(dp1786
g70
I4
ssg71
g1780
sg64
(lp1787
S'hard'
p1788
asbasbasbag57
(g73
g59
NtRp1789
(dp1790
g62
(dp1791
sg71
g1020
sg64
(lp1792
g57
(g78
g59
NtRp1793
(dp1794
g62
(dp1795
g82
g83
ssg71
g1789
sg64
(lp1796
S'web2py_path'
p1797
asbag57
(g78
g59
NtRp1798
(dp1799
g62
(dp1800
g89
g90
ssg71
g1789
sg64
(lp1801
S':'
asbag57
(g78
g59
NtRp1802
(dp1803
g62
(dp1804
sg71
g1789
sg64
(lp1805
g57
(g58
g59
NtRp1806
(dp1807
g62
(dp1808
g70
I4
ssg71
g1802
sg64
(lp1809
g1067
asbasbasbag57
(g73
g59
NtRp1810
(dp1811
g62
(dp1812
sg71
g1020
sg64
(lp1813
g57
(g78
g59
NtRp1814
(dp1815
g62
(dp1816
g82
g83
ssg71
g1810
sg64
(lp1817
S'web2py_version'
p1818
asbag57
(g78
g59
NtRp1819
(dp1820
g62
(dp1821
g89
g90
ssg71
g1810
sg64
(lp1822
S':'
asbag57
(g78
g59
NtRp1823
(dp1824
g62
(dp1825
sg71
g1810
sg64
(lp1826
g57
(g58
g59
NtRp1827
(dp1828
g62
(dp1829
g70
I4
ssg71
g1823
sg64
(lp1830
g57
(g66
g59
NtRp1831
(dp1832
g62
(dp1833
g70
I3
ssg71
Nsg64
(lp1834
g57
(g73
g59
NtRp1835
(dp1836
g62
(dp1837
sg71
g1831
sg64
(lp1838
g57
(g78
g59
NtRp1839
(dp1840
g62
(dp1841
sg71
g1835
sg64
(lp1842
g57
(g58
g59
NtRp1843
(dp1844
g62
(dp1845
g70
I3
ssg71
g1839
sg64
(lp1846
S'1'
asbasbasbag57
(g73
g59
NtRp1847
(dp1848
g62
(dp1849
sg71
g1831
sg64
(lp1850
g57
(g78
g59
NtRp1851
(dp1852
g62
(dp1853
sg71
g1847
sg64
(lp1854
g57
(g58
g59
NtRp1855
(dp1856
g62
(dp1857
g70
I3
ssg71
g1851
sg64
(lp1858
S'99'
p1859
asbasbasbag57
(g73
g59
NtRp1860
(dp1861
g62
(dp1862
sg71
g1831
sg64
(lp1863
g57
(g78
g59
NtRp1864
(dp1865
g62
(dp1866
sg71
g1860
sg64
(lp1867
g57
(g58
g59
NtRp1868
(dp1869
g62
(dp1870
g70
I3
ssg71
g1864
sg64
(lp1871
S'7'
asbasbasbag57
(g73
g59
NtRp1872
(dp1873
g62
(dp1874
sg71
g1831
sg64
(lp1875
g57
(g78
g59
NtRp1876
(dp1877
g62
(dp1878
sg71
g1872
sg64
(lp1879
g57
(g58
g59
NtRp1880
(dp1881
g62
(dp1882
g70
I3
ssg71
g1876
sg64
(lp1883
S'datetime.datetime(2012, 3, 4, 22, 12, 8)'
p1884
asbasbasbag57
(g73
g59
NtRp1885
(dp1886
g62
(dp1887
sg71
g1831
sg64
(lp1888
g57
(g78
g59
NtRp1889
(dp1890
g62
(dp1891
sg71
g1885
sg64
(lp1892
g57
(g58
g59
NtRp1893
(dp1894
g62
(dp1895
g70
I3
ssg71
g1889
sg64
(lp1896
S'stable'
p1897
asbasbasbasbasbasbasbag57
(g73
g59
NtRp1898
(dp1899
g62
(dp1900
sg71
g1020
sg64
(lp1901
g57
(g78
g59
NtRp1902
(dp1903
g62
(dp1904
g82
g83
ssg71
g1898
sg64
(lp1905
S'wsgi_errors'
p1906
asbag57
(g78
g59
NtRp1907
(dp1908
g62
(dp1909
g89
g90
ssg71
g1898
sg64
(lp1910
S':'
asbag57
(g78
g59
NtRp1911
(dp1912
g62
(dp1913
sg71
g1898
sg64
(lp1914
g57
(g58
g59
NtRp1915
(dp1916
g62
(dp1917
g70
I4
ssg71
g1911
sg64
(lp1918
S"<open file '<stderr>', mode 'w' at 0xb73f60d0>"
p1919
asbasbasbag57
(g73
g59
NtRp1920
(dp1921
g62
(dp1922
sg71
g1020
sg64
(lp1923
g57
(g78
g59
NtRp1924
(dp1925
g62
(dp1926
g82
g83
ssg71
g1920
sg64
(lp1927
S'wsgi_file_wrapper'
p1928
asbag57
(g78
g59
NtRp1929
(dp1930
g62
(dp1931
g89
g90
ssg71
g1920
sg64
(lp1932
S':'
asbag57
(g78
g59
NtRp1933
(dp1934
g62
(dp1935
sg71
g1920
sg64
(lp1936
g57
(g58
g59
NtRp1937
(dp1938
g62
(dp1939
g70
I4
ssg71
g1933
sg64
(lp1940
S'<class wsgiref.util.FileWrapper at 0x8f7daac>'
p1941
asbasbasbag57
(g73
g59
NtRp1942
(dp1943
g62
(dp1944
sg71
g1020
sg64
(lp1945
g57
(g78
g59
NtRp1946
(dp1947
g62
(dp1948
g82
g83
ssg71
g1942
sg64
(lp1949
S'wsgi_input'
p1950
asbag57
(g78
g59
NtRp1951
(dp1952
g62
(dp1953
g89
g90
ssg71
g1942
sg64
(lp1954
S':'
asbag57
(g78
g59
NtRp1955
(dp1956
g62
(dp1957
sg71
g1942
sg64
(lp1958
g57
(g58
g59
NtRp1959
(dp1960
g62
(dp1961
g70
I4
ssg71
g1955
sg64
(lp1962
S'<socket._fileobject object at 0x948e1ec>'
p1963
asbasbasbag57
(g73
g59
NtRp1964
(dp1965
g62
(dp1966
sg71
g1020
sg64
(lp1967
g57
(g78
g59
NtRp1968
(dp1969
g62
(dp1970
g82
g83
ssg71
g1964
sg64
(lp1971
S'wsgi_multiprocess'
p1972
asbag57
(g78
g59
NtRp1973
(dp1974
g62
(dp1975
g89
g90
ssg71
g1964
sg64
(lp1976
S':'
asbag57
(g78
g59
NtRp1977
(dp1978
g62
(dp1979
sg71
g1964
sg64
(lp1980
g57
(g58
g59
NtRp1981
(dp1982
g62
(dp1983
g70
I4
ssg71
g1977
sg64
(lp1984
g100
asbasbasbag57
(g73
g59
NtRp1985
(dp1986
g62
(dp1987
sg71
g1020
sg64
(lp1988
g57
(g78
g59
NtRp1989
(dp1990
g62
(dp1991
g82
g83
ssg71
g1985
sg64
(lp1992
S'wsgi_multithread'
p1993
asbag57
(g78
g59
NtRp1994
(dp1995
g62
(dp1996
g89
g90
ssg71
g1985
sg64
(lp1997
S':'
asbag57
(g78
g59
NtRp1998
(dp1999
g62
(dp2000
sg71
g1985
sg64
(lp2001
g57
(g58
g59
NtRp2002
(dp2003
g62
(dp2004
g70
I4
ssg71
g1998
sg64
(lp2005
S'True'
p2006
asbasbasbag57
(g73
g59
NtRp2007
(dp2008
g62
(dp2009
sg71
g1020
sg64
(lp2010
g57
(g78
g59
NtRp2011
(dp2012
g62
(dp2013
g82
g83
ssg71
g2007
sg64
(lp2014
S'wsgi_run_once'
p2015
asbag57
(g78
g59
NtRp2016
(dp2017
g62
(dp2018
g89
g90
ssg71
g2007
sg64
(lp2019
S':'
asbag57
(g78
g59
NtRp2020
(dp2021
g62
(dp2022
sg71
g2007
sg64
(lp2023
g57
(g58
g59
NtRp2024
(dp2025
g62
(dp2026
g70
I4
ssg71
g2020
sg64
(lp2027
g100
asbasbasbag57
(g73
g59
NtRp2028
(dp2029
g62
(dp2030
sg71
g1020
sg64
(lp2031
g57
(g78
g59
NtRp2032
(dp2033
g62
(dp2034
g82
g83
ssg71
g2028
sg64
(lp2035
S'wsgi_url_scheme'
p2036
asbag57
(g78
g59
NtRp2037
(dp2038
g62
(dp2039
g89
g90
ssg71
g2028
sg64
(lp2040
S':'
asbag57
(g78
g59
NtRp2041
(dp2042
g62
(dp2043
sg71
g2028
sg64
(lp2044
g57
(g58
g59
NtRp2045
(dp2046
g62
(dp2047
g70
I4
ssg71
g2041
sg64
(lp2048
S'http'
p2049
asbasbasbag57
(g73
g59
NtRp2050
(dp2051
g62
(dp2052
sg71
g1020
sg64
(lp2053
g57
(g78
g59
NtRp2054
(dp2055
g62
(dp2056
g82
g83
ssg71
g2050
sg64
(lp2057
S'wsgi_version'
p2058
asbag57
(g78
g59
NtRp2059
(dp2060
g62
(dp2061
g89
g90
ssg71
g2050
sg64
(lp2062
S':'
asbag57
(g78
g59
NtRp2063
(dp2064
g62
(dp2065
sg71
g2050
sg64
(lp2066
g57
(g58
g59
NtRp2067
(dp2068
g62
(dp2069
g70
I4
ssg71
g2063
sg64
(lp2070
g57
(g66
g59
NtRp2071
(dp2072
g62
(dp2073
g70
I3
ssg71
Nsg64
(lp2074
g57
(g73
g59
NtRp2075
(dp2076
g62
(dp2077
sg71
g2071
sg64
(lp2078
g57
(g78
g59
NtRp2079
(dp2080
g62
(dp2081
sg71
g2075
sg64
(lp2082
g57
(g58
g59
NtRp2083
(dp2084
g62
(dp2085
g70
I3
ssg71
g2079
sg64
(lp2086
S'1'
asbasbasbag57
(g73
g59
NtRp2087
(dp2088
g62
(dp2089
sg71
g2071
sg64
(lp2090
g57
(g78
g59
NtRp2091
(dp2092
g62
(dp2093
sg71
g2087
sg64
(lp2094
g57
(g58
g59
NtRp2095
(dp2096
g62
(dp2097
g70
I3
ssg71
g2091
sg64
(lp2098
S'0'
asbasbasbasbasbasbasbasbasbasbasbag57
(g73
g59
NtRp2099
(dp2100
g62
(dp2101
sg71
g67
sg64
(lp2102
g57
(g78
g59
NtRp2103
(dp2104
g62
(dp2105
g82
g83
ssg71
g2099
sg64
(lp2106
S'extension'
p2107
asbag57
(g78
g59
NtRp2108
(dp2109
g62
(dp2110
g89
g90
ssg71
g2099
sg64
(lp2111
S':'
asbag57
(g78
g59
NtRp2112
(dp2113
g62
(dp2114
sg71
g2099
sg64
(lp2115
g57
(g58
g59
NtRp2116
(dp2117
g62
(dp2118
g70
I5
ssg71
g2112
sg64
(lp2119
S'html'
p2120
asbasbasbag57
(g73
g59
NtRp2121
(dp2122
g62
(dp2123
sg71
g67
sg64
(lp2124
g57
(g78
g59
NtRp2125
(dp2126
g62
(dp2127
g82
g83
ssg71
g2121
sg64
(lp2128
S'folder'
p2129
asbag57
(g78
g59
NtRp2130
(dp2131
g62
(dp2132
g89
g90
ssg71
g2121
sg64
(lp2133
S':'
asbag57
(g78
g59
NtRp2134
(dp2135
g62
(dp2136
sg71
g2121
sg64
(lp2137
g57
(g58
g59
NtRp2138
(dp2139
g62
(dp2140
g70
I5
ssg71
g2134
sg64
(lp2141
S'/home/tls-sanjeet/Desktop/HRMS/web2py/applications/themishrms/'
p2142
asbasbasbag57
(g73
g59
NtRp2143
(dp2144
g62
(dp2145
sg71
g67
sg64
(lp2146
g57
(g78
g59
NtRp2147
(dp2148
g62
(dp2149
g82
g83
ssg71
g2143
sg64
(lp2150
S'function'
p2151
asbag57
(g78
g59
NtRp2152
(dp2153
g62
(dp2154
g89
g90
ssg71
g2143
sg64
(lp2155
S':'
asbag57
(g78
g59
NtRp2156
(dp2157
g62
(dp2158
sg71
g2143
sg64
(lp2159
g57
(g58
g59
NtRp2160
(dp2161
g62
(dp2162
g70
I5
ssg71
g2156
sg64
(lp2163
S'admin_edit_leave_status'
p2164
asbasbasbag57
(g73
g59
NtRp2165
(dp2166
g62
(dp2167
sg71
g67
sg64
(lp2168
g57
(g78
g59
NtRp2169
(dp2170
g62
(dp2171
g82
g83
ssg71
g2165
sg64
(lp2172
S'get_vars'
p2173
asbag57
(g78
g59
NtRp2174
(dp2175
g62
(dp2176
g89
g90
ssg71
g2165
sg64
(lp2177
S':'
asbag57
(g78
g59
NtRp2178
(dp2179
g62
(dp2180
sg71
g2165
sg64
(lp2181
g57
(g58
g59
NtRp2182
(dp2183
g62
(dp2184
g70
I5
ssg71
g2178
sg64
(lp2185
g57
(g66
g59
NtRp2186
(dp2187
g62
(dp2188
g70
I4
ssg71
Nsg64
(lp2189
sbasbasbasbag57
(g73
g59
NtRp2190
(dp2191
g62
(dp2192
sg71
g67
sg64
(lp2193
g57
(g78
g59
NtRp2194
(dp2195
g62
(dp2196
g82
g83
ssg71
g2190
sg64
(lp2197
S'global_settings'
p2198
asbag57
(g78
g59
NtRp2199
(dp2200
g62
(dp2201
g89
g90
ssg71
g2190
sg64
(lp2202
S':'
asbag57
(g78
g59
NtRp2203
(dp2204
g62
(dp2205
sg71
g2190
sg64
(lp2206
g57
(g58
g59
NtRp2207
(dp2208
g62
(dp2209
g70
I5
ssg71
g2203
sg64
(lp2210
g57
(g66
g59
NtRp2211
(dp2212
g62
(dp2213
g70
I4
ssg71
Nsg64
(lp2214
g57
(g73
g59
NtRp2215
(dp2216
g62
(dp2217
sg71
g2211
sg64
(lp2218
g57
(g78
g59
NtRp2219
(dp2220
g62
(dp2221
g82
g83
ssg71
g2215
sg64
(lp2222
g1032
asbag57
(g78
g59
NtRp2223
(dp2224
g62
(dp2225
g89
g90
ssg71
g2215
sg64
(lp2226
S':'
asbag57
(g78
g59
NtRp2227
(dp2228
g62
(dp2229
sg71
g2215
sg64
(lp2230
g57
(g58
g59
NtRp2231
(dp2232
g62
(dp2233
g70
I4
ssg71
g2227
sg64
(lp2234
S"set(['/home/tls-sanjeet/Desktop/HRMS/web2py/applications/themishrms/', '/home/tls-sanjeet/Desktop/HRMS/web2py/applications/admin/'])"
p2235
asbasbasbag57
(g73
g59
NtRp2236
(dp2237
g62
(dp2238
sg71
g2211
sg64
(lp2239
g57
(g78
g59
NtRp2240
(dp2241
g62
(dp2242
g82
g83
ssg71
g2236
sg64
(lp2243
g1054
asbag57
(g78
g59
NtRp2244
(dp2245
g62
(dp2246
g89
g90
ssg71
g2236
sg64
(lp2247
S':'
asbag57
(g78
g59
NtRp2248
(dp2249
g62
(dp2250
sg71
g2236
sg64
(lp2251
g57
(g58
g59
NtRp2252
(dp2253
g62
(dp2254
g70
I4
ssg71
g2248
sg64
(lp2255
g1067
asbasbasbag57
(g73
g59
NtRp2256
(dp2257
g62
(dp2258
sg71
g2211
sg64
(lp2259
g57
(g78
g59
NtRp2260
(dp2261
g62
(dp2262
g82
g83
ssg71
g2256
sg64
(lp2263
g1076
asbag57
(g78
g59
NtRp2264
(dp2265
g62
(dp2266
g89
g90
ssg71
g2256
sg64
(lp2267
S':'
asbag57
(g78
g59
NtRp2268
(dp2269
g62
(dp2270
sg71
g2256
sg64
(lp2271
g57
(g58
g59
NtRp2272
(dp2273
g62
(dp2274
g70
I4
ssg71
g2268
sg64
(lp2275
g57
(g66
g59
NtRp2276
(dp2277
g62
(dp2278
g70
I3
ssg71
Nsg64
(lp2279
sbasbasbasbag57
(g73
g59
NtRp2280
(dp2281
g62
(dp2282
sg71
g2211
sg64
(lp2283
g57
(g78
g59
NtRp2284
(dp2285
g62
(dp2286
g82
g83
ssg71
g2280
sg64
(lp2287
g1101
asbag57
(g78
g59
NtRp2288
(dp2289
g62
(dp2290
g89
g90
ssg71
g2280
sg64
(lp2291
S':'
asbag57
(g78
g59
NtRp2292
(dp2293
g62
(dp2294
sg71
g2280
sg64
(lp2295
g57
(g58
g59
NtRp2296
(dp2297
g62
(dp2298
g70
I4
ssg71
g2292
sg64
(lp2299
S"<Values at 0x8fdd5cc: {'verbose': False, 'ip': '127.0.0.1', 'shutdown_timeout': 5, 'taskbar': False, 'nocron': False, 'pid_filename': 'httpserver.pid', 'maxthreads': None, 'softcron': False, 'server_name': 'sanjeet-desktop', 'bpython': False, 'nogui': False, 'port': 8000, 'extcron': False, 'debuglevel': 30, 'test': None, 'folder': '/home/tls-sanjeet/Desktop/HRMS/web2py', 'config': '', 'import_models': False, 'winservice': '', 'shell': None, 'run': '', 'log_filename': 'httpserver.log', 'args': [''], 'socket_timeout': 5, 'ssl_ca_certificate': None, 'scheduler': None, 'profiler_filename': None, 'ssl_private_key': '', 'password': 'a', 'request_queue_size': 5, 'ssl_certificate': '', 'cronjob': False, 'numthreads': None, 'quiet': False, 'interfaces': None, 'minthreads': None, 'timeout': 10, 'plain': False, 'nobanner': False}>"
p2300
asbasbasbag57
(g73
g59
NtRp2301
(dp2302
g62
(dp2303
sg71
g2211
sg64
(lp2304
g57
(g78
g59
NtRp2305
(dp2306
g62
(dp2307
g82
g83
ssg71
g2301
sg64
(lp2308
g1167
asbag57
(g78
g59
NtRp2309
(dp2310
g62
(dp2311
g89
g90
ssg71
g2301
sg64
(lp2312
S':'
asbag57
(g78
g59
NtRp2313
(dp2314
g62
(dp2315
sg71
g2301
sg64
(lp2316
g57
(g58
g59
NtRp2317
(dp2318
g62
(dp2319
g70
I4
ssg71
g2313
sg64
(lp2320
S'set([])'
p2321
asbasbasbag57
(g73
g59
NtRp2322
(dp2323
g62
(dp2324
sg71
g2211
sg64
(lp2325
g57
(g78
g59
NtRp2326
(dp2327
g62
(dp2328
g82
g83
ssg71
g2322
sg64
(lp2329
g1189
asbag57
(g78
g59
NtRp2330
(dp2331
g62
(dp2332
g89
g90
ssg71
g2322
sg64
(lp2333
S':'
asbag57
(g78
g59
NtRp2334
(dp2335
g62
(dp2336
sg71
g2322
sg64
(lp2337
g57
(g58
g59
NtRp2338
(dp2339
g62
(dp2340
g70
I4
ssg71
g2334
sg64
(lp2341
g100
asbasbasbag57
(g73
g59
NtRp2342
(dp2343
g62
(dp2344
sg71
g2211
sg64
(lp2345
g57
(g78
g59
NtRp2346
(dp2347
g62
(dp2348
g82
g83
ssg71
g2342
sg64
(lp2349
g1210
asbag57
(g78
g59
NtRp2350
(dp2351
g62
(dp2352
g89
g90
ssg71
g2342
sg64
(lp2353
S':'
asbag57
(g78
g59
NtRp2354
(dp2355
g62
(dp2356
sg71
g2342
sg64
(lp2357
g57
(g58
g59
NtRp2358
(dp2359
g62
(dp2360
g70
I4
ssg71
g2354
sg64
(lp2361
g1223
asbasbasbag57
(g73
g59
NtRp2362
(dp2363
g62
(dp2364
sg71
g2211
sg64
(lp2365
g57
(g78
g59
NtRp2366
(dp2367
g62
(dp2368
g82
g83
ssg71
g2362
sg64
(lp2369
g1516
asbag57
(g78
g59
NtRp2370
(dp2371
g62
(dp2372
g89
g90
ssg71
g2362
sg64
(lp2373
S':'
asbag57
(g78
g59
NtRp2374
(dp2375
g62
(dp2376
sg71
g2362
sg64
(lp2377
g57
(g58
g59
NtRp2378
(dp2379
g62
(dp2380
g70
I4
ssg71
g2374
sg64
(lp2381
g100
asbasbasbag57
(g73
g59
NtRp2382
(dp2383
g62
(dp2384
sg71
g2211
sg64
(lp2385
g57
(g78
g59
NtRp2386
(dp2387
g62
(dp2388
g82
g83
ssg71
g2382
sg64
(lp2389
g1537
asbag57
(g78
g59
NtRp2390
(dp2391
g62
(dp2392
g89
g90
ssg71
g2382
sg64
(lp2393
S':'
asbag57
(g78
g59
NtRp2394
(dp2395
g62
(dp2396
sg71
g2382
sg64
(lp2397
g57
(g58
g59
NtRp2398
(dp2399
g62
(dp2400
g70
I4
ssg71
g2394
sg64
(lp2401
g100
asbasbasbag57
(g73
g59
NtRp2402
(dp2403
g62
(dp2404
sg71
g2211
sg64
(lp2405
g57
(g78
g59
NtRp2406
(dp2407
g62
(dp2408
g82
g83
ssg71
g2402
sg64
(lp2409
g1775
asbag57
(g78
g59
NtRp2410
(dp2411
g62
(dp2412
g89
g90
ssg71
g2402
sg64
(lp2413
S':'
asbag57
(g78
g59
NtRp2414
(dp2415
g62
(dp2416
sg71
g2402
sg64
(lp2417
g57
(g58
g59
NtRp2418
(dp2419
g62
(dp2420
g70
I4
ssg71
g2414
sg64
(lp2421
g1788
asbasbasbag57
(g73
g59
NtRp2422
(dp2423
g62
(dp2424
sg71
g2211
sg64
(lp2425
g57
(g78
g59
NtRp2426
(dp2427
g62
(dp2428
g82
g83
ssg71
g2422
sg64
(lp2429
g1818
asbag57
(g78
g59
NtRp2430
(dp2431
g62
(dp2432
g89
g90
ssg71
g2422
sg64
(lp2433
S':'
asbag57
(g78
g59
NtRp2434
(dp2435
g62
(dp2436
sg71
g2422
sg64
(lp2437
g57
(g58
g59
NtRp2438
(dp2439
g62
(dp2440
g70
I4
ssg71
g2434
sg64
(lp2441
g57
(g66
g59
NtRp2442
(dp2443
g62
(dp2444
g70
I3
ssg71
Nsg64
(lp2445
g57
(g73
g59
NtRp2446
(dp2447
g62
(dp2448
sg71
g2442
sg64
(lp2449
g57
(g78
g59
NtRp2450
(dp2451
g62
(dp2452
sg71
g2446
sg64
(lp2453
g57
(g58
g59
NtRp2454
(dp2455
g62
(dp2456
g70
I3
ssg71
g2450
sg64
(lp2457
S'1'
asbasbasbag57
(g73
g59
NtRp2458
(dp2459
g62
(dp2460
sg71
g2442
sg64
(lp2461
g57
(g78
g59
NtRp2462
(dp2463
g62
(dp2464
sg71
g2458
sg64
(lp2465
g57
(g58
g59
NtRp2466
(dp2467
g62
(dp2468
g70
I3
ssg71
g2462
sg64
(lp2469
S'99'
p2470
asbasbasbag57
(g73
g59
NtRp2471
(dp2472
g62
(dp2473
sg71
g2442
sg64
(lp2474
g57
(g78
g59
NtRp2475
(dp2476
g62
(dp2477
sg71
g2471
sg64
(lp2478
g57
(g58
g59
NtRp2479
(dp2480
g62
(dp2481
g70
I3
ssg71
g2475
sg64
(lp2482
S'7'
asbasbasbag57
(g73
g59
NtRp2483
(dp2484
g62
(dp2485
sg71
g2442
sg64
(lp2486
g57
(g78
g59
NtRp2487
(dp2488
g62
(dp2489
sg71
g2483
sg64
(lp2490
g57
(g58
g59
NtRp2491
(dp2492
g62
(dp2493
g70
I3
ssg71
g2487
sg64
(lp2494
S'datetime.datetime(2012, 3, 4, 22, 12, 8)'
p2495
asbasbasbag57
(g73
g59
NtRp2496
(dp2497
g62
(dp2498
sg71
g2442
sg64
(lp2499
g57
(g78
g59
NtRp2500
(dp2501
g62
(dp2502
sg71
g2496
sg64
(lp2503
g57
(g58
g59
NtRp2504
(dp2505
g62
(dp2506
g70
I3
ssg71
g2500
sg64
(lp2507
g1897
asbasbasbasbasbasbasbasbasbasbasbag57
(g73
g59
NtRp2508
(dp2509
g62
(dp2510
sg71
g67
sg64
(lp2511
g57
(g78
g59
NtRp2512
(dp2513
g62
(dp2514
g82
g83
ssg71
g2508
sg64
(lp2515
S'is_https'
p2516
asbag57
(g78
g59
NtRp2517
(dp2518
g62
(dp2519
g89
g90
ssg71
g2508
sg64
(lp2520
S':'
asbag57
(g78
g59
NtRp2521
(dp2522
g62
(dp2523
sg71
g2508
sg64
(lp2524
g57
(g58
g59
NtRp2525
(dp2526
g62
(dp2527
g70
I5
ssg71
g2521
sg64
(lp2528
g100
asbasbasbag57
(g73
g59
NtRp2529
(dp2530
g62
(dp2531
sg71
g67
sg64
(lp2532
g57
(g78
g59
NtRp2533
(dp2534
g62
(dp2535
g82
g83
ssg71
g2529
sg64
(lp2536
S'is_local'
p2537
asbag57
(g78
g59
NtRp2538
(dp2539
g62
(dp2540
g89
g90
ssg71
g2529
sg64
(lp2541
S':'
asbag57
(g78
g59
NtRp2542
(dp2543
g62
(dp2544
sg71
g2529
sg64
(lp2545
g57
(g58
g59
NtRp2546
(dp2547
g62
(dp2548
g70
I5
ssg71
g2542
sg64
(lp2549
g2006
asbasbasbag57
(g73
g59
NtRp2550
(dp2551
g62
(dp2552
sg71
g67
sg64
(lp2553
g57
(g78
g59
NtRp2554
(dp2555
g62
(dp2556
g82
g83
ssg71
g2550
sg64
(lp2557
S'is_restful'
p2558
asbag57
(g78
g59
NtRp2559
(dp2560
g62
(dp2561
g89
g90
ssg71
g2550
sg64
(lp2562
S':'
asbag57
(g78
g59
NtRp2563
(dp2564
g62
(dp2565
sg71
g2550
sg64
(lp2566
g57
(g58
g59
NtRp2567
(dp2568
g62
(dp2569
g70
I5
ssg71
g2563
sg64
(lp2570
g100
asbasbasbag57
(g73
g59
NtRp2571
(dp2572
g62
(dp2573
sg71
g67
sg64
(lp2574
g57
(g78
g59
NtRp2575
(dp2576
g62
(dp2577
g82
g83
ssg71
g2571
sg64
(lp2578
S'now'
p2579
asbag57
(g78
g59
NtRp2580
(dp2581
g62
(dp2582
g89
g90
ssg71
g2571
sg64
(lp2583
S':'
asbag57
(g78
g59
NtRp2584
(dp2585
g62
(dp2586
sg71
g2571
sg64
(lp2587
g57
(g58
g59
NtRp2588
(dp2589
g62
(dp2590
g70
I5
ssg71
g2584
sg64
(lp2591
S'datetime.datetime(2012, 5, 2, 13, 48, 28, 932335)'
p2592
asbasbasbag57
(g73
g59
NtRp2593
(dp2594
g62
(dp2595
sg71
g67
sg64
(lp2596
g57
(g78
g59
NtRp2597
(dp2598
g62
(dp2599
g82
g83
ssg71
g2593
sg64
(lp2600
S'post_vars'
p2601
asbag57
(g78
g59
NtRp2602
(dp2603
g62
(dp2604
g89
g90
ssg71
g2593
sg64
(lp2605
S':'
asbag57
(g78
g59
NtRp2606
(dp2607
g62
(dp2608
sg71
g2593
sg64
(lp2609
g57
(g58
g59
NtRp2610
(dp2611
g62
(dp2612
g70
I5
ssg71
g2606
sg64
(lp2613
g57
(g66
g59
NtRp2614
(dp2615
g62
(dp2616
g70
I4
ssg71
Nsg64
(lp2617
g57
(g73
g59
NtRp2618
(dp2619
g62
(dp2620
sg71
g2614
sg64
(lp2621
g57
(g78
g59
NtRp2622
(dp2623
g62
(dp2624
g82
g83
ssg71
g2618
sg64
(lp2625
S'empcode'
p2626
asbag57
(g78
g59
NtRp2627
(dp2628
g62
(dp2629
g89
g90
ssg71
g2618
sg64
(lp2630
S':'
asbag57
(g78
g59
NtRp2631
(dp2632
g62
(dp2633
sg71
g2618
sg64
(lp2634
g57
(g58
g59
NtRp2635
(dp2636
g62
(dp2637
g70
I4
ssg71
g2631
sg64
(lp2638
S'TLS001'
p2639
asbasbasbag57
(g73
g59
NtRp2640
(dp2641
g62
(dp2642
sg71
g2614
sg64
(lp2643
g57
(g78
g59
NtRp2644
(dp2645
g62
(dp2646
g82
g83
ssg71
g2640
sg64
(lp2647
S'fleave'
p2648
asbag57
(g78
g59
NtRp2649
(dp2650
g62
(dp2651
g89
g90
ssg71
g2640
sg64
(lp2652
S':'
asbag57
(g78
g59
NtRp2653
(dp2654
g62
(dp2655
sg71
g2640
sg64
(lp2656
g57
(g58
g59
NtRp2657
(dp2658
g62
(dp2659
g70
I4
ssg71
g2653
sg64
(lp2660
S'2012-05-30'
p2661
asbasbasbag57
(g73
g59
NtRp2662
(dp2663
g62
(dp2664
sg71
g2614
sg64
(lp2665
g57
(g78
g59
NtRp2666
(dp2667
g62
(dp2668
g82
g83
ssg71
g2662
sg64
(lp2669
S'ltype'
p2670
asbag57
(g78
g59
NtRp2671
(dp2672
g62
(dp2673
g89
g90
ssg71
g2662
sg64
(lp2674
S':'
asbag57
(g78
g59
NtRp2675
(dp2676
g62
(dp2677
sg71
g2662
sg64
(lp2678
g57
(g58
g59
NtRp2679
(dp2680
g62
(dp2681
g70
I4
ssg71
g2675
sg64
(lp2682
S'Casual'
p2683
asbasbasbag57
(g73
g59
NtRp2684
(dp2685
g62
(dp2686
sg71
g2614
sg64
(lp2687
g57
(g78
g59
NtRp2688
(dp2689
g62
(dp2690
g82
g83
ssg71
g2684
sg64
(lp2691
S'name'
p2692
asbag57
(g78
g59
NtRp2693
(dp2694
g62
(dp2695
g89
g90
ssg71
g2684
sg64
(lp2696
S':'
asbag57
(g78
g59
NtRp2697
(dp2698
g62
(dp2699
sg71
g2684
sg64
(lp2700
g57
(g58
g59
NtRp2701
(dp2702
g62
(dp2703
g70
I4
ssg71
g2697
sg64
(lp2704
S'Sanjeet'
p2705
asbasbasbag57
(g73
g59
NtRp2706
(dp2707
g62
(dp2708
sg71
g2614
sg64
(lp2709
g57
(g78
g59
NtRp2710
(dp2711
g62
(dp2712
g82
g83
ssg71
g2706
sg64
(lp2713
S'rleave'
p2714
asbag57
(g78
g59
NtRp2715
(dp2716
g62
(dp2717
g89
g90
ssg71
g2706
sg64
(lp2718
S':'
asbag57
(g78
g59
NtRp2719
(dp2720
g62
(dp2721
sg71
g2706
sg64
(lp2722
g57
(g58
g59
NtRp2723
(dp2724
g62
(dp2725
g70
I4
ssg71
g2719
sg64
(lp2726
S'Hol'
p2727
asbasbasbag57
(g73
g59
NtRp2728
(dp2729
g62
(dp2730
sg71
g2614
sg64
(lp2731
g57
(g78
g59
NtRp2732
(dp2733
g62
(dp2734
g82
g83
ssg71
g2728
sg64
(lp2735
S'submit'
p2736
asbag57
(g78
g59
NtRp2737
(dp2738
g62
(dp2739
g89
g90
ssg71
g2728
sg64
(lp2740
S':'
asbag57
(g78
g59
NtRp2741
(dp2742
g62
(dp2743
sg71
g2728
sg64
(lp2744
g57
(g58
g59
NtRp2745
(dp2746
g62
(dp2747
g70
I4
ssg71
g2741
sg64
(lp2748
S'Submit'
p2749
asbasbasbag57
(g73
g59
NtRp2750
(dp2751
g62
(dp2752
sg71
g2614
sg64
(lp2753
g57
(g78
g59
NtRp2754
(dp2755
g62
(dp2756
g82
g83
ssg71
g2750
sg64
(lp2757
S'tday'
p2758
asbag57
(g78
g59
NtRp2759
(dp2760
g62
(dp2761
g89
g90
ssg71
g2750
sg64
(lp2762
S':'
asbag57
(g78
g59
NtRp2763
(dp2764
g62
(dp2765
sg71
g2750
sg64
(lp2766
g57
(g58
g59
NtRp2767
(dp2768
g62
(dp2769
g70
I4
ssg71
g2763
sg64
(lp2770
S'9'
asbasbasbag57
(g73
g59
NtRp2771
(dp2772
g62
(dp2773
sg71
g2614
sg64
(lp2774
g57
(g78
g59
NtRp2775
(dp2776
g62
(dp2777
g82
g83
ssg71
g2771
sg64
(lp2778
S'tleave'
p2779
asbag57
(g78
g59
NtRp2780
(dp2781
g62
(dp2782
g89
g90
ssg71
g2771
sg64
(lp2783
S':'
asbag57
(g78
g59
NtRp2784
(dp2785
g62
(dp2786
sg71
g2771
sg64
(lp2787
g57
(g58
g59
NtRp2788
(dp2789
g62
(dp2790
g70
I4
ssg71
g2784
sg64
(lp2791
S'2012-06-08'
p2792
asbasbasbasbasbasbasbag57
(g73
g59
NtRp2793
(dp2794
g62
(dp2795
sg71
g67
sg64
(lp2796
g57
(g78
g59
NtRp2797
(dp2798
g62
(dp2799
g82
g83
ssg71
g2793
sg64
(lp2800
S'raw_args'
p2801
asbag57
(g78
g59
NtRp2802
(dp2803
g62
(dp2804
g89
g90
ssg71
g2793
sg64
(lp2805
S':'
asbag57
(g78
g59
NtRp2806
(dp2807
g62
(dp2808
sg71
g2793
sg64
(lp2809
g57
(g58
g59
NtRp2810
(dp2811
g62
(dp2812
g70
I5
ssg71
g2806
sg64
(lp2813
g159
asbasbasbag57
(g73
g59
NtRp2814
(dp2815
g62
(dp2816
sg71
g67
sg64
(lp2817
g57
(g78
g59
NtRp2818
(dp2819
g62
(dp2820
g82
g83
ssg71
g2814
sg64
(lp2821
S'url'
p2822
asbag57
(g78
g59
NtRp2823
(dp2824
g62
(dp2825
g89
g90
ssg71
g2814
sg64
(lp2826
S':'
asbag57
(g78
g59
NtRp2827
(dp2828
g62
(dp2829
sg71
g2814
sg64
(lp2830
g57
(g58
g59
NtRp2831
(dp2832
g62
(dp2833
g70
I5
ssg71
g2827
sg64
(lp2834
S'/themishrms/default/admin_edit_leave_status/admin_submit_edit_leave_status'
p2835
asbasbasbag57
(g73
g59
NtRp2836
(dp2837
g62
(dp2838
sg71
g67
sg64
(lp2839
g57
(g78
g59
NtRp2840
(dp2841
g62
(dp2842
g82
g83
ssg71
g2836
sg64
(lp2843
S'utcnow'
p2844
asbag57
(g78
g59
NtRp2845
(dp2846
g62
(dp2847
g89
g90
ssg71
g2836
sg64
(lp2848
S':'
asbag57
(g78
g59
NtRp2849
(dp2850
g62
(dp2851
sg71
g2836
sg64
(lp2852
g57
(g58
g59
NtRp2853
(dp2854
g62
(dp2855
g70
I5
ssg71
g2849
sg64
(lp2856
S'datetime.datetime(2012, 5, 2, 8, 18, 28, 932352)'
p2857
asbasbasbag57
(g73
g59
NtRp2858
(dp2859
g62
(dp2860
sg71
g67
sg64
(lp2861
g57
(g78
g59
NtRp2862
(dp2863
g62
(dp2864
g82
g83
ssg71
g2858
sg64
(lp2865
S'uuid'
p2866
asbag57
(g78
g59
NtRp2867
(dp2868
g62
(dp2869
g89
g90
ssg71
g2858
sg64
(lp2870
S':'
asbag57
(g78
g59
NtRp2871
(dp2872
g62
(dp2873
sg71
g2858
sg64
(lp2874
g57
(g58
g59
NtRp2875
(dp2876
g62
(dp2877
g70
I5
ssg71
g2871
sg64
(lp2878
S'themishrms/127.0.0.1.2012-05-02.13-48-28.9798a256-ce87-4022-b7fd-bdaabd584584'
p2879
asbasbasbag57
(g73
g59
NtRp2880
(dp2881
g62
(dp2882
sg71
g67
sg64
(lp2883
g57
(g78
g59
NtRp2884
(dp2885
g62
(dp2886
g82
g83
ssg71
g2880
sg64
(lp2887
S'vars'
p2888
asbag57
(g78
g59
NtRp2889
(dp2890
g62
(dp2891
g89
g90
ssg71
g2880
sg64
(lp2892
S':'
asbag57
(g78
g59
NtRp2893
(dp2894
g62
(dp2895
sg71
g2880
sg64
(lp2896
g57
(g58
g59
NtRp2897
(dp2898
g62
(dp2899
g70
I5
ssg71
g2893
sg64
(lp2900
g57
(g66
g59
NtRp2901
(dp2902
g62
(dp2903
g70
I4
ssg71
Nsg64
(lp2904
g57
(g73
g59
NtRp2905
(dp2906
g62
(dp2907
sg71
g2901
sg64
(lp2908
g57
(g78
g59
NtRp2909
(dp2910
g62
(dp2911
g82
g83
ssg71
g2905
sg64
(lp2912
g2626
asbag57
(g78
g59
NtRp2913
(dp2914
g62
(dp2915
g89
g90
ssg71
g2905
sg64
(lp2916
S':'
asbag57
(g78
g59
NtRp2917
(dp2918
g62
(dp2919
sg71
g2905
sg64
(lp2920
g57
(g58
g59
NtRp2921
(dp2922
g62
(dp2923
g70
I4
ssg71
g2917
sg64
(lp2924
g2639
asbasbasbag57
(g73
g59
NtRp2925
(dp2926
g62
(dp2927
sg71
g2901
sg64
(lp2928
g57
(g78
g59
NtRp2929
(dp2930
g62
(dp2931
g82
g83
ssg71
g2925
sg64
(lp2932
g2648
asbag57
(g78
g59
NtRp2933
(dp2934
g62
(dp2935
g89
g90
ssg71
g2925
sg64
(lp2936
S':'
asbag57
(g78
g59
NtRp2937
(dp2938
g62
(dp2939
sg71
g2925
sg64
(lp2940
g57
(g58
g59
NtRp2941
(dp2942
g62
(dp2943
g70
I4
ssg71
g2937
sg64
(lp2944
g2661
asbasbasbag57
(g73
g59
NtRp2945
(dp2946
g62
(dp2947
sg71
g2901
sg64
(lp2948
g57
(g78
g59
NtRp2949
(dp2950
g62
(dp2951
g82
g83
ssg71
g2945
sg64
(lp2952
g2670
asbag57
(g78
g59
NtRp2953
(dp2954
g62
(dp2955
g89
g90
ssg71
g2945
sg64
(lp2956
S':'
asbag57
(g78
g59
NtRp2957
(dp2958
g62
(dp2959
sg71
g2945
sg64
(lp2960
g57
(g58
g59
NtRp2961
(dp2962
g62
(dp2963
g70
I4
ssg71
g2957
sg64
(lp2964
g2683
asbasbasbag57
(g73
g59
NtRp2965
(dp2966
g62
(dp2967
sg71
g2901
sg64
(lp2968
g57
(g78
g59
NtRp2969
(dp2970
g62
(dp2971
g82
g83
ssg71
g2965
sg64
(lp2972
g2692
asbag57
(g78
g59
NtRp2973
(dp2974
g62
(dp2975
g89
g90
ssg71
g2965
sg64
(lp2976
S':'
asbag57
(g78
g59
NtRp2977
(dp2978
g62
(dp2979
sg71
g2965
sg64
(lp2980
g57
(g58
g59
NtRp2981
(dp2982
g62
(dp2983
g70
I4
ssg71
g2977
sg64
(lp2984
g2705
asbasbasbag57
(g73
g59
NtRp2985
(dp2986
g62
(dp2987
sg71
g2901
sg64
(lp2988
g57
(g78
g59
NtRp2989
(dp2990
g62
(dp2991
g82
g83
ssg71
g2985
sg64
(lp2992
g2714
asbag57
(g78
g59
NtRp2993
(dp2994
g62
(dp2995
g89
g90
ssg71
g2985
sg64
(lp2996
S':'
asbag57
(g78
g59
NtRp2997
(dp2998
g62
(dp2999
sg71
g2985
sg64
(lp3000
g57
(g58
g59
NtRp3001
(dp3002
g62
(dp3003
g70
I4
ssg71
g2997
sg64
(lp3004
g2727
asbasbasbag57
(g73
g59
NtRp3005
(dp3006
g62
(dp3007
sg71
g2901
sg64
(lp3008
g57
(g78
g59
NtRp3009
(dp3010
g62
(dp3011
g82
g83
ssg71
g3005
sg64
(lp3012
g2736
asbag57
(g78
g59
NtRp3013
(dp3014
g62
(dp3015
g89
g90
ssg71
g3005
sg64
(lp3016
S':'
asbag57
(g78
g59
NtRp3017
(dp3018
g62
(dp3019
sg71
g3005
sg64
(lp3020
g57
(g58
g59
NtRp3021
(dp3022
g62
(dp3023
g70
I4
ssg71
g3017
sg64
(lp3024
g2749
asbasbasbag57
(g73
g59
NtRp3025
(dp3026
g62
(dp3027
sg71
g2901
sg64
(lp3028
g57
(g78
g59
NtRp3029
(dp3030
g62
(dp3031
g82
g83
ssg71
g3025
sg64
(lp3032
g2758
asbag57
(g78
g59
NtRp3033
(dp3034
g62
(dp3035
g89
g90
ssg71
g3025
sg64
(lp3036
S':'
asbag57
(g78
g59
NtRp3037
(dp3038
g62
(dp3039
sg71
g3025
sg64
(lp3040
g57
(g58
g59
NtRp3041
(dp3042
g62
(dp3043
g70
I4
ssg71
g3037
sg64
(lp3044
S'9'
asbasbasbag57
(g73
g59
NtRp3045
(dp3046
g62
(dp3047
sg71
g2901
sg64
(lp3048
g57
(g78
g59
NtRp3049
(dp3050
g62
(dp3051
g82
g83
ssg71
g3045
sg64
(lp3052
g2779
asbag57
(g78
g59
NtRp3053
(dp3054
g62
(dp3055
g89
g90
ssg71
g3045
sg64
(lp3056
S':'
asbag57
(g78
g59
NtRp3057
(dp3058
g62
(dp3059
sg71
g3045
sg64
(lp3060
g57
(g58
g59
NtRp3061
(dp3062
g62
(dp3063
g70
I4
ssg71
g3057
sg64
(lp3064
g2792
asbasbasbasbasbasbasbag57
(g73
g59
NtRp3065
(dp3066
g62
(dp3067
sg71
g67
sg64
(lp3068
g57
(g78
g59
NtRp3069
(dp3070
g62
(dp3071
g82
g83
ssg71
g3065
sg64
(lp3072
S'wsgi'
p3073
asbag57
(g78
g59
NtRp3074
(dp3075
g62
(dp3076
g89
g90
ssg71
g3065
sg64
(lp3077
S':'
asbag57
(g78
g59
NtRp3078
(dp3079
g62
(dp3080
sg71
g3065
sg64
(lp3081
g57
(g58
g59
NtRp3082
(dp3083
g62
(dp3084
g70
I5
ssg71
g3078
sg64
(lp3085
g57
(g66
g59
NtRp3086
(dp3087
g62
(dp3088
g70
I4
ssg71
Nsg64
(lp3089
g57
(g73
g59
NtRp3090
(dp3091
g62
(dp3092
sg71
g3086
sg64
(lp3093
g57
(g78
g59
NtRp3094
(dp3095
g62
(dp3096
g82
g83
ssg71
g3090
sg64
(lp3097
S'environ'
p3098
asbag57
(g78
g59
NtRp3099
(dp3100
g62
(dp3101
g89
g90
ssg71
g3090
sg64
(lp3102
S':'
asbag57
(g78
g59
NtRp3103
(dp3104
g62
(dp3105
sg71
g3090
sg64
(lp3106
g57
(g58
g59
NtRp3107
(dp3108
g62
(dp3109
g70
I4
ssg71
g3103
sg64
(lp3110
g57
(g66
g59
NtRp3111
(dp3112
g62
(dp3113
g70
I3
ssg71
Nsg64
(lp3114
g57
(g73
g59
NtRp3115
(dp3116
g62
(dp3117
sg71
g3111
sg64
(lp3118
g57
(g78
g59
NtRp3119
(dp3120
g62
(dp3121
g82
g83
ssg71
g3115
sg64
(lp3122
S'CONTENT_LENGTH'
p3123
asbag57
(g78
g59
NtRp3124
(dp3125
g62
(dp3126
g89
g90
ssg71
g3115
sg64
(lp3127
S':'
asbag57
(g78
g59
NtRp3128
(dp3129
g62
(dp3130
sg71
g3115
sg64
(lp3131
g57
(g58
g59
NtRp3132
(dp3133
g62
(dp3134
g70
I3
ssg71
g3128
sg64
(lp3135
g1136
asbasbasbag57
(g73
g59
NtRp3136
(dp3137
g62
(dp3138
sg71
g3111
sg64
(lp3139
g57
(g78
g59
NtRp3140
(dp3141
g62
(dp3142
g82
g83
ssg71
g3136
sg64
(lp3143
S'CONTENT_TYPE'
p3144
asbag57
(g78
g59
NtRp3145
(dp3146
g62
(dp3147
g89
g90
ssg71
g3136
sg64
(lp3148
S':'
asbag57
(g78
g59
NtRp3149
(dp3150
g62
(dp3151
sg71
g3136
sg64
(lp3152
g57
(g58
g59
NtRp3153
(dp3154
g62
(dp3155
g70
I3
ssg71
g3149
sg64
(lp3156
g1158
asbasbasbag57
(g73
g59
NtRp3157
(dp3158
g62
(dp3159
sg71
g3111
sg64
(lp3160
g57
(g78
g59
NtRp3161
(dp3162
g62
(dp3163
g82
g83
ssg71
g3157
sg64
(lp3164
S'HTTP_ACCEPT'
p3165
asbag57
(g78
g59
NtRp3166
(dp3167
g62
(dp3168
g89
g90
ssg71
g3157
sg64
(lp3169
S':'
asbag57
(g78
g59
NtRp3170
(dp3171
g62
(dp3172
sg71
g3157
sg64
(lp3173
g57
(g58
g59
NtRp3174
(dp3175
g62
(dp3176
g70
I3
ssg71
g3170
sg64
(lp3177
g1245
asbasbasbag57
(g73
g59
NtRp3178
(dp3179
g62
(dp3180
sg71
g3111
sg64
(lp3181
g57
(g78
g59
NtRp3182
(dp3183
g62
(dp3184
g82
g83
ssg71
g3178
sg64
(lp3185
S'HTTP_ACCEPT_CHARSET'
p3186
asbag57
(g78
g59
NtRp3187
(dp3188
g62
(dp3189
g89
g90
ssg71
g3178
sg64
(lp3190
S':'
asbag57
(g78
g59
NtRp3191
(dp3192
g62
(dp3193
sg71
g3178
sg64
(lp3194
g57
(g58
g59
NtRp3195
(dp3196
g62
(dp3197
g70
I3
ssg71
g3191
sg64
(lp3198
g1267
asbasbasbag57
(g73
g59
NtRp3199
(dp3200
g62
(dp3201
sg71
g3111
sg64
(lp3202
g57
(g78
g59
NtRp3203
(dp3204
g62
(dp3205
g82
g83
ssg71
g3199
sg64
(lp3206
S'HTTP_ACCEPT_ENCODING'
p3207
asbag57
(g78
g59
NtRp3208
(dp3209
g62
(dp3210
g89
g90
ssg71
g3199
sg64
(lp3211
S':'
asbag57
(g78
g59
NtRp3212
(dp3213
g62
(dp3214
sg71
g3199
sg64
(lp3215
g57
(g58
g59
NtRp3216
(dp3217
g62
(dp3218
g70
I3
ssg71
g3212
sg64
(lp3219
g1289
asbasbasbag57
(g73
g59
NtRp3220
(dp3221
g62
(dp3222
sg71
g3111
sg64
(lp3223
g57
(g78
g59
NtRp3224
(dp3225
g62
(dp3226
g82
g83
ssg71
g3220
sg64
(lp3227
S'HTTP_ACCEPT_LANGUAGE'
p3228
asbag57
(g78
g59
NtRp3229
(dp3230
g62
(dp3231
g89
g90
ssg71
g3220
sg64
(lp3232
S':'
asbag57
(g78
g59
NtRp3233
(dp3234
g62
(dp3235
sg71
g3220
sg64
(lp3236
g57
(g58
g59
NtRp3237
(dp3238
g62
(dp3239
g70
I3
ssg71
g3233
sg64
(lp3240
g1311
asbasbasbag57
(g73
g59
NtRp3241
(dp3242
g62
(dp3243
sg71
g3111
sg64
(lp3244
g57
(g78
g59
NtRp3245
(dp3246
g62
(dp3247
g82
g83
ssg71
g3241
sg64
(lp3248
S'HTTP_CACHE_CONTROL'
p3249
asbag57
(g78
g59
NtRp3250
(dp3251
g62
(dp3252
g89
g90
ssg71
g3241
sg64
(lp3253
S':'
asbag57
(g78
g59
NtRp3254
(dp3255
g62
(dp3256
sg71
g3241
sg64
(lp3257
g57
(g58
g59
NtRp3258
(dp3259
g62
(dp3260
g70
I3
ssg71
g3254
sg64
(lp3261
g1333
asbasbasbag57
(g73
g59
NtRp3262
(dp3263
g62
(dp3264
sg71
g3111
sg64
(lp3265
g57
(g78
g59
NtRp3266
(dp3267
g62
(dp3268
g82
g83
ssg71
g3262
sg64
(lp3269
S'HTTP_CONNECTION'
p3270
asbag57
(g78
g59
NtRp3271
(dp3272
g62
(dp3273
g89
g90
ssg71
g3262
sg64
(lp3274
S':'
asbag57
(g78
g59
NtRp3275
(dp3276
g62
(dp3277
sg71
g3262
sg64
(lp3278
g57
(g58
g59
NtRp3279
(dp3280
g62
(dp3281
g70
I3
ssg71
g3275
sg64
(lp3282
g1355
asbasbasbag57
(g73
g59
NtRp3283
(dp3284
g62
(dp3285
sg71
g3111
sg64
(lp3286
g57
(g78
g59
NtRp3287
(dp3288
g62
(dp3289
g82
g83
ssg71
g3283
sg64
(lp3290
S'HTTP_CONTENT_LENGTH'
p3291
asbag57
(g78
g59
NtRp3292
(dp3293
g62
(dp3294
g89
g90
ssg71
g3283
sg64
(lp3295
S':'
asbag57
(g78
g59
NtRp3296
(dp3297
g62
(dp3298
sg71
g3283
sg64
(lp3299
g57
(g58
g59
NtRp3300
(dp3301
g62
(dp3302
g70
I3
ssg71
g3296
sg64
(lp3303
g1136
asbasbasbag57
(g73
g59
NtRp3304
(dp3305
g62
(dp3306
sg71
g3111
sg64
(lp3307
g57
(g78
g59
NtRp3308
(dp3309
g62
(dp3310
g82
g83
ssg71
g3304
sg64
(lp3311
S'HTTP_CONTENT_TYPE'
p3312
asbag57
(g78
g59
NtRp3313
(dp3314
g62
(dp3315
g89
g90
ssg71
g3304
sg64
(lp3316
S':'
asbag57
(g78
g59
NtRp3317
(dp3318
g62
(dp3319
sg71
g3304
sg64
(lp3320
g57
(g58
g59
NtRp3321
(dp3322
g62
(dp3323
g70
I3
ssg71
g3317
sg64
(lp3324
g1158
asbasbasbag57
(g73
g59
NtRp3325
(dp3326
g62
(dp3327
sg71
g3111
sg64
(lp3328
g57
(g78
g59
NtRp3329
(dp3330
g62
(dp3331
g82
g83
ssg71
g3325
sg64
(lp3332
S'HTTP_COOKIE'
p3333
asbag57
(g78
g59
NtRp3334
(dp3335
g62
(dp3336
g89
g90
ssg71
g3325
sg64
(lp3337
S':'
asbag57
(g78
g59
NtRp3338
(dp3339
g62
(dp3340
sg71
g3325
sg64
(lp3341
g57
(g58
g59
NtRp3342
(dp3343
g62
(dp3344
g70
I3
ssg71
g3338
sg64
(lp3345
g1419
asbasbasbag57
(g73
g59
NtRp3346
(dp3347
g62
(dp3348
sg71
g3111
sg64
(lp3349
g57
(g78
g59
NtRp3350
(dp3351
g62
(dp3352
g82
g83
ssg71
g3346
sg64
(lp3353
S'HTTP_HOST'
p3354
asbag57
(g78
g59
NtRp3355
(dp3356
g62
(dp3357
g89
g90
ssg71
g3346
sg64
(lp3358
S':'
asbag57
(g78
g59
NtRp3359
(dp3360
g62
(dp3361
sg71
g3346
sg64
(lp3362
g57
(g58
g59
NtRp3363
(dp3364
g62
(dp3365
g70
I3
ssg71
g3359
sg64
(lp3366
g1441
asbasbasbag57
(g73
g59
NtRp3367
(dp3368
g62
(dp3369
sg71
g3111
sg64
(lp3370
g57
(g78
g59
NtRp3371
(dp3372
g62
(dp3373
g82
g83
ssg71
g3367
sg64
(lp3374
S'HTTP_ORIGIN'
p3375
asbag57
(g78
g59
NtRp3376
(dp3377
g62
(dp3378
g89
g90
ssg71
g3367
sg64
(lp3379
S':'
asbag57
(g78
g59
NtRp3380
(dp3381
g62
(dp3382
sg71
g3367
sg64
(lp3383
g57
(g58
g59
NtRp3384
(dp3385
g62
(dp3386
g70
I3
ssg71
g3380
sg64
(lp3387
g1463
asbasbasbag57
(g73
g59
NtRp3388
(dp3389
g62
(dp3390
sg71
g3111
sg64
(lp3391
g57
(g78
g59
NtRp3392
(dp3393
g62
(dp3394
g82
g83
ssg71
g3388
sg64
(lp3395
S'HTTP_REFERER'
p3396
asbag57
(g78
g59
NtRp3397
(dp3398
g62
(dp3399
g89
g90
ssg71
g3388
sg64
(lp3400
S':'
asbag57
(g78
g59
NtRp3401
(dp3402
g62
(dp3403
sg71
g3388
sg64
(lp3404
g57
(g58
g59
NtRp3405
(dp3406
g62
(dp3407
g70
I3
ssg71
g3401
sg64
(lp3408
g1485
asbasbasbag57
(g73
g59
NtRp3409
(dp3410
g62
(dp3411
sg71
g3111
sg64
(lp3412
g57
(g78
g59
NtRp3413
(dp3414
g62
(dp3415
g82
g83
ssg71
g3409
sg64
(lp3416
S'HTTP_USER_AGENT'
p3417
asbag57
(g78
g59
NtRp3418
(dp3419
g62
(dp3420
g89
g90
ssg71
g3409
sg64
(lp3421
S':'
asbag57
(g78
g59
NtRp3422
(dp3423
g62
(dp3424
sg71
g3409
sg64
(lp3425
g57
(g58
g59
NtRp3426
(dp3427
g62
(dp3428
g70
I3
ssg71
g3422
sg64
(lp3429
g1507
asbasbasbag57
(g73
g59
NtRp3430
(dp3431
g62
(dp3432
sg71
g3111
sg64
(lp3433
g57
(g78
g59
NtRp3434
(dp3435
g62
(dp3436
g82
g83
ssg71
g3430
sg64
(lp3437
S'PATH_INFO'
p3438
asbag57
(g78
g59
NtRp3439
(dp3440
g62
(dp3441
g89
g90
ssg71
g3430
sg64
(lp3442
S':'
asbag57
(g78
g59
NtRp3443
(dp3444
g62
(dp3445
sg71
g3430
sg64
(lp3446
g57
(g58
g59
NtRp3447
(dp3448
g62
(dp3449
g70
I3
ssg71
g3443
sg64
(lp3450
g1571
asbasbasbag57
(g73
g59
NtRp3451
(dp3452
g62
(dp3453
sg71
g3111
sg64
(lp3454
g57
(g78
g59
NtRp3455
(dp3456
g62
(dp3457
g82
g83
ssg71
g3451
sg64
(lp3458
S'QUERY_STRING'
p3459
asbag57
(g78
g59
NtRp3460
(dp3461
g62
(dp3462
g89
g90
ssg71
g3451
sg64
(lp3463
S':'
asbag57
(g78
g59
NtRp3464
(dp3465
g62
(dp3466
sg71
g3451
sg64
(lp3467
g57
(g58
g59
NtRp3468
(dp3469
g62
(dp3470
g70
I3
ssg71
g3464
sg64
(lp3471
S''
asbasbasbag57
(g73
g59
NtRp3472
(dp3473
g62
(dp3474
sg71
g3111
sg64
(lp3475
g57
(g78
g59
NtRp3476
(dp3477
g62
(dp3478
g82
g83
ssg71
g3472
sg64
(lp3479
S'REMOTE_ADDR'
p3480
asbag57
(g78
g59
NtRp3481
(dp3482
g62
(dp3483
g89
g90
ssg71
g3472
sg64
(lp3484
S':'
asbag57
(g78
g59
NtRp3485
(dp3486
g62
(dp3487
sg71
g3472
sg64
(lp3488
g57
(g58
g59
NtRp3489
(dp3490
g62
(dp3491
g70
I3
ssg71
g3485
sg64
(lp3492
g203
asbasbasbag57
(g73
g59
NtRp3493
(dp3494
g62
(dp3495
sg71
g3111
sg64
(lp3496
g57
(g78
g59
NtRp3497
(dp3498
g62
(dp3499
g82
g83
ssg71
g3493
sg64
(lp3500
S'REMOTE_PORT'
p3501
asbag57
(g78
g59
NtRp3502
(dp3503
g62
(dp3504
g89
g90
ssg71
g3493
sg64
(lp3505
S':'
asbag57
(g78
g59
NtRp3506
(dp3507
g62
(dp3508
sg71
g3493
sg64
(lp3509
g57
(g58
g59
NtRp3510
(dp3511
g62
(dp3512
g70
I3
ssg71
g3506
sg64
(lp3513
g1635
asbasbasbag57
(g73
g59
NtRp3514
(dp3515
g62
(dp3516
sg71
g3111
sg64
(lp3517
g57
(g78
g59
NtRp3518
(dp3519
g62
(dp3520
g82
g83
ssg71
g3514
sg64
(lp3521
S'REQUEST_METHOD'
p3522
asbag57
(g78
g59
NtRp3523
(dp3524
g62
(dp3525
g89
g90
ssg71
g3514
sg64
(lp3526
S':'
asbag57
(g78
g59
NtRp3527
(dp3528
g62
(dp3529
sg71
g3514
sg64
(lp3530
g57
(g58
g59
NtRp3531
(dp3532
g62
(dp3533
g70
I3
ssg71
g3527
sg64
(lp3534
g1657
asbasbasbag57
(g73
g59
NtRp3535
(dp3536
g62
(dp3537
sg71
g3111
sg64
(lp3538
g57
(g78
g59
NtRp3539
(dp3540
g62
(dp3541
g82
g83
ssg71
g3535
sg64
(lp3542
S'SCRIPT_NAME'
p3543
asbag57
(g78
g59
NtRp3544
(dp3545
g62
(dp3546
g89
g90
ssg71
g3535
sg64
(lp3547
S':'
asbag57
(g78
g59
NtRp3548
(dp3549
g62
(dp3550
sg71
g3535
sg64
(lp3551
g57
(g58
g59
NtRp3552
(dp3553
g62
(dp3554
g70
I3
ssg71
g3548
sg64
(lp3555
S''
asbasbasbag57
(g73
g59
NtRp3556
(dp3557
g62
(dp3558
sg71
g3111
sg64
(lp3559
g57
(g78
g59
NtRp3560
(dp3561
g62
(dp3562
g82
g83
ssg71
g3556
sg64
(lp3563
S'SERVER_NAME'
p3564
asbag57
(g78
g59
NtRp3565
(dp3566
g62
(dp3567
g89
g90
ssg71
g3556
sg64
(lp3568
S':'
asbag57
(g78
g59
NtRp3569
(dp3570
g62
(dp3571
sg71
g3556
sg64
(lp3572
g57
(g58
g59
NtRp3573
(dp3574
g62
(dp3575
g70
I3
ssg71
g3569
sg64
(lp3576
g1700
asbasbasbag57
(g73
g59
NtRp3577
(dp3578
g62
(dp3579
sg71
g3111
sg64
(lp3580
g57
(g78
g59
NtRp3581
(dp3582
g62
(dp3583
g82
g83
ssg71
g3577
sg64
(lp3584
S'SERVER_PORT'
p3585
asbag57
(g78
g59
NtRp3586
(dp3587
g62
(dp3588
g89
g90
ssg71
g3577
sg64
(lp3589
S':'
asbag57
(g78
g59
NtRp3590
(dp3591
g62
(dp3592
sg71
g3577
sg64
(lp3593
g57
(g58
g59
NtRp3594
(dp3595
g62
(dp3596
g70
I3
ssg71
g3590
sg64
(lp3597
g1722
asbasbasbag57
(g73
g59
NtRp3598
(dp3599
g62
(dp3600
sg71
g3111
sg64
(lp3601
g57
(g78
g59
NtRp3602
(dp3603
g62
(dp3604
g82
g83
ssg71
g3598
sg64
(lp3605
S'SERVER_PROTOCOL'
p3606
asbag57
(g78
g59
NtRp3607
(dp3608
g62
(dp3609
g89
g90
ssg71
g3598
sg64
(lp3610
S':'
asbag57
(g78
g59
NtRp3611
(dp3612
g62
(dp3613
sg71
g3598
sg64
(lp3614
g57
(g58
g59
NtRp3615
(dp3616
g62
(dp3617
g70
I3
ssg71
g3611
sg64
(lp3618
g1744
asbasbasbag57
(g73
g59
NtRp3619
(dp3620
g62
(dp3621
sg71
g3111
sg64
(lp3622
g57
(g78
g59
NtRp3623
(dp3624
g62
(dp3625
g82
g83
ssg71
g3619
sg64
(lp3626
S'SERVER_SOFTWARE'
p3627
asbag57
(g78
g59
NtRp3628
(dp3629
g62
(dp3630
g89
g90
ssg71
g3619
sg64
(lp3631
S':'
asbag57
(g78
g59
NtRp3632
(dp3633
g62
(dp3634
sg71
g3619
sg64
(lp3635
g57
(g58
g59
NtRp3636
(dp3637
g62
(dp3638
g70
I3
ssg71
g3632
sg64
(lp3639
g1766
asbasbasbag57
(g73
g59
NtRp3640
(dp3641
g62
(dp3642
sg71
g3111
sg64
(lp3643
g57
(g78
g59
NtRp3644
(dp3645
g62
(dp3646
g82
g83
ssg71
g3640
sg64
(lp3647
S'wsgi.errors'
p3648
asbag57
(g78
g59
NtRp3649
(dp3650
g62
(dp3651
g89
g90
ssg71
g3640
sg64
(lp3652
S':'
asbag57
(g78
g59
NtRp3653
(dp3654
g62
(dp3655
sg71
g3640
sg64
(lp3656
g57
(g58
g59
NtRp3657
(dp3658
g62
(dp3659
g70
I3
ssg71
g3653
sg64
(lp3660
S"<open file '<stderr>', mode 'w' at 0xb73f60d0>"
p3661
asbasbasbag57
(g73
g59
NtRp3662
(dp3663
g62
(dp3664
sg71
g3111
sg64
(lp3665
g57
(g78
g59
NtRp3666
(dp3667
g62
(dp3668
g82
g83
ssg71
g3662
sg64
(lp3669
S'wsgi.file_wrapper'
p3670
asbag57
(g78
g59
NtRp3671
(dp3672
g62
(dp3673
g89
g90
ssg71
g3662
sg64
(lp3674
S':'
asbag57
(g78
g59
NtRp3675
(dp3676
g62
(dp3677
sg71
g3662
sg64
(lp3678
g57
(g58
g59
NtRp3679
(dp3680
g62
(dp3681
g70
I3
ssg71
g3675
sg64
(lp3682
S'<class wsgiref.util.FileWrapper at 0x8f7daac>'
p3683
asbasbasbag57
(g73
g59
NtRp3684
(dp3685
g62
(dp3686
sg71
g3111
sg64
(lp3687
g57
(g78
g59
NtRp3688
(dp3689
g62
(dp3690
g82
g83
ssg71
g3684
sg64
(lp3691
S'wsgi.input'
p3692
asbag57
(g78
g59
NtRp3693
(dp3694
g62
(dp3695
g89
g90
ssg71
g3684
sg64
(lp3696
S':'
asbag57
(g78
g59
NtRp3697
(dp3698
g62
(dp3699
sg71
g3684
sg64
(lp3700
g57
(g58
g59
NtRp3701
(dp3702
g62
(dp3703
g70
I3
ssg71
g3697
sg64
(lp3704
S"<open file '<fdopen>', mode 'w+b' at 0x9a825a0>"
p3705
asbasbasbag57
(g73
g59
NtRp3706
(dp3707
g62
(dp3708
sg71
g3111
sg64
(lp3709
g57
(g78
g59
NtRp3710
(dp3711
g62
(dp3712
g82
g83
ssg71
g3706
sg64
(lp3713
S'wsgi.multiprocess'
p3714
asbag57
(g78
g59
NtRp3715
(dp3716
g62
(dp3717
g89
g90
ssg71
g3706
sg64
(lp3718
S':'
asbag57
(g78
g59
NtRp3719
(dp3720
g62
(dp3721
sg71
g3706
sg64
(lp3722
g57
(g58
g59
NtRp3723
(dp3724
g62
(dp3725
g70
I3
ssg71
g3719
sg64
(lp3726
g100
asbasbasbag57
(g73
g59
NtRp3727
(dp3728
g62
(dp3729
sg71
g3111
sg64
(lp3730
g57
(g78
g59
NtRp3731
(dp3732
g62
(dp3733
g82
g83
ssg71
g3727
sg64
(lp3734
S'wsgi.multithread'
p3735
asbag57
(g78
g59
NtRp3736
(dp3737
g62
(dp3738
g89
g90
ssg71
g3727
sg64
(lp3739
S':'
asbag57
(g78
g59
NtRp3740
(dp3741
g62
(dp3742
sg71
g3727
sg64
(lp3743
g57
(g58
g59
NtRp3744
(dp3745
g62
(dp3746
g70
I3
ssg71
g3740
sg64
(lp3747
g2006
asbasbasbag57
(g73
g59
NtRp3748
(dp3749
g62
(dp3750
sg71
g3111
sg64
(lp3751
g57
(g78
g59
NtRp3752
(dp3753
g62
(dp3754
g82
g83
ssg71
g3748
sg64
(lp3755
S'wsgi.run_once'
p3756
asbag57
(g78
g59
NtRp3757
(dp3758
g62
(dp3759
g89
g90
ssg71
g3748
sg64
(lp3760
S':'
asbag57
(g78
g59
NtRp3761
(dp3762
g62
(dp3763
sg71
g3748
sg64
(lp3764
g57
(g58
g59
NtRp3765
(dp3766
g62
(dp3767
g70
I3
ssg71
g3761
sg64
(lp3768
g100
asbasbasbag57
(g73
g59
NtRp3769
(dp3770
g62
(dp3771
sg71
g3111
sg64
(lp3772
g57
(g78
g59
NtRp3773
(dp3774
g62
(dp3775
g82
g83
ssg71
g3769
sg64
(lp3776
S'wsgi.url_scheme'
p3777
asbag57
(g78
g59
NtRp3778
(dp3779
g62
(dp3780
g89
g90
ssg71
g3769
sg64
(lp3781
S':'
asbag57
(g78
g59
NtRp3782
(dp3783
g62
(dp3784
sg71
g3769
sg64
(lp3785
g57
(g58
g59
NtRp3786
(dp3787
g62
(dp3788
g70
I3
ssg71
g3782
sg64
(lp3789
g2049
asbasbasbag57
(g73
g59
NtRp3790
(dp3791
g62
(dp3792
sg71
g3111
sg64
(lp3793
g57
(g78
g59
NtRp3794
(dp3795
g62
(dp3796
g82
g83
ssg71
g3790
sg64
(lp3797
S'wsgi.version'
p3798
asbag57
(g78
g59
NtRp3799
(dp3800
g62
(dp3801
g89
g90
ssg71
g3790
sg64
(lp3802
S':'
asbag57
(g78
g59
NtRp3803
(dp3804
g62
(dp3805
sg71
g3790
sg64
(lp3806
g57
(g58
g59
NtRp3807
(dp3808
g62
(dp3809
g70
I3
ssg71
g3803
sg64
(lp3810
S'1'
asbasbasbasbasbasbasbasbasbasbasbasbasbsS'frames'
p3811
(lp3812
(dp3813
S'file'
p3814
S'/home/tls-sanjeet/Desktop/HRMS/web2py/gluon/restricted.py'
p3815
sS'dump'
p3816
(dp3817
S'environment'
p3818
S"{'A': <class 'gluon.html.A'>, 'Auth': <class 'gluon.tools.Auth'>, 'B': <class 'gluon.html.B'>, 'BEAUTIFY': <class 'gluon.html.BEAUTIFY'>, 'BODY': <class 'gluon.html.BODY'>, 'BR': <class 'gluon.html.BR'>, 'BUTTON': <class 'gluon.html.BUTTON'>, 'CAT': <class 'gluon.html.CAT'>, 'CENTER': <class 'gluon.html.CENTER'>, 'CLEANUP': <class 'gluon.validators.CLEANUP'>, ...}"
p3819
sS'ccode'
p3820
S'<code object <module> at 0x9c40b60, file "/home/...ions/themishrms/controllers/default.py", line 12>'
p3821
ssS'lnum'
p3822
I205
sS'lines'
p3823
(dp3824
I200
S'    try:'
p3825
sI201
S'        if type(code) == types.CodeType:'
p3826
sI202
S'            ccode = code'
p3827
sI203
S'        else:'
p3828
sI204
S'            ccode = compile2(code,layer)'
p3829
sI205
S'        exec ccode in environment'
p3830
sI206
S'    except HTTP:'
p3831
sI207
S'        raise'
p3832
sI208
S'    except RestrictedError:'
p3833
sI209
S'        # do not encapsulate (obfuscate) the original RestrictedError'
p3834
ssS'call'
p3835
S"(code='# -*- coding: utf-8 -*-\\n# this file is released ...._vars=response._caller(admin_edit_leave_status)\\n', environment={'A': <class 'gluon.html.A'>, 'Auth': <class 'gluon.tools.Auth'>, 'B': <class 'gluon.html.B'>, 'BEAUTIFY': <class 'gluon.html.BEAUTIFY'>, 'BODY': <class 'gluon.html.BODY'>, 'BR': <class 'gluon.html.BR'>, 'BUTTON': <class 'gluon.html.BUTTON'>, 'CAT': <class 'gluon.html.CAT'>, 'CENTER': <class 'gluon.html.CENTER'>, 'CLEANUP': <class 'gluon.validators.CLEANUP'>, ...}, layer='/home/tls-sanjeet/Desktop/HRMS/web2py/applications/themishrms/controllers/default.py')"
p3836
sS'func'
p3837
S'restricted'
p3838
sa(dp3839
g3814
S'/home/tls-sanjeet/Desktop/HRMS/web2py/applications/themishrms/controllers/default.py'
p3840
sg3816
(dp3841
sg3822
I1145
sg3823
(dp3842
I1134
S'def del_leave_stat(ids):'
p3843
sI1135
S'\tif not ids:'
p3844
sI1136
S"\t\tresponse.flash='Please Select the Check-box to Delete'"
p3845
sI1137
S'\telse:'
p3846
sI1138
S'\t\tfor row in ids:'
p3847
sI1139
S'\t\t\tdb(db.apply_leave.id == row).delete()'
p3848
sI1140
S'\t\tpass'
p3849
sI1141
S'\tpass'
p3850
sI1142
S"\treturn ''"
p3851
sI1143
S''
ssg3835
S'()'
p3852
sg3837
S'<module>'
p3853
sa(dp3854
g3814
S'/home/tls-sanjeet/Desktop/HRMS/web2py/gluon/globals.py'
p3855
sg3816
(dp3856
S'self'
p3857
S'undefined'
p3858
sS'f'
S'<function admin_edit_leave_status>'
p3859
ssg3822
I173
sg3823
(dp3860
I168
S'        self.menu = []             # used by the default view layout'
p3861
sI169
S'        self.files = []            # used by web2py_ajax.html'
p3862
sI170
S'        self.generic_patterns = [] # patterns to allow generic views'
p3863
sI171
S"        self.delimiters = ('{{','}}')"
p3864
sI172
S'        self._vars = None'
p3865
sI173
S'        self._caller = lambda f: f()'
p3866
sI174
S'        self._view_environment = None'
p3867
sI175
S'        self._custom_commit = None'
p3868
sI176
S'        self._custom_rollback = None'
p3869
sI177
S''
ssg3835
S'(f=<function admin_edit_leave_status>)'
p3870
sg3837
S'<lambda>'
p3871
sa(dp3872
g3814
S'/home/tls-sanjeet/Desktop/HRMS/web2py/gluon/tools.py'
p3873
sg3816
(dp3874
S'action'
p3875
S'<function admin_edit_leave_status>'
p3876
sS'a'
S'()'
p3877
sS'b'
g45
ssg3822
I2575
sg3823
(dp3878
I2570
S'                    flag = condition'
p3879
sI2571
S'                if not flag:'
p3880
sI2572
S'                    current.session.flash = self.messages.access_denied'
p3881
sI2573
S'                    return call_or_redirect('
p3882
sI2574
S'                        self.settings.on_failed_authorization)'
p3883
sI2575
S'                return action(*a, **b)'
p3884
sI2576
S'            f.__doc__ = action.__doc__'
p3885
sI2577
S'            f.__name__ = action.__name__'
p3886
sI2578
S'            f.__dict__.update(action.__dict__)'
p3887
sI2579
S'            return f'
p3888
ssg3835
S'(*a=(), **b={})'
p3889
sg3837
S'f'
sa(dp3890
g3814
S'/home/tls-sanjeet/Desktop/HRMS/web2py/applications/themishrms/controllers/default.py'
p3891
sg3816
(dp3892
S'global session'
p3893
S"<Storage {'status': 'Rejected', 'ltype': 'Vacati...login]': 'ed16bda0-0de4-4d25-9b8a-0bfe130a6b64'}>"
p3894
sS'db.apply_leave.id'
p3895
S'<gluon.dal.Field object>'
p3896
sS'session.eleaveid'
p3897
S"'admin_submit_edit_leave_status'"
p3898
sS').select'
p3899
g3858
sS'db.apply_leave'
p3900
S"<Table {'_db': <DAL {'auth_event': <Table {'orig...e, '_id': <gluon.dal.Field object at 0xa3b3e4c>}>"
p3901
sS'global db'
p3902
S"<DAL {'auth_event': <Table {'origin': <gluon.dal...94fb82c>, '_singular': 'Add new organization'}>}>"
p3903
sS'row'
p3904
g3858
ssg3822
I656
sg3823
(dp3905
I651
S'def admin_edit_leave_status():'
p3906
sI652
S'\tfor row2 in db(db.image.email == auth.user.email).select():'
p3907
sI653
S'\t\timages=row2.image'
p3908
sI654
S"\tltype=['Casual Leave','Medical Leave','Vacation Leave']"
p3909
sI655
S'\tsession.eleaveid=request.args(0)'
p3910
sI656
S'\tfor row in db(db.apply_leave.id==session.eleaveid).select():'
p3911
sI657
S'\t\tecode=row.employee_code'
p3912
sI658
S'\t\tname=row.name'
p3913
sI659
S'\t\tfle=row.from_leave'
p3914
sI660
S'\t\ttle=row.to_leave'
p3915
ssg3835
S'()'
p3916
sg3837
S'admin_edit_leave_status'
p3917
sa(dp3918
g3814
S'/home/tls-sanjeet/Desktop/HRMS/web2py/gluon/dal.py'
p3919
sg3816
(dp3920
S'self.query'
p3921
S'<gluon.dal.Query object>'
p3922
sS'adapter.select'
p3923
S'<bound method SQLiteAdapter.select of <gluon.dal.SQLiteAdapter object>>'
p3924
sS'fields'
p3925
S'[<gluon.dal.Field object>, <gluon.dal.Field object>, <gluon.dal.Field object>, <gluon.dal.Field object>, <gluon.dal.Field object>, <gluon.dal.Field object>, <gluon.dal.Field object>, <gluon.dal.Field object>, <gluon.dal.Field object>, <gluon.dal.Field object>, <gluon.dal.Field object>, <gluon.dal.Field object>]'
p3926
sS'adapter'
p3927
S'<gluon.dal.SQLiteAdapter object>'
p3928
sS'attributes'
p3929
g45
sS'self'
p3930
S'<gluon.dal.Set object>'
p3931
ssg3822
I7578
sg3823
(dp3932
I7573
S'        return self.db._adapter.count(self.query,distinct)'
p3933
sI7574
S''
sI7575
S'    def select(self, *fields, **attributes):'
p3934
sI7576
S'        adapter = self.db._adapter'
p3935
sI7577
S'        fields = adapter.expand_all(fields, adapter.tables(self.query))'
p3936
sI7578
S'        return adapter.select(self.query,fields,attributes)'
p3937
sI7579
S''
sI7580
S'    def delete(self):'
p3938
sI7581
S'        tablename=self.db._adapter.get_table(self.query)'
p3939
sI7582
S'        self.delete_uploaded_files()'
p3940
ssg3835
S'(self=<gluon.dal.Set object>, *fields=[<gluon.dal.Field object>, <gluon.dal.Field object>, <gluon.dal.Field object>, <gluon.dal.Field object>, <gluon.dal.Field object>, <gluon.dal.Field object>, <gluon.dal.Field object>, <gluon.dal.Field object>, <gluon.dal.Field object>, <gluon.dal.Field object>, <gluon.dal.Field object>, <gluon.dal.Field object>], **attributes={})'
p3941
sg3837
S'select'
p3942
sa(dp3943
g3814
S'/home/tls-sanjeet/Desktop/HRMS/web2py/gluon/dal.py'
p3944
sg3816
(dp3945
S'self._select'
p3946
S'<bound method SQLiteAdapter._select of <gluon.dal.SQLiteAdapter object>>'
p3947
sS'fields'
p3948
S'[<gluon.dal.Field object>, <gluon.dal.Field object>, <gluon.dal.Field object>, <gluon.dal.Field object>, <gluon.dal.Field object>, <gluon.dal.Field object>, <gluon.dal.Field object>, <gluon.dal.Field object>, <gluon.dal.Field object>, <gluon.dal.Field object>, <gluon.dal.Field object>, <gluon.dal.Field object>]'
p3949
sS'self'
p3950
S'<gluon.dal.SQLiteAdapter object>'
p3951
sS'sql'
p3952
g3858
sS'query'
p3953
S'<gluon.dal.Query object>'
p3954
sS'attributes'
p3955
g45
ssg3822
I1307
sg3823
(dp3956
I1302
S'        Always returns a Rows object, possibly empty.'
p3957
sI1303
S'        """'
p3958
sI1304
S'        def response(sql):'
p3959
sI1305
S'            self.execute(sql)'
p3960
sI1306
S'            return self.cursor.fetchall()'
p3961
sI1307
S'        sql = self._select(query, fields, attributes)'
p3962
sI1308
S"        if attributes.get('cache', None):"
p3963
sI1309
S"            (cache_model, time_expire) = attributes['cache']"
p3964
sI1310
S"            del attributes['cache']"
p3965
sI1311
S"            key = self.uri + '/' + sql"
p3966
ssg3835
S'(self=<gluon.dal.SQLiteAdapter object>, query=<gluon.dal.Query object>, fields=[<gluon.dal.Field object>, <gluon.dal.Field object>, <gluon.dal.Field object>, <gluon.dal.Field object>, <gluon.dal.Field object>, <gluon.dal.Field object>, <gluon.dal.Field object>, <gluon.dal.Field object>, <gluon.dal.Field object>, <gluon.dal.Field object>, <gluon.dal.Field object>, <gluon.dal.Field object>], attributes={})'
p3967
sg3837
g3942
sa(dp3968
g3814
S'/home/tls-sanjeet/Desktop/HRMS/web2py/gluon/dal.py'
p3969
sg3816
(dp3970
S'fields'
p3971
S'[<gluon.dal.Field object>, <gluon.dal.Field object>, <gluon.dal.Field object>, <gluon.dal.Field object>, <gluon.dal.Field object>, <gluon.dal.Field object>, <gluon.dal.Field object>, <gluon.dal.Field object>, <gluon.dal.Field object>, <gluon.dal.Field object>, <gluon.dal.Field object>, <gluon.dal.Field object>]'
p3972
sS'self'
p3973
S'<gluon.dal.SQLiteAdapter object>'
p3974
sS')._select'
p3975
S'<bound method SQLiteAdapter._select of <gluon.dal.SQLiteAdapter object>>'
p3976
sS'sql'
p3977
g3858
sS'global SQLiteAdapter'
p3978
S"<class 'gluon.dal.SQLiteAdapter'>"
p3979
sS'query'
p3980
S'<gluon.dal.Query object>'
p3981
sS'builtinsuper'
p3982
S"<type 'super'>"
p3983
sS'attributes'
p3984
g45
ssg3822
I1756
sg3823
(dp3985
I1760
S''
sI1751
S'        """'
p3986
sI1752
S'        Simulate SELECT ... FOR UPDATE with BEGIN IMMEDIATE TRANSACTION.'
p3987
sI1753
S'        Note that the entire database, rather than one record, is locked'
p3988
sI1754
S'        (it will be locked eventually anyway by the following UPDATE).'
p3989
sI1755
S'        """'
p3990
sI1756
S'        sql = super(SQLiteAdapter, self)._select(query, fields, attributes)'
p3991
sI1757
S"        if attributes.get('for_update', False):"
p3992
sI1758
S"            sql = 'BEGIN IMMEDIATE TRANSACTION; ' + sql"
p3993
sI1759
S'        return sql'
p3994
ssg3835
S'(self=<gluon.dal.SQLiteAdapter object>, query=<gluon.dal.Query object>, fields=[<gluon.dal.Field object>, <gluon.dal.Field object>, <gluon.dal.Field object>, <gluon.dal.Field object>, <gluon.dal.Field object>, <gluon.dal.Field object>, <gluon.dal.Field object>, <gluon.dal.Field object>, <gluon.dal.Field object>, <gluon.dal.Field object>, <gluon.dal.Field object>, <gluon.dal.Field object>], attributes={})'
p3995
sg3837
S'_select'
p3996
sa(dp3997
g3814
S'/home/tls-sanjeet/Desktop/HRMS/web2py/gluon/dal.py'
p3998
sg3816
(dp3999
S'query'
p4000
S'<gluon.dal.Query object>'
p4001
sS'self'
p4002
S'<gluon.dal.SQLiteAdapter object>'
p4003
sS'sql_w'
p4004
g3858
sS'self.expand'
p4005
S'<bound method SQLiteAdapter.expand of <gluon.dal.SQLiteAdapter object>>'
p4006
ssg3822
I1200
sg3823
(dp4007
I1195
S'        if len(tablenames) < 1:'
p4008
sI1196
S"            raise SyntaxError, 'Set: no tables selected'"
p4009
sI1197
S"        sql_f = ', '.join(map(self.expand, fields))"
p4010
sI1198
S"        self._colnames = [c.strip() for c in sql_f.split(', ')]"
p4011
sI1199
S'        if query:'
p4012
sI1200
S"            sql_w = ' WHERE ' + self.expand(query)"
p4013
sI1201
S'        else:'
p4014
sI1202
S"            sql_w = ''"
p4015
sI1203
S"        sql_o = ''"
p4016
sI1204
S"        sql_s = ''"
p4017
ssg3835
S'(self=<gluon.dal.SQLiteAdapter object>, query=<gluon.dal.Query object>, fields=[<gluon.dal.Field object>, <gluon.dal.Field object>, <gluon.dal.Field object>, <gluon.dal.Field object>, <gluon.dal.Field object>, <gluon.dal.Field object>, <gluon.dal.Field object>, <gluon.dal.Field object>, <gluon.dal.Field object>, <gluon.dal.Field object>, <gluon.dal.Field object>, <gluon.dal.Field object>], attributes={})'
p4018
sg3837
g3996
sa(dp4019
g3814
S'/home/tls-sanjeet/Desktop/HRMS/web2py/gluon/dal.py'
p4020
sg3816
(dp4021
S'expression.op'
p4022
S'<bound method SQLiteAdapter.EQ of <gluon.dal.SQLiteAdapter object>>'
p4023
sS'expression'
p4024
S'<gluon.dal.Query object>'
p4025
sS'expression.first'
p4026
S'<gluon.dal.Field object>'
p4027
sS'expression.second'
p4028
S"'admin_submit_edit_leave_status'"
p4029
ssg3822
I1046
sg3823
(dp4030
I1041
S'    def expand(self, expression, field_type=None):'
p4031
sI1042
S'        if isinstance(expression, Field):'
p4032
sI1043
S'            return str(expression)'
p4033
sI1044
S'        elif isinstance(expression, (Expression, Query)):'
p4034
sI1045
S'            if not expression.second is None:'
p4035
sI1046
S'                return expression.op(expression.first, expression.second)'
p4036
sI1047
S'            elif not expression.first is None:'
p4037
sI1048
S'                return expression.op(expression.first)'
p4038
sI1049
S'            elif not isinstance(expression.op, str):'
p4039
sI1050
S'                return expression.op()'
p4040
ssg3835
S'(self=<gluon.dal.SQLiteAdapter object>, expression=<gluon.dal.Query object>, field_type=None)'
p4041
sg3837
S'expand'
p4042
sa(dp4043
g3814
S'/home/tls-sanjeet/Desktop/HRMS/web2py/gluon/dal.py'
p4044
sg3816
(dp4045
S'first.type'
p4046
S"'id'"
p4047
sS'self'
p4048
S'<gluon.dal.SQLiteAdapter object>'
p4049
sS'first'
p4050
S'<gluon.dal.Field object>'
p4051
sS'second'
p4052
S"'admin_submit_edit_leave_status'"
p4053
sS'self.expand'
p4054
S'<bound method SQLiteAdapter.expand of <gluon.dal.SQLiteAdapter object>>'
p4055
ssg3822
I987
sg3823
(dp4056
I982
S"        return '(%s LIKE %s)' % (self.expand(first),self.expand(key,'string'))"
p4057
sI983
S''
sI984
S'    def EQ(self, first, second=None):'
p4058
sI985
S'        if second is None:'
p4059
sI986
S"            return '(%s IS NULL)' % self.expand(first)"
p4060
sI987
S"        return '(%s = %s)' % (self.expand(first), self.expand(second, first.type))"
p4061
sI988
S''
sI989
S'    def NE(self, first, second=None):'
p4062
sI990
S'        if second is None:'
p4063
sI991
S"            return '(%s IS NOT NULL)' % self.expand(first)"
p4064
ssg3835
S"(self=<gluon.dal.SQLiteAdapter object>, first=<gluon.dal.Field object>, second='admin_submit_edit_leave_status')"
p4065
sg3837
S'EQ'
p4066
sa(dp4067
g3814
S'/home/tls-sanjeet/Desktop/HRMS/web2py/gluon/dal.py'
p4068
sg3816
(dp4069
S'builtinstr'
p4070
S"<type 'str'>"
p4071
sS'field_type'
p4072
S"'id'"
p4073
sS'self'
p4074
S'<gluon.dal.SQLiteAdapter object>'
p4075
sS'expression'
p4076
S"'admin_submit_edit_leave_status'"
p4077
sS'self.represent'
p4078
S'<bound method SQLiteAdapter.represent of <gluon.dal.SQLiteAdapter object>>'
p4079
ssg3822
I1054
sg3823
(dp4080
I1056
S"            return ','.join(self.represent(item,field_type) for item in expression)"
p4081
sI1057
S'        else:'
p4082
sI1058
S'            return str(expression)'
p4083
sI1049
S'            elif not isinstance(expression.op, str):'
p4084
sI1050
S'                return expression.op()'
p4085
sI1051
S'            else:'
p4086
sI1052
S"                return '(%s)' % expression.op"
p4087
sI1053
S'        elif field_type:'
p4088
sI1054
S'            return str(self.represent(expression,field_type))'
p4089
sI1055
S'        elif isinstance(expression,(list,tuple)):'
p4090
ssg3835
S"(self=<gluon.dal.SQLiteAdapter object>, expression='admin_submit_edit_leave_status', field_type='id')"
p4091
sg3837
g4042
sa(dp4092
g3814
S'/home/tls-sanjeet/Desktop/HRMS/web2py/gluon/dal.py'
p4093
sg3816
(dp4094
S'builtinstr'
p4095
S"<type 'str'>"
p4096
sS'builtinint'
p4097
S"<type 'int'>"
p4098
sS'obj'
p4099
S"'admin_submit_edit_leave_status'"
p4100
ssg3822
I1425
sg3823
(dp4101
I1420
S"            if obj and not str(obj)[:1].upper() in ['F', '0']:"
p4102
sI1421
S'                return "\'T\'"'
p4103
sI1422
S'            else:'
p4104
sI1423
S'                return "\'F\'"'
p4105
sI1424
S"        if fieldtype == 'id' or fieldtype == 'integer':"
p4106
sI1425
S'            return str(int(obj))'
p4107
sI1426
S"        if fieldtype.startswith('decimal'):"
p4108
sI1427
S'            return str(obj)'
p4109
sI1428
S"        elif fieldtype.startswith('reference'): # reference"
p4110
sI1429
S"            if fieldtype.find('.')>0:"
p4111
ssg3835
S"(self=<gluon.dal.SQLiteAdapter object>, obj='admin_submit_edit_leave_status', fieldtype='id')"
p4112
sg3837
S'represent'
p4113
sasS'pyver'
p4114
S'Python 2.6.5: /usr/bin/python'
p4115
sS'session'
p4116
g57
(g58
g59
NtRp4117
(dp4118
g62
(dp4119
sg64
(lp4120
g57
(g66
g59
NtRp4121
(dp4122
g62
(dp4123
g70
I5
ssg71
Nsg64
(lp4124
g57
(g73
g59
NtRp4125
(dp4126
g62
(dp4127
sg71
g4121
sg64
(lp4128
g57
(g78
g59
NtRp4129
(dp4130
g62
(dp4131
g82
g83
ssg71
g4125
sg64
(lp4132
S'auth'
p4133
asbag57
(g78
g59
NtRp4134
(dp4135
g62
(dp4136
g89
g90
ssg71
g4125
sg64
(lp4137
S':'
asbag57
(g78
g59
NtRp4138
(dp4139
g62
(dp4140
sg71
g4125
sg64
(lp4141
g57
(g58
g59
NtRp4142
(dp4143
g62
(dp4144
g70
I5
ssg71
g4138
sg64
(lp4145
g57
(g66
g59
NtRp4146
(dp4147
g62
(dp4148
g70
I4
ssg71
Nsg64
(lp4149
g57
(g73
g59
NtRp4150
(dp4151
g62
(dp4152
sg71
g4146
sg64
(lp4153
g57
(g78
g59
NtRp4154
(dp4155
g62
(dp4156
g82
g83
ssg71
g4150
sg64
(lp4157
S'expiration'
p4158
asbag57
(g78
g59
NtRp4159
(dp4160
g62
(dp4161
g89
g90
ssg71
g4150
sg64
(lp4162
S':'
asbag57
(g78
g59
NtRp4163
(dp4164
g62
(dp4165
sg71
g4150
sg64
(lp4166
g57
(g58
g59
NtRp4167
(dp4168
g62
(dp4169
g70
I4
ssg71
g4163
sg64
(lp4170
S'3600'
p4171
asbasbasbag57
(g73
g59
NtRp4172
(dp4173
g62
(dp4174
sg71
g4146
sg64
(lp4175
g57
(g78
g59
NtRp4176
(dp4177
g62
(dp4178
g82
g83
ssg71
g4172
sg64
(lp4179
S'hmac_key'
p4180
asbag57
(g78
g59
NtRp4181
(dp4182
g62
(dp4183
g89
g90
ssg71
g4172
sg64
(lp4184
S':'
asbag57
(g78
g59
NtRp4185
(dp4186
g62
(dp4187
sg71
g4172
sg64
(lp4188
g57
(g58
g59
NtRp4189
(dp4190
g62
(dp4191
g70
I4
ssg71
g4185
sg64
(lp4192
S'f4a72b71-9c6b-448a-8ad5-5387757b8798'
p4193
asbasbasbag57
(g73
g59
NtRp4194
(dp4195
g62
(dp4196
sg71
g4146
sg64
(lp4197
g57
(g78
g59
NtRp4198
(dp4199
g62
(dp4200
g82
g83
ssg71
g4194
sg64
(lp4201
S'last_visit'
p4202
asbag57
(g78
g59
NtRp4203
(dp4204
g62
(dp4205
g89
g90
ssg71
g4194
sg64
(lp4206
S':'
asbag57
(g78
g59
NtRp4207
(dp4208
g62
(dp4209
sg71
g4194
sg64
(lp4210
g57
(g58
g59
NtRp4211
(dp4212
g62
(dp4213
g70
I4
ssg71
g4207
sg64
(lp4214
S'datetime.datetime(2012, 5, 2, 13, 48, 28, 932335)'
p4215
asbasbasbag57
(g73
g59
NtRp4216
(dp4217
g62
(dp4218
sg71
g4146
sg64
(lp4219
g57
(g78
g59
NtRp4220
(dp4221
g62
(dp4222
g82
g83
ssg71
g4216
sg64
(lp4223
S'remember'
p4224
asbag57
(g78
g59
NtRp4225
(dp4226
g62
(dp4227
g89
g90
ssg71
g4216
sg64
(lp4228
S':'
asbag57
(g78
g59
NtRp4229
(dp4230
g62
(dp4231
sg71
g4216
sg64
(lp4232
g57
(g58
g59
NtRp4233
(dp4234
g62
(dp4235
g70
I4
ssg71
g4229
sg64
(lp4236
g100
asbasbasbag57
(g73
g59
NtRp4237
(dp4238
g62
(dp4239
sg71
g4146
sg64
(lp4240
g57
(g78
g59
NtRp4241
(dp4242
g62
(dp4243
g82
g83
ssg71
g4237
sg64
(lp4244
S'user'
p4245
asbag57
(g78
g59
NtRp4246
(dp4247
g62
(dp4248
g89
g90
ssg71
g4237
sg64
(lp4249
S':'
asbag57
(g78
g59
NtRp4250
(dp4251
g62
(dp4252
sg71
g4237
sg64
(lp4253
g57
(g58
g59
NtRp4254
(dp4255
g62
(dp4256
g70
I4
ssg71
g4250
sg64
(lp4257
g57
(g66
g59
NtRp4258
(dp4259
g62
(dp4260
g70
I3
ssg71
Nsg64
(lp4261
g57
(g73
g59
NtRp4262
(dp4263
g62
(dp4264
sg71
g4258
sg64
(lp4265
g57
(g78
g59
NtRp4266
(dp4267
g62
(dp4268
g82
g83
ssg71
g4262
sg64
(lp4269
S'date_of_exit'
p4270
asbag57
(g78
g59
NtRp4271
(dp4272
g62
(dp4273
g89
g90
ssg71
g4262
sg64
(lp4274
S':'
asbag57
(g78
g59
NtRp4275
(dp4276
g62
(dp4277
sg71
g4262
sg64
(lp4278
g57
(g58
g59
NtRp4279
(dp4280
g62
(dp4281
g70
I3
ssg71
g4275
sg64
(lp4282
S'None'
p4283
asbasbasbag57
(g73
g59
NtRp4284
(dp4285
g62
(dp4286
sg71
g4258
sg64
(lp4287
g57
(g78
g59
NtRp4288
(dp4289
g62
(dp4290
g82
g83
ssg71
g4284
sg64
(lp4291
S'date_of_joining'
p4292
asbag57
(g78
g59
NtRp4293
(dp4294
g62
(dp4295
g89
g90
ssg71
g4284
sg64
(lp4296
S':'
asbag57
(g78
g59
NtRp4297
(dp4298
g62
(dp4299
sg71
g4284
sg64
(lp4300
g57
(g58
g59
NtRp4301
(dp4302
g62
(dp4303
g70
I3
ssg71
g4297
sg64
(lp4304
S'None'
p4305
asbasbasbag57
(g73
g59
NtRp4306
(dp4307
g62
(dp4308
sg71
g4258
sg64
(lp4309
g57
(g78
g59
NtRp4310
(dp4311
g62
(dp4312
g82
g83
ssg71
g4306
sg64
(lp4313
S'department'
p4314
asbag57
(g78
g59
NtRp4315
(dp4316
g62
(dp4317
g89
g90
ssg71
g4306
sg64
(lp4318
S':'
asbag57
(g78
g59
NtRp4319
(dp4320
g62
(dp4321
sg71
g4306
sg64
(lp4322
g57
(g58
g59
NtRp4323
(dp4324
g62
(dp4325
g70
I3
ssg71
g4319
sg64
(lp4326
S'None'
p4327
asbasbasbag57
(g73
g59
NtRp4328
(dp4329
g62
(dp4330
sg71
g4258
sg64
(lp4331
g57
(g78
g59
NtRp4332
(dp4333
g62
(dp4334
g82
g83
ssg71
g4328
sg64
(lp4335
S'designation'
p4336
asbag57
(g78
g59
NtRp4337
(dp4338
g62
(dp4339
g89
g90
ssg71
g4328
sg64
(lp4340
S':'
asbag57
(g78
g59
NtRp4341
(dp4342
g62
(dp4343
sg71
g4328
sg64
(lp4344
g57
(g58
g59
NtRp4345
(dp4346
g62
(dp4347
g70
I3
ssg71
g4341
sg64
(lp4348
S'None'
p4349
asbasbasbag57
(g73
g59
NtRp4350
(dp4351
g62
(dp4352
sg71
g4258
sg64
(lp4353
g57
(g78
g59
NtRp4354
(dp4355
g62
(dp4356
g82
g83
ssg71
g4350
sg64
(lp4357
S'email'
p4358
asbag57
(g78
g59
NtRp4359
(dp4360
g62
(dp4361
g89
g90
ssg71
g4350
sg64
(lp4362
S':'
asbag57
(g78
g59
NtRp4363
(dp4364
g62
(dp4365
sg71
g4350
sg64
(lp4366
g57
(g58
g59
NtRp4367
(dp4368
g62
(dp4369
g70
I3
ssg71
g4363
sg64
(lp4370
S'admin@themislexsol.com'
p4371
asbasbasbag57
(g73
g59
NtRp4372
(dp4373
g62
(dp4374
sg71
g4258
sg64
(lp4375
g57
(g78
g59
NtRp4376
(dp4377
g62
(dp4378
g82
g83
ssg71
g4372
sg64
(lp4379
S'employee_code'
p4380
asbag57
(g78
g59
NtRp4381
(dp4382
g62
(dp4383
g89
g90
ssg71
g4372
sg64
(lp4384
S':'
asbag57
(g78
g59
NtRp4385
(dp4386
g62
(dp4387
sg71
g4372
sg64
(lp4388
g57
(g58
g59
NtRp4389
(dp4390
g62
(dp4391
g70
I3
ssg71
g4385
sg64
(lp4392
S'None'
p4393
asbasbasbag57
(g73
g59
NtRp4394
(dp4395
g62
(dp4396
sg71
g4258
sg64
(lp4397
g57
(g78
g59
NtRp4398
(dp4399
g62
(dp4400
g82
g83
ssg71
g4394
sg64
(lp4401
S'employee_status'
p4402
asbag57
(g78
g59
NtRp4403
(dp4404
g62
(dp4405
g89
g90
ssg71
g4394
sg64
(lp4406
S':'
asbag57
(g78
g59
NtRp4407
(dp4408
g62
(dp4409
sg71
g4394
sg64
(lp4410
g57
(g58
g59
NtRp4411
(dp4412
g62
(dp4413
g70
I3
ssg71
g4407
sg64
(lp4414
S'None'
p4415
asbasbasbag57
(g73
g59
NtRp4416
(dp4417
g62
(dp4418
sg71
g4258
sg64
(lp4419
g57
(g78
g59
NtRp4420
(dp4421
g62
(dp4422
g82
g83
ssg71
g4416
sg64
(lp4423
S'exit_remark'
p4424
asbag57
(g78
g59
NtRp4425
(dp4426
g62
(dp4427
g89
g90
ssg71
g4416
sg64
(lp4428
S':'
asbag57
(g78
g59
NtRp4429
(dp4430
g62
(dp4431
sg71
g4416
sg64
(lp4432
g57
(g58
g59
NtRp4433
(dp4434
g62
(dp4435
g70
I3
ssg71
g4429
sg64
(lp4436
S'None'
p4437
asbasbasbag57
(g73
g59
NtRp4438
(dp4439
g62
(dp4440
sg71
g4258
sg64
(lp4441
g57
(g78
g59
NtRp4442
(dp4443
g62
(dp4444
g82
g83
ssg71
g4438
sg64
(lp4445
S'first_name'
p4446
asbag57
(g78
g59
NtRp4447
(dp4448
g62
(dp4449
g89
g90
ssg71
g4438
sg64
(lp4450
S':'
asbag57
(g78
g59
NtRp4451
(dp4452
g62
(dp4453
sg71
g4438
sg64
(lp4454
g57
(g58
g59
NtRp4455
(dp4456
g62
(dp4457
g70
I3
ssg71
g4451
sg64
(lp4458
S''
asbasbasbag57
(g73
g59
NtRp4459
(dp4460
g62
(dp4461
sg71
g4258
sg64
(lp4462
g57
(g78
g59
NtRp4463
(dp4464
g62
(dp4465
g82
g83
ssg71
g4459
sg64
(lp4466
S'id'
p4467
asbag57
(g78
g59
NtRp4468
(dp4469
g62
(dp4470
g89
g90
ssg71
g4459
sg64
(lp4471
S':'
asbag57
(g78
g59
NtRp4472
(dp4473
g62
(dp4474
sg71
g4459
sg64
(lp4475
g57
(g58
g59
NtRp4476
(dp4477
g62
(dp4478
g70
I3
ssg71
g4472
sg64
(lp4479
S'1'
asbasbasbag57
(g73
g59
NtRp4480
(dp4481
g62
(dp4482
sg71
g4258
sg64
(lp4483
g57
(g78
g59
NtRp4484
(dp4485
g62
(dp4486
g82
g83
ssg71
g4480
sg64
(lp4487
S'last_name'
p4488
asbag57
(g78
g59
NtRp4489
(dp4490
g62
(dp4491
g89
g90
ssg71
g4480
sg64
(lp4492
S':'
asbag57
(g78
g59
NtRp4493
(dp4494
g62
(dp4495
sg71
g4480
sg64
(lp4496
g57
(g58
g59
NtRp4497
(dp4498
g62
(dp4499
g70
I3
ssg71
g4493
sg64
(lp4500
S''
asbasbasbag57
(g73
g59
NtRp4501
(dp4502
g62
(dp4503
sg71
g4258
sg64
(lp4504
g57
(g78
g59
NtRp4505
(dp4506
g62
(dp4507
g82
g83
ssg71
g4501
sg64
(lp4508
S'location'
p4509
asbag57
(g78
g59
NtRp4510
(dp4511
g62
(dp4512
g89
g90
ssg71
g4501
sg64
(lp4513
S':'
asbag57
(g78
g59
NtRp4514
(dp4515
g62
(dp4516
sg71
g4501
sg64
(lp4517
g57
(g58
g59
NtRp4518
(dp4519
g62
(dp4520
g70
I3
ssg71
g4514
sg64
(lp4521
S'None'
p4522
asbasbasbag57
(g73
g59
NtRp4523
(dp4524
g62
(dp4525
sg71
g4258
sg64
(lp4526
g57
(g78
g59
NtRp4527
(dp4528
g62
(dp4529
g82
g83
ssg71
g4523
sg64
(lp4530
S'organization_name'
p4531
asbag57
(g78
g59
NtRp4532
(dp4533
g62
(dp4534
g89
g90
ssg71
g4523
sg64
(lp4535
S':'
asbag57
(g78
g59
NtRp4536
(dp4537
g62
(dp4538
sg71
g4523
sg64
(lp4539
g57
(g58
g59
NtRp4540
(dp4541
g62
(dp4542
g70
I3
ssg71
g4536
sg64
(lp4543
S'None'
p4544
asbasbasbag57
(g73
g59
NtRp4545
(dp4546
g62
(dp4547
sg71
g4258
sg64
(lp4548
g57
(g78
g59
NtRp4549
(dp4550
g62
(dp4551
g82
g83
ssg71
g4545
sg64
(lp4552
S'password'
p4553
asbag57
(g78
g59
NtRp4554
(dp4555
g62
(dp4556
g89
g90
ssg71
g4545
sg64
(lp4557
S':'
asbag57
(g78
g59
NtRp4558
(dp4559
g62
(dp4560
sg71
g4545
sg64
(lp4561
g57
(g58
g59
NtRp4562
(dp4563
g62
(dp4564
g70
I3
ssg71
g4558
sg64
(lp4565
S'd9112a75303bdd71a94bf896ec050b70'
p4566
asbasbasbag57
(g73
g59
NtRp4567
(dp4568
g62
(dp4569
sg71
g4258
sg64
(lp4570
g57
(g78
g59
NtRp4571
(dp4572
g62
(dp4573
g82
g83
ssg71
g4567
sg64
(lp4574
S'personal_email'
p4575
asbag57
(g78
g59
NtRp4576
(dp4577
g62
(dp4578
g89
g90
ssg71
g4567
sg64
(lp4579
S':'
asbag57
(g78
g59
NtRp4580
(dp4581
g62
(dp4582
sg71
g4567
sg64
(lp4583
g57
(g58
g59
NtRp4584
(dp4585
g62
(dp4586
g70
I3
ssg71
g4580
sg64
(lp4587
S'None'
p4588
asbasbasbag57
(g73
g59
NtRp4589
(dp4590
g62
(dp4591
sg71
g4258
sg64
(lp4592
g57
(g78
g59
NtRp4593
(dp4594
g62
(dp4595
g82
g83
ssg71
g4589
sg64
(lp4596
S'registration_id'
p4597
asbag57
(g78
g59
NtRp4598
(dp4599
g62
(dp4600
g89
g90
ssg71
g4589
sg64
(lp4601
S':'
asbag57
(g78
g59
NtRp4602
(dp4603
g62
(dp4604
sg71
g4589
sg64
(lp4605
g57
(g58
g59
NtRp4606
(dp4607
g62
(dp4608
g70
I3
ssg71
g4602
sg64
(lp4609
S''
asbasbasbag57
(g73
g59
NtRp4610
(dp4611
g62
(dp4612
sg71
g4258
sg64
(lp4613
g57
(g78
g59
NtRp4614
(dp4615
g62
(dp4616
g82
g83
ssg71
g4610
sg64
(lp4617
S'registration_key'
p4618
asbag57
(g78
g59
NtRp4619
(dp4620
g62
(dp4621
g89
g90
ssg71
g4610
sg64
(lp4622
S':'
asbag57
(g78
g59
NtRp4623
(dp4624
g62
(dp4625
sg71
g4610
sg64
(lp4626
g57
(g58
g59
NtRp4627
(dp4628
g62
(dp4629
g70
I3
ssg71
g4623
sg64
(lp4630
S''
asbasbasbag57
(g73
g59
NtRp4631
(dp4632
g62
(dp4633
sg71
g4258
sg64
(lp4634
g57
(g78
g59
NtRp4635
(dp4636
g62
(dp4637
g82
g83
ssg71
g4631
sg64
(lp4638
S'reporting_manager'
p4639
asbag57
(g78
g59
NtRp4640
(dp4641
g62
(dp4642
g89
g90
ssg71
g4631
sg64
(lp4643
S':'
asbag57
(g78
g59
NtRp4644
(dp4645
g62
(dp4646
sg71
g4631
sg64
(lp4647
g57
(g58
g59
NtRp4648
(dp4649
g62
(dp4650
g70
I3
ssg71
g4644
sg64
(lp4651
S'None'
p4652
asbasbasbag57
(g73
g59
NtRp4653
(dp4654
g62
(dp4655
sg71
g4258
sg64
(lp4656
g57
(g78
g59
NtRp4657
(dp4658
g62
(dp4659
g82
g83
ssg71
g4653
sg64
(lp4660
S'reset_password_key'
p4661
asbag57
(g78
g59
NtRp4662
(dp4663
g62
(dp4664
g89
g90
ssg71
g4653
sg64
(lp4665
S':'
asbag57
(g78
g59
NtRp4666
(dp4667
g62
(dp4668
sg71
g4653
sg64
(lp4669
g57
(g58
g59
NtRp4670
(dp4671
g62
(dp4672
g70
I3
ssg71
g4666
sg64
(lp4673
S''
asbasbasbasbasbasbasbag57
(g73
g59
NtRp4674
(dp4675
g62
(dp4676
sg71
g4146
sg64
(lp4677
g57
(g78
g59
NtRp4678
(dp4679
g62
(dp4680
g82
g83
ssg71
g4674
sg64
(lp4681
S'user_groups'
p4682
asbag57
(g78
g59
NtRp4683
(dp4684
g62
(dp4685
g89
g90
ssg71
g4674
sg64
(lp4686
S':'
asbag57
(g78
g59
NtRp4687
(dp4688
g62
(dp4689
sg71
g4674
sg64
(lp4690
g57
(g58
g59
NtRp4691
(dp4692
g62
(dp4693
g70
I4
ssg71
g4687
sg64
(lp4694
g57
(g66
g59
NtRp4695
(dp4696
g62
(dp4697
g70
I3
ssg71
Nsg64
(lp4698
g57
(g73
g59
NtRp4699
(dp4700
g62
(dp4701
sg71
g4695
sg64
(lp4702
g57
(g78
g59
NtRp4703
(dp4704
g62
(dp4705
g82
g83
ssg71
g4699
sg64
(lp4706
S'1'
asbag57
(g78
g59
NtRp4707
(dp4708
g62
(dp4709
g89
g90
ssg71
g4699
sg64
(lp4710
S':'
asbag57
(g78
g59
NtRp4711
(dp4712
g62
(dp4713
sg71
g4699
sg64
(lp4714
g57
(g58
g59
NtRp4715
(dp4716
g62
(dp4717
g70
I3
ssg71
g4711
sg64
(lp4718
S'Admin'
p4719
asbasbasbag57
(g73
g59
NtRp4720
(dp4721
g62
(dp4722
sg71
g4695
sg64
(lp4723
g57
(g78
g59
NtRp4724
(dp4725
g62
(dp4726
g82
g83
ssg71
g4720
sg64
(lp4727
S'3'
asbag57
(g78
g59
NtRp4728
(dp4729
g62
(dp4730
g89
g90
ssg71
g4720
sg64
(lp4731
S':'
asbag57
(g78
g59
NtRp4732
(dp4733
g62
(dp4734
sg71
g4720
sg64
(lp4735
g57
(g58
g59
NtRp4736
(dp4737
g62
(dp4738
g70
I3
ssg71
g4732
sg64
(lp4739
S'Mgr'
p4740
asbasbasbasbasbasbasbasbasbasbasbag57
(g73
g59
NtRp4741
(dp4742
g62
(dp4743
sg71
g4121
sg64
(lp4744
g57
(g78
g59
NtRp4745
(dp4746
g62
(dp4747
g82
g83
ssg71
g4741
sg64
(lp4748
S'efrom'
p4749
asbag57
(g78
g59
NtRp4750
(dp4751
g62
(dp4752
g89
g90
ssg71
g4741
sg64
(lp4753
S':'
asbag57
(g78
g59
NtRp4754
(dp4755
g62
(dp4756
sg71
g4741
sg64
(lp4757
g57
(g58
g59
NtRp4758
(dp4759
g62
(dp4760
g70
I5
ssg71
g4754
sg64
(lp4761
S'datetime.date(2012, 5, 30)'
p4762
asbasbasbag57
(g73
g59
NtRp4763
(dp4764
g62
(dp4765
sg71
g4121
sg64
(lp4766
g57
(g78
g59
NtRp4767
(dp4768
g62
(dp4769
g82
g83
ssg71
g4763
sg64
(lp4770
S'eleaveid'
p4771
asbag57
(g78
g59
NtRp4772
(dp4773
g62
(dp4774
g89
g90
ssg71
g4763
sg64
(lp4775
S':'
asbag57
(g78
g59
NtRp4776
(dp4777
g62
(dp4778
sg71
g4763
sg64
(lp4779
g57
(g58
g59
NtRp4780
(dp4781
g62
(dp4782
g70
I5
ssg71
g4776
sg64
(lp4783
g159
asbasbasbag57
(g73
g59
NtRp4784
(dp4785
g62
(dp4786
sg71
g4121
sg64
(lp4787
g57
(g78
g59
NtRp4788
(dp4789
g62
(dp4790
g82
g83
ssg71
g4784
sg64
(lp4791
S'empname'
p4792
asbag57
(g78
g59
NtRp4793
(dp4794
g62
(dp4795
g89
g90
ssg71
g4784
sg64
(lp4796
S':'
asbag57
(g78
g59
NtRp4797
(dp4798
g62
(dp4799
sg71
g4784
sg64
(lp4800
g57
(g58
g59
NtRp4801
(dp4802
g62
(dp4803
g70
I5
ssg71
g4797
sg64
(lp4804
S'Sanjeet'
p4805
asbasbasbag57
(g73
g59
NtRp4806
(dp4807
g62
(dp4808
sg71
g4121
sg64
(lp4809
g57
(g78
g59
NtRp4810
(dp4811
g62
(dp4812
g82
g83
ssg71
g4806
sg64
(lp4813
S'eto'
p4814
asbag57
(g78
g59
NtRp4815
(dp4816
g62
(dp4817
g89
g90
ssg71
g4806
sg64
(lp4818
S':'
asbag57
(g78
g59
NtRp4819
(dp4820
g62
(dp4821
sg71
g4806
sg64
(lp4822
g57
(g58
g59
NtRp4823
(dp4824
g62
(dp4825
g70
I5
ssg71
g4819
sg64
(lp4826
S'datetime.date(2012, 6, 8)'
p4827
asbasbasbag57
(g73
g59
NtRp4828
(dp4829
g62
(dp4830
sg71
g4121
sg64
(lp4831
g57
(g78
g59
NtRp4832
(dp4833
g62
(dp4834
g82
g83
ssg71
g4828
sg64
(lp4835
S'lmail'
p4836
asbag57
(g78
g59
NtRp4837
(dp4838
g62
(dp4839
g89
g90
ssg71
g4828
sg64
(lp4840
S':'
asbag57
(g78
g59
NtRp4841
(dp4842
g62
(dp4843
sg71
g4828
sg64
(lp4844
g57
(g58
g59
NtRp4845
(dp4846
g62
(dp4847
g70
I5
ssg71
g4841
sg64
(lp4848
S'sanjeet.tls@gmail.com'
p4849
asbasbasbag57
(g73
g59
NtRp4850
(dp4851
g62
(dp4852
sg71
g4121
sg64
(lp4853
g57
(g78
g59
NtRp4854
(dp4855
g62
(dp4856
g82
g83
ssg71
g4850
sg64
(lp4857
S'ltype'
p4858
asbag57
(g78
g59
NtRp4859
(dp4860
g62
(dp4861
g89
g90
ssg71
g4850
sg64
(lp4862
S':'
asbag57
(g78
g59
NtRp4863
(dp4864
g62
(dp4865
sg71
g4850
sg64
(lp4866
g57
(g58
g59
NtRp4867
(dp4868
g62
(dp4869
g70
I5
ssg71
g4863
sg64
(lp4870
S'Vacation Leave'
p4871
asbasbasbag57
(g73
g59
NtRp4872
(dp4873
g62
(dp4874
sg71
g4121
sg64
(lp4875
g57
(g78
g59
NtRp4876
(dp4877
g62
(dp4878
g82
g83
ssg71
g4872
sg64
(lp4879
S'status'
p4880
asbag57
(g78
g59
NtRp4881
(dp4882
g62
(dp4883
g89
g90
ssg71
g4872
sg64
(lp4884
S':'
asbag57
(g78
g59
NtRp4885
(dp4886
g62
(dp4887
sg71
g4872
sg64
(lp4888
g57
(g58
g59
NtRp4889
(dp4890
g62
(dp4891
g70
I5
ssg71
g4885
sg64
(lp4892
S'Rejected'
p4893
asbasbasbag57
(g73
g59
NtRp4894
(dp4895
g62
(dp4896
sg71
g4121
sg64
(lp4897
g57
(g78
g59
NtRp4898
(dp4899
g62
(dp4900
g82
g83
ssg71
g4894
sg64
(lp4901
S'tday'
p4902
asbag57
(g78
g59
NtRp4903
(dp4904
g62
(dp4905
g89
g90
ssg71
g4894
sg64
(lp4906
S':'
asbag57
(g78
g59
NtRp4907
(dp4908
g62
(dp4909
sg71
g4894
sg64
(lp4910
g57
(g58
g59
NtRp4911
(dp4912
g62
(dp4913
g70
I5
ssg71
g4907
sg64
(lp4914
S'9'
asbasbasbasbasbsS'etype'
p4915
S"<type 'exceptions.ValueError'>"
p4916
sS'date'
p4917
S'Wed May  2 13:48:28 2012'
p4918
sS'response'
p4919
g57
(g58
g59
NtRp4920
(dp4921
g62
(dp4922
sg64
(lp4923
g57
(g66
g59
NtRp4924
(dp4925
g62
(dp4926
g70
I5
ssg71
Nsg64
(lp4927
g57
(g73
g59
NtRp4928
(dp4929
g62
(dp4930
sg71
g4924
sg64
(lp4931
g57
(g78
g59
NtRp4932
(dp4933
g62
(dp4934
g82
g83
ssg71
g4928
sg64
(lp4935
S'atlsmenu'
p4936
asbag57
(g78
g59
NtRp4937
(dp4938
g62
(dp4939
g89
g90
ssg71
g4928
sg64
(lp4940
S':'
asbag57
(g78
g59
NtRp4941
(dp4942
g62
(dp4943
sg71
g4928
sg64
(lp4944
g57
(g58
g59
NtRp4945
(dp4946
g62
(dp4947
g70
I5
ssg71
g4941
sg64
(lp4948
g57
(g66
g59
NtRp4949
(dp4950
g62
(dp4951
g70
I4
ssg71
Nsg64
(lp4952
g57
(g73
g59
NtRp4953
(dp4954
g62
(dp4955
sg71
g4949
sg64
(lp4956
g57
(g78
g59
NtRp4957
(dp4958
g62
(dp4959
sg71
g4953
sg64
(lp4960
g57
(g58
g59
NtRp4961
(dp4962
g62
(dp4963
g70
I4
ssg71
g4957
sg64
(lp4964
g57
(g66
g59
NtRp4965
(dp4966
g62
(dp4967
g70
I3
ssg71
Nsg64
(lp4968
g57
(g73
g59
NtRp4969
(dp4970
g62
(dp4971
sg71
g4965
sg64
(lp4972
g57
(g78
g59
NtRp4973
(dp4974
g62
(dp4975
sg71
g4969
sg64
(lp4976
g57
(g58
g59
NtRp4977
(dp4978
g62
(dp4979
g70
I3
ssg71
g4973
sg64
(lp4980
cgluon.languages
lazyT_unpickle
p4981
(S's\x07\x00\x00\x00Website'
tRp4982
asbasbasbag57
(g73
g59
NtRp4983
(dp4984
g62
(dp4985
sg71
g4965
sg64
(lp4986
g57
(g78
g59
NtRp4987
(dp4988
g62
(dp4989
sg71
g4983
sg64
(lp4990
g57
(g58
g59
NtRp4991
(dp4992
g62
(dp4993
g70
I3
ssg71
g4987
sg64
(lp4994
g100
asbasbasbag57
(g73
g59
NtRp4995
(dp4996
g62
(dp4997
sg71
g4965
sg64
(lp4998
g57
(g78
g59
NtRp4999
(dp5000
g62
(dp5001
sg71
g4995
sg64
(lp5002
g57
(g58
g59
NtRp5003
(dp5004
g62
(dp5005
g70
I3
ssg71
g4999
sg64
(lp5006
S'/themishrms/default/index'
p5007
asbasbasbag57
(g73
g59
NtRp5008
(dp5009
g62
(dp5010
sg71
g4965
sg64
(lp5011
g57
(g78
g59
NtRp5012
(dp5013
g62
(dp5014
sg71
g5008
sg64
(lp5015
g57
(g58
g59
NtRp5016
(dp5017
g62
(dp5018
g70
I3
ssg71
g5012
sg64
(lp5019
g57
(g66
g59
NtRp5020
(dp5021
g62
(dp5022
g70
I2
ssg71
Nsg64
(lp5023
sbasbasbasbasbasbasbasbag57
(g73
g59
NtRp5024
(dp5025
g62
(dp5026
sg71
g4949
sg64
(lp5027
g57
(g78
g59
NtRp5028
(dp5029
g62
(dp5030
sg71
g5024
sg64
(lp5031
g57
(g58
g59
NtRp5032
(dp5033
g62
(dp5034
g70
I4
ssg71
g5028
sg64
(lp5035
g57
(g66
g59
NtRp5036
(dp5037
g62
(dp5038
g70
I3
ssg71
Nsg64
(lp5039
g57
(g73
g59
NtRp5040
(dp5041
g62
(dp5042
sg71
g5036
sg64
(lp5043
g57
(g78
g59
NtRp5044
(dp5045
g62
(dp5046
sg71
g5040
sg64
(lp5047
g57
(g58
g59
NtRp5048
(dp5049
g62
(dp5050
g70
I3
ssg71
g5044
sg64
(lp5051
g4981
(S's\x07\x00\x00\x00Webmail'
tRp5052
asbasbasbag57
(g73
g59
NtRp5053
(dp5054
g62
(dp5055
sg71
g5036
sg64
(lp5056
g57
(g78
g59
NtRp5057
(dp5058
g62
(dp5059
sg71
g5053
sg64
(lp5060
g57
(g58
g59
NtRp5061
(dp5062
g62
(dp5063
g70
I3
ssg71
g5057
sg64
(lp5064
g100
asbasbasbag57
(g73
g59
NtRp5065
(dp5066
g62
(dp5067
sg71
g5036
sg64
(lp5068
g57
(g78
g59
NtRp5069
(dp5070
g62
(dp5071
sg71
g5065
sg64
(lp5072
g57
(g58
g59
NtRp5073
(dp5074
g62
(dp5075
g70
I3
ssg71
g5069
sg64
(lp5076
S'/themishrms/default/#'
p5077
asbasbasbag57
(g73
g59
NtRp5078
(dp5079
g62
(dp5080
sg71
g5036
sg64
(lp5081
g57
(g78
g59
NtRp5082
(dp5083
g62
(dp5084
sg71
g5078
sg64
(lp5085
g57
(g58
g59
NtRp5086
(dp5087
g62
(dp5088
g70
I3
ssg71
g5082
sg64
(lp5089
g57
(g66
g59
NtRp5090
(dp5091
g62
(dp5092
g70
I2
ssg71
Nsg64
(lp5093
sbasbasbasbasbasbasbasbag57
(g73
g59
NtRp5094
(dp5095
g62
(dp5096
sg71
g4949
sg64
(lp5097
g57
(g78
g59
NtRp5098
(dp5099
g62
(dp5100
sg71
g5094
sg64
(lp5101
g57
(g58
g59
NtRp5102
(dp5103
g62
(dp5104
g70
I4
ssg71
g5098
sg64
(lp5105
g57
(g66
g59
NtRp5106
(dp5107
g62
(dp5108
g70
I3
ssg71
Nsg64
(lp5109
g57
(g73
g59
NtRp5110
(dp5111
g62
(dp5112
sg71
g5106
sg64
(lp5113
g57
(g78
g59
NtRp5114
(dp5115
g62
(dp5116
sg71
g5110
sg64
(lp5117
g57
(g58
g59
NtRp5118
(dp5119
g62
(dp5120
g70
I3
ssg71
g5114
sg64
(lp5121
g4981
(S's\r\x00\x00\x00Themis Portal'
tRp5122
asbasbasbag57
(g73
g59
NtRp5123
(dp5124
g62
(dp5125
sg71
g5106
sg64
(lp5126
g57
(g78
g59
NtRp5127
(dp5128
g62
(dp5129
sg71
g5123
sg64
(lp5130
g57
(g58
g59
NtRp5131
(dp5132
g62
(dp5133
g70
I3
ssg71
g5127
sg64
(lp5134
g100
asbasbasbag57
(g73
g59
NtRp5135
(dp5136
g62
(dp5137
sg71
g5106
sg64
(lp5138
g57
(g78
g59
NtRp5139
(dp5140
g62
(dp5141
sg71
g5135
sg64
(lp5142
g57
(g58
g59
NtRp5143
(dp5144
g62
(dp5145
g70
I3
ssg71
g5139
sg64
(lp5146
S'/themishrms/default/#'
p5147
asbasbasbag57
(g73
g59
NtRp5148
(dp5149
g62
(dp5150
sg71
g5106
sg64
(lp5151
g57
(g78
g59
NtRp5152
(dp5153
g62
(dp5154
sg71
g5148
sg64
(lp5155
g57
(g58
g59
NtRp5156
(dp5157
g62
(dp5158
g70
I3
ssg71
g5152
sg64
(lp5159
g57
(g66
g59
NtRp5160
(dp5161
g62
(dp5162
g70
I2
ssg71
Nsg64
(lp5163
sbasbasbasbasbasbasbasbag57
(g73
g59
NtRp5164
(dp5165
g62
(dp5166
sg71
g4949
sg64
(lp5167
g57
(g78
g59
NtRp5168
(dp5169
g62
(dp5170
sg71
g5164
sg64
(lp5171
g57
(g58
g59
NtRp5172
(dp5173
g62
(dp5174
g70
I4
ssg71
g5168
sg64
(lp5175
g57
(g66
g59
NtRp5176
(dp5177
g62
(dp5178
g70
I3
ssg71
Nsg64
(lp5179
g57
(g73
g59
NtRp5180
(dp5181
g62
(dp5182
sg71
g5176
sg64
(lp5183
g57
(g78
g59
NtRp5184
(dp5185
g62
(dp5186
sg71
g5180
sg64
(lp5187
g57
(g58
g59
NtRp5188
(dp5189
g62
(dp5190
g70
I3
ssg71
g5184
sg64
(lp5191
g4981
(S's\x0f\x00\x00\x00Themis Policies'
tRp5192
asbasbasbag57
(g73
g59
NtRp5193
(dp5194
g62
(dp5195
sg71
g5176
sg64
(lp5196
g57
(g78
g59
NtRp5197
(dp5198
g62
(dp5199
sg71
g5193
sg64
(lp5200
g57
(g58
g59
NtRp5201
(dp5202
g62
(dp5203
g70
I3
ssg71
g5197
sg64
(lp5204
g100
asbasbasbag57
(g73
g59
NtRp5205
(dp5206
g62
(dp5207
sg71
g5176
sg64
(lp5208
g57
(g78
g59
NtRp5209
(dp5210
g62
(dp5211
sg71
g5205
sg64
(lp5212
g57
(g58
g59
NtRp5213
(dp5214
g62
(dp5215
g70
I3
ssg71
g5209
sg64
(lp5216
S'/themishrms/default/add_project'
p5217
asbasbasbag57
(g73
g59
NtRp5218
(dp5219
g62
(dp5220
sg71
g5176
sg64
(lp5221
g57
(g78
g59
NtRp5222
(dp5223
g62
(dp5224
sg71
g5218
sg64
(lp5225
g57
(g58
g59
NtRp5226
(dp5227
g62
(dp5228
g70
I3
ssg71
g5222
sg64
(lp5229
g57
(g66
g59
NtRp5230
(dp5231
g62
(dp5232
g70
I2
ssg71
Nsg64
(lp5233
sbasbasbasbasbasbasbasbag57
(g73
g59
NtRp5234
(dp5235
g62
(dp5236
sg71
g4949
sg64
(lp5237
g57
(g78
g59
NtRp5238
(dp5239
g62
(dp5240
sg71
g5234
sg64
(lp5241
g57
(g58
g59
NtRp5242
(dp5243
g62
(dp5244
g70
I4
ssg71
g5238
sg64
(lp5245
g57
(g66
g59
NtRp5246
(dp5247
g62
(dp5248
g70
I3
ssg71
Nsg64
(lp5249
g57
(g73
g59
NtRp5250
(dp5251
g62
(dp5252
sg71
g5246
sg64
(lp5253
g57
(g78
g59
NtRp5254
(dp5255
g62
(dp5256
sg71
g5250
sg64
(lp5257
g57
(g58
g59
NtRp5258
(dp5259
g62
(dp5260
g70
I3
ssg71
g5254
sg64
(lp5261
g4981
(S's\x0f\x00\x00\x00Contact Details'
tRp5262
asbasbasbag57
(g73
g59
NtRp5263
(dp5264
g62
(dp5265
sg71
g5246
sg64
(lp5266
g57
(g78
g59
NtRp5267
(dp5268
g62
(dp5269
sg71
g5263
sg64
(lp5270
g57
(g58
g59
NtRp5271
(dp5272
g62
(dp5273
g70
I3
ssg71
g5267
sg64
(lp5274
g100
asbasbasbag57
(g73
g59
NtRp5275
(dp5276
g62
(dp5277
sg71
g5246
sg64
(lp5278
g57
(g78
g59
NtRp5279
(dp5280
g62
(dp5281
sg71
g5275
sg64
(lp5282
g57
(g58
g59
NtRp5283
(dp5284
g62
(dp5285
g70
I3
ssg71
g5279
sg64
(lp5286
S'/themishrms/default/admin_contact_detail'
p5287
asbasbasbag57
(g73
g59
NtRp5288
(dp5289
g62
(dp5290
sg71
g5246
sg64
(lp5291
g57
(g78
g59
NtRp5292
(dp5293
g62
(dp5294
sg71
g5288
sg64
(lp5295
g57
(g58
g59
NtRp5296
(dp5297
g62
(dp5298
g70
I3
ssg71
g5292
sg64
(lp5299
g57
(g66
g59
NtRp5300
(dp5301
g62
(dp5302
g70
I2
ssg71
Nsg64
(lp5303
sbasbasbasbasbasbasbasbasbasbasbasbag57
(g73
g59
NtRp5304
(dp5305
g62
(dp5306
sg71
g4924
sg64
(lp5307
g57
(g78
g59
NtRp5308
(dp5309
g62
(dp5310
g82
g83
ssg71
g5304
sg64
(lp5311
g168
asbag57
(g78
g59
NtRp5312
(dp5313
g62
(dp5314
g89
g90
ssg71
g5304
sg64
(lp5315
S':'
asbag57
(g78
g59
NtRp5316
(dp5317
g62
(dp5318
sg71
g5304
sg64
(lp5319
g57
(g58
g59
NtRp5320
(dp5321
g62
(dp5322
g70
I5
ssg71
g5316
sg64
(lp5323
S'<cStringIO.StringO object at 0x97a3fa0>'
p5324
asbasbasbag57
(g73
g59
NtRp5325
(dp5326
g62
(dp5327
sg71
g4924
sg64
(lp5328
g57
(g78
g59
NtRp5329
(dp5330
g62
(dp5331
g82
g83
ssg71
g5325
sg64
(lp5332
g234
asbag57
(g78
g59
NtRp5333
(dp5334
g62
(dp5335
g89
g90
ssg71
g5325
sg64
(lp5336
S':'
asbag57
(g78
g59
NtRp5337
(dp5338
g62
(dp5339
sg71
g5325
sg64
(lp5340
g57
(g58
g59
NtRp5341
(dp5342
g62
(dp5343
g70
I5
ssg71
g5337
sg64
(lp5344
g57
(g66
g59
NtRp5345
(dp5346
g62
(dp5347
g70
I4
ssg71
Nsg64
(lp5348
g57
(g73
g59
NtRp5349
(dp5350
g62
(dp5351
sg71
g5345
sg64
(lp5352
g57
(g78
g59
NtRp5353
(dp5354
g62
(dp5355
g82
g83
ssg71
g5349
sg64
(lp5356
S'session_id_themishrms'
p5357
asbag57
(g78
g59
NtRp5358
(dp5359
g62
(dp5360
g89
g90
ssg71
g5349
sg64
(lp5361
S':'
asbag57
(g78
g59
NtRp5362
(dp5363
g62
(dp5364
sg71
g5349
sg64
(lp5365
g57
(g58
g59
NtRp5366
(dp5367
g62
(dp5368
g70
I4
ssg71
g5362
sg64
(lp5369
g57
(g66
g59
NtRp5370
(dp5371
g62
(dp5372
g70
I3
ssg71
Nsg64
(lp5373
g57
(g73
g59
NtRp5374
(dp5375
g62
(dp5376
sg71
g5370
sg64
(lp5377
g57
(g78
g59
NtRp5378
(dp5379
g62
(dp5380
g82
g83
ssg71
g5374
sg64
(lp5381
g284
asbag57
(g78
g59
NtRp5382
(dp5383
g62
(dp5384
g89
g90
ssg71
g5374
sg64
(lp5385
S':'
asbag57
(g78
g59
NtRp5386
(dp5387
g62
(dp5388
sg71
g5374
sg64
(lp5389
g57
(g58
g59
NtRp5390
(dp5391
g62
(dp5392
g70
I3
ssg71
g5386
sg64
(lp5393
S''
asbasbasbag57
(g73
g59
NtRp5394
(dp5395
g62
(dp5396
sg71
g5370
sg64
(lp5397
g57
(g78
g59
NtRp5398
(dp5399
g62
(dp5400
g82
g83
ssg71
g5394
sg64
(lp5401
g305
asbag57
(g78
g59
NtRp5402
(dp5403
g62
(dp5404
g89
g90
ssg71
g5394
sg64
(lp5405
S':'
asbag57
(g78
g59
NtRp5406
(dp5407
g62
(dp5408
sg71
g5394
sg64
(lp5409
g57
(g58
g59
NtRp5410
(dp5411
g62
(dp5412
g70
I3
ssg71
g5406
sg64
(lp5413
S''
asbasbasbag57
(g73
g59
NtRp5414
(dp5415
g62
(dp5416
sg71
g5370
sg64
(lp5417
g57
(g78
g59
NtRp5418
(dp5419
g62
(dp5420
g82
g83
ssg71
g5414
sg64
(lp5421
g326
asbag57
(g78
g59
NtRp5422
(dp5423
g62
(dp5424
g89
g90
ssg71
g5414
sg64
(lp5425
S':'
asbag57
(g78
g59
NtRp5426
(dp5427
g62
(dp5428
sg71
g5414
sg64
(lp5429
g57
(g58
g59
NtRp5430
(dp5431
g62
(dp5432
g70
I3
ssg71
g5426
sg64
(lp5433
S''
asbasbasbag57
(g73
g59
NtRp5434
(dp5435
g62
(dp5436
sg71
g5370
sg64
(lp5437
g57
(g78
g59
NtRp5438
(dp5439
g62
(dp5440
g82
g83
ssg71
g5434
sg64
(lp5441
g347
asbag57
(g78
g59
NtRp5442
(dp5443
g62
(dp5444
g89
g90
ssg71
g5434
sg64
(lp5445
S':'
asbag57
(g78
g59
NtRp5446
(dp5447
g62
(dp5448
sg71
g5434
sg64
(lp5449
g57
(g58
g59
NtRp5450
(dp5451
g62
(dp5452
g70
I3
ssg71
g5446
sg64
(lp5453
S''
asbasbasbag57
(g73
g59
NtRp5454
(dp5455
g62
(dp5456
sg71
g5370
sg64
(lp5457
g57
(g78
g59
NtRp5458
(dp5459
g62
(dp5460
g82
g83
ssg71
g5454
sg64
(lp5461
g368
asbag57
(g78
g59
NtRp5462
(dp5463
g62
(dp5464
g89
g90
ssg71
g5454
sg64
(lp5465
S':'
asbag57
(g78
g59
NtRp5466
(dp5467
g62
(dp5468
sg71
g5454
sg64
(lp5469
g57
(g58
g59
NtRp5470
(dp5471
g62
(dp5472
g70
I3
ssg71
g5466
sg64
(lp5473
S''
asbasbasbag57
(g73
g59
NtRp5474
(dp5475
g62
(dp5476
sg71
g5370
sg64
(lp5477
g57
(g78
g59
NtRp5478
(dp5479
g62
(dp5480
g82
g83
ssg71
g5474
sg64
(lp5481
g389
asbag57
(g78
g59
NtRp5482
(dp5483
g62
(dp5484
g89
g90
ssg71
g5474
sg64
(lp5485
S':'
asbag57
(g78
g59
NtRp5486
(dp5487
g62
(dp5488
sg71
g5474
sg64
(lp5489
g57
(g58
g59
NtRp5490
(dp5491
g62
(dp5492
g70
I3
ssg71
g5486
sg64
(lp5493
S'/'
asbasbasbag57
(g73
g59
NtRp5494
(dp5495
g62
(dp5496
sg71
g5370
sg64
(lp5497
g57
(g78
g59
NtRp5498
(dp5499
g62
(dp5500
g82
g83
ssg71
g5494
sg64
(lp5501
g410
asbag57
(g78
g59
NtRp5502
(dp5503
g62
(dp5504
g89
g90
ssg71
g5494
sg64
(lp5505
S':'
asbag57
(g78
g59
NtRp5506
(dp5507
g62
(dp5508
sg71
g5494
sg64
(lp5509
g57
(g58
g59
NtRp5510
(dp5511
g62
(dp5512
g70
I3
ssg71
g5506
sg64
(lp5513
S''
asbasbasbag57
(g73
g59
NtRp5514
(dp5515
g62
(dp5516
sg71
g5370
sg64
(lp5517
g57
(g78
g59
NtRp5518
(dp5519
g62
(dp5520
g82
g83
ssg71
g5514
sg64
(lp5521
g431
asbag57
(g78
g59
NtRp5522
(dp5523
g62
(dp5524
g89
g90
ssg71
g5514
sg64
(lp5525
S':'
asbag57
(g78
g59
NtRp5526
(dp5527
g62
(dp5528
sg71
g5514
sg64
(lp5529
g57
(g58
g59
NtRp5530
(dp5531
g62
(dp5532
g70
I3
ssg71
g5526
sg64
(lp5533
S''
asbasbasbasbasbasbasbasbasbasbasbag57
(g73
g59
NtRp5534
(dp5535
g62
(dp5536
sg71
g4924
sg64
(lp5537
g57
(g78
g59
NtRp5538
(dp5539
g62
(dp5540
g82
g83
ssg71
g5534
sg64
(lp5541
S'delimiters'
p5542
asbag57
(g78
g59
NtRp5543
(dp5544
g62
(dp5545
g89
g90
ssg71
g5534
sg64
(lp5546
S':'
asbag57
(g78
g59
NtRp5547
(dp5548
g62
(dp5549
sg71
g5534
sg64
(lp5550
g57
(g58
g59
NtRp5551
(dp5552
g62
(dp5553
g70
I5
ssg71
g5547
sg64
(lp5554
g57
(g66
g59
NtRp5555
(dp5556
g62
(dp5557
g70
I4
ssg71
Nsg64
(lp5558
g57
(g73
g59
NtRp5559
(dp5560
g62
(dp5561
sg71
g5555
sg64
(lp5562
g57
(g78
g59
NtRp5563
(dp5564
g62
(dp5565
sg71
g5559
sg64
(lp5566
g57
(g58
g59
NtRp5567
(dp5568
g62
(dp5569
g70
I4
ssg71
g5563
sg64
(lp5570
S'{{'
p5571
asbasbasbag57
(g73
g59
NtRp5572
(dp5573
g62
(dp5574
sg71
g5555
sg64
(lp5575
g57
(g78
g59
NtRp5576
(dp5577
g62
(dp5578
sg71
g5572
sg64
(lp5579
g57
(g58
g59
NtRp5580
(dp5581
g62
(dp5582
g70
I4
ssg71
g5576
sg64
(lp5583
S'}}'
p5584
asbasbasbasbasbasbasbag57
(g73
g59
NtRp5585
(dp5586
g62
(dp5587
sg71
g4924
sg64
(lp5588
g57
(g78
g59
NtRp5589
(dp5590
g62
(dp5591
g82
g83
ssg71
g5585
sg64
(lp5592
S'files'
p5593
asbag57
(g78
g59
NtRp5594
(dp5595
g62
(dp5596
g89
g90
ssg71
g5585
sg64
(lp5597
S':'
asbag57
(g78
g59
NtRp5598
(dp5599
g62
(dp5600
sg71
g5585
sg64
(lp5601
g57
(g58
g59
NtRp5602
(dp5603
g62
(dp5604
g70
I5
ssg71
g5598
sg64
(lp5605
g57
(g66
g59
NtRp5606
(dp5607
g62
(dp5608
g70
I4
ssg71
Nsg64
(lp5609
sbasbasbasbag57
(g73
g59
NtRp5610
(dp5611
g62
(dp5612
sg71
g4924
sg64
(lp5613
g57
(g78
g59
NtRp5614
(dp5615
g62
(dp5616
g82
g83
ssg71
g5610
sg64
(lp5617
S'flash'
p5618
asbag57
(g78
g59
NtRp5619
(dp5620
g62
(dp5621
g89
g90
ssg71
g5610
sg64
(lp5622
S':'
asbag57
(g78
g59
NtRp5623
(dp5624
g62
(dp5625
sg71
g5610
sg64
(lp5626
g57
(g58
g59
NtRp5627
(dp5628
g62
(dp5629
g70
I5
ssg71
g5623
sg64
(lp5630
S''
asbasbasbag57
(g73
g59
NtRp5631
(dp5632
g62
(dp5633
sg71
g4924
sg64
(lp5634
g57
(g78
g59
NtRp5635
(dp5636
g62
(dp5637
g82
g83
ssg71
g5631
sg64
(lp5638
S'generic_patterns'
p5639
asbag57
(g78
g59
NtRp5640
(dp5641
g62
(dp5642
g89
g90
ssg71
g5631
sg64
(lp5643
S':'
asbag57
(g78
g59
NtRp5644
(dp5645
g62
(dp5646
sg71
g5631
sg64
(lp5647
g57
(g58
g59
NtRp5648
(dp5649
g62
(dp5650
g70
I5
ssg71
g5644
sg64
(lp5651
g57
(g66
g59
NtRp5652
(dp5653
g62
(dp5654
g70
I4
ssg71
Nsg64
(lp5655
g57
(g73
g59
NtRp5656
(dp5657
g62
(dp5658
sg71
g5652
sg64
(lp5659
g57
(g78
g59
NtRp5660
(dp5661
g62
(dp5662
sg71
g5656
sg64
(lp5663
g57
(g58
g59
NtRp5664
(dp5665
g62
(dp5666
g70
I4
ssg71
g5660
sg64
(lp5667
S'*'
asbasbasbasbasbasbasbag57
(g73
g59
NtRp5668
(dp5669
g62
(dp5670
sg71
g4924
sg64
(lp5671
g57
(g78
g59
NtRp5672
(dp5673
g62
(dp5674
g82
g83
ssg71
g5668
sg64
(lp5675
S'headers'
p5676
asbag57
(g78
g59
NtRp5677
(dp5678
g62
(dp5679
g89
g90
ssg71
g5668
sg64
(lp5680
S':'
asbag57
(g78
g59
NtRp5681
(dp5682
g62
(dp5683
sg71
g5668
sg64
(lp5684
g57
(g58
g59
NtRp5685
(dp5686
g62
(dp5687
g70
I5
ssg71
g5681
sg64
(lp5688
g57
(g66
g59
NtRp5689
(dp5690
g62
(dp5691
g70
I4
ssg71
Nsg64
(lp5692
g57
(g73
g59
NtRp5693
(dp5694
g62
(dp5695
sg71
g5689
sg64
(lp5696
g57
(g78
g59
NtRp5697
(dp5698
g62
(dp5699
g82
g83
ssg71
g5693
sg64
(lp5700
S'Cache-Control'
p5701
asbag57
(g78
g59
NtRp5702
(dp5703
g62
(dp5704
g89
g90
ssg71
g5693
sg64
(lp5705
S':'
asbag57
(g78
g59
NtRp5706
(dp5707
g62
(dp5708
sg71
g5693
sg64
(lp5709
g57
(g58
g59
NtRp5710
(dp5711
g62
(dp5712
g70
I4
ssg71
g5706
sg64
(lp5713
S'no-store, no-cache, must-revalidate, post-check=0, pre-check=0'
p5714
asbasbasbag57
(g73
g59
NtRp5715
(dp5716
g62
(dp5717
sg71
g5689
sg64
(lp5718
g57
(g78
g59
NtRp5719
(dp5720
g62
(dp5721
g82
g83
ssg71
g5715
sg64
(lp5722
S'Content-Type'
p5723
asbag57
(g78
g59
NtRp5724
(dp5725
g62
(dp5726
g89
g90
ssg71
g5715
sg64
(lp5727
S':'
asbag57
(g78
g59
NtRp5728
(dp5729
g62
(dp5730
sg71
g5715
sg64
(lp5731
g57
(g58
g59
NtRp5732
(dp5733
g62
(dp5734
g70
I4
ssg71
g5728
sg64
(lp5735
S'text/html; charset=utf-8'
p5736
asbasbasbag57
(g73
g59
NtRp5737
(dp5738
g62
(dp5739
sg71
g5689
sg64
(lp5740
g57
(g78
g59
NtRp5741
(dp5742
g62
(dp5743
g82
g83
ssg71
g5737
sg64
(lp5744
S'Expires'
p5745
asbag57
(g78
g59
NtRp5746
(dp5747
g62
(dp5748
g89
g90
ssg71
g5737
sg64
(lp5749
S':'
asbag57
(g78
g59
NtRp5750
(dp5751
g62
(dp5752
sg71
g5737
sg64
(lp5753
g57
(g58
g59
NtRp5754
(dp5755
g62
(dp5756
g70
I4
ssg71
g5750
sg64
(lp5757
S'Wed, 02 May 2012 08:18:28 GMT'
p5758
asbasbasbag57
(g73
g59
NtRp5759
(dp5760
g62
(dp5761
sg71
g5689
sg64
(lp5762
g57
(g78
g59
NtRp5763
(dp5764
g62
(dp5765
g82
g83
ssg71
g5759
sg64
(lp5766
S'Pragma'
p5767
asbag57
(g78
g59
NtRp5768
(dp5769
g62
(dp5770
g89
g90
ssg71
g5759
sg64
(lp5771
S':'
asbag57
(g78
g59
NtRp5772
(dp5773
g62
(dp5774
sg71
g5759
sg64
(lp5775
g57
(g58
g59
NtRp5776
(dp5777
g62
(dp5778
g70
I4
ssg71
g5772
sg64
(lp5779
S'no-cache'
p5780
asbasbasbag57
(g73
g59
NtRp5781
(dp5782
g62
(dp5783
sg71
g5689
sg64
(lp5784
g57
(g78
g59
NtRp5785
(dp5786
g62
(dp5787
g82
g83
ssg71
g5781
sg64
(lp5788
S'X-Powered-By'
p5789
asbag57
(g78
g59
NtRp5790
(dp5791
g62
(dp5792
g89
g90
ssg71
g5781
sg64
(lp5793
S':'
asbag57
(g78
g59
NtRp5794
(dp5795
g62
(dp5796
sg71
g5781
sg64
(lp5797
g57
(g58
g59
NtRp5798
(dp5799
g62
(dp5800
g70
I4
ssg71
g5794
sg64
(lp5801
S'web2py'
p5802
asbasbasbasbasbasbasbag57
(g73
g59
NtRp5803
(dp5804
g62
(dp5805
sg71
g4924
sg64
(lp5806
g57
(g78
g59
NtRp5807
(dp5808
g62
(dp5809
g82
g83
ssg71
g5803
sg64
(lp5810
S'menu'
p5811
asbag57
(g78
g59
NtRp5812
(dp5813
g62
(dp5814
g89
g90
ssg71
g5803
sg64
(lp5815
S':'
asbag57
(g78
g59
NtRp5816
(dp5817
g62
(dp5818
sg71
g5803
sg64
(lp5819
g57
(g58
g59
NtRp5820
(dp5821
g62
(dp5822
g70
I5
ssg71
g5816
sg64
(lp5823
g57
(g66
g59
NtRp5824
(dp5825
g62
(dp5826
g70
I4
ssg71
Nsg64
(lp5827
g57
(g73
g59
NtRp5828
(dp5829
g62
(dp5830
sg71
g5824
sg64
(lp5831
g57
(g78
g59
NtRp5832
(dp5833
g62
(dp5834
sg71
g5828
sg64
(lp5835
g57
(g58
g59
NtRp5836
(dp5837
g62
(dp5838
g70
I4
ssg71
g5832
sg64
(lp5839
g57
(g66
g59
NtRp5840
(dp5841
g62
(dp5842
g70
I3
ssg71
Nsg64
(lp5843
g57
(g73
g59
NtRp5844
(dp5845
g62
(dp5846
sg71
g5840
sg64
(lp5847
g57
(g78
g59
NtRp5848
(dp5849
g62
(dp5850
sg71
g5844
sg64
(lp5851
g57
(g58
g59
NtRp5852
(dp5853
g62
(dp5854
g70
I3
ssg71
g5848
sg64
(lp5855
g4981
(S's\x04\x00\x00\x00HOME'
tRp5856
asbasbasbag57
(g73
g59
NtRp5857
(dp5858
g62
(dp5859
sg71
g5840
sg64
(lp5860
g57
(g78
g59
NtRp5861
(dp5862
g62
(dp5863
sg71
g5857
sg64
(lp5864
g57
(g58
g59
NtRp5865
(dp5866
g62
(dp5867
g70
I3
ssg71
g5861
sg64
(lp5868
g100
asbasbasbag57
(g73
g59
NtRp5869
(dp5870
g62
(dp5871
sg71
g5840
sg64
(lp5872
g57
(g78
g59
NtRp5873
(dp5874
g62
(dp5875
sg71
g5869
sg64
(lp5876
g57
(g58
g59
NtRp5877
(dp5878
g62
(dp5879
g70
I3
ssg71
g5873
sg64
(lp5880
S'/themishrms/default/index'
p5881
asbasbasbag57
(g73
g59
NtRp5882
(dp5883
g62
(dp5884
sg71
g5840
sg64
(lp5885
g57
(g78
g59
NtRp5886
(dp5887
g62
(dp5888
sg71
g5882
sg64
(lp5889
g57
(g58
g59
NtRp5890
(dp5891
g62
(dp5892
g70
I3
ssg71
g5886
sg64
(lp5893
g57
(g66
g59
NtRp5894
(dp5895
g62
(dp5896
g70
I2
ssg71
Nsg64
(lp5897
sbasbasbasbasbasbasbasbag57
(g73
g59
NtRp5898
(dp5899
g62
(dp5900
sg71
g5824
sg64
(lp5901
g57
(g78
g59
NtRp5902
(dp5903
g62
(dp5904
sg71
g5898
sg64
(lp5905
g57
(g58
g59
NtRp5906
(dp5907
g62
(dp5908
g70
I4
ssg71
g5902
sg64
(lp5909
g57
(g66
g59
NtRp5910
(dp5911
g62
(dp5912
g70
I3
ssg71
Nsg64
(lp5913
g57
(g73
g59
NtRp5914
(dp5915
g62
(dp5916
sg71
g5910
sg64
(lp5917
g57
(g78
g59
NtRp5918
(dp5919
g62
(dp5920
sg71
g5914
sg64
(lp5921
g57
(g58
g59
NtRp5922
(dp5923
g62
(dp5924
g70
I3
ssg71
g5918
sg64
(lp5925
g4981
(S's\t\x00\x00\x00ABOUT US '
tRp5926
asbasbasbag57
(g73
g59
NtRp5927
(dp5928
g62
(dp5929
sg71
g5910
sg64
(lp5930
g57
(g78
g59
NtRp5931
(dp5932
g62
(dp5933
sg71
g5927
sg64
(lp5934
g57
(g58
g59
NtRp5935
(dp5936
g62
(dp5937
g70
I3
ssg71
g5931
sg64
(lp5938
g100
asbasbasbag57
(g73
g59
NtRp5939
(dp5940
g62
(dp5941
sg71
g5910
sg64
(lp5942
g57
(g78
g59
NtRp5943
(dp5944
g62
(dp5945
sg71
g5939
sg64
(lp5946
g57
(g58
g59
NtRp5947
(dp5948
g62
(dp5949
g70
I3
ssg71
g5943
sg64
(lp5950
S'/themishrms/default/tlsabout'
p5951
asbasbasbag57
(g73
g59
NtRp5952
(dp5953
g62
(dp5954
sg71
g5910
sg64
(lp5955
g57
(g78
g59
NtRp5956
(dp5957
g62
(dp5958
sg71
g5952
sg64
(lp5959
g57
(g58
g59
NtRp5960
(dp5961
g62
(dp5962
g70
I3
ssg71
g5956
sg64
(lp5963
g57
(g66
g59
NtRp5964
(dp5965
g62
(dp5966
g70
I2
ssg71
Nsg64
(lp5967
sbasbasbasbasbasbasbasbag57
(g73
g59
NtRp5968
(dp5969
g62
(dp5970
sg71
g5824
sg64
(lp5971
g57
(g78
g59
NtRp5972
(dp5973
g62
(dp5974
sg71
g5968
sg64
(lp5975
g57
(g58
g59
NtRp5976
(dp5977
g62
(dp5978
g70
I4
ssg71
g5972
sg64
(lp5979
g57
(g66
g59
NtRp5980
(dp5981
g62
(dp5982
g70
I3
ssg71
Nsg64
(lp5983
g57
(g73
g59
NtRp5984
(dp5985
g62
(dp5986
sg71
g5980
sg64
(lp5987
g57
(g78
g59
NtRp5988
(dp5989
g62
(dp5990
sg71
g5984
sg64
(lp5991
g57
(g58
g59
NtRp5992
(dp5993
g62
(dp5994
g70
I3
ssg71
g5988
sg64
(lp5995
g4981
(S's\x0f\x00\x00\x00OUR EXPERTISE  '
tRp5996
asbasbasbag57
(g73
g59
NtRp5997
(dp5998
g62
(dp5999
sg71
g5980
sg64
(lp6000
g57
(g78
g59
NtRp6001
(dp6002
g62
(dp6003
sg71
g5997
sg64
(lp6004
g57
(g58
g59
NtRp6005
(dp6006
g62
(dp6007
g70
I3
ssg71
g6001
sg64
(lp6008
g100
asbasbasbag57
(g73
g59
NtRp6009
(dp6010
g62
(dp6011
sg71
g5980
sg64
(lp6012
g57
(g78
g59
NtRp6013
(dp6014
g62
(dp6015
sg71
g6009
sg64
(lp6016
g57
(g58
g59
NtRp6017
(dp6018
g62
(dp6019
g70
I3
ssg71
g6013
sg64
(lp6020
S'/themishrms/default/tlsservice'
p6021
asbasbasbag57
(g73
g59
NtRp6022
(dp6023
g62
(dp6024
sg71
g5980
sg64
(lp6025
g57
(g78
g59
NtRp6026
(dp6027
g62
(dp6028
sg71
g6022
sg64
(lp6029
g57
(g58
g59
NtRp6030
(dp6031
g62
(dp6032
g70
I3
ssg71
g6026
sg64
(lp6033
g57
(g66
g59
NtRp6034
(dp6035
g62
(dp6036
g70
I2
ssg71
Nsg64
(lp6037
sbasbasbasbasbasbasbasbag57
(g73
g59
NtRp6038
(dp6039
g62
(dp6040
sg71
g5824
sg64
(lp6041
g57
(g78
g59
NtRp6042
(dp6043
g62
(dp6044
sg71
g6038
sg64
(lp6045
g57
(g58
g59
NtRp6046
(dp6047
g62
(dp6048
g70
I4
ssg71
g6042
sg64
(lp6049
g57
(g66
g59
NtRp6050
(dp6051
g62
(dp6052
g70
I3
ssg71
Nsg64
(lp6053
g57
(g73
g59
NtRp6054
(dp6055
g62
(dp6056
sg71
g6050
sg64
(lp6057
g57
(g78
g59
NtRp6058
(dp6059
g62
(dp6060
sg71
g6054
sg64
(lp6061
g57
(g58
g59
NtRp6062
(dp6063
g62
(dp6064
g70
I3
ssg71
g6058
sg64
(lp6065
g4981
(S's\x08\x00\x00\x00OUR TEAM'
tRp6066
asbasbasbag57
(g73
g59
NtRp6067
(dp6068
g62
(dp6069
sg71
g6050
sg64
(lp6070
g57
(g78
g59
NtRp6071
(dp6072
g62
(dp6073
sg71
g6067
sg64
(lp6074
g57
(g58
g59
NtRp6075
(dp6076
g62
(dp6077
g70
I3
ssg71
g6071
sg64
(lp6078
g100
asbasbasbag57
(g73
g59
NtRp6079
(dp6080
g62
(dp6081
sg71
g6050
sg64
(lp6082
g57
(g78
g59
NtRp6083
(dp6084
g62
(dp6085
sg71
g6079
sg64
(lp6086
g57
(g58
g59
NtRp6087
(dp6088
g62
(dp6089
g70
I3
ssg71
g6083
sg64
(lp6090
S'/themishrms/default/tlsoteam'
p6091
asbasbasbag57
(g73
g59
NtRp6092
(dp6093
g62
(dp6094
sg71
g6050
sg64
(lp6095
g57
(g78
g59
NtRp6096
(dp6097
g62
(dp6098
sg71
g6092
sg64
(lp6099
g57
(g58
g59
NtRp6100
(dp6101
g62
(dp6102
g70
I3
ssg71
g6096
sg64
(lp6103
g57
(g66
g59
NtRp6104
(dp6105
g62
(dp6106
g70
I2
ssg71
Nsg64
(lp6107
sbasbasbasbasbasbasbasbag57
(g73
g59
NtRp6108
(dp6109
g62
(dp6110
sg71
g5824
sg64
(lp6111
g57
(g78
g59
NtRp6112
(dp6113
g62
(dp6114
sg71
g6108
sg64
(lp6115
g57
(g58
g59
NtRp6116
(dp6117
g62
(dp6118
g70
I4
ssg71
g6112
sg64
(lp6119
g57
(g66
g59
NtRp6120
(dp6121
g62
(dp6122
g70
I3
ssg71
Nsg64
(lp6123
g57
(g73
g59
NtRp6124
(dp6125
g62
(dp6126
sg71
g6120
sg64
(lp6127
g57
(g78
g59
NtRp6128
(dp6129
g62
(dp6130
sg71
g6124
sg64
(lp6131
g57
(g58
g59
NtRp6132
(dp6133
g62
(dp6134
g70
I3
ssg71
g6128
sg64
(lp6135
g4981
(S's\n\x00\x00\x00OPERATIONS'
tRp6136
asbasbasbag57
(g73
g59
NtRp6137
(dp6138
g62
(dp6139
sg71
g6120
sg64
(lp6140
g57
(g78
g59
NtRp6141
(dp6142
g62
(dp6143
sg71
g6137
sg64
(lp6144
g57
(g58
g59
NtRp6145
(dp6146
g62
(dp6147
g70
I3
ssg71
g6141
sg64
(lp6148
g100
asbasbasbag57
(g73
g59
NtRp6149
(dp6150
g62
(dp6151
sg71
g6120
sg64
(lp6152
g57
(g78
g59
NtRp6153
(dp6154
g62
(dp6155
sg71
g6149
sg64
(lp6156
g57
(g58
g59
NtRp6157
(dp6158
g62
(dp6159
g70
I3
ssg71
g6153
sg64
(lp6160
S'/themishrms/default/tlsoo'
p6161
asbasbasbag57
(g73
g59
NtRp6162
(dp6163
g62
(dp6164
sg71
g6120
sg64
(lp6165
g57
(g78
g59
NtRp6166
(dp6167
g62
(dp6168
sg71
g6162
sg64
(lp6169
g57
(g58
g59
NtRp6170
(dp6171
g62
(dp6172
g70
I3
ssg71
g6166
sg64
(lp6173
g57
(g66
g59
NtRp6174
(dp6175
g62
(dp6176
g70
I2
ssg71
Nsg64
(lp6177
sbasbasbasbasbasbasbasbag57
(g73
g59
NtRp6178
(dp6179
g62
(dp6180
sg71
g5824
sg64
(lp6181
g57
(g78
g59
NtRp6182
(dp6183
g62
(dp6184
sg71
g6178
sg64
(lp6185
g57
(g58
g59
NtRp6186
(dp6187
g62
(dp6188
g70
I4
ssg71
g6182
sg64
(lp6189
g57
(g66
g59
NtRp6190
(dp6191
g62
(dp6192
g70
I3
ssg71
Nsg64
(lp6193
g57
(g73
g59
NtRp6194
(dp6195
g62
(dp6196
sg71
g6190
sg64
(lp6197
g57
(g78
g59
NtRp6198
(dp6199
g62
(dp6200
sg71
g6194
sg64
(lp6201
g57
(g58
g59
NtRp6202
(dp6203
g62
(dp6204
g70
I3
ssg71
g6198
sg64
(lp6205
g4981
(S's\x07\x00\x00\x00JOIN US'
tRp6206
asbasbasbag57
(g73
g59
NtRp6207
(dp6208
g62
(dp6209
sg71
g6190
sg64
(lp6210
g57
(g78
g59
NtRp6211
(dp6212
g62
(dp6213
sg71
g6207
sg64
(lp6214
g57
(g58
g59
NtRp6215
(dp6216
g62
(dp6217
g70
I3
ssg71
g6211
sg64
(lp6218
g100
asbasbasbag57
(g73
g59
NtRp6219
(dp6220
g62
(dp6221
sg71
g6190
sg64
(lp6222
g57
(g78
g59
NtRp6223
(dp6224
g62
(dp6225
sg71
g6219
sg64
(lp6226
g57
(g58
g59
NtRp6227
(dp6228
g62
(dp6229
g70
I3
ssg71
g6223
sg64
(lp6230
S'/themishrms/default/tlscareer'
p6231
asbasbasbag57
(g73
g59
NtRp6232
(dp6233
g62
(dp6234
sg71
g6190
sg64
(lp6235
g57
(g78
g59
NtRp6236
(dp6237
g62
(dp6238
sg71
g6232
sg64
(lp6239
g57
(g58
g59
NtRp6240
(dp6241
g62
(dp6242
g70
I3
ssg71
g6236
sg64
(lp6243
g57
(g66
g59
NtRp6244
(dp6245
g62
(dp6246
g70
I2
ssg71
Nsg64
(lp6247
sbasbasbasbasbasbasbasbag57
(g73
g59
NtRp6248
(dp6249
g62
(dp6250
sg71
g5824
sg64
(lp6251
g57
(g78
g59
NtRp6252
(dp6253
g62
(dp6254
sg71
g6248
sg64
(lp6255
g57
(g58
g59
NtRp6256
(dp6257
g62
(dp6258
g70
I4
ssg71
g6252
sg64
(lp6259
g57
(g66
g59
NtRp6260
(dp6261
g62
(dp6262
g70
I3
ssg71
Nsg64
(lp6263
g57
(g73
g59
NtRp6264
(dp6265
g62
(dp6266
sg71
g6260
sg64
(lp6267
g57
(g78
g59
NtRp6268
(dp6269
g62
(dp6270
sg71
g6264
sg64
(lp6271
g57
(g58
g59
NtRp6272
(dp6273
g62
(dp6274
g70
I3
ssg71
g6268
sg64
(lp6275
g4981
(S's\n\x00\x00\x00CONTACT US'
tRp6276
asbasbasbag57
(g73
g59
NtRp6277
(dp6278
g62
(dp6279
sg71
g6260
sg64
(lp6280
g57
(g78
g59
NtRp6281
(dp6282
g62
(dp6283
sg71
g6277
sg64
(lp6284
g57
(g58
g59
NtRp6285
(dp6286
g62
(dp6287
g70
I3
ssg71
g6281
sg64
(lp6288
g100
asbasbasbag57
(g73
g59
NtRp6289
(dp6290
g62
(dp6291
sg71
g6260
sg64
(lp6292
g57
(g78
g59
NtRp6293
(dp6294
g62
(dp6295
sg71
g6289
sg64
(lp6296
g57
(g58
g59
NtRp6297
(dp6298
g62
(dp6299
g70
I3
ssg71
g6293
sg64
(lp6300
S'/themishrms/default/tlscontact'
p6301
asbasbasbag57
(g73
g59
NtRp6302
(dp6303
g62
(dp6304
sg71
g6260
sg64
(lp6305
g57
(g78
g59
NtRp6306
(dp6307
g62
(dp6308
sg71
g6302
sg64
(lp6309
g57
(g58
g59
NtRp6310
(dp6311
g62
(dp6312
g70
I3
ssg71
g6306
sg64
(lp6313
g57
(g66
g59
NtRp6314
(dp6315
g62
(dp6316
g70
I2
ssg71
Nsg64
(lp6317
sbasbasbasbasbasbasbasbasbasbasbasbag57
(g73
g59
NtRp6318
(dp6319
g62
(dp6320
sg71
g4924
sg64
(lp6321
g57
(g78
g59
NtRp6322
(dp6323
g62
(dp6324
g82
g83
ssg71
g6318
sg64
(lp6325
S'meta'
p6326
asbag57
(g78
g59
NtRp6327
(dp6328
g62
(dp6329
g89
g90
ssg71
g6318
sg64
(lp6330
S':'
asbag57
(g78
g59
NtRp6331
(dp6332
g62
(dp6333
sg71
g6318
sg64
(lp6334
g57
(g58
g59
NtRp6335
(dp6336
g62
(dp6337
g70
I5
ssg71
g6331
sg64
(lp6338
g57
(g66
g59
NtRp6339
(dp6340
g62
(dp6341
g70
I4
ssg71
Nsg64
(lp6342
g57
(g73
g59
NtRp6343
(dp6344
g62
(dp6345
sg71
g6339
sg64
(lp6346
g57
(g78
g59
NtRp6347
(dp6348
g62
(dp6349
g82
g83
ssg71
g6343
sg64
(lp6350
S'author'
p6351
asbag57
(g78
g59
NtRp6352
(dp6353
g62
(dp6354
g89
g90
ssg71
g6343
sg64
(lp6355
S':'
asbag57
(g78
g59
NtRp6356
(dp6357
g62
(dp6358
sg71
g6343
sg64
(lp6359
g57
(g58
g59
NtRp6360
(dp6361
g62
(dp6362
g70
I4
ssg71
g6356
sg64
(lp6363
S'Your Name <you@example.com>'
p6364
asbasbasbag57
(g73
g59
NtRp6365
(dp6366
g62
(dp6367
sg71
g6339
sg64
(lp6368
g57
(g78
g59
NtRp6369
(dp6370
g62
(dp6371
g82
g83
ssg71
g6365
sg64
(lp6372
S'copyright'
p6373
asbag57
(g78
g59
NtRp6374
(dp6375
g62
(dp6376
g89
g90
ssg71
g6365
sg64
(lp6377
S':'
asbag57
(g78
g59
NtRp6378
(dp6379
g62
(dp6380
sg71
g6365
sg64
(lp6381
g57
(g58
g59
NtRp6382
(dp6383
g62
(dp6384
g70
I4
ssg71
g6378
sg64
(lp6385
S'Copyright 2011'
p6386
asbasbasbag57
(g73
g59
NtRp6387
(dp6388
g62
(dp6389
sg71
g6339
sg64
(lp6390
g57
(g78
g59
NtRp6391
(dp6392
g62
(dp6393
g82
g83
ssg71
g6387
sg64
(lp6394
S'description'
p6395
asbag57
(g78
g59
NtRp6396
(dp6397
g62
(dp6398
g89
g90
ssg71
g6387
sg64
(lp6399
S':'
asbag57
(g78
g59
NtRp6400
(dp6401
g62
(dp6402
sg71
g6387
sg64
(lp6403
g57
(g58
g59
NtRp6404
(dp6405
g62
(dp6406
g70
I4
ssg71
g6400
sg64
(lp6407
S'a cool new app'
p6408
asbasbasbag57
(g73
g59
NtRp6409
(dp6410
g62
(dp6411
sg71
g6339
sg64
(lp6412
g57
(g78
g59
NtRp6413
(dp6414
g62
(dp6415
g82
g83
ssg71
g6409
sg64
(lp6416
S'generator'
p6417
asbag57
(g78
g59
NtRp6418
(dp6419
g62
(dp6420
g89
g90
ssg71
g6409
sg64
(lp6421
S':'
asbag57
(g78
g59
NtRp6422
(dp6423
g62
(dp6424
sg71
g6409
sg64
(lp6425
g57
(g58
g59
NtRp6426
(dp6427
g62
(dp6428
g70
I4
ssg71
g6422
sg64
(lp6429
S'Web2py Web Framework'
p6430
asbasbasbag57
(g73
g59
NtRp6431
(dp6432
g62
(dp6433
sg71
g6339
sg64
(lp6434
g57
(g78
g59
NtRp6435
(dp6436
g62
(dp6437
g82
g83
ssg71
g6431
sg64
(lp6438
S'keywords'
p6439
asbag57
(g78
g59
NtRp6440
(dp6441
g62
(dp6442
g89
g90
ssg71
g6431
sg64
(lp6443
S':'
asbag57
(g78
g59
NtRp6444
(dp6445
g62
(dp6446
sg71
g6431
sg64
(lp6447
g57
(g58
g59
NtRp6448
(dp6449
g62
(dp6450
g70
I4
ssg71
g6444
sg64
(lp6451
S'web2py, python, framework'
p6452
asbasbasbasbasbasbasbag57
(g73
g59
NtRp6453
(dp6454
g62
(dp6455
sg71
g4924
sg64
(lp6456
g57
(g78
g59
NtRp6457
(dp6458
g62
(dp6459
g82
g83
ssg71
g6453
sg64
(lp6460
S'postprocessing'
p6461
asbag57
(g78
g59
NtRp6462
(dp6463
g62
(dp6464
g89
g90
ssg71
g6453
sg64
(lp6465
S':'
asbag57
(g78
g59
NtRp6466
(dp6467
g62
(dp6468
sg71
g6453
sg64
(lp6469
g57
(g58
g59
NtRp6470
(dp6471
g62
(dp6472
g70
I5
ssg71
g6466
sg64
(lp6473
g57
(g66
g59
NtRp6474
(dp6475
g62
(dp6476
g70
I4
ssg71
Nsg64
(lp6477
sbasbasbasbag57
(g73
g59
NtRp6478
(dp6479
g62
(dp6480
sg71
g4924
sg64
(lp6481
g57
(g78
g59
NtRp6482
(dp6483
g62
(dp6484
g82
g83
ssg71
g6478
sg64
(lp6485
S'session_file'
p6486
asbag57
(g78
g59
NtRp6487
(dp6488
g62
(dp6489
g89
g90
ssg71
g6478
sg64
(lp6490
S':'
asbag57
(g78
g59
NtRp6491
(dp6492
g62
(dp6493
sg71
g6478
sg64
(lp6494
g57
(g58
g59
NtRp6495
(dp6496
g62
(dp6497
g70
I5
ssg71
g6491
sg64
(lp6498
S"<open file '/home/tls-sanjeet/Desktop/HRMS/web2py/applications/themishrms/sessions/127.0.0.1-b910a411-6665-41e9-bb70-b56cf32909ab', mode 'rb+' at 0x9a82758>"
p6499
asbasbasbag57
(g73
g59
NtRp6500
(dp6501
g62
(dp6502
sg71
g4924
sg64
(lp6503
g57
(g78
g59
NtRp6504
(dp6505
g62
(dp6506
g82
g83
ssg71
g6500
sg64
(lp6507
S'session_filename'
p6508
asbag57
(g78
g59
NtRp6509
(dp6510
g62
(dp6511
g89
g90
ssg71
g6500
sg64
(lp6512
S':'
asbag57
(g78
g59
NtRp6513
(dp6514
g62
(dp6515
sg71
g6500
sg64
(lp6516
g57
(g58
g59
NtRp6517
(dp6518
g62
(dp6519
g70
I5
ssg71
g6513
sg64
(lp6520
S'/home/tls-sanjeet/Desktop/HRMS/web2py/applications/themishrms/sessions/127.0.0.1-b910a411-6665-41e9-bb70-b56cf32909ab'
p6521
asbasbasbag57
(g73
g59
NtRp6522
(dp6523
g62
(dp6524
sg71
g4924
sg64
(lp6525
g57
(g78
g59
NtRp6526
(dp6527
g62
(dp6528
g82
g83
ssg71
g6522
sg64
(lp6529
S'session_id'
p6530
asbag57
(g78
g59
NtRp6531
(dp6532
g62
(dp6533
g89
g90
ssg71
g6522
sg64
(lp6534
S':'
asbag57
(g78
g59
NtRp6535
(dp6536
g62
(dp6537
sg71
g6522
sg64
(lp6538
g57
(g58
g59
NtRp6539
(dp6540
g62
(dp6541
g70
I5
ssg71
g6535
sg64
(lp6542
S'127.0.0.1-b910a411-6665-41e9-bb70-b56cf32909ab'
p6543
asbasbasbag57
(g73
g59
NtRp6544
(dp6545
g62
(dp6546
sg71
g4924
sg64
(lp6547
g57
(g78
g59
NtRp6548
(dp6549
g62
(dp6550
g82
g83
ssg71
g6544
sg64
(lp6551
S'session_id_name'
p6552
asbag57
(g78
g59
NtRp6553
(dp6554
g62
(dp6555
g89
g90
ssg71
g6544
sg64
(lp6556
S':'
asbag57
(g78
g59
NtRp6557
(dp6558
g62
(dp6559
sg71
g6544
sg64
(lp6560
g57
(g58
g59
NtRp6561
(dp6562
g62
(dp6563
g70
I5
ssg71
g6557
sg64
(lp6564
g5357
asbasbasbag57
(g73
g59
NtRp6565
(dp6566
g62
(dp6567
sg71
g4924
sg64
(lp6568
g57
(g78
g59
NtRp6569
(dp6570
g62
(dp6571
g82
g83
ssg71
g6565
sg64
(lp6572
S'session_locked'
p6573
asbag57
(g78
g59
NtRp6574
(dp6575
g62
(dp6576
g89
g90
ssg71
g6565
sg64
(lp6577
S':'
asbag57
(g78
g59
NtRp6578
(dp6579
g62
(dp6580
sg71
g6565
sg64
(lp6581
g57
(g58
g59
NtRp6582
(dp6583
g62
(dp6584
g70
I5
ssg71
g6578
sg64
(lp6585
g2006
asbasbasbag57
(g73
g59
NtRp6586
(dp6587
g62
(dp6588
sg71
g4924
sg64
(lp6589
g57
(g78
g59
NtRp6590
(dp6591
g62
(dp6592
g82
g83
ssg71
g6586
sg64
(lp6593
S'session_new'
p6594
asbag57
(g78
g59
NtRp6595
(dp6596
g62
(dp6597
g89
g90
ssg71
g6586
sg64
(lp6598
S':'
asbag57
(g78
g59
NtRp6599
(dp6600
g62
(dp6601
sg71
g6586
sg64
(lp6602
g57
(g58
g59
NtRp6603
(dp6604
g62
(dp6605
g70
I5
ssg71
g6599
sg64
(lp6606
g100
asbasbasbag57
(g73
g59
NtRp6607
(dp6608
g62
(dp6609
sg71
g4924
sg64
(lp6610
g57
(g78
g59
NtRp6611
(dp6612
g62
(dp6613
g82
g83
ssg71
g6607
sg64
(lp6614
S'status'
p6615
asbag57
(g78
g59
NtRp6616
(dp6617
g62
(dp6618
g89
g90
ssg71
g6607
sg64
(lp6619
S':'
asbag57
(g78
g59
NtRp6620
(dp6621
g62
(dp6622
sg71
g6607
sg64
(lp6623
g57
(g58
g59
NtRp6624
(dp6625
g62
(dp6626
g70
I5
ssg71
g6620
sg64
(lp6627
S'200'
p6628
asbasbasbag57
(g73
g59
NtRp6629
(dp6630
g62
(dp6631
sg71
g4924
sg64
(lp6632
g57
(g78
g59
NtRp6633
(dp6634
g62
(dp6635
g82
g83
ssg71
g6629
sg64
(lp6636
S'subtitle'
p6637
asbag57
(g78
g59
NtRp6638
(dp6639
g62
(dp6640
g89
g90
ssg71
g6629
sg64
(lp6641
S':'
asbag57
(g78
g59
NtRp6642
(dp6643
g62
(dp6644
sg71
g6629
sg64
(lp6645
g57
(g58
g59
NtRp6646
(dp6647
g62
(dp6648
g70
I5
ssg71
g6642
sg64
(lp6649
g4981
(S's\r\x00\x00\x00customize me!'
tRp6650
asbasbasbag57
(g73
g59
NtRp6651
(dp6652
g62
(dp6653
sg71
g4924
sg64
(lp6654
g57
(g78
g59
NtRp6655
(dp6656
g62
(dp6657
g82
g83
ssg71
g6651
sg64
(lp6658
S'title'
p6659
asbag57
(g78
g59
NtRp6660
(dp6661
g62
(dp6662
g89
g90
ssg71
g6651
sg64
(lp6663
S':'
asbag57
(g78
g59
NtRp6664
(dp6665
g62
(dp6666
sg71
g6651
sg64
(lp6667
g57
(g58
g59
NtRp6668
(dp6669
g62
(dp6670
g70
I5
ssg71
g6664
sg64
(lp6671
S'Themishrms'
p6672
asbasbasbag57
(g73
g59
NtRp6673
(dp6674
g62
(dp6675
sg71
g4924
sg64
(lp6676
g57
(g78
g59
NtRp6677
(dp6678
g62
(dp6679
g82
g83
ssg71
g6673
sg64
(lp6680
S'tlsmenu'
p6681
asbag57
(g78
g59
NtRp6682
(dp6683
g62
(dp6684
g89
g90
ssg71
g6673
sg64
(lp6685
S':'
asbag57
(g78
g59
NtRp6686
(dp6687
g62
(dp6688
sg71
g6673
sg64
(lp6689
g57
(g58
g59
NtRp6690
(dp6691
g62
(dp6692
g70
I5
ssg71
g6686
sg64
(lp6693
g57
(g66
g59
NtRp6694
(dp6695
g62
(dp6696
g70
I4
ssg71
Nsg64
(lp6697
g57
(g73
g59
NtRp6698
(dp6699
g62
(dp6700
sg71
g6694
sg64
(lp6701
g57
(g78
g59
NtRp6702
(dp6703
g62
(dp6704
sg71
g6698
sg64
(lp6705
g57
(g58
g59
NtRp6706
(dp6707
g62
(dp6708
g70
I4
ssg71
g6702
sg64
(lp6709
g57
(g66
g59
NtRp6710
(dp6711
g62
(dp6712
g70
I3
ssg71
Nsg64
(lp6713
g57
(g73
g59
NtRp6714
(dp6715
g62
(dp6716
sg71
g6710
sg64
(lp6717
g57
(g78
g59
NtRp6718
(dp6719
g62
(dp6720
sg71
g6714
sg64
(lp6721
g57
(g58
g59
NtRp6722
(dp6723
g62
(dp6724
g70
I3
ssg71
g6718
sg64
(lp6725
g4981
(S's\x07\x00\x00\x00Website'
tRp6726
asbasbasbag57
(g73
g59
NtRp6727
(dp6728
g62
(dp6729
sg71
g6710
sg64
(lp6730
g57
(g78
g59
NtRp6731
(dp6732
g62
(dp6733
sg71
g6727
sg64
(lp6734
g57
(g58
g59
NtRp6735
(dp6736
g62
(dp6737
g70
I3
ssg71
g6731
sg64
(lp6738
g100
asbasbasbag57
(g73
g59
NtRp6739
(dp6740
g62
(dp6741
sg71
g6710
sg64
(lp6742
g57
(g78
g59
NtRp6743
(dp6744
g62
(dp6745
sg71
g6739
sg64
(lp6746
g57
(g58
g59
NtRp6747
(dp6748
g62
(dp6749
g70
I3
ssg71
g6743
sg64
(lp6750
S'/themishrms/default/index'
p6751
asbasbasbag57
(g73
g59
NtRp6752
(dp6753
g62
(dp6754
sg71
g6710
sg64
(lp6755
g57
(g78
g59
NtRp6756
(dp6757
g62
(dp6758
sg71
g6752
sg64
(lp6759
g57
(g58
g59
NtRp6760
(dp6761
g62
(dp6762
g70
I3
ssg71
g6756
sg64
(lp6763
g57
(g66
g59
NtRp6764
(dp6765
g62
(dp6766
g70
I2
ssg71
Nsg64
(lp6767
sbasbasbasbasbasbasbasbag57
(g73
g59
NtRp6768
(dp6769
g62
(dp6770
sg71
g6694
sg64
(lp6771
g57
(g78
g59
NtRp6772
(dp6773
g62
(dp6774
sg71
g6768
sg64
(lp6775
g57
(g58
g59
NtRp6776
(dp6777
g62
(dp6778
g70
I4
ssg71
g6772
sg64
(lp6779
g57
(g66
g59
NtRp6780
(dp6781
g62
(dp6782
g70
I3
ssg71
Nsg64
(lp6783
g57
(g73
g59
NtRp6784
(dp6785
g62
(dp6786
sg71
g6780
sg64
(lp6787
g57
(g78
g59
NtRp6788
(dp6789
g62
(dp6790
sg71
g6784
sg64
(lp6791
g57
(g58
g59
NtRp6792
(dp6793
g62
(dp6794
g70
I3
ssg71
g6788
sg64
(lp6795
g4981
(S's\x07\x00\x00\x00WebMail'
tRp6796
asbasbasbag57
(g73
g59
NtRp6797
(dp6798
g62
(dp6799
sg71
g6780
sg64
(lp6800
g57
(g78
g59
NtRp6801
(dp6802
g62
(dp6803
sg71
g6797
sg64
(lp6804
g57
(g58
g59
NtRp6805
(dp6806
g62
(dp6807
g70
I3
ssg71
g6801
sg64
(lp6808
g100
asbasbasbag57
(g73
g59
NtRp6809
(dp6810
g62
(dp6811
sg71
g6780
sg64
(lp6812
g57
(g78
g59
NtRp6813
(dp6814
g62
(dp6815
sg71
g6809
sg64
(lp6816
g57
(g58
g59
NtRp6817
(dp6818
g62
(dp6819
g70
I3
ssg71
g6813
sg64
(lp6820
S'/themishrms/default/webmail'
p6821
asbasbasbag57
(g73
g59
NtRp6822
(dp6823
g62
(dp6824
sg71
g6780
sg64
(lp6825
g57
(g78
g59
NtRp6826
(dp6827
g62
(dp6828
sg71
g6822
sg64
(lp6829
g57
(g58
g59
NtRp6830
(dp6831
g62
(dp6832
g70
I3
ssg71
g6826
sg64
(lp6833
g57
(g66
g59
NtRp6834
(dp6835
g62
(dp6836
g70
I2
ssg71
Nsg64
(lp6837
sbasbasbasbasbasbasbasbag57
(g73
g59
NtRp6838
(dp6839
g62
(dp6840
sg71
g6694
sg64
(lp6841
g57
(g78
g59
NtRp6842
(dp6843
g62
(dp6844
sg71
g6838
sg64
(lp6845
g57
(g58
g59
NtRp6846
(dp6847
g62
(dp6848
g70
I4
ssg71
g6842
sg64
(lp6849
g57
(g66
g59
NtRp6850
(dp6851
g62
(dp6852
g70
I3
ssg71
Nsg64
(lp6853
g57
(g73
g59
NtRp6854
(dp6855
g62
(dp6856
sg71
g6850
sg64
(lp6857
g57
(g78
g59
NtRp6858
(dp6859
g62
(dp6860
sg71
g6854
sg64
(lp6861
g57
(g58
g59
NtRp6862
(dp6863
g62
(dp6864
g70
I3
ssg71
g6858
sg64
(lp6865
g4981
(S's\r\x00\x00\x00Themis Portal'
tRp6866
asbasbasbag57
(g73
g59
NtRp6867
(dp6868
g62
(dp6869
sg71
g6850
sg64
(lp6870
g57
(g78
g59
NtRp6871
(dp6872
g62
(dp6873
sg71
g6867
sg64
(lp6874
g57
(g58
g59
NtRp6875
(dp6876
g62
(dp6877
g70
I3
ssg71
g6871
sg64
(lp6878
g100
asbasbasbag57
(g73
g59
NtRp6879
(dp6880
g62
(dp6881
sg71
g6850
sg64
(lp6882
g57
(g78
g59
NtRp6883
(dp6884
g62
(dp6885
sg71
g6879
sg64
(lp6886
g57
(g58
g59
NtRp6887
(dp6888
g62
(dp6889
g70
I3
ssg71
g6883
sg64
(lp6890
S'/themishrms/default/portal'
p6891
asbasbasbag57
(g73
g59
NtRp6892
(dp6893
g62
(dp6894
sg71
g6850
sg64
(lp6895
g57
(g78
g59
NtRp6896
(dp6897
g62
(dp6898
sg71
g6892
sg64
(lp6899
g57
(g58
g59
NtRp6900
(dp6901
g62
(dp6902
g70
I3
ssg71
g6896
sg64
(lp6903
g57
(g66
g59
NtRp6904
(dp6905
g62
(dp6906
g70
I2
ssg71
Nsg64
(lp6907
sbasbasbasbasbasbasbasbag57
(g73
g59
NtRp6908
(dp6909
g62
(dp6910
sg71
g6694
sg64
(lp6911
g57
(g78
g59
NtRp6912
(dp6913
g62
(dp6914
sg71
g6908
sg64
(lp6915
g57
(g58
g59
NtRp6916
(dp6917
g62
(dp6918
g70
I4
ssg71
g6912
sg64
(lp6919
g57
(g66
g59
NtRp6920
(dp6921
g62
(dp6922
g70
I3
ssg71
Nsg64
(lp6923
g57
(g73
g59
NtRp6924
(dp6925
g62
(dp6926
sg71
g6920
sg64
(lp6927
g57
(g78
g59
NtRp6928
(dp6929
g62
(dp6930
sg71
g6924
sg64
(lp6931
g57
(g58
g59
NtRp6932
(dp6933
g62
(dp6934
g70
I3
ssg71
g6928
sg64
(lp6935
g4981
(S's\x0f\x00\x00\x00Themis Policies'
tRp6936
asbasbasbag57
(g73
g59
NtRp6937
(dp6938
g62
(dp6939
sg71
g6920
sg64
(lp6940
g57
(g78
g59
NtRp6941
(dp6942
g62
(dp6943
sg71
g6937
sg64
(lp6944
g57
(g58
g59
NtRp6945
(dp6946
g62
(dp6947
g70
I3
ssg71
g6941
sg64
(lp6948
g100
asbasbasbag57
(g73
g59
NtRp6949
(dp6950
g62
(dp6951
sg71
g6920
sg64
(lp6952
g57
(g78
g59
NtRp6953
(dp6954
g62
(dp6955
sg71
g6949
sg64
(lp6956
g57
(g58
g59
NtRp6957
(dp6958
g62
(dp6959
g70
I3
ssg71
g6953
sg64
(lp6960
S'/themishrms/default/ourtrem'
p6961
asbasbasbag57
(g73
g59
NtRp6962
(dp6963
g62
(dp6964
sg71
g6920
sg64
(lp6965
g57
(g78
g59
NtRp6966
(dp6967
g62
(dp6968
sg71
g6962
sg64
(lp6969
g57
(g58
g59
NtRp6970
(dp6971
g62
(dp6972
g70
I3
ssg71
g6966
sg64
(lp6973
g57
(g66
g59
NtRp6974
(dp6975
g62
(dp6976
g70
I2
ssg71
Nsg64
(lp6977
sbasbasbasbasbasbasbasbag57
(g73
g59
NtRp6978
(dp6979
g62
(dp6980
sg71
g6694
sg64
(lp6981
g57
(g78
g59
NtRp6982
(dp6983
g62
(dp6984
sg71
g6978
sg64
(lp6985
g57
(g58
g59
NtRp6986
(dp6987
g62
(dp6988
g70
I4
ssg71
g6982
sg64
(lp6989
g57
(g66
g59
NtRp6990
(dp6991
g62
(dp6992
g70
I3
ssg71
Nsg64
(lp6993
g57
(g73
g59
NtRp6994
(dp6995
g62
(dp6996
sg71
g6990
sg64
(lp6997
g57
(g78
g59
NtRp6998
(dp6999
g62
(dp7000
sg71
g6994
sg64
(lp7001
g57
(g58
g59
NtRp7002
(dp7003
g62
(dp7004
g70
I3
ssg71
g6998
sg64
(lp7005
g4981
(S's\x0f\x00\x00\x00Contact Details'
tRp7006
asbasbasbag57
(g73
g59
NtRp7007
(dp7008
g62
(dp7009
sg71
g6990
sg64
(lp7010
g57
(g78
g59
NtRp7011
(dp7012
g62
(dp7013
sg71
g7007
sg64
(lp7014
g57
(g58
g59
NtRp7015
(dp7016
g62
(dp7017
g70
I3
ssg71
g7011
sg64
(lp7018
g100
asbasbasbag57
(g73
g59
NtRp7019
(dp7020
g62
(dp7021
sg71
g6990
sg64
(lp7022
g57
(g78
g59
NtRp7023
(dp7024
g62
(dp7025
sg71
g7019
sg64
(lp7026
g57
(g58
g59
NtRp7027
(dp7028
g62
(dp7029
g70
I3
ssg71
g7023
sg64
(lp7030
S'/themishrms/default/emp_contact_detail'
p7031
asbasbasbag57
(g73
g59
NtRp7032
(dp7033
g62
(dp7034
sg71
g6990
sg64
(lp7035
g57
(g78
g59
NtRp7036
(dp7037
g62
(dp7038
sg71
g7032
sg64
(lp7039
g57
(g58
g59
NtRp7040
(dp7041
g62
(dp7042
g70
I3
ssg71
g7036
sg64
(lp7043
g57
(g66
g59
NtRp7044
(dp7045
g62
(dp7046
g70
I2
ssg71
Nsg64
(lp7047
sbasbasbasbasbasbasbasbasbasbasbasbag57
(g73
g59
NtRp7048
(dp7049
g62
(dp7050
sg71
g4924
sg64
(lp7051
g57
(g78
g59
NtRp7052
(dp7053
g62
(dp7054
g82
g83
ssg71
g7048
sg64
(lp7055
g2866
asbag57
(g78
g59
NtRp7056
(dp7057
g62
(dp7058
g89
g90
ssg71
g7048
sg64
(lp7059
S':'
asbag57
(g78
g59
NtRp7060
(dp7061
g62
(dp7062
sg71
g7048
sg64
(lp7063
g57
(g58
g59
NtRp7064
(dp7065
g62
(dp7066
g70
I5
ssg71
g7060
sg64
(lp7067
g2879
asbasbasbag57
(g73
g59
NtRp7068
(dp7069
g62
(dp7070
sg71
g4924
sg64
(lp7071
g57
(g78
g59
NtRp7072
(dp7073
g62
(dp7074
g82
g83
ssg71
g7068
sg64
(lp7075
S'view'
p7076
asbag57
(g78
g59
NtRp7077
(dp7078
g62
(dp7079
g89
g90
ssg71
g7068
sg64
(lp7080
S':'
asbag57
(g78
g59
NtRp7081
(dp7082
g62
(dp7083
sg71
g7068
sg64
(lp7084
g57
(g58
g59
NtRp7085
(dp7086
g62
(dp7087
g70
I5
ssg71
g7081
sg64
(lp7088
S'default/admin_edit_leave_status.html'
p7089
asbasbasbasbasbsS'locals'
p7090
(dp7091
S'self'
p7092
S'<gluon.dal.SQLiteAdapter object>'
p7093
sS'r'
S'None'
p7094
sS'obj'
p7095
S"'admin_submit_edit_leave_status'"
p7096
sS'fieldtype'
p7097
S"'id'"
p7098
sssS'traceback'
p7099
S'Traceback (most recent call last):\n  File "/home/tls-sanjeet/Desktop/HRMS/web2py/gluon/restricted.py", line 205, in restricted\n    exec ccode in environment\n  File "/home/tls-sanjeet/Desktop/HRMS/web2py/applications/themishrms/controllers/default.py", line 1145, in <module>\n  File "/home/tls-sanjeet/Desktop/HRMS/web2py/gluon/globals.py", line 173, in <lambda>\n    self._caller = lambda f: f()\n  File "/home/tls-sanjeet/Desktop/HRMS/web2py/gluon/tools.py", line 2575, in f\n    return action(*a, **b)\n  File "/home/tls-sanjeet/Desktop/HRMS/web2py/applications/themishrms/controllers/default.py", line 656, in admin_edit_leave_status\n    for row in db(db.apply_leave.id==session.eleaveid).select():\n  File "/home/tls-sanjeet/Desktop/HRMS/web2py/gluon/dal.py", line 7578, in select\n    return adapter.select(self.query,fields,attributes)\n  File "/home/tls-sanjeet/Desktop/HRMS/web2py/gluon/dal.py", line 1307, in select\n    sql = self._select(query, fields, attributes)\n  File "/home/tls-sanjeet/Desktop/HRMS/web2py/gluon/dal.py", line 1756, in _select\n    sql = super(SQLiteAdapter, self)._select(query, fields, attributes)\n  File "/home/tls-sanjeet/Desktop/HRMS/web2py/gluon/dal.py", line 1200, in _select\n    sql_w = \' WHERE \' + self.expand(query)\n  File "/home/tls-sanjeet/Desktop/HRMS/web2py/gluon/dal.py", line 1046, in expand\n    return expression.op(expression.first, expression.second)\n  File "/home/tls-sanjeet/Desktop/HRMS/web2py/gluon/dal.py", line 987, in EQ\n    return \'(%s = %s)\' % (self.expand(first), self.expand(second, first.type))\n  File "/home/tls-sanjeet/Desktop/HRMS/web2py/gluon/dal.py", line 1054, in expand\n    return str(self.represent(expression,field_type))\n  File "/home/tls-sanjeet/Desktop/HRMS/web2py/gluon/dal.py", line 1425, in represent\n    return str(int(obj))\nValueError: invalid literal for int() with base 10: \'admin_submit_edit_leave_status\'\n'
p7100
s.