(dp1
S'output'
p2
S"<type 'exceptions.AttributeError'> 'NoneType' object has no attribute 'organization_name'"
p3
sS'layer'
p4
S'/home/tls-sanjeet/Desktop/HRMS/web2py/applications/themishrms/controllers/default.py'
p5
sS'code'
p6
S'# -*- coding: utf-8 -*-\n# this file is released under public domain and you can use without limitations\n\n#########################################################################\n## This is a samples controller\n## - index is the default action of any application\n## - user is required for authentication and authorization\n## - download is for downloading files uploaded in the db (does streaming)\n## - call exposes all registered services (none by default)\n#########################################################################\n\ndef index():\n    """\n    example action using the internationalization operator T and flash\n    rendered by views/default/index.html or views/generic.html\n    """\n    response.flash = "Welcome to Themis Lexsol"\n    return dict(message=T(\'Hello World\'))\n\t\n\t\ndef tlscareer():\n    return dict()\n\ndef tlsabout():\n    return dict()\n    \ndef rt():\n    return dict()\n\ndef employee():\n    return dict()\n    \ndef tlsservice():\n    return dict()\n\n\ndef tlsoo():\n    return dict()   \n\ndef tlsleads():\n    return dict()   \n\ndef tlsoteam():\t\n\t return dict()\n\t \n\ndef tlscontact(): \r\n    use_recaptcha = True \r\n    form = SQLFORM.factory(Field(\'Name\',requires=IS_NOT_EMPTY()),Field (\'your_email\',requires=IS_EMAIL()),Field(\'your_message\',\'text\')) \r\n    return dict(form=form)\r\n\t\t\r\ndef tlscareer(): \r\n    form = SQLFORM.factory(Field(\'name\',requires=IS_NOT_EMPTY()),\n    \t\t\t\t\t\t\t\tField (\'your_email\',requires=IS_EMAIL()),\n    \t\t\t\t\t\t\t\tSQLField(\'contact_details\',requires=IS_NOT_EMPTY()),\n    \t\t\t\t\t\t\t\tField(\'your_message\',\'text\'),\n    \t\t\t\t\t\t\t\tSQLField(\'looking_for_position\',requires=IS_IN_SET([\'Admin\', \'Legal\', \'Finance\',\'IT\'])),\n    \t\t\t\t\t\t\t\tSQLField(\'your_resume\',\'upload\')) \n    if form.accepts(request,session):\n    \tsession.name = form.vars.name\n    \t#careermail() \r\n    return dict(form=form)\t\r\n\t\t\r\ndef careermail():\n    from gluon.tools import Mail\n    mail = Mail()\n        #specify server\n    mail=auth.settings.mailer\n    mail.settings.server = \'smtp.gmail.com:587\'\n    #specify address to send as\n    mail.settings.sender = \'themisdemo1@gmail.com\'\n    mail.settings.login = \'themisdemo1@gmail.com:123456asdfg\'\n    #send the message                             \n    mail.send(to=[\'sanjeet.tls@gmail.com\',\'prakhar.tls@gmail.com\'],\n            subject=\'Welcome User\',\n            message=\'<html>\'\n                        \'<body>\'\n                            \'<span style="font-family: Bodoni MT Ultra Bold;color:  #000000 ;font-size : 18pt;"><b>Themis </span></h1><span style="font-family: Bodoni MT Ultra Bold;color:#C7A317   ;font-size :18pt;"><b>Lexsol</b></span>\'\n                            \n                            \'<p>Dear &nbsp;\'+session.name+\'</p>\'\n                            \n                            \'<p>I just wanted to drop you a quick message to say thank you for joining the LCM Plus. I appreciate you taking the time to register and really look forward to reading your compliances. Your user name is \'+session.mail+\' and please click below to reset your password.<h1>http://jmdlcmplus.fluxflex.com/jmdlcmplus/default/user/request_reset_password</h1>If you need help at any time, please contact me by replying to this message. Similarly, if you ever have any questions then please do not hesitate to send me a message or email.</p>\'\n                            \'<center><p>_________________________________________________________</p><p style="color:red;font-size :5pt;">This email comes to you since your company has subcribed for LCM Plus. TO unsubcribed please contact to your Compliance Manager</p></center>\'\n                      \n                        \'</body>\'\n                    \'</html>\'\n                    \n  )\n    response.flash=\'mail send\'\n    return \'\'\r\n\ndef user():\n    """\n    exposes:\n    http://..../[app]/default/user/login\n    http://..../[app]/default/user/logout\n    http://..../[app]/default/user/register\n    http://..../[app]/default/user/profile\n    http://..../[app]/default/user/retrieve_password\n    http://..../[app]/default/user/change_password\n    use @auth.requires_login()\n        @auth.requires_membership(\'group name\')\n        @auth.requires_permission(\'read\',\'table name\',record_id)\n    to decorate functions that need access control\n    """\n    return dict(form=auth())\n\n\ndef download():\n    """\n    allows downloading of uploaded files\n    http://..../[app]/default/download/[filename]\n    """\n    return response.download(request,db)\n\n\ndef call():\n    """\n    exposes services. for example:\n    http://..../[app]/default/call/jsonrpc\n    decorate with @services.jsonrpc the functions to expose\n    supports xml, json, xmlrpc, jsonrpc, amfrpc, rss, csv\n    """\n    return service()\n\n\n@auth.requires_signature()\ndef data():\n    """\n    http://..../[app]/default/data/tables\n    http://..../[app]/default/data/create/[table]\n    http://..../[app]/default/data/read/[table]/[id]\n    http://..../[app]/default/data/update/[table]/[id]\n    http://..../[app]/default/data/delete/[table]/[id]\n    http://..../[app]/default/data/select/[table]\n    http://..../[app]/default/data/search/[table]\n    but URLs must be signed, i.e. linked with\n      A(\'table\',_href=URL(\'data/tables\',user_signature=True))\n    or with the signed load operator\n      LOAD(\'default\',\'data.load\',args=\'tables\',ajax=True,user_signature=True)\n    """\n    return dict(form=crud())\n    \ndef welcome():\n\t""" First page to be visited after installation. Will create necessary roles and permissions for admin and redirects to index."""\n\tcreate_user()\n\tcreate_group()\n\tcreate_membership()\n\tcreate_permission()\n\tsession.flash = "Welcome to Themis"\n\tredirect(URL(c=\'default\', f=\'index\'))\n\t\ndef create_user():\n\t username = \'admin\'\n\t password = username\n\t if \'username\' in auth.settings.table_user.fields():\n\t \tuserkey = \'username\'\n\t elif \'email\' in auth.settings.table_user.fields():\n\t \tuserkey = \'email\'\n\t \tusername = username + \'@themislexsol.com\'\n\t passfield = auth.settings.password_field \n\t user = db(auth.settings.table_user[userkey] == username).select().first()\n\t if not user:\n\t \tuser_id = db.auth_user.insert(**{userkey:username,passfield:CRYPT(auth.settings.hmac_key)(password)[0]})\n\t \tuser = auth.settings.table_user(user_id)\n\t return user\n\t \ndef create_group():\n    group = db(auth.settings.table_group.role == \'Admin\').select().first()\n    if not group:\n        group_id = auth.add_group(role = \'Admin\', description = \'All Permissions\')\n        group = auth.settings.table_group(group_id)\n    return group\n    \ndef create_membership():\n\tgroup = db(db.auth_group.role == \'Admin\').select().first()\n\tuser = db(db.auth_user.email == \'admin@themislexsol.com\').select().first()\n\tmembership = db(auth.settings.table_membership.group_id == group.id).select().first()\n\tif not membership:\n\t\tmembership_id = auth.add_membership(group_id = group.id, user_id = user.id)\n\t\tmembership = auth.settings.table_membership(membership_id)\n\treturn membership\n\t\ndef create_permission():\n\ttables = list(db.tables)\n\tfor table in tables:\n\t\tgroup = db(db.auth_group.role == \'Admin\').select().first()\n\t\tquery = auth.settings.table_permission.group_id == group.id\n\t\tquery = query & (auth.settings.table_permission.name == \'CRUD\')\n\t\tquery = query & (auth.settings.table_permission.table_name == table)\n\t\tpermission = db(query).select().first()\n\t\tif not permission:\n\t\t\tpermission_id = auth.add_permission(group_id = group.id, name = \'CRUD\', table_name = table)\n\t\t\tpermission = auth.settings.table_permission(permission_id)\n\treturn permission\n\t\ndef lgin(form):\n\tif auth.user.email == \'admin@themislexsol.com\':\n\t\tadmin=db(db.image.email==auth.user.email).select().first()\n\t\tif not admin:\n\t\t\tdb.image.insert(email=auth.user.email)\n\t\t\tredirect(URL(c=\'default\', f=\'admindash\'))\n\t\telse:\n\t\t\tredirect(URL(c=\'default\', f=\'admindash\'))\t\t\t\n\telse:\n\t\tredirect(URL(c=\'default\', f=\'emp_time\'))\n\treturn dict()\n\t\ndef lgout(usr):\n\tif auth.user.email == \'admin@themislexsol.com\':\n\t\tpass\n\telse:\n\t\timport datetime\n\t\timport time, os\n\t\tos.environ[\'TZ\'] = \'Asia/Kolkata\'\n\t\ttime.tzset()\n\t\tcurrentdate=datetime.date.today()\n\t\tnow = time.localtime(time.time())\n\t\tendtime=datetime.datetime.now()\n\t\tstarttime = session.starttime\n\t\tdelta = (endtime - starttime)\n\t\ttotalminutes = str(delta.seconds / 60)\n\t\ttotalhours = str(delta.seconds / 3600)\n\t\ttotmin = totalminutes + \'\\t min\'\n\t\ttothr = totalhours + \'\\t hrs\'\n\t\tcurrenttime = time.strftime("%H:%M:%S", now)\n\t\tdb((db.employee_login_detail.employee_email == auth.user.email) & (db.employee_login_detail.employee_login_date == currentdate) & (db.employee_login_detail.employee_login_time == session.cutime)).update(employee_logout_date=currentdate, employee_logout_time=currenttime, total_minutes=totmin, toal_hours=tothr)\n\t\tdb.commit()\n\treturn dict()\n\n#### Admin Controller Starts from here ####\t\n\t\n@auth.requires(auth.login() and auth.has_permission(\'CRUD\', \'auth_user\'))    \ndef admindash():\n\tfor row in db(db.image.email == auth.user.email).select():\n\t\timages=row.image\n\treturn dict(images=images)\t \n\n@auth.requires_permission(\'CRUD\', \'auth_user\')\t\t\ndef admin_organization():\n\tfor row in db(db.image.email == auth.user.email).select():\n\t\timages=row.image\n\tdb.add_new_organization.id.readable = False\n\tform=SQLFORM.grid(db.add_new_organization, selectable = lambda ids: del_org(ids))\n\treturn dict(images=images,form=form)\n\t\n@auth.requires_permission(\'CRUD\', \'auth_user\')\t\ndef del_org(ids):\n\tif not ids:\n\t\tresponse.flash=\'Please Select the Check-box to Delete\'\n\telse:\n\t\tfor row in ids:\n\t\t\tdb(db.add_new_organization.id == row).delete()\n\t\tpass\n\tpass\n\treturn \'\'\n\t\n@auth.requires_permission(\'CRUD\', \'auth_user\')\t\t\ndef admin_location():\n\tfor row in db(db.image.email == auth.user.email).select():\n\t\timages=row.image\n\tdb.add_new_location.id.readable = False\n\tform=SQLFORM.grid(db.add_new_location, selectable = lambda ids: del_loc(ids))\n\treturn dict(images=images,form=form)\n\t\n@auth.requires_permission(\'CRUD\', \'auth_user\')\t\ndef del_loc(ids):\n\tif not ids:\n\t\tresponse.flash=\'Please Select the Check-box to Delete\'\n\telse:\n\t\tfor row in ids:\n\t\t\tdb(db.add_new_location.id == row).delete()\n\t\tpass\n\tpass\n\treturn \'\'\n\t\n@auth.requires_permission(\'CRUD\', \'auth_user\')\t\t\ndef admin_department():\n\tfor row in db(db.image.email == auth.user.email).select():\n\t\timages=row.image\n\tdb.add_new_department.id.readable = False\n\tform=SQLFORM.grid(db.add_new_department, selectable = lambda ids: del_dpt(ids))\n\treturn dict(images=images,form=form)\n\t\n@auth.requires_permission(\'CRUD\', \'auth_user\')\t\ndef del_dpt(ids):\n\tif not ids:\n\t\tresponse.flash=\'Please Select the Check-box to Delete\'\n\telse:\n\t\tfor row in ids:\n\t\t\tdb(db.add_new_department.id == row).delete()\n\t\tpass\n\tpass\n\treturn \'\'\n\n@auth.requires_permission(\'CRUD\', \'auth_user\')\t\ndef locn(): \n\torg = request.vars.org\n\tloc = db(db.add_new_location.organization_name == org).select()\n\treturn SELECT(_id="locn",_name="locn",*[OPTION(loc [i].location, _value=str (loc[i].location)) for i in range(len(loc))])\n\n@auth.requires_permission(\'CRUD\', \'auth_user\')\t  \ndef admin_newuser():\n\tfor row in db(db.image.email == auth.user.email).select():\n\t\timages=row.image\n\tdb.auth_user.id.readable = False\n\tform=SQLFORM.grid(db.auth_user, create=False, selectable = lambda ids: del_emp(ids))\n\treturn dict(images=images,form=form)\n\t\n@auth.requires_permission(\'CRUD\', \'auth_user\')\t\ndef del_emp(ids):\n\tif not ids:\n\t\tresponse.flash=\'Please Select the Check-box to Delete\'\n\telse:\n\t\tfor row in ids:\n\t\t\tdb(db.auth_user.id == row).delete()\n\t\tpass\n\tpass\n\treturn \'\'\n\n@auth.requires_permission(\'CRUD\', \'auth_user\')\t\ndef admin_create_new_user():\n\tfor row in db(db.image.email == auth.user.email).select():\n\t\timages=row.image\n\t\n\tadmin_create_new_user.count=0\n\tdef counting():\n\t\tfor row in db(db.auth_user.id >= 1).select():\n\t\t\tadmin_create_new_user.count += 1\n\tcounting()\n\tcount=admin_create_new_user.count\n\tprefix=\'00\'\n\tpre=\'0\'\n\tpr=\'\'\n\tif count < 10:\n\t\tid=prefix+str(count)\n\telif count >= 10 and count <= 99:\n\t\tid=pre+str(count)\n\telse:\n\t\tid=pr+str(count)\n\t\t\n\torg = db().select(db.add_new_organization.ALL)\n\tdpt = db().select(db.add_new_department.ALL)\n\trmgr = db().select(db.auth_user.ALL)\n\tstat = [\'Active\',\'Terminated\',\'Resigned\',\'Leave-of-Absence\',\'Deceased\']\n\t\n\tif request.vars.mailerror:\n\t\tvar = \'This email (\'+request.vars.mailerror+\') is allready taken. Please choose another email address.\'\n\telif request.vars.mailerr:\n\t\tvar = \'This email (\'+request.vars.mailerr+\') is Successfully Registered with HRMS.\'\n\telse:\n\t\tvar = \'Add New Employee\'\n\treturn dict(images=images, org=org, dpt=dpt, stat=stat, id=id, var=var,rmgr=rmgr)\n\t\n@auth.requires_permission(\'CRUD\', \'auth_user\')\t\ndef admin_submit_newuser():\n\tfor row in db(db.auth_user.email==request.vars.orgemail).select():\n\t\tsession.regmail=row.email\n\t\tpass\n\tif session.regmail == request.vars.orgemail:\n\t\tredirect(URL(c=\'default\', f=\'admin_create_new_user\', vars={\'mailerror\' :request.vars.orgemail}))\n\telse:\n\t\tsession.mail = request.vars.orgemail\n\t\tsession.pmail = request.vars.pemail\n\t\tsession.fname = request.vars.fname\n\t\tsession.mgr = request.vars.rmgr\n\t\tfor row1 in db(db.add_new_organization.id==request.vars.org).select():\n\t\t\tpr = row1.organization_prefix\n\t\t\t#cmpny = row1.organization_name\n\t\tprefix = str(pr+request.vars.empcode)\n\t\tdb.auth_user.bulk_insert([{\'first_name\' : session.fname,\'last_name\' : request.vars.lname,\'email\' : session.mail,\'password\' : db.auth_user.password.validate(\'1234\')[0],\'organization_name\' : request.vars.org, \'location\' : request.vars.locn, \'department\' : request.vars.dpt, \'employee_code\' : prefix, \'personal_email\' : session.pmail, \'date_of_joining\' : request.vars.doj, \'reporting_manager\' : request.vars.rmgr, \'designation\' : request.vars.dgn, \'employee_status\' : request.vars.stat}])\n\t\tcreate_emp_group()\n\t\tcreate_emp_membership()\n\t\tcreate_emp_permission()\n\t\tcreate_mgr_group()\n\t\tcreate_mgr_membership()\n\t\tcreate_mgr_permission()\n\t\tdb.personal_information.insert(email=session.mail,employee_code=prefix)\n\t\tdb.qualification.insert(email=session.mail,employee_code=prefix)\n\t\tdb.document.insert(email=session.mail,employee_code=prefix)\n\t\tdb.image.insert(email=session.mail,employee_code=prefix)\n\t\t\n\t\ttotvacationleave=18\n\t\ttotmedicalleave=6\n\t\ttotcasualleave=6\n\t\timport datetime\n\t\tmonth = datetime.datetime.now().month\n\t\ttotmonth = 12\n\t\tcurmnth = totmonth - month\n\t\tvacleave = int(curmnth * 1.5)\n\t\tmedleave = int(curmnth * 0.5)\n\t\tcasulleave = int(curmnth * 0.5)\n\t\ttackenvacleave = 0\n\t\ttackenmedleave = 0\n\t\ttakencasulleave = 0\n\t\tdb.employee_leave.insert(employee_code=prefix,email=session.mail,taken_vacation_leave=tackenvacleave,taken_medical_leave=tackenmedleave,taken_casual_leave=takencasulleave,left_vacation_leave=vacleave,left_medical_leave=medleave,left_casual_leave=casulleave)\n\t\tdb.commit()\n\t\twelcome_mail()\n\t\tredirect(URL(c=\'default\', f=\'admin_create_new_user\', vars={\'mailerr\' :request.vars.orgemail}))\n\treturn dict()\n\t\n@auth.requires_permission(\'CRUD\', \'auth_user\')\r\ndef welcome_mail():\r\n    from gluon.tools import Mail\r\n    mail=Mail()\r\n    #specify server\n    \n    mail=auth.settings.mailer\r\n    mail.settings.server=\'smtp.gmail.com:587\'\r\n    mail.settings.login=\'themisdemo1@gmail.com:123456asdfg\'\r\n    #specify address to send as\r\n    mail.settings.sender=\'themisdemo1@gmail.com\'\r\n    #send the message                             \r\n    mail.send(to=[session.mail, session.pmail],\r\n            subject=\'Welcome User\',\r\n            message=\'<html>\'\r\n                        \'<body>\'\r\n                            \'<span style="font-family: Bodoni MT Ultra Bold;color:  #000000 ;font-size : 18pt;"><b>Themis </span></h1><span style="font-family: Bodoni MT Ultra Bold;color:#C7A317   ;font-size :18pt;"><b>Lexsol</b></span>\'\r\n                            \r\n                            \'<p>Dear &nbsp;\'+session.fname+\'</p>\'\r\n                            \r\n                            \'<p>I just wanted to drop you a quick message to say thank you for joining the Themis Lexsol.Your user name is \'+session.mail+\' and please click below to reset your password.<h1>http://jmdlcmplus.fluxflex.com/jmdlcmplus/default/user/request_reset_password</h1>If you need help at any time, please contact me by replying to this message. Similarly, if you ever have any questions then please do not hesitate to send me a message or email.</p>\'\r\n                            \'<center><p>_________________________________________________________</p><p style="color:red;font-size :5pt;">This email comes to you since your company has subcribed for LCM Plus. TO unsubcribed please contact to Themis Lexsol</p></center>\'\r\n                      \r\n                        \'</body>\'\r\n                    \'</html>\'\r\n                    \r\n  )\r\n    response.flash=\'mail send\'\r\n    return \'\'\t\n\t\n@auth.requires_permission(\'CRUD\', \'auth_user\')    \ndef create_emp_group():\r\n    group = db(auth.settings.table_group.role == \'Emp\').select().first()\r\n    if not group:\r\n        group_id = auth.add_group(role = \'Emp\', description = \'Only Employee Permissions\')\r\n        group = auth.settings.table_group(group_id)\r\n    return group\n\n@auth.requires_permission(\'CRUD\', \'auth_user\')    \ndef create_emp_membership():\r\n\tgroup = db(db.auth_group.role == \'Emp\').select().first()\r\n\tuser = db(db.auth_user.email == session.mail).select().first()\r\n\tmembership = db((auth.settings.table_membership.group_id == group.id) & (auth.settings.table_membership.user_id == user.id)).select().first()\r\n\tif not membership:\r\n\t\tmembership_id = auth.add_membership(group_id = group.id, user_id = user.id)\r\n\t\tmembership = auth.settings.table_membership(membership_id)\r\n\treturn membership\n\n@auth.requires_permission(\'CRUD\', \'auth_user\')\t\ndef create_emp_permission():\r\n\tgroup = db(db.auth_group.role == \'Emp\').select().first()\n\tquery = auth.settings.table_permission.group_id == group.id\n\tquery = query & (auth.settings.table_permission.name == \'Emp\')\n\tpermission = db(query).select().first()\n\tif not permission:\n\t\tpermission_id = auth.add_permission(group_id = group.id, name = \'Emp\', table_name = \'auth_user\')\n\t\tpermission = auth.settings.table_permission(permission_id)\n\treturn permission\n\t\n@auth.requires_permission(\'CRUD\', \'auth_user\')    \ndef create_mgr_group():\n    group = db(auth.settings.table_group.role == \'Mgr\').select().first()\n    if not group:\n        group_id = auth.add_group(role = \'Mgr\', description = \'Only Manager Permissions\')\n        group = auth.settings.table_group(group_id)\n    return group\n\n@auth.requires_permission(\'CRUD\', \'auth_user\')    \ndef create_mgr_membership():\n\tgroup = db(db.auth_group.role == \'Mgr\').select().first()\n\tuser = db(db.auth_user.email == session.mgr).select().first()\n\tmembership = db((auth.settings.table_membership.group_id == group.id) & (auth.settings.table_membership.user_id == user.id)).select().first()\n\tif not membership:\n\t\tmembership_id = auth.add_membership(group_id = group.id, user_id = user.id)\n\t\tmembership = auth.settings.table_membership(membership_id)\n\treturn membership\n\n@auth.requires_permission(\'CRUD\', \'auth_user\')\t\ndef create_mgr_permission():\n\tgroup = db(db.auth_group.role == \'Mgr\').select().first()\n\tquery = auth.settings.table_permission.group_id == group.id\n\tquery = query & (auth.settings.table_permission.name == \'Mgr\')\n\tpermission = db(query).select().first()\n\tif not permission:\n\t\tpermission_id = auth.add_permission(group_id = group.id, name = \'Mgr\', table_name = \'auth_user\')\n\t\tpermission = auth.settings.table_permission(permission_id)\n\treturn permission\n\n@auth.requires_permission(\'CRUD\', \'auth_user\')\t\ndef admin_newholiday():\n\tfor row in db(db.image.email == auth.user.email).select():\n\t\timages=row.image\n\tdb.holiday_list.id.readable=False\n\tform=SQLFORM.grid(db.holiday_list, selectable = lambda ids: del_hlist(ids))\n\treturn dict(images=images,form=form)\n\t\n@auth.requires_permission(\'CRUD\', \'auth_user\')\t\ndef del_hlist(ids):\n\tif not ids:\n\t\tresponse.flash=\'Please Select the Check-box to Delete\'\n\telse:\n\t\tfor row in ids:\n\t\t\tdb(db.holiday_list.id == row).delete()\n\t\tpass\n\tpass\n\treturn \'\'\n\n@auth.requires_permission(\'CRUD\', \'auth_user\')    \ndef addthemis():\n\tfor row in db(db.image.email == auth.user.email).select():\n\t\timages=row.image\n\treturn dict(images=images)\n\n@auth.requires_permission(\'CRUD\', \'auth_user\')\t\ndef admin_timesheet():\n\tfor row in db(db.image.email == auth.user.email).select():\n\t\timages=row.image\n\treturn dict(images=images)\n\t\n@auth.requires_permission(\'CRUD\', \'auth_user\')\t\ndef admin_attendance():\n\tfor row in db(db.image.email == auth.user.email).select():\n\t\timages=row.image\n\tdb.employee_login_detail.id.readable=False\n\tform=SQLFORM.grid(db.employee_login_detail, selectable = lambda ids: del_att(ids))\n\treturn dict(form=form,images=images)\n\t\n@auth.requires_permission(\'CRUD\', \'auth_user\')\t\ndef del_att(ids):\n\tif not ids:\n\t\tresponse.flash=\'Please Select the Check-box to Delete\'\n\telse:\n\t\tfor row in ids:\n\t\t\tdb(db.employee_login_detail.id == row).delete()\n\t\tpass\n\tpass\n\treturn \'\'\n\n@auth.requires_permission(\'CRUD\', \'auth_user\')\t\t\ndef admin_report():\n\tfor row in db(db.image.email == auth.user.email).select():\n\t\timages=row.image\n\treturn dict(images=images)\n\n@auth.requires_permission(\'CRUD\', \'auth_user\')    \ndef admin_mydoc():\n\tfor row in db(db.image.email == auth.user.email).select():\n\t\timages=row.image\n\treturn dict(images=images)\n\n@auth.requires_permission(\'CRUD\', \'auth_user\')\t\t\ndef admin_salary():\n\tfor row in db(db.image.email == auth.user.email).select():\n\t\timages=row.image\n\treturn dict(images=images)\n\t\n@auth.requires_permission(\'CRUD\', \'auth_user\')\ndef admin_update_image():\n\tfor row in db(db.image.email == auth.user.email).select():\n\t\timages=row.image\n\tfor row1 in db(db.image.email == auth.user.email).select():\n\t\tmail=row.email\n\t\tecode=row.employee_code\n\t\t\n\tdb.image.email.writable=False\n\tdb.image.employee_code.writable=db.image.employee_code.readable=False\n\tdb.image.email.default=mail\n\tform=SQLFORM(db.image)\n\tif form.accepts(request.vars, session):\n\t\timg = form.vars.image\n\t\tdb(db.image.email == auth.user.email).update(image=img)\n\t\tredirect(URL(c=\'default\', f=\'admindash\'))\n\treturn dict(images=images,form=form)\n\n@auth.requires_permission(\'CRUD\', \'auth_user\')\t\ndef admin_calendar():\n\tfor row in db(db.image.email == auth.user.email).select():\n\t\timages=row.image\n\tcaland=db().select(db.holiday_list.ALL)\r\n\treturn dict(images=images,rows=caland)\n\n@auth.requires_permission(\'CRUD\', \'auth_user\')\t\ndef admin_calread():\n\tfor row in db(db.image.email == auth.user.email).select():\n\t\timages=row.image\n\trecord = db.holiday_list(request.args(0)) or redirect(URL(\'error\'))\n\tform=crud.read(db.holiday_list,record)\n\treturn dict(form=form,images=images)\n    \n@auth.requires_permission(\'CRUD\', \'auth_user\')\t\ndef admin_leave_stat():\n\tfor row in db(db.image.email == auth.user.email).select():\n\t\timages=row.image\n\tadminleave=db().select(db.apply_leave.ALL)\n\treturn dict(images=images,adminleave=adminleave)\n\n@auth.requires_permission(\'CRUD\', \'auth_user\')\t\t\ndef admin_edit_leave():\n\tfor row in db(db.image.email == auth.user.email).select():\n\t\timages=row.image\n\tfor row in db(db.apply_leave.id==request.args(0)).select():\n\t\tid=row.id\n\t\teid=row.employee_code\n\t\testat=row.status\n\t\teltype=row.leave_type\n\t\tefrom=row.from_leave\n\t\teto=row.to_leave\n\t\tereason=row.reason_for_leave\n\t\tetotday=row.total_day\n\treturn dict(id=id,images=images,eid=eid,estat=estat,eltype=eltype,efrom=efrom,eto=eto,ereason=ereason,etotday=etotday)\n\n@auth.requires_permission(\'CRUD\', \'auth_user\')\t\ndef admin_approve_leave():\n\tfor row in db(db.apply_leave.id==request.args(0)).select():\n\t\tsession.lmail=row.email\n\t\tsession.empname=row.name\n\t\tsession.efrom=row.from_leave\n\t\tsession.eto=row.to_leave\n\t\tsession.status=request.vars.status\n\t\tsession.ltype=row.leave_type\n\t\tsession.tday=row.total_day\n\tif session.status == \'Approved\':\n\t\tif session.ltype == \'Casual Leave\':\n\t\t\tfor row in db(db.employee_leave.email==session.lmail).select():\n\t\t\t\ttotday=row.left_casual_leave - session.tday\n\t\t\tdb(db.apply_leave.id==request.args(0)).update(status=session.status, approved_by=\'Administrator\')\n\t\t\tdb(db.employee_leave.email==session.lmail).update(taken_casual_leave=session.tday,left_casual_leave=totday)\n\t\t\tdb.commit()\n\t\t\tredirect(URL(c=\'default\', f=\'admin_leave_mail\'))\n\t\telif session.ltype == \'Medical Leave\':\n\t\t\tfor row in db(db.employee_leave.email==session.lmail).select():\n\t\t\t\ttotday=row.left_medical_leave - session.tday\n\t\t\tdb(db.apply_leave.id==request.args(0)).update(status=session.status, approved_by=\'Administrator\')\n\t\t\tdb(db.employee_leave.email==session.lmail).update(taken_medical_leave=session.tday,left_medical_leave=totday)\n\t\t\tdb.commit()\n\t\t\tredirect(URL(c=\'default\', f=\'admin_leave_mail\'))\n\t\telif session.ltype == \'Vacation Leave\':\n\t\t\tfor row in db(db.employee_leave.email==session.lmail).select():\n\t\t\t\ttotday=row.left_vacation_leave - session.tday\n\t\t\tdb(db.apply_leave.id==request.args(0)).update(status=session.status, approved_by=\'Administrator\')\n\t\t\tdb(db.employee_leave.email==session.lmail).update(taken_vacation_leave=session.tday,left_vacation_leave=totday)\n\t\t\tdb.commit()\n\t\t\tredirect(URL(c=\'default\', f=\'admin_leave_mail\'))\n\t\telse:\n\t\t\tpass\n\telse:\n\t\tdb(db.apply_leave.id==request.args(0)).update(status=session.status, approved_by=\'Administrator\')\n\t\tdb.commit()\n\t\tredirect(URL(c=\'default\', f=\'admin_leave_mail\'))\n\treturn \'\'\n\n@auth.requires_permission(\'CRUD\', \'auth_user\')\ndef admin_edit_leave_status():\n\tfor row2 in db(db.image.email == auth.user.email).select():\n\t\timages=row2.image\n\tltype=[\'Casual Leave\',\'Medical Leave\',\'Vacation Leave\']\n\tsession.eleaveid=request.args(0)\n\tfor row in db(db.apply_leave.id==session.eleaveid).select():\n\t\tecode=row.employee_code\n\t\tname=row.name\n\t\tfle=row.from_leave\n\t\ttle=row.to_leave\n\t\ttday=row.total_day\n\t\trle=row.reason_for_leave\n\t\teltype=row.leave_type\n\treturn dict(ltype=ltype,images=images,ecode=ecode,name=name,fle=fle,tle=tle,tday=tday,rle=rle,eltype=eltype)\n\n@auth.requires_permission(\'CRUD\', \'auth_user\')\t\ndef admin_submit_edit_leave_status():\n\tdb(db.apply_leave.id == session.eleaveid).update(name=request.vars.name, leave_type=request.vars.ltype, from_leave=request.vars.fleave, to_leave=request.vars.tleave, total_day=request.vars.tday, reason_for_leave=request.vars.rleave)\n\tdb.commit()\n\tredirect(URL(c=\'default\',f=\'admin_leave_stat\'))\n\treturn \'\'\n\n@auth.requires_permission(\'CRUD\', \'auth_user\')\ndef admin_leave_mail():\n    from gluon.tools import Mail\n    mail=Mail()\n    #specify server\n    mail=auth.settings.mailer\n    mail.settings.server=\'smtp.gmail.com:587\'\n    mail.settings.login=\'themisdemo1@gmail.com:123456asdfg\'\n    #specify address to send as\n    mail.settings.sender=\'themisdemo1@gmail.com\'\n    #send the message                             \n    mail.send(to=[session.lmail],\n            subject=\'Leave Status\',\n            message=\'<html>\'\n                        \'<body>\'\n                            \'<span style="font-family: Bodoni MT Ultra Bold;color:  #000000 ;font-size : 18pt;"><b>Themis </span></h1><span style="font-family: Bodoni MT Ultra Bold;color:#C7A317   ;font-size :18pt;"><b>Lexsol</b></span>\'\n                            \n                            \'<p>Dear &nbsp;\'+session.empname+\'</p>\'\n                            \n                            \'<p>I just wanted to drop you a quick message to say Your leave request from \'+str(session.efrom)+\' to \'+str(session.eto)+\' is \'+session.status+\' If you need help at any time, please contact me by replying to this message. Similarly, if you ever have any questions then please do not hesitate to send me a message or email.</p>\'\n                            \'<center><p>_________________________________________________________</p><p style="color:red;font-size :5pt;">This email comes to you since you are subcribed for HRMS. TO unsubcribed please contact to Themis Lexsol</p></center>\'\n                      \n                        \'</body>\'\n                    \'</html>\'\n                    \n  )\n    redirect(URL(c=\'default\', f=\'admin_cnf_leave\'))\t\n    return \'\'\n    \n@auth.requires_permission(\'CRUD\', \'auth_user\')\t\ndef admin_cnf_leave():\n\tfor row2 in db(db.image.email == auth.user.email).select():\n\t\timages=row2.image\n\treturn dict(images=images,status=session.status,efrom=session.efrom,eto=session.eto,empname=session.empname)\n\t\n@auth.requires_permission(\'CRUD\', \'auth_user\')\t\ndef admin_contact_detail():\n\tfor row2 in db(db.image.email == auth.user.email).select():\n\t\timages=row2.image\n\treturn dict(images=images)\n\n@auth.requires_permission(\'CRUD\', \'auth_user\')\t\ndef admin_add_project():\n\tfor row2 in db(db.image.email == auth.user.email).select():\n\t\timages=row2.image\n\t\n\tdb.project.id.readable = False\n\tform=SQLFORM.grid(db.project,selectable = lambda ids: del_pro(ids))\n\treturn dict(images=images,form=form)\n\t\n@auth.requires_permission(\'CRUD\', \'auth_user\')\t\ndef del_pro(ids):\n\tif not ids:\n\t\tresponse.flash=\'Please Select the Check-box to Delete\'\n\telse:\n\t\tfor row in ids:\n\t\t\tdb(db.project.id == row).delete()\n\t\tpass\n\tpass\n\treturn \'\'\n\t\n@auth.requires_permission(\'CRUD\', \'auth_user\')\t\ndef admin_activity():\n\tfor row2 in db(db.image.email == auth.user.email).select():\n\t\timages=row2.image\n\t\n\tdb.activity.id.readable = False\n\tform=SQLFORM.grid(db.activity,selectable = lambda ids: del_activity(ids))\n\treturn dict(images=images,form=form)\n\t\n@auth.requires_permission(\'CRUD\', \'auth_user\')\t\ndef del_activity(ids):\n\tif not ids:\n\t\tresponse.flash=\'Please Select the Check-box to Delete\'\n\telse:\n\t\tfor row in ids:\n\t\t\tdb(db.activity.id == row).delete()\n\t\tpass\n\tpass\n\treturn \'\'\n\t\n@auth.requires_permission(\'CRUD\', \'auth_user\')\ndef admin_assign_project():\n\tfor row2 in db(db.image.email == auth.user.email).select():\n\t\timages=row2.image\n\tproj=db().select(db.project.ALL)\n\torzn=db().select(db.add_new_organization.ALL)\n\tdept=db().select(db.add_new_department.ALL)\n\treturn dict(images=images,proj=proj,orzn=orzn,dept=dept)\n\n@auth.requires_permission(\'CRUD\', \'auth_user\')\t\ndef admin_orz():\n\tusr=[]\n\tfor row in db((db.auth_user.department == request.vars.dp) & (db.auth_user.organization_name == request.vars.orz)).select():\n\t\tusr.append(row.email)\n\treturn SELECT(_id="usr",_name="usr",*[OPTION((emp), _value=str (emp)) for emp in usr])\n\t\n@auth.requires_permission(\'CRUD\', \'auth_user\')\t\ndef admin_submit_project():\n\tfor row2 in db(db.image.email == auth.user.email).select():\n\t\timages=row2.image\n\t\n\treturn dict(images=images)\n\t\n#### Employee Controller Starts from here ####\n\ndef emp_time():\n\timport datetime\n\timport time, os\n\tos.environ[\'TZ\'] = \'Asia/Kolkata\'\n\ttime.tzset()\n\tnow = time.localtime(time.time())\n\tsession.cutime = time.strftime("%H:%M:%S", now)\t\n\tredirect(URL(c=\'default\',f=\'employee\'))\n\treturn \'\'\n\n@auth.requires(auth.login() and auth.has_permission(\'Emp\', \'auth_user\'))\ndef employee():\n\tresponse.flash = "Welcome to Employee Lgoin"\n\tfor row in db(db.image.email == auth.user.email).select():\n\t\timages=row.image\n\tllgin=[]\n\tfor log in db(db.employee_login_detail.employee_logout_date==\'Logged in\').select():\n\t\tllgin.append(log.employee_name)\n\tblgin=set(llgin)\n\talgin=list(blgin)\n\t\t\n\tipa = request.env.remote_addr\n\tipaddr = str(ipa[33:])\n\timport datetime\n\timport time, os\n\tos.environ[\'TZ\'] = \'Asia/Kolkata\'\n\ttime.tzset()\n\tcurrentdate=datetime.date.today()\n\tnow = time.localtime(time.time())\n\tstarttime = datetime.datetime.now()\n\tsession.starttime = starttime\n\tcurrenttime = time.strftime("%H:%M:%S", now)\n\tsession.time = currenttime\n\tif session.cutime == session.time:\n\t\tfor row in db(db.auth_user.email == auth.user.email).select(db.auth_user.first_name, db.auth_user.employee_code):\n\t\t\tfirstname=row.first_name\n\t\t\tempcode=row.employee_code\n\t\tdb.employee_login_detail.insert(employee_code = empcode, employee_email = auth.user.email, employee_name=firstname, employee_login_date=currentdate, employee_login_time=currenttime, ip_address=ipaddr)\n\t\tdb.commit()\n\telse:\n\t\tpass\n\treturn dict(algin=algin,images=images)\t\n\n@auth.requires_permission(\'Emp\', \'auth_user\')\t\ndef emp_mydoc():\n\tfor row in db(db.image.email == auth.user.email).select():\n\t\timages=row.image\n\t\n\tllgin=[]\n\tfor log in db(db.employee_login_detail.employee_logout_date==\'Logged in\').select():\n\t\tllgin.append(log.employee_name)\n\tblgin=set(llgin)\n\talgin=list(blgin)\t\n\tfor row in db(db.auth_user.email==auth.user.email).select(db.auth_user.employee_code):\r\n\t\t\tecode=row.employee_code\n\t\t\t\n\tdb.document.id.readable=False\t\n\tdb.document.email.writable=False\n\tdb.document.email.default=auth.user.email\n\tdb.document.employee_code.writable=False\n\tdb.document.employee_code.default=ecode\n\ttable=SQLFORM.grid(db.document.email==auth.user.email)\n\treturn dict(algin=algin,images=images,table=table)\n\n@auth.requires_permission(\'Emp\', \'auth_user\')\t\ndef emp_compliance():\n\tfor row in db(db.image.email == auth.user.email).select():\n\t\timages=row.image\n\t\t\n\tllgin=[]\n\tfor log in db(db.employee_login_detail.employee_logout_date==\'Logged in\').select():\n\t\tllgin.append(log.employee_name)\n\tblgin=set(llgin)\n\talgin=list(blgin)\n\treturn dict(algin=algin,images=images)\n\n@auth.requires_permission(\'Emp\', \'auth_user\')\t\ndef emp_all():\n\tfor row in db(db.image.email == auth.user.email).select():\n\t\timages=row.image\n\tllgin=[]\n\tfor log in db(db.employee_login_detail.employee_logout_date==\'Logged in\').select():\n\t\tllgin.append(log.employee_name)\n\tblgin=set(llgin)\n\talgin=list(blgin)\n\treturn dict(algin=algin,images=images)\n\n@auth.requires_permission(\'Emp\', \'auth_user\')   \ndef emp_myprofile():\n\tfor row2 in db(db.image.email == auth.user.email).select():\n\t\timages=row2.image\n\t\t\n\tllgin=[]\n\tfor log in db(db.employee_login_detail.employee_logout_date==\'Logged in\').select():\n\t\tllgin.append(log.employee_name)\n\tblgin=set(llgin)\n\talgin=list(blgin)\n\tfor row in db(db.auth_user.email == auth.user.email).select():\n\t\tempcode=row.employee_code\n\t\tempfname=row.first_name\n\t\templname=row.last_name\n\t\tempemail=auth.user.email \n\t\temppemail=row.personal_email\n\t\tempdoj=row.date_of_joining\n\t\tempdpt=row.department\n\t\temprptmgr=row.reporting_manager\n\t\tempdgn=row.designation\n\t\t\n\tfor row1 in db(db.personal_information.email == auth.user.email).select():\n\t\tsession.empdob=row1.date_of_birth\n\t\tsession.empgndr=row1.gender\n\t\tsession.empstatus=row1.marital_status\n\t\tsession.empgrp=row1.blood_group\n\t\tsession.empmbl=row1.mobile\n\t\tsession.empphone=row1.phone\n\t\tsession.emppaddr=row1.present_address\n\t\tsession.empperaddr=row1.permanent_address\n\t\tsession.empctz=row1.citizenship\n\t\tsession.empst=row1.state\n\t\tsession.emppassno=row1.passport_no\n\t\tsession.empbank=row1.bank_account_no\n\t\tsession.emppancard=row1.pan_card_no\r\n\tedtable = db(db.qualification.email==auth.user.email).select(db.qualification.ALL) \n\treturn dict(algin=algin,images=images,empcode=empcode,empfname=empfname,emplname=emplname,empemail=empemail,emppemail=emppemail,empdoj=empdoj,empdpt=empdpt,emprptmgr=emprptmgr,empdgn=empdgn,empdob=session.empdob,empgndr=session.empgndr,empstatus=session.empstatus,empgrp=session.empgrp,empmbl=session.empmbl,empphone=session.empphone,emppaddr=session.emppaddr,empperaddr=session.empperaddr,empctz=session.empctz,empst=session.empst,emppassno=session.emppassno,empbank=session.empbank,emppancard=session.emppancard,edtable=edtable)\n\n@auth.requires_permission(\'Emp\', \'auth_user\')\t\ndef emp_update_edu_info():\n\tfor row in db(db.image.email == auth.user.email).select():\n\t\timages=row.image\n\tllgin=[]\n\tfor log in db(db.employee_login_detail.employee_logout_date==\'Logged in\').select():\n\t\tllgin.append(log.employee_name)\n\tblgin=set(llgin)\n\talgin=list(blgin)\n\t\t\n\tfor row in db(db.auth_user.email==auth.user.email).select(db.auth_user.employee_code):\r\n\t\t\tecode=row.employee_code\n\t\t\t\n\tdb.qualification.id.readable=False\t\n\tdb.qualification.email.writable=False\n\tdb.qualification.email.default=auth.user.email\n\tdb.qualification.employee_code.writable=False\n\tdb.qualification.employee_code.default=ecode\n\ttable=SQLFORM.grid(db.qualification.email==auth.user.email)\n\treturn dict(algin=algin,images=images,table=table)\n\n@auth.requires_permission(\'Emp\', \'auth_user\')\ndef emp_update_personal_info():\n\tfor row1 in db(db.image.email == auth.user.email).select():\n\t\timages=row1.image\n\tllgin=[]\n\tfor log in db(db.employee_login_detail.employee_logout_date==\'Logged in\').select():\n\t\tllgin.append(log.employee_name)\n\tblgin=set(llgin)\n\talgin=list(blgin)\n\t\n\tfor row in db(db.personal_information.email == auth.user.email).select():\n\t\tecode=row.employee_code\n\t\tdbr=row.date_of_birth\n\t\tgndr=row.gender\n\t\tmstat=row.marital_status\n\t\tbgrp=row.blood_group\n\t\tmbl=row.mobile\n\t\tph=row.phone\n\t\tpaddr=row.present_address\n\t\tperaddr=row.permanent_address\n\t\tctz=row.citizenship\n\t\tst=row.state\n\t\tpno=row.passport_no\n\t\tbno=row.bank_account_no\n\t\tpcard=row.pan_card_no\t\t\n\t\t\n\tdb.personal_information.email.writable=False\n\tdb.personal_information.employee_code.writable=False\n\tdb.personal_information.email.default=auth.user.email\n\tdb.personal_information.employee_code.default=ecode\n\t\n\tdb.personal_information.date_of_birth.default=dbr \n\tdb.personal_information.gender.default=gndr\n\tdb.personal_information.marital_status.default=mstat\n\tdb.personal_information.blood_group.default=bgrp\n\tdb.personal_information.mobile.default=mbl\n\tdb.personal_information.phone.default=ph\n\tdb.personal_information.present_address.default=paddr \n\tdb.personal_information.permanent_address.default=peraddr\n\tdb.personal_information.citizenship.default=ctz\n\tdb.personal_information.state.default=st\n\tdb.personal_information.passport_no.default=pno\n\tdb.personal_information.bank_account_no.default=bno\n\tdb.personal_information.pan_card_no.default=pcard \n\t\n\tform = SQLFORM(db.personal_information)\n\tif form.accepts(request.vars, session):\n\t\tdob = form.vars.date_of_birth\n\t\tgndr = form.vars.gender\n\t\tmstatus = form.vars.marital_status\n\t\tbgrp = form.vars.blood_group\n\t\tmbl = form.vars.mobile\n\t\tphone = form.vars.phone\n\t\tpaddr = form.vars.present_address\n\t\tperaddr = form.vars.permanent_address\n\t\tctz = form.vars.citizenship\n\t\tst = form.vars.state\n\t\tpno = form.vars.passport_no\n\t\tbaccno = form.vars.bank_account_no\n\t\tpcard = form.vars.pan_card_no\n\t\timg = form.vars.image\n\t\tdb(db.personal_information.email == auth.user.email).update(date_of_birth=dob, gender=gndr, marital_status=mstatus, blood_group=bgrp, mobile=mbl, phone=phone, present_address=paddr, permanent_address=peraddr, citizenship=ctz, state=st, passport_no=pno, bank_account_no=baccno, pan_card_no=pcard)\n\t\tredirect(URL(c=\'default\', f=\'emp_myprofile\'))\n\treturn dict(algin=algin,form=form,images=images)\n\n@auth.requires_permission(\'Emp\', \'auth_user\')\ndef emp_update_image():\n\tfor row in db(db.image.email == auth.user.email).select():\n\t\timages=row.image\n\t\t\n\tllgin=[]\n\tfor log in db(db.employee_login_detail.employee_logout_date==\'Logged in\').select():\n\t\tllgin.append(log.employee_name)\n\tblgin=set(llgin)\n\talgin=list(blgin)\n\tfor row1 in db(db.image.email == auth.user.email).select():\n\t\tmail=row.email\n\t\tecode=row.employee_code\n\t\t\n\tdb.image.email.writable=False\n\tdb.image.employee_code.writable=db.image.employee_code.readable=False\n\tdb.image.email.default=mail\n\tform=SQLFORM(db.image)\n\tif form.accepts(request.vars, session):\n\t\timg = form.vars.image\n\t\tdb(db.image.email == auth.user.email).update(image=img)\n\t\tredirect(URL(c=\'default\', f=\'emp_myprofile\'))\n\treturn dict(algin=algin,images=images,form=form)\n\n@auth.requires_permission(\'Emp\', \'auth_user\')\ndef emp_company():\n\tfor row in db(db.image.email == auth.user.email).select():\n\t\timages=row.image\n\t\t\n\tllgin=[]\n\tfor log in db(db.employee_login_detail.employee_logout_date==\'Logged in\').select():\n\t\tllgin.append(log.employee_name)\n\tblgin=set(llgin)\n\talgin=list(blgin)\n\treturn dict(algin=algin,images=images)\n\n@auth.requires_permission(\'Emp\', \'auth_user\')\t\ndef emp_organization():\n\tfor row in db(db.image.email == auth.user.email).select():\n\t\timages=row.image\n\tllgin=[]\n\tfor log in db(db.employee_login_detail.employee_logout_date==\'Logged in\').select():\n\t\tllgin.append(log.employee_name)\n\tblgin=set(llgin)\n\talgin=list(blgin)\n\treturn dict(algin=algin,images=images)\n\n@auth.requires_permission(\'Emp\', \'auth_user\')\t\ndef emp_leavecalendar():\n\tfor row in db(db.image.email == auth.user.email).select():\n\t\timages=row.image\n\t\n\tllgin=[]\n\tfor log in db(db.employee_login_detail.employee_logout_date==\'Logged in\').select():\n\t\tllgin.append(log.employee_name)\n\tblgin=set(llgin)\n\talgin=list(blgin)\n\ttotvacationleave=18\n\ttotmedicalleave=6\n\ttotcasualleave=6\n\templeave = db(db.employee_leave.email==auth.user.email).select(db.employee_leave.ALL)\n\tempstat = db(db.apply_leave.email==auth.user.email).select(db.apply_leave.ALL)\n\treturn dict(algin=algin,empstat=empstat,images=images,empleave=empleave,totvacationleave=totvacationleave,totmedicalleave=totmedicalleave,totcasualleave=totcasualleave)\n\t\ndef cron_leave():\n\ttotvacationleave=18\n\ttotmedicalleave=6\n\ttotcasualleave=6\n\ttvl=0\n\ttml=0\n\ttcl=0\n\tfor row in db(db.employee_leave.id>0).select():\n\t\tfor row1 in db(db.employee_leave.id==row.id).select():\n\t\t\ttotvacleave = totvacationleave + row1.left_vacation_leave\n\t\t\tdb(db.employee_leave.id==row.id).update(taken_vacation_leave=tvl, taken_medical_leave=tml, taken_casual_leave=tcl, left_vacation_leave=totvacleave, left_medical_leave=totmedicalleave, left_casual_leave=totcasualleave)\n\t\t\tdb.commit()\n\treturn \'\'\t\n\t\n@auth.requires_permission(\'Emp\', \'auth_user\')\t\ndef emp_calendar():\n\tfor row in db(db.image.email == auth.user.email).select():\n\t\timages=row.image\n\t\t\n\tllgin=[]\n\tfor log in db(db.employee_login_detail.employee_logout_date==\'Logged in\').select():\n\t\tllgin.append(log.employee_name)\n\tblgin=set(llgin)\n\talgin=list(blgin)\n\tcaland=db().select(db.holiday_list.ALL)\r\n\treturn dict(algin=algin,images=images,rows=caland)\n\n@auth.requires_permission(\'Emp\', \'auth_user\')\t\ndef emp_calread():\n\tfor row in db(db.image.email == auth.user.email).select():\n\t\timages=row.image\n\tllgin=[]\n\tfor log in db(db.employee_login_detail.employee_logout_date==\'Logged in\').select():\n\t\tllgin.append(log.employee_name)\n\tblgin=set(llgin)\n\talgin=list(blgin)\n\trecord = db.holiday_list(request.args(0)) or redirect(URL(\'error\'))\n\tform=crud.read(db.holiday_list,record)\n\treturn dict(form=form,images=images,algin=algin)\n    \n@auth.requires_permission(\'Emp\', \'auth_user\')\t\ndef emp_apply_leave():\n\tfor row in db(db.image.email == auth.user.email).select():\n\t\timages=row.image\n\tllgin=[]\n\tfor log in db(db.employee_login_detail.employee_logout_date==\'Logged in\').select():\n\t\tllgin.append(log.employee_name)\n\tblgin=set(llgin)\n\talgin=list(blgin)\n\tfor row in db(db.auth_user.email==auth.user.email).select():\n\t\trptmgr=row.reporting_manager\n\treturn dict(algin=algin,images=images)\n\n@auth.requires_permission(\'Emp\', \'auth_user\')\t\ndef submit_emp_apply_leave():\n\tfor row in db(db.image.email == auth.user.email).select():\n\t\timages=row.image\n\tllgin=[]\n\tfor log in db(db.employee_login_detail.employee_logout_date==\'Logged in\').select():\n\t\tllgin.append(log.employee_name)\n\tblgin=set(llgin)\n\talgin=list(blgin)\n\t\t\n\timport datetime\n\tsession.fromdate=request.vars.fromleave\n\tsession.todate=request.vars.toleave\n\tfdate=datetime.date(*map(int, session.fromdate.split(\'-\')))\n\ttdate=datetime.date(*map(int, session.todate.split(\'-\')))\n\ttotday=tdate-fdate\n\tsession.day=totday.days\n\tif request.vars.apply == \'Casual Leave\':\n\t\tfor row in db(db.employee_leave.email==auth.user.email).select():\n\t\t\tif session.day <= row.left_casual_leave:\n\t\t\t\tfor row in db(db.auth_user.email==auth.user.email).select():\n\t\t\t\t\tsession.rptmgr=row.reporting_manager\n\t\t\t\t\tsession.empcode=row.employee_code\n\t\t\t\t\tsession.fname=row.first_name\n\t\t\t\tdb.apply_leave.insert(employee_code=session.empcode,email=auth.user.email,name=session.fname,leave_type=request.vars.apply,from_leave=session.fromdate,to_leave=session.todate,total_day=session.day,reason_for_leave=request.vars.reason,reporting_manager=session.rptmgr)\n\t\t\t\tdb.commit()\n\t\t\t\tleavemail()\n\t\t\telse:\n\t\t\t\tresponse.flash=\'Your Casual leave is not left\'\n\telif request.vars.apply == \'Medical Leave\':\n\t\tfor row in db(db.employee_leave.email==auth.user.email).select():\n\t\t\tif session.day <= row.left_medical_leave:\n\t\t\t\tfor row in db(db.auth_user.email==auth.user.email).select():\n\t\t\t\t\tsession.rptmgr=row.reporting_manager\n\t\t\t\t\tsession.empcode=row.employee_code\n\t\t\t\t\tsession.fname=row.first_name\n\t\t\t\tdb.apply_leave.insert(employee_code=session.empcode,email=auth.user.email,name=session.fname,leave_type=request.vars.apply,from_leave=session.fromdate,to_leave=session.todate,total_day=session.day,reason_for_leave=request.vars.reason,reporting_manager=session.rptmgr)\n\t\t\t\tdb.commit()\n\t\t\t\tleavemail()\n\t\t\telse:\n\t\t\t\tresponse.flash=\'Your Medical leave is not left\'\n\telif request.vars.apply == \'Vacation Leave\':\n\t\tfor row in db(db.employee_leave.email==auth.user.email).select():\n\t\t\tif session.day <= row.left_vacation_leave:\n\t\t\t\tfor row in db(db.auth_user.email==auth.user.email).select():\n\t\t\t\t\tsession.rptmgr=row.reporting_manager\n\t\t\t\t\tsession.empcode=row.employee_code\n\t\t\t\t\tsession.fname=row.first_name\n\t\t\t\tdb.apply_leave.insert(employee_code=session.empcode,email=auth.user.email,name=session.fname,leave_type=request.vars.apply,from_leave=session.fromdate,to_leave=session.todate,total_day=session.day,reason_for_leave=request.vars.reason,reporting_manager=session.rptmgr)\n\t\t\t\tdb.commit()\n\t\t\t\tleavemail()\n\t\t\telse:\n\t\t\t\tresponse.flash=\'Your Vacation leave is not left\'\n\telse:\n\t\tpass\t\n\treturn dict(algin=algin,images=images)\t\n\n@auth.requires_permission(\'Emp\', \'auth_user\')\t\ndef leavemail():\n    from gluon.tools import Mail\n    mail=Mail()\n    #specify server\n    \n    mail=auth.settings.mailer\n    mail.settings.server=\'smtp.gmail.com:587\'\n    mail.settings.login=\'themisdemo1@gmail.com:123456asdfg\'\n    #specify address to send as\n    mail.settings.sender=\'themisdemo1@gmail.com\'\n    #send the message                             \n    mail.send(to=[session.rptmgr],\n            subject=\'Request for Leave\',\n            message=\'<html>\'\n                        \'<body>\'\n                            \'<span style="font-family: Bodoni MT Ultra Bold;color:  #000000 ;font-size : 18pt;"><b>Themis </span></h1><span style="font-family: Bodoni MT Ultra Bold;color:#C7A317   ;font-size :18pt;"><b>Lexsol</b></span>\'\n                            \n                            \'<p>Dear &nbsp;\'+session.fname+\' applied for leave</p>\'\n                            \'<p>Emp Code &nbsp;\'+session.empcode+\' </p>\'\n                             \'<p>From Date &nbsp;\'+session.fromdate+\' </p>\'\n                              \'<p>To Date &nbsp;\'+session.todate+\' </p>\'\n                               \'<p>Total Day &nbsp;\'+str(session.day)+\' </p>\'\n                            \n                            \'<p></p>\'\n                            \'<center><p>_________________________________________________________</p><p style="color:red;font-size :5pt;">This email comes to you since your company has subcribed for LCM Plus. TO unsubcribed please contact to Themis Lexsol</p></center>\'\n                      \n                        \'</body>\'\n                    \'</html>\'\n                    \n  )\n    response.flash=\'mail send\'\n    redirect(URL(c=\'default\',f=\'emp_leavecalendar\'))\n    return \'\'\t\n\n\t\n@auth.requires_permission(\'Mgr\', \'auth_user\')\t\ndef emp_leave_stat():\n\tfor row in db(db.image.email == auth.user.email).select():\n\t\timages=row.image\n\t\t\n\tllgin=[]\n\tfor log in db(db.employee_login_detail.employee_logout_date==\'Logged in\').select():\n\t\tllgin.append(log.employee_name)\n\tblgin=set(llgin)\n\talgin=list(blgin)\n\templeave=db(db.apply_leave.reporting_manager==auth.user.email).select(db.apply_leave.ALL)\n\treturn dict(algin=algin,images=images,empleave=empleave)\n\t\n@auth.requires_permission(\'Mgr\', \'auth_user\')\t\t\ndef emp_edit_leave():\n\tfor row in db(db.image.email == auth.user.email).select():\n\t\timages=row.image\n\t\t\n\tllgin=[]\n\tfor log in db(db.employee_login_detail.employee_logout_date==\'Logged in\').select():\n\t\tllgin.append(log.employee_name)\n\tblgin=set(llgin)\n\talgin=list(blgin)\n\tfor row in db(db.apply_leave.id==request.args(0)).select():\n\t\tid=row.id\n\t\teid=row.employee_code\n\t\testat=row.status\n\t\teltype=row.leave_type\n\t\tefrom=row.from_leave\n\t\teto=row.to_leave\n\t\tereason=row.reason_for_leave\n\t\tetotday=row.total_day\n\treturn dict(algin=algin,id=id,images=images,eid=eid,estat=estat,eltype=eltype,efrom=efrom,eto=eto,ereason=ereason,etotday=etotday)\n\t\n@auth.requires_permission(\'Mgr\', \'auth_user\')\t\t\ndef emp_approve_leave():\n\tfor row in db(db.apply_leave.id==request.args(0)).select():\n\t\tsession.elmail=row.email\n\t\tsession.eempname=row.name\n\t\tsession.eefrom=row.from_leave\n\t\tsession.eeto=row.to_leave\n\t\tsession.estatus=request.vars.status\n\t\tsession.eltype=row.leave_type\n\t\tsession.etday=row.total_day\n\tif session.estatus == \'Approved\':\n\t\tif session.eltype == \'Casual Leave\':\n\t\t\tfor row in db(db.employee_leave.email==session.elmail).select():\n\t\t\t\ttotday=row.left_casual_leave - session.etday\n\t\t\tdb(db.apply_leave.id==request.args(0)).update(status=session.estatus, approved_by=\'Reporting Manager\')\n\t\t\tdb(db.employee_leave.email==session.elmail).update(taken_casual_leave=session.etday,left_casual_leave=totday)\n\t\t\tdb.commit()\n\t\t\tredirect(URL(c=\'default\', f=\'emp_leave_mail\'))\n\t\telif session.eltype == \'Medical Leave\':\n\t\t\tfor row in db(db.employee_leave.email==session.elmail).select():\n\t\t\t\ttotday=row.left_medical_leave - session.etday\n\t\t\tdb(db.apply_leave.id==request.args(0)).update(status=session.estatus, approved_by=\'Reporting Manager\')\n\t\t\tdb(db.employee_leave.email==session.elmail).update(taken_medical_leave=session.etday,left_medical_leave=totday)\n\t\t\tdb.commit()\n\t\t\tredirect(URL(c=\'default\', f=\'emp_leave_mail\'))\n\t\telif session.eltype == \'Vacation Leave\':\n\t\t\tfor row in db(db.employee_leave.email==session.elmail).select():\n\t\t\t\ttotday=row.left_vacation_leave - session.etday\n\t\t\tdb(db.apply_leave.id==request.args(0)).update(status=session.estatus, approved_by=\'Reporting Manager\')\n\t\t\tdb(db.employee_leave.email==session.elmail).update(taken_vacation_leave=session.etday,left_vacation_leave=totday)\n\t\t\tdb.commit()\n\t\t\tredirect(URL(c=\'default\', f=\'emp_leave_mail\'))\n\t\telse:\n\t\t\tpass\n\telse:\n\t\tdb(db.apply_leave.id==request.args(0)).update(status=session.estatus, approved_by=\'Reporting Manager\')\n\t\tdb.commit()\n\t\tredirect(URL(c=\'default\', f=\'emp_leave_mail\'))\n\treturn \'\'\n\t\n@auth.requires_permission(\'Mgr\', \'auth_user\')\t\ndef emp_leave_mail():\n    from gluon.tools import Mail\n    mail=Mail()\n    #specify server\n    mail=auth.settings.mailer\n    mail.settings.server=\'smtp.gmail.com:587\'\n    mail.settings.login=\'themisdemo1@gmail.com:123456asdfg\'\n    #specify address to send as\n    mail.settings.sender=\'themisdemo1@gmail.com\'\n    #send the message                             \n    mail.send(to=[session.elmail],\n            subject=\'Leave Status\',\n            message=\'<html>\'\n                        \'<body>\'\n                            \'<span style="font-family: Bodoni MT Ultra Bold;color:  #000000 ;font-size : 18pt;"><b>Themis </span></h1><span style="font-family: Bodoni MT Ultra Bold;color:#C7A317   ;font-size :18pt;"><b>Lexsol</b></span>\'\n                            \n                            \'<p>Dear &nbsp;\'+session.eempname+\'</p>\'\n                            \n                            \'<p>I just wanted to drop you a quick message to say Your leave request from \'+str(session.eefrom)+\' to \'+str(session.eeto)+\' is \'+session.estatus+\' If you need help at any time, please contact me by replying to this message. Similarly, if you ever have any questions then please do not hesitate to send me a message or email.</p>\'\n                            \'<center><p>_________________________________________________________</p><p style="color:red;font-size :5pt;">This email comes to you since you are subcribed for HRMS. TO unsubcribed please contact to Themis Lexsol</p></center>\'\n                      \n                        \'</body>\'\n                    \'</html>\'\n                    \n  )\n    redirect(URL(c=\'default\', f=\'emp_cnf_leave\'))\t\n    return \'\'\n    \n@auth.requires_permission(\'Mgr\', \'auth_user\')\t\ndef emp_cnf_leave():\n\tfor row2 in db(db.image.email == auth.user.email).select():\n\t\timages=row2.image\n\t\t\n\tllgin=[]\n\tfor log in db(db.employee_login_detail.employee_logout_date==\'Logged in\').select():\n\t\tllgin.append(log.employee_name)\n\tblgin=set(llgin)\n\talgin=list(blgin)\n\treturn dict(algin=algin,images=images,status=session.estatus,efrom=session.eefrom,eto=session.eeto,empname=session.eempname)\n\t\n@auth.requires_permission(\'Mgr\', \'auth_user\')\ndef emp_edit_leave_status():\n\tfor row2 in db(db.image.email == auth.user.email).select():\n\t\timages=row2.image\n\t\t\n\tllgin=[]\n\tfor log in db(db.employee_login_detail.employee_logout_date==\'Logged in\').select():\n\t\tllgin.append(log.employee_name)\n\tblgin=set(llgin)\n\talgin=list(blgin)\n\tltype=[\'Casual Leave\',\'Medical Leave\',\'Vacation Leave\']\n\tsession.eeleaveid=request.args(0)\n\tfor row in db(db.apply_leave.id==session.eeleaveid).select():\n\t\tecode=row.employee_code\n\t\tname=row.name\n\t\tfle=row.from_leave\n\t\ttle=row.to_leave\n\t\ttday=row.total_day\n\t\trle=row.reason_for_leave\n\t\teltype=row.leave_type\n\treturn dict(algin=algin,ltype=ltype,images=images,ecode=ecode,name=name,fle=fle,tle=tle,tday=tday,rle=rle,eltype=eltype)\n\n@auth.requires_permission(\'Mgr\', \'auth_user\')\t\ndef emp_submit_edit_leave_status():\n\tdb(db.apply_leave.id == session.eeleaveid).update(name=request.vars.name, leave_type=request.vars.ltype, from_leave=request.vars.fleave, to_leave=request.vars.tleave, total_day=request.vars.tday, reason_for_leave=request.vars.rleave)\n\tdb.commit()\n\tredirect(URL(c=\'default\',f=\'emp_leave_stat\'))\n\treturn \'\'\n\n@auth.requires_permission(\'Emp\', \'auth_user\')\ndef user_timesheet():\n\tfor row2 in db(db.image.email == auth.user.email).select():\n\t\timages=row2.image\n\t\t\n\tllgin=[]\n\tfor log in db(db.employee_login_detail.employee_logout_date==\'Logged in\').select():\n\t\tllgin.append(log.employee_name)\n\tblgin=set(llgin)\n\talgin=list(blgin)\n\treturn dict(images=images,algin=algin)\t \n\n@auth.requires_permission(\'Emp\', \'auth_user\')\t\ndef adata():\n\timport datetime\n\tdte=datetime.date.today()\n\tpro=request.vars.proname\n\tptask=request.vars.protask\n\tptime=request.vars.protime\n\tfor row in db(db.auth_user.email==auth.user.email).select():\n\t\trmgr=row.reporting_manager\n\treturn TABLE([TR("Project Name:",INPUT(_type="text",_name="proj",_value=pro,_readonly="readonly")),TR("Client Name:",INPUT(_type="text",_name="client",_value="Client",_readonly="readonly")),TR("Reporting Manager:",INPUT(_type="text",_name="rpm",_value=rmgr,_readonly="readonly")),TR("Project Task:",INPUT(_type="text",_name="protsk",_value=ptask,_readonly="readonly")),TR("Date:",INPUT(_type="text",_name="dte",_value=dte,_readonly="readonly")),TR("Task Discription:",INPUT(_type="text",_name="tskdisc",_value="")),TR("Total Time:",INPUT(_type="text",_name="tottme",_value=ptime))])\n\nresponse._vars=response._caller(admin_newuser)\n'
p7
sS'snapshot'
p8
(dp9
S'exception'
p10
(dp11
S'__hash__'
p12
S"<method-wrapper '__hash__' of exceptions.AttributeError object>"
p13
sS'__setattr__'
p14
S"<method-wrapper '__setattr__' of exceptions.AttributeError object>"
p15
sS'__reduce_ex__'
p16
S'<built-in method __reduce_ex__ of exceptions.AttributeError object>'
p17
sS'__getslice__'
p18
S"<method-wrapper '__getslice__' of exceptions.AttributeError object>"
p19
sS'__getitem__'
p20
S"<method-wrapper '__getitem__' of exceptions.AttributeError object>"
p21
sS'__setstate__'
p22
S'<built-in method __setstate__ of exceptions.AttributeError object>'
p23
sS'__reduce__'
p24
S'<built-in method __reduce__ of exceptions.AttributeError object>'
p25
sS'__str__'
p26
S"<method-wrapper '__str__' of exceptions.AttributeError object>"
p27
sS'__format__'
p28
S'<built-in method __format__ of exceptions.AttributeError object>'
p29
sS'__getattribute__'
p30
S"<method-wrapper '__getattribute__' of exceptions.AttributeError object>"
p31
sS'__class__'
p32
S"<type 'exceptions.AttributeError'>"
p33
sS'__unicode__'
p34
S'<built-in method __unicode__ of exceptions.AttributeError object>'
p35
sS'__delattr__'
p36
S"<method-wrapper '__delattr__' of exceptions.AttributeError object>"
p37
sS'__subclasshook__'
p38
S'<built-in method __subclasshook__ of type object>'
p39
sS'__repr__'
p40
S"<method-wrapper '__repr__' of exceptions.AttributeError object>"
p41
sS'args'
p42
S'("\'NoneType\' object has no attribute \'organization_name\'",)'
p43
sS'__dict__'
p44
S'{}'
p45
sS'__sizeof__'
p46
S'<built-in method __sizeof__ of exceptions.AttributeError object>'
p47
sS'__doc__'
p48
S"'Attribute not found.'"
p49
sS'__init__'
p50
S"<method-wrapper '__init__' of exceptions.AttributeError object>"
p51
sS'__new__'
p52
S'<built-in method __new__ of type object>'
p53
ssS'evalue'
p54
S"'NoneType' object has no attribute 'organization_name'"
p55
sS'request'
p56
ccopy_reg
_reconstructor
p57
(cgluon.html
BEAUTIFY
p58
c__builtin__
object
p59
NtRp60
(dp61
S'attributes'
p62
(dp63
sS'components'
p64
(lp65
g57
(cgluon.html
TABLE
p66
g59
NtRp67
(dp68
g62
(dp69
S'level'
p70
I5
ssS'parent'
p71
Nsg64
(lp72
g57
(cgluon.html
TR
p73
g59
NtRp74
(dp75
g62
(dp76
sg71
g67
sg64
(lp77
g57
(cgluon.html
TD
p78
g59
NtRp79
(dp80
g62
(dp81
S'_style'
p82
S'font-weight:bold;vertical-align:top'
p83
ssg71
g74
sg64
(lp84
S'ajax'
p85
asbag57
(g78
g59
NtRp86
(dp87
g62
(dp88
S'_valign'
p89
S'top'
p90
ssg71
g74
sg64
(lp91
S':'
asbag57
(g78
g59
NtRp92
(dp93
g62
(dp94
sg71
g74
sg64
(lp95
g57
(g58
g59
NtRp96
(dp97
g62
(dp98
g70
I5
ssg71
g92
sg64
(lp99
S'False'
p100
asbasbasbag57
(g73
g59
NtRp101
(dp102
g62
(dp103
sg71
g67
sg64
(lp104
g57
(g78
g59
NtRp105
(dp106
g62
(dp107
g82
g83
ssg71
g101
sg64
(lp108
S'application'
p109
asbag57
(g78
g59
NtRp110
(dp111
g62
(dp112
g89
g90
ssg71
g101
sg64
(lp113
S':'
asbag57
(g78
g59
NtRp114
(dp115
g62
(dp116
sg71
g101
sg64
(lp117
g57
(g58
g59
NtRp118
(dp119
g62
(dp120
g70
I5
ssg71
g114
sg64
(lp121
S'themishrms'
p122
asbasbasbag57
(g73
g59
NtRp123
(dp124
g62
(dp125
sg71
g67
sg64
(lp126
g57
(g78
g59
NtRp127
(dp128
g62
(dp129
g82
g83
ssg71
g123
sg64
(lp130
g42
asbag57
(g78
g59
NtRp131
(dp132
g62
(dp133
g89
g90
ssg71
g123
sg64
(lp134
S':'
asbag57
(g78
g59
NtRp135
(dp136
g62
(dp137
sg71
g123
sg64
(lp138
g57
(g58
g59
NtRp139
(dp140
g62
(dp141
g70
I5
ssg71
g135
sg64
(lp142
g57
(g66
g59
NtRp143
(dp144
g62
(dp145
g70
I4
ssg71
Nsg64
(lp146
sbasbasbasbag57
(g73
g59
NtRp147
(dp148
g62
(dp149
sg71
g67
sg64
(lp150
g57
(g78
g59
NtRp151
(dp152
g62
(dp153
g82
g83
ssg71
g147
sg64
(lp154
S'body'
p155
asbag57
(g78
g59
NtRp156
(dp157
g62
(dp158
g89
g90
ssg71
g147
sg64
(lp159
S':'
asbag57
(g78
g59
NtRp160
(dp161
g62
(dp162
sg71
g147
sg64
(lp163
g57
(g58
g59
NtRp164
(dp165
g62
(dp166
g70
I5
ssg71
g160
sg64
(lp167
S'<cStringIO.StringO object at 0x9473cc0>'
p168
asbasbasbag57
(g73
g59
NtRp169
(dp170
g62
(dp171
sg71
g67
sg64
(lp172
g57
(g78
g59
NtRp173
(dp174
g62
(dp175
g82
g83
ssg71
g169
sg64
(lp176
S'client'
p177
asbag57
(g78
g59
NtRp178
(dp179
g62
(dp180
g89
g90
ssg71
g169
sg64
(lp181
S':'
asbag57
(g78
g59
NtRp182
(dp183
g62
(dp184
sg71
g169
sg64
(lp185
g57
(g58
g59
NtRp186
(dp187
g62
(dp188
g70
I5
ssg71
g182
sg64
(lp189
S'127.0.0.1'
p190
asbasbasbag57
(g73
g59
NtRp191
(dp192
g62
(dp193
sg71
g67
sg64
(lp194
g57
(g78
g59
NtRp195
(dp196
g62
(dp197
g82
g83
ssg71
g191
sg64
(lp198
S'controller'
p199
asbag57
(g78
g59
NtRp200
(dp201
g62
(dp202
g89
g90
ssg71
g191
sg64
(lp203
S':'
asbag57
(g78
g59
NtRp204
(dp205
g62
(dp206
sg71
g191
sg64
(lp207
g57
(g58
g59
NtRp208
(dp209
g62
(dp210
g70
I5
ssg71
g204
sg64
(lp211
S'default'
p212
asbasbasbag57
(g73
g59
NtRp213
(dp214
g62
(dp215
sg71
g67
sg64
(lp216
g57
(g78
g59
NtRp217
(dp218
g62
(dp219
g82
g83
ssg71
g213
sg64
(lp220
S'cookies'
p221
asbag57
(g78
g59
NtRp222
(dp223
g62
(dp224
g89
g90
ssg71
g213
sg64
(lp225
S':'
asbag57
(g78
g59
NtRp226
(dp227
g62
(dp228
sg71
g213
sg64
(lp229
g57
(g58
g59
NtRp230
(dp231
g62
(dp232
g70
I5
ssg71
g226
sg64
(lp233
g57
(g66
g59
NtRp234
(dp235
g62
(dp236
g70
I4
ssg71
Nsg64
(lp237
g57
(g73
g59
NtRp238
(dp239
g62
(dp240
sg71
g234
sg64
(lp241
g57
(g78
g59
NtRp242
(dp243
g62
(dp244
g82
g83
ssg71
g238
sg64
(lp245
S'mypanel'
p246
asbag57
(g78
g59
NtRp247
(dp248
g62
(dp249
g89
g90
ssg71
g238
sg64
(lp250
S':'
asbag57
(g78
g59
NtRp251
(dp252
g62
(dp253
sg71
g238
sg64
(lp254
g57
(g58
g59
NtRp255
(dp256
g62
(dp257
g70
I4
ssg71
g251
sg64
(lp258
g57
(g66
g59
NtRp259
(dp260
g62
(dp261
g70
I3
ssg71
Nsg64
(lp262
g57
(g73
g59
NtRp263
(dp264
g62
(dp265
sg71
g259
sg64
(lp266
g57
(g78
g59
NtRp267
(dp268
g62
(dp269
g82
g83
ssg71
g263
sg64
(lp270
S'comment'
p271
asbag57
(g78
g59
NtRp272
(dp273
g62
(dp274
g89
g90
ssg71
g263
sg64
(lp275
S':'
asbag57
(g78
g59
NtRp276
(dp277
g62
(dp278
sg71
g263
sg64
(lp279
g57
(g58
g59
NtRp280
(dp281
g62
(dp282
g70
I3
ssg71
g276
sg64
(lp283
S''
asbasbasbag57
(g73
g59
NtRp284
(dp285
g62
(dp286
sg71
g259
sg64
(lp287
g57
(g78
g59
NtRp288
(dp289
g62
(dp290
g82
g83
ssg71
g284
sg64
(lp291
S'domain'
p292
asbag57
(g78
g59
NtRp293
(dp294
g62
(dp295
g89
g90
ssg71
g284
sg64
(lp296
S':'
asbag57
(g78
g59
NtRp297
(dp298
g62
(dp299
sg71
g284
sg64
(lp300
g57
(g58
g59
NtRp301
(dp302
g62
(dp303
g70
I3
ssg71
g297
sg64
(lp304
S''
asbasbasbag57
(g73
g59
NtRp305
(dp306
g62
(dp307
sg71
g259
sg64
(lp308
g57
(g78
g59
NtRp309
(dp310
g62
(dp311
g82
g83
ssg71
g305
sg64
(lp312
S'expires'
p313
asbag57
(g78
g59
NtRp314
(dp315
g62
(dp316
g89
g90
ssg71
g305
sg64
(lp317
S':'
asbag57
(g78
g59
NtRp318
(dp319
g62
(dp320
sg71
g305
sg64
(lp321
g57
(g58
g59
NtRp322
(dp323
g62
(dp324
g70
I3
ssg71
g318
sg64
(lp325
S''
asbasbasbag57
(g73
g59
NtRp326
(dp327
g62
(dp328
sg71
g259
sg64
(lp329
g57
(g78
g59
NtRp330
(dp331
g62
(dp332
g82
g83
ssg71
g326
sg64
(lp333
S'httponly'
p334
asbag57
(g78
g59
NtRp335
(dp336
g62
(dp337
g89
g90
ssg71
g326
sg64
(lp338
S':'
asbag57
(g78
g59
NtRp339
(dp340
g62
(dp341
sg71
g326
sg64
(lp342
g57
(g58
g59
NtRp343
(dp344
g62
(dp345
g70
I3
ssg71
g339
sg64
(lp346
S''
asbasbasbag57
(g73
g59
NtRp347
(dp348
g62
(dp349
sg71
g259
sg64
(lp350
g57
(g78
g59
NtRp351
(dp352
g62
(dp353
g82
g83
ssg71
g347
sg64
(lp354
S'max-age'
p355
asbag57
(g78
g59
NtRp356
(dp357
g62
(dp358
g89
g90
ssg71
g347
sg64
(lp359
S':'
asbag57
(g78
g59
NtRp360
(dp361
g62
(dp362
sg71
g347
sg64
(lp363
g57
(g58
g59
NtRp364
(dp365
g62
(dp366
g70
I3
ssg71
g360
sg64
(lp367
S''
asbasbasbag57
(g73
g59
NtRp368
(dp369
g62
(dp370
sg71
g259
sg64
(lp371
g57
(g78
g59
NtRp372
(dp373
g62
(dp374
g82
g83
ssg71
g368
sg64
(lp375
S'path'
p376
asbag57
(g78
g59
NtRp377
(dp378
g62
(dp379
g89
g90
ssg71
g368
sg64
(lp380
S':'
asbag57
(g78
g59
NtRp381
(dp382
g62
(dp383
sg71
g368
sg64
(lp384
g57
(g58
g59
NtRp385
(dp386
g62
(dp387
g70
I3
ssg71
g381
sg64
(lp388
S''
asbasbasbag57
(g73
g59
NtRp389
(dp390
g62
(dp391
sg71
g259
sg64
(lp392
g57
(g78
g59
NtRp393
(dp394
g62
(dp395
g82
g83
ssg71
g389
sg64
(lp396
S'secure'
p397
asbag57
(g78
g59
NtRp398
(dp399
g62
(dp400
g89
g90
ssg71
g389
sg64
(lp401
S':'
asbag57
(g78
g59
NtRp402
(dp403
g62
(dp404
sg71
g389
sg64
(lp405
g57
(g58
g59
NtRp406
(dp407
g62
(dp408
g70
I3
ssg71
g402
sg64
(lp409
S''
asbasbasbag57
(g73
g59
NtRp410
(dp411
g62
(dp412
sg71
g259
sg64
(lp413
g57
(g78
g59
NtRp414
(dp415
g62
(dp416
g82
g83
ssg71
g410
sg64
(lp417
S'version'
p418
asbag57
(g78
g59
NtRp419
(dp420
g62
(dp421
g89
g90
ssg71
g410
sg64
(lp422
S':'
asbag57
(g78
g59
NtRp423
(dp424
g62
(dp425
sg71
g410
sg64
(lp426
g57
(g58
g59
NtRp427
(dp428
g62
(dp429
g70
I3
ssg71
g423
sg64
(lp430
S''
asbasbasbasbasbasbasbag57
(g73
g59
NtRp431
(dp432
g62
(dp433
sg71
g234
sg64
(lp434
g57
(g78
g59
NtRp435
(dp436
g62
(dp437
g82
g83
ssg71
g431
sg64
(lp438
S'session_id_admin'
p439
asbag57
(g78
g59
NtRp440
(dp441
g62
(dp442
g89
g90
ssg71
g431
sg64
(lp443
S':'
asbag57
(g78
g59
NtRp444
(dp445
g62
(dp446
sg71
g431
sg64
(lp447
g57
(g58
g59
NtRp448
(dp449
g62
(dp450
g70
I4
ssg71
g444
sg64
(lp451
g57
(g66
g59
NtRp452
(dp453
g62
(dp454
g70
I3
ssg71
Nsg64
(lp455
g57
(g73
g59
NtRp456
(dp457
g62
(dp458
sg71
g452
sg64
(lp459
g57
(g78
g59
NtRp460
(dp461
g62
(dp462
g82
g83
ssg71
g456
sg64
(lp463
g271
asbag57
(g78
g59
NtRp464
(dp465
g62
(dp466
g89
g90
ssg71
g456
sg64
(lp467
S':'
asbag57
(g78
g59
NtRp468
(dp469
g62
(dp470
sg71
g456
sg64
(lp471
g57
(g58
g59
NtRp472
(dp473
g62
(dp474
g70
I3
ssg71
g468
sg64
(lp475
S''
asbasbasbag57
(g73
g59
NtRp476
(dp477
g62
(dp478
sg71
g452
sg64
(lp479
g57
(g78
g59
NtRp480
(dp481
g62
(dp482
g82
g83
ssg71
g476
sg64
(lp483
g292
asbag57
(g78
g59
NtRp484
(dp485
g62
(dp486
g89
g90
ssg71
g476
sg64
(lp487
S':'
asbag57
(g78
g59
NtRp488
(dp489
g62
(dp490
sg71
g476
sg64
(lp491
g57
(g58
g59
NtRp492
(dp493
g62
(dp494
g70
I3
ssg71
g488
sg64
(lp495
S''
asbasbasbag57
(g73
g59
NtRp496
(dp497
g62
(dp498
sg71
g452
sg64
(lp499
g57
(g78
g59
NtRp500
(dp501
g62
(dp502
g82
g83
ssg71
g496
sg64
(lp503
g313
asbag57
(g78
g59
NtRp504
(dp505
g62
(dp506
g89
g90
ssg71
g496
sg64
(lp507
S':'
asbag57
(g78
g59
NtRp508
(dp509
g62
(dp510
sg71
g496
sg64
(lp511
g57
(g58
g59
NtRp512
(dp513
g62
(dp514
g70
I3
ssg71
g508
sg64
(lp515
S''
asbasbasbag57
(g73
g59
NtRp516
(dp517
g62
(dp518
sg71
g452
sg64
(lp519
g57
(g78
g59
NtRp520
(dp521
g62
(dp522
g82
g83
ssg71
g516
sg64
(lp523
g334
asbag57
(g78
g59
NtRp524
(dp525
g62
(dp526
g89
g90
ssg71
g516
sg64
(lp527
S':'
asbag57
(g78
g59
NtRp528
(dp529
g62
(dp530
sg71
g516
sg64
(lp531
g57
(g58
g59
NtRp532
(dp533
g62
(dp534
g70
I3
ssg71
g528
sg64
(lp535
S''
asbasbasbag57
(g73
g59
NtRp536
(dp537
g62
(dp538
sg71
g452
sg64
(lp539
g57
(g78
g59
NtRp540
(dp541
g62
(dp542
g82
g83
ssg71
g536
sg64
(lp543
g355
asbag57
(g78
g59
NtRp544
(dp545
g62
(dp546
g89
g90
ssg71
g536
sg64
(lp547
S':'
asbag57
(g78
g59
NtRp548
(dp549
g62
(dp550
sg71
g536
sg64
(lp551
g57
(g58
g59
NtRp552
(dp553
g62
(dp554
g70
I3
ssg71
g548
sg64
(lp555
S''
asbasbasbag57
(g73
g59
NtRp556
(dp557
g62
(dp558
sg71
g452
sg64
(lp559
g57
(g78
g59
NtRp560
(dp561
g62
(dp562
g82
g83
ssg71
g556
sg64
(lp563
g376
asbag57
(g78
g59
NtRp564
(dp565
g62
(dp566
g89
g90
ssg71
g556
sg64
(lp567
S':'
asbag57
(g78
g59
NtRp568
(dp569
g62
(dp570
sg71
g556
sg64
(lp571
g57
(g58
g59
NtRp572
(dp573
g62
(dp574
g70
I3
ssg71
g568
sg64
(lp575
S''
asbasbasbag57
(g73
g59
NtRp576
(dp577
g62
(dp578
sg71
g452
sg64
(lp579
g57
(g78
g59
NtRp580
(dp581
g62
(dp582
g82
g83
ssg71
g576
sg64
(lp583
g397
asbag57
(g78
g59
NtRp584
(dp585
g62
(dp586
g89
g90
ssg71
g576
sg64
(lp587
S':'
asbag57
(g78
g59
NtRp588
(dp589
g62
(dp590
sg71
g576
sg64
(lp591
g57
(g58
g59
NtRp592
(dp593
g62
(dp594
g70
I3
ssg71
g588
sg64
(lp595
S''
asbasbasbag57
(g73
g59
NtRp596
(dp597
g62
(dp598
sg71
g452
sg64
(lp599
g57
(g78
g59
NtRp600
(dp601
g62
(dp602
g82
g83
ssg71
g596
sg64
(lp603
g418
asbag57
(g78
g59
NtRp604
(dp605
g62
(dp606
g89
g90
ssg71
g596
sg64
(lp607
S':'
asbag57
(g78
g59
NtRp608
(dp609
g62
(dp610
sg71
g596
sg64
(lp611
g57
(g58
g59
NtRp612
(dp613
g62
(dp614
g70
I3
ssg71
g608
sg64
(lp615
S''
asbasbasbasbasbasbasbag57
(g73
g59
NtRp616
(dp617
g62
(dp618
sg71
g234
sg64
(lp619
g57
(g78
g59
NtRp620
(dp621
g62
(dp622
g82
g83
ssg71
g616
sg64
(lp623
S'session_id_themishrms'
p624
asbag57
(g78
g59
NtRp625
(dp626
g62
(dp627
g89
g90
ssg71
g616
sg64
(lp628
S':'
asbag57
(g78
g59
NtRp629
(dp630
g62
(dp631
sg71
g616
sg64
(lp632
g57
(g58
g59
NtRp633
(dp634
g62
(dp635
g70
I4
ssg71
g629
sg64
(lp636
g57
(g66
g59
NtRp637
(dp638
g62
(dp639
g70
I3
ssg71
Nsg64
(lp640
g57
(g73
g59
NtRp641
(dp642
g62
(dp643
sg71
g637
sg64
(lp644
g57
(g78
g59
NtRp645
(dp646
g62
(dp647
g82
g83
ssg71
g641
sg64
(lp648
g271
asbag57
(g78
g59
NtRp649
(dp650
g62
(dp651
g89
g90
ssg71
g641
sg64
(lp652
S':'
asbag57
(g78
g59
NtRp653
(dp654
g62
(dp655
sg71
g641
sg64
(lp656
g57
(g58
g59
NtRp657
(dp658
g62
(dp659
g70
I3
ssg71
g653
sg64
(lp660
S''
asbasbasbag57
(g73
g59
NtRp661
(dp662
g62
(dp663
sg71
g637
sg64
(lp664
g57
(g78
g59
NtRp665
(dp666
g62
(dp667
g82
g83
ssg71
g661
sg64
(lp668
g292
asbag57
(g78
g59
NtRp669
(dp670
g62
(dp671
g89
g90
ssg71
g661
sg64
(lp672
S':'
asbag57
(g78
g59
NtRp673
(dp674
g62
(dp675
sg71
g661
sg64
(lp676
g57
(g58
g59
NtRp677
(dp678
g62
(dp679
g70
I3
ssg71
g673
sg64
(lp680
S''
asbasbasbag57
(g73
g59
NtRp681
(dp682
g62
(dp683
sg71
g637
sg64
(lp684
g57
(g78
g59
NtRp685
(dp686
g62
(dp687
g82
g83
ssg71
g681
sg64
(lp688
g313
asbag57
(g78
g59
NtRp689
(dp690
g62
(dp691
g89
g90
ssg71
g681
sg64
(lp692
S':'
asbag57
(g78
g59
NtRp693
(dp694
g62
(dp695
sg71
g681
sg64
(lp696
g57
(g58
g59
NtRp697
(dp698
g62
(dp699
g70
I3
ssg71
g693
sg64
(lp700
S''
asbasbasbag57
(g73
g59
NtRp701
(dp702
g62
(dp703
sg71
g637
sg64
(lp704
g57
(g78
g59
NtRp705
(dp706
g62
(dp707
g82
g83
ssg71
g701
sg64
(lp708
g334
asbag57
(g78
g59
NtRp709
(dp710
g62
(dp711
g89
g90
ssg71
g701
sg64
(lp712
S':'
asbag57
(g78
g59
NtRp713
(dp714
g62
(dp715
sg71
g701
sg64
(lp716
g57
(g58
g59
NtRp717
(dp718
g62
(dp719
g70
I3
ssg71
g713
sg64
(lp720
S''
asbasbasbag57
(g73
g59
NtRp721
(dp722
g62
(dp723
sg71
g637
sg64
(lp724
g57
(g78
g59
NtRp725
(dp726
g62
(dp727
g82
g83
ssg71
g721
sg64
(lp728
g355
asbag57
(g78
g59
NtRp729
(dp730
g62
(dp731
g89
g90
ssg71
g721
sg64
(lp732
S':'
asbag57
(g78
g59
NtRp733
(dp734
g62
(dp735
sg71
g721
sg64
(lp736
g57
(g58
g59
NtRp737
(dp738
g62
(dp739
g70
I3
ssg71
g733
sg64
(lp740
S''
asbasbasbag57
(g73
g59
NtRp741
(dp742
g62
(dp743
sg71
g637
sg64
(lp744
g57
(g78
g59
NtRp745
(dp746
g62
(dp747
g82
g83
ssg71
g741
sg64
(lp748
g376
asbag57
(g78
g59
NtRp749
(dp750
g62
(dp751
g89
g90
ssg71
g741
sg64
(lp752
S':'
asbag57
(g78
g59
NtRp753
(dp754
g62
(dp755
sg71
g741
sg64
(lp756
g57
(g58
g59
NtRp757
(dp758
g62
(dp759
g70
I3
ssg71
g753
sg64
(lp760
S''
asbasbasbag57
(g73
g59
NtRp761
(dp762
g62
(dp763
sg71
g637
sg64
(lp764
g57
(g78
g59
NtRp765
(dp766
g62
(dp767
g82
g83
ssg71
g761
sg64
(lp768
g397
asbag57
(g78
g59
NtRp769
(dp770
g62
(dp771
g89
g90
ssg71
g761
sg64
(lp772
S':'
asbag57
(g78
g59
NtRp773
(dp774
g62
(dp775
sg71
g761
sg64
(lp776
g57
(g58
g59
NtRp777
(dp778
g62
(dp779
g70
I3
ssg71
g773
sg64
(lp780
S''
asbasbasbag57
(g73
g59
NtRp781
(dp782
g62
(dp783
sg71
g637
sg64
(lp784
g57
(g78
g59
NtRp785
(dp786
g62
(dp787
g82
g83
ssg71
g781
sg64
(lp788
g418
asbag57
(g78
g59
NtRp789
(dp790
g62
(dp791
g89
g90
ssg71
g781
sg64
(lp792
S':'
asbag57
(g78
g59
NtRp793
(dp794
g62
(dp795
sg71
g781
sg64
(lp796
g57
(g58
g59
NtRp797
(dp798
g62
(dp799
g70
I3
ssg71
g793
sg64
(lp800
S''
asbasbasbasbasbasbasbag57
(g73
g59
NtRp801
(dp802
g62
(dp803
sg71
g234
sg64
(lp804
g57
(g78
g59
NtRp805
(dp806
g62
(dp807
g82
g83
ssg71
g801
sg64
(lp808
S'session_id_welcome'
p809
asbag57
(g78
g59
NtRp810
(dp811
g62
(dp812
g89
g90
ssg71
g801
sg64
(lp813
S':'
asbag57
(g78
g59
NtRp814
(dp815
g62
(dp816
sg71
g801
sg64
(lp817
g57
(g58
g59
NtRp818
(dp819
g62
(dp820
g70
I4
ssg71
g814
sg64
(lp821
g57
(g66
g59
NtRp822
(dp823
g62
(dp824
g70
I3
ssg71
Nsg64
(lp825
g57
(g73
g59
NtRp826
(dp827
g62
(dp828
sg71
g822
sg64
(lp829
g57
(g78
g59
NtRp830
(dp831
g62
(dp832
g82
g83
ssg71
g826
sg64
(lp833
g271
asbag57
(g78
g59
NtRp834
(dp835
g62
(dp836
g89
g90
ssg71
g826
sg64
(lp837
S':'
asbag57
(g78
g59
NtRp838
(dp839
g62
(dp840
sg71
g826
sg64
(lp841
g57
(g58
g59
NtRp842
(dp843
g62
(dp844
g70
I3
ssg71
g838
sg64
(lp845
S''
asbasbasbag57
(g73
g59
NtRp846
(dp847
g62
(dp848
sg71
g822
sg64
(lp849
g57
(g78
g59
NtRp850
(dp851
g62
(dp852
g82
g83
ssg71
g846
sg64
(lp853
g292
asbag57
(g78
g59
NtRp854
(dp855
g62
(dp856
g89
g90
ssg71
g846
sg64
(lp857
S':'
asbag57
(g78
g59
NtRp858
(dp859
g62
(dp860
sg71
g846
sg64
(lp861
g57
(g58
g59
NtRp862
(dp863
g62
(dp864
g70
I3
ssg71
g858
sg64
(lp865
S''
asbasbasbag57
(g73
g59
NtRp866
(dp867
g62
(dp868
sg71
g822
sg64
(lp869
g57
(g78
g59
NtRp870
(dp871
g62
(dp872
g82
g83
ssg71
g866
sg64
(lp873
g313
asbag57
(g78
g59
NtRp874
(dp875
g62
(dp876
g89
g90
ssg71
g866
sg64
(lp877
S':'
asbag57
(g78
g59
NtRp878
(dp879
g62
(dp880
sg71
g866
sg64
(lp881
g57
(g58
g59
NtRp882
(dp883
g62
(dp884
g70
I3
ssg71
g878
sg64
(lp885
S''
asbasbasbag57
(g73
g59
NtRp886
(dp887
g62
(dp888
sg71
g822
sg64
(lp889
g57
(g78
g59
NtRp890
(dp891
g62
(dp892
g82
g83
ssg71
g886
sg64
(lp893
g334
asbag57
(g78
g59
NtRp894
(dp895
g62
(dp896
g89
g90
ssg71
g886
sg64
(lp897
S':'
asbag57
(g78
g59
NtRp898
(dp899
g62
(dp900
sg71
g886
sg64
(lp901
g57
(g58
g59
NtRp902
(dp903
g62
(dp904
g70
I3
ssg71
g898
sg64
(lp905
S''
asbasbasbag57
(g73
g59
NtRp906
(dp907
g62
(dp908
sg71
g822
sg64
(lp909
g57
(g78
g59
NtRp910
(dp911
g62
(dp912
g82
g83
ssg71
g906
sg64
(lp913
g355
asbag57
(g78
g59
NtRp914
(dp915
g62
(dp916
g89
g90
ssg71
g906
sg64
(lp917
S':'
asbag57
(g78
g59
NtRp918
(dp919
g62
(dp920
sg71
g906
sg64
(lp921
g57
(g58
g59
NtRp922
(dp923
g62
(dp924
g70
I3
ssg71
g918
sg64
(lp925
S''
asbasbasbag57
(g73
g59
NtRp926
(dp927
g62
(dp928
sg71
g822
sg64
(lp929
g57
(g78
g59
NtRp930
(dp931
g62
(dp932
g82
g83
ssg71
g926
sg64
(lp933
g376
asbag57
(g78
g59
NtRp934
(dp935
g62
(dp936
g89
g90
ssg71
g926
sg64
(lp937
S':'
asbag57
(g78
g59
NtRp938
(dp939
g62
(dp940
sg71
g926
sg64
(lp941
g57
(g58
g59
NtRp942
(dp943
g62
(dp944
g70
I3
ssg71
g938
sg64
(lp945
S''
asbasbasbag57
(g73
g59
NtRp946
(dp947
g62
(dp948
sg71
g822
sg64
(lp949
g57
(g78
g59
NtRp950
(dp951
g62
(dp952
g82
g83
ssg71
g946
sg64
(lp953
g397
asbag57
(g78
g59
NtRp954
(dp955
g62
(dp956
g89
g90
ssg71
g946
sg64
(lp957
S':'
asbag57
(g78
g59
NtRp958
(dp959
g62
(dp960
sg71
g946
sg64
(lp961
g57
(g58
g59
NtRp962
(dp963
g62
(dp964
g70
I3
ssg71
g958
sg64
(lp965
S''
asbasbasbag57
(g73
g59
NtRp966
(dp967
g62
(dp968
sg71
g822
sg64
(lp969
g57
(g78
g59
NtRp970
(dp971
g62
(dp972
g82
g83
ssg71
g966
sg64
(lp973
g418
asbag57
(g78
g59
NtRp974
(dp975
g62
(dp976
g89
g90
ssg71
g966
sg64
(lp977
S':'
asbag57
(g78
g59
NtRp978
(dp979
g62
(dp980
sg71
g966
sg64
(lp981
g57
(g58
g59
NtRp982
(dp983
g62
(dp984
g70
I3
ssg71
g978
sg64
(lp985
S''
asbasbasbasbasbasbasbag57
(g73
g59
NtRp986
(dp987
g62
(dp988
sg71
g234
sg64
(lp989
g57
(g78
g59
NtRp990
(dp991
g62
(dp992
g82
g83
ssg71
g986
sg64
(lp993
S'tls'
p994
asbag57
(g78
g59
NtRp995
(dp996
g62
(dp997
g89
g90
ssg71
g986
sg64
(lp998
S':'
asbag57
(g78
g59
NtRp999
(dp1000
g62
(dp1001
sg71
g986
sg64
(lp1002
g57
(g58
g59
NtRp1003
(dp1004
g62
(dp1005
g70
I4
ssg71
g999
sg64
(lp1006
g57
(g66
g59
NtRp1007
(dp1008
g62
(dp1009
g70
I3
ssg71
Nsg64
(lp1010
g57
(g73
g59
NtRp1011
(dp1012
g62
(dp1013
sg71
g1007
sg64
(lp1014
g57
(g78
g59
NtRp1015
(dp1016
g62
(dp1017
g82
g83
ssg71
g1011
sg64
(lp1018
g271
asbag57
(g78
g59
NtRp1019
(dp1020
g62
(dp1021
g89
g90
ssg71
g1011
sg64
(lp1022
S':'
asbag57
(g78
g59
NtRp1023
(dp1024
g62
(dp1025
sg71
g1011
sg64
(lp1026
g57
(g58
g59
NtRp1027
(dp1028
g62
(dp1029
g70
I3
ssg71
g1023
sg64
(lp1030
S''
asbasbasbag57
(g73
g59
NtRp1031
(dp1032
g62
(dp1033
sg71
g1007
sg64
(lp1034
g57
(g78
g59
NtRp1035
(dp1036
g62
(dp1037
g82
g83
ssg71
g1031
sg64
(lp1038
g292
asbag57
(g78
g59
NtRp1039
(dp1040
g62
(dp1041
g89
g90
ssg71
g1031
sg64
(lp1042
S':'
asbag57
(g78
g59
NtRp1043
(dp1044
g62
(dp1045
sg71
g1031
sg64
(lp1046
g57
(g58
g59
NtRp1047
(dp1048
g62
(dp1049
g70
I3
ssg71
g1043
sg64
(lp1050
S''
asbasbasbag57
(g73
g59
NtRp1051
(dp1052
g62
(dp1053
sg71
g1007
sg64
(lp1054
g57
(g78
g59
NtRp1055
(dp1056
g62
(dp1057
g82
g83
ssg71
g1051
sg64
(lp1058
g313
asbag57
(g78
g59
NtRp1059
(dp1060
g62
(dp1061
g89
g90
ssg71
g1051
sg64
(lp1062
S':'
asbag57
(g78
g59
NtRp1063
(dp1064
g62
(dp1065
sg71
g1051
sg64
(lp1066
g57
(g58
g59
NtRp1067
(dp1068
g62
(dp1069
g70
I3
ssg71
g1063
sg64
(lp1070
S''
asbasbasbag57
(g73
g59
NtRp1071
(dp1072
g62
(dp1073
sg71
g1007
sg64
(lp1074
g57
(g78
g59
NtRp1075
(dp1076
g62
(dp1077
g82
g83
ssg71
g1071
sg64
(lp1078
g334
asbag57
(g78
g59
NtRp1079
(dp1080
g62
(dp1081
g89
g90
ssg71
g1071
sg64
(lp1082
S':'
asbag57
(g78
g59
NtRp1083
(dp1084
g62
(dp1085
sg71
g1071
sg64
(lp1086
g57
(g58
g59
NtRp1087
(dp1088
g62
(dp1089
g70
I3
ssg71
g1083
sg64
(lp1090
S''
asbasbasbag57
(g73
g59
NtRp1091
(dp1092
g62
(dp1093
sg71
g1007
sg64
(lp1094
g57
(g78
g59
NtRp1095
(dp1096
g62
(dp1097
g82
g83
ssg71
g1091
sg64
(lp1098
g355
asbag57
(g78
g59
NtRp1099
(dp1100
g62
(dp1101
g89
g90
ssg71
g1091
sg64
(lp1102
S':'
asbag57
(g78
g59
NtRp1103
(dp1104
g62
(dp1105
sg71
g1091
sg64
(lp1106
g57
(g58
g59
NtRp1107
(dp1108
g62
(dp1109
g70
I3
ssg71
g1103
sg64
(lp1110
S''
asbasbasbag57
(g73
g59
NtRp1111
(dp1112
g62
(dp1113
sg71
g1007
sg64
(lp1114
g57
(g78
g59
NtRp1115
(dp1116
g62
(dp1117
g82
g83
ssg71
g1111
sg64
(lp1118
g376
asbag57
(g78
g59
NtRp1119
(dp1120
g62
(dp1121
g89
g90
ssg71
g1111
sg64
(lp1122
S':'
asbag57
(g78
g59
NtRp1123
(dp1124
g62
(dp1125
sg71
g1111
sg64
(lp1126
g57
(g58
g59
NtRp1127
(dp1128
g62
(dp1129
g70
I3
ssg71
g1123
sg64
(lp1130
S''
asbasbasbag57
(g73
g59
NtRp1131
(dp1132
g62
(dp1133
sg71
g1007
sg64
(lp1134
g57
(g78
g59
NtRp1135
(dp1136
g62
(dp1137
g82
g83
ssg71
g1131
sg64
(lp1138
g397
asbag57
(g78
g59
NtRp1139
(dp1140
g62
(dp1141
g89
g90
ssg71
g1131
sg64
(lp1142
S':'
asbag57
(g78
g59
NtRp1143
(dp1144
g62
(dp1145
sg71
g1131
sg64
(lp1146
g57
(g58
g59
NtRp1147
(dp1148
g62
(dp1149
g70
I3
ssg71
g1143
sg64
(lp1150
S''
asbasbasbag57
(g73
g59
NtRp1151
(dp1152
g62
(dp1153
sg71
g1007
sg64
(lp1154
g57
(g78
g59
NtRp1155
(dp1156
g62
(dp1157
g82
g83
ssg71
g1151
sg64
(lp1158
g418
asbag57
(g78
g59
NtRp1159
(dp1160
g62
(dp1161
g89
g90
ssg71
g1151
sg64
(lp1162
S':'
asbag57
(g78
g59
NtRp1163
(dp1164
g62
(dp1165
sg71
g1151
sg64
(lp1166
g57
(g58
g59
NtRp1167
(dp1168
g62
(dp1169
g70
I3
ssg71
g1163
sg64
(lp1170
S''
asbasbasbasbasbasbasbasbasbasbasbag57
(g73
g59
NtRp1171
(dp1172
g62
(dp1173
sg71
g67
sg64
(lp1174
g57
(g78
g59
NtRp1175
(dp1176
g62
(dp1177
g82
g83
ssg71
g1171
sg64
(lp1178
S'env'
p1179
asbag57
(g78
g59
NtRp1180
(dp1181
g62
(dp1182
g89
g90
ssg71
g1171
sg64
(lp1183
S':'
asbag57
(g78
g59
NtRp1184
(dp1185
g62
(dp1186
sg71
g1171
sg64
(lp1187
g57
(g58
g59
NtRp1188
(dp1189
g62
(dp1190
g70
I5
ssg71
g1184
sg64
(lp1191
g57
(g66
g59
NtRp1192
(dp1193
g62
(dp1194
g70
I4
ssg71
Nsg64
(lp1195
g57
(g73
g59
NtRp1196
(dp1197
g62
(dp1198
sg71
g1192
sg64
(lp1199
g57
(g78
g59
NtRp1200
(dp1201
g62
(dp1202
g82
g83
ssg71
g1196
sg64
(lp1203
S'app_folders'
p1204
asbag57
(g78
g59
NtRp1205
(dp1206
g62
(dp1207
g89
g90
ssg71
g1196
sg64
(lp1208
S':'
asbag57
(g78
g59
NtRp1209
(dp1210
g62
(dp1211
sg71
g1196
sg64
(lp1212
g57
(g58
g59
NtRp1213
(dp1214
g62
(dp1215
g70
I4
ssg71
g1209
sg64
(lp1216
S"set(['/home/tls-sanjeet/Desktop/HRMS/web2py/applications/themishrms/', '/home/tls-sanjeet/Desktop/HRMS/web2py/applications/welcome/', '/home/tls-sanjeet/Desktop/HRMS/web2py/applications/admin/'])"
p1217
asbasbasbag57
(g73
g59
NtRp1218
(dp1219
g62
(dp1220
sg71
g1192
sg64
(lp1221
g57
(g78
g59
NtRp1222
(dp1223
g62
(dp1224
g82
g83
ssg71
g1218
sg64
(lp1225
S'applications_parent'
p1226
asbag57
(g78
g59
NtRp1227
(dp1228
g62
(dp1229
g89
g90
ssg71
g1218
sg64
(lp1230
S':'
asbag57
(g78
g59
NtRp1231
(dp1232
g62
(dp1233
sg71
g1218
sg64
(lp1234
g57
(g58
g59
NtRp1235
(dp1236
g62
(dp1237
g70
I4
ssg71
g1231
sg64
(lp1238
S'/home/tls-sanjeet/Desktop/HRMS/web2py'
p1239
asbasbasbag57
(g73
g59
NtRp1240
(dp1241
g62
(dp1242
sg71
g1192
sg64
(lp1243
g57
(g78
g59
NtRp1244
(dp1245
g62
(dp1246
g82
g83
ssg71
g1240
sg64
(lp1247
S'cmd_args'
p1248
asbag57
(g78
g59
NtRp1249
(dp1250
g62
(dp1251
g89
g90
ssg71
g1240
sg64
(lp1252
S':'
asbag57
(g78
g59
NtRp1253
(dp1254
g62
(dp1255
sg71
g1240
sg64
(lp1256
g57
(g58
g59
NtRp1257
(dp1258
g62
(dp1259
g70
I4
ssg71
g1253
sg64
(lp1260
g57
(g66
g59
NtRp1261
(dp1262
g62
(dp1263
g70
I3
ssg71
Nsg64
(lp1264
sbasbasbasbag57
(g73
g59
NtRp1265
(dp1266
g62
(dp1267
sg71
g1192
sg64
(lp1268
g57
(g78
g59
NtRp1269
(dp1270
g62
(dp1271
g82
g83
ssg71
g1265
sg64
(lp1272
S'cmd_options'
p1273
asbag57
(g78
g59
NtRp1274
(dp1275
g62
(dp1276
g89
g90
ssg71
g1265
sg64
(lp1277
S':'
asbag57
(g78
g59
NtRp1278
(dp1279
g62
(dp1280
sg71
g1265
sg64
(lp1281
g57
(g58
g59
NtRp1282
(dp1283
g62
(dp1284
g70
I4
ssg71
g1278
sg64
(lp1285
S"<Values at 0x8ede5cc: {'verbose': False, 'ip': '127.0.0.1', 'shutdown_timeout': 5, 'taskbar': False, 'nocron': False, 'pid_filename': 'httpserver.pid', 'maxthreads': None, 'softcron': False, 'server_name': 'sanjeet-desktop', 'bpython': False, 'nogui': False, 'port': 8000, 'extcron': False, 'debuglevel': 30, 'test': None, 'folder': '/home/tls-sanjeet/Desktop/HRMS/web2py', 'config': '', 'import_models': False, 'winservice': '', 'shell': None, 'run': '', 'log_filename': 'httpserver.log', 'args': [''], 'socket_timeout': 5, 'ssl_ca_certificate': None, 'scheduler': None, 'profiler_filename': None, 'ssl_private_key': '', 'password': 'a', 'request_queue_size': 5, 'ssl_certificate': '', 'cronjob': False, 'numthreads': None, 'quiet': False, 'interfaces': None, 'minthreads': None, 'timeout': 10, 'plain': False, 'nobanner': False}>"
p1286
asbasbasbag57
(g73
g59
NtRp1287
(dp1288
g62
(dp1289
sg71
g1192
sg64
(lp1290
g57
(g78
g59
NtRp1291
(dp1292
g62
(dp1293
g82
g83
ssg71
g1287
sg64
(lp1294
S'db_sessions'
p1295
asbag57
(g78
g59
NtRp1296
(dp1297
g62
(dp1298
g89
g90
ssg71
g1287
sg64
(lp1299
S':'
asbag57
(g78
g59
NtRp1300
(dp1301
g62
(dp1302
sg71
g1287
sg64
(lp1303
g57
(g58
g59
NtRp1304
(dp1305
g62
(dp1306
g70
I4
ssg71
g1300
sg64
(lp1307
S'set([])'
p1308
asbasbasbag57
(g73
g59
NtRp1309
(dp1310
g62
(dp1311
sg71
g1192
sg64
(lp1312
g57
(g78
g59
NtRp1313
(dp1314
g62
(dp1315
g82
g83
ssg71
g1309
sg64
(lp1316
S'debugging'
p1317
asbag57
(g78
g59
NtRp1318
(dp1319
g62
(dp1320
g89
g90
ssg71
g1309
sg64
(lp1321
S':'
asbag57
(g78
g59
NtRp1322
(dp1323
g62
(dp1324
sg71
g1309
sg64
(lp1325
g57
(g58
g59
NtRp1326
(dp1327
g62
(dp1328
g70
I4
ssg71
g1322
sg64
(lp1329
g100
asbasbasbag57
(g73
g59
NtRp1330
(dp1331
g62
(dp1332
sg71
g1192
sg64
(lp1333
g57
(g78
g59
NtRp1334
(dp1335
g62
(dp1336
g82
g83
ssg71
g1330
sg64
(lp1337
S'gluon_parent'
p1338
asbag57
(g78
g59
NtRp1339
(dp1340
g62
(dp1341
g89
g90
ssg71
g1330
sg64
(lp1342
S':'
asbag57
(g78
g59
NtRp1343
(dp1344
g62
(dp1345
sg71
g1330
sg64
(lp1346
g57
(g58
g59
NtRp1347
(dp1348
g62
(dp1349
g70
I4
ssg71
g1343
sg64
(lp1350
S'/home/tls-sanjeet/Desktop/HRMS/web2py'
p1351
asbasbasbag57
(g73
g59
NtRp1352
(dp1353
g62
(dp1354
sg71
g1192
sg64
(lp1355
g57
(g78
g59
NtRp1356
(dp1357
g62
(dp1358
g82
g83
ssg71
g1352
sg64
(lp1359
S'http_accept'
p1360
asbag57
(g78
g59
NtRp1361
(dp1362
g62
(dp1363
g89
g90
ssg71
g1352
sg64
(lp1364
S':'
asbag57
(g78
g59
NtRp1365
(dp1366
g62
(dp1367
sg71
g1352
sg64
(lp1368
g57
(g58
g59
NtRp1369
(dp1370
g62
(dp1371
g70
I4
ssg71
g1365
sg64
(lp1372
S'text/html,application/xhtml+xml,application/xml;q=0.9,*/*;q=0.8'
p1373
asbasbasbag57
(g73
g59
NtRp1374
(dp1375
g62
(dp1376
sg71
g1192
sg64
(lp1377
g57
(g78
g59
NtRp1378
(dp1379
g62
(dp1380
g82
g83
ssg71
g1374
sg64
(lp1381
S'http_accept_charset'
p1382
asbag57
(g78
g59
NtRp1383
(dp1384
g62
(dp1385
g89
g90
ssg71
g1374
sg64
(lp1386
S':'
asbag57
(g78
g59
NtRp1387
(dp1388
g62
(dp1389
sg71
g1374
sg64
(lp1390
g57
(g58
g59
NtRp1391
(dp1392
g62
(dp1393
g70
I4
ssg71
g1387
sg64
(lp1394
S'ISO-8859-1,utf-8;q=0.7,*;q=0.3'
p1395
asbasbasbag57
(g73
g59
NtRp1396
(dp1397
g62
(dp1398
sg71
g1192
sg64
(lp1399
g57
(g78
g59
NtRp1400
(dp1401
g62
(dp1402
g82
g83
ssg71
g1396
sg64
(lp1403
S'http_accept_encoding'
p1404
asbag57
(g78
g59
NtRp1405
(dp1406
g62
(dp1407
g89
g90
ssg71
g1396
sg64
(lp1408
S':'
asbag57
(g78
g59
NtRp1409
(dp1410
g62
(dp1411
sg71
g1396
sg64
(lp1412
g57
(g58
g59
NtRp1413
(dp1414
g62
(dp1415
g70
I4
ssg71
g1409
sg64
(lp1416
S'gzip,deflate,sdch'
p1417
asbasbasbag57
(g73
g59
NtRp1418
(dp1419
g62
(dp1420
sg71
g1192
sg64
(lp1421
g57
(g78
g59
NtRp1422
(dp1423
g62
(dp1424
g82
g83
ssg71
g1418
sg64
(lp1425
S'http_accept_language'
p1426
asbag57
(g78
g59
NtRp1427
(dp1428
g62
(dp1429
g89
g90
ssg71
g1418
sg64
(lp1430
S':'
asbag57
(g78
g59
NtRp1431
(dp1432
g62
(dp1433
sg71
g1418
sg64
(lp1434
g57
(g58
g59
NtRp1435
(dp1436
g62
(dp1437
g70
I4
ssg71
g1431
sg64
(lp1438
S'en-US,en;q=0.8'
p1439
asbasbasbag57
(g73
g59
NtRp1440
(dp1441
g62
(dp1442
sg71
g1192
sg64
(lp1443
g57
(g78
g59
NtRp1444
(dp1445
g62
(dp1446
g82
g83
ssg71
g1440
sg64
(lp1447
S'http_connection'
p1448
asbag57
(g78
g59
NtRp1449
(dp1450
g62
(dp1451
g89
g90
ssg71
g1440
sg64
(lp1452
S':'
asbag57
(g78
g59
NtRp1453
(dp1454
g62
(dp1455
sg71
g1440
sg64
(lp1456
g57
(g58
g59
NtRp1457
(dp1458
g62
(dp1459
g70
I4
ssg71
g1453
sg64
(lp1460
S'keep-alive'
p1461
asbasbasbag57
(g73
g59
NtRp1462
(dp1463
g62
(dp1464
sg71
g1192
sg64
(lp1465
g57
(g78
g59
NtRp1466
(dp1467
g62
(dp1468
g82
g83
ssg71
g1462
sg64
(lp1469
S'http_cookie'
p1470
asbag57
(g78
g59
NtRp1471
(dp1472
g62
(dp1473
g89
g90
ssg71
g1462
sg64
(lp1474
S':'
asbag57
(g78
g59
NtRp1475
(dp1476
g62
(dp1477
sg71
g1462
sg64
(lp1478
g57
(g58
g59
NtRp1479
(dp1480
g62
(dp1481
g70
I4
ssg71
g1475
sg64
(lp1482
S'session_id_welcome=127.0.0.1-19d107bc-02fd-4f89-b9f7-85c721c01d01; session_id_admin=127.0.0.1-563cf403-3b74-422e-9cef-11ef4e515398; mypanel=up; tls=up; session_id_themishrms=127.0.0.1-c6e7e62d-764d-4479-b418-757cf9450e83'
p1483
asbasbasbag57
(g73
g59
NtRp1484
(dp1485
g62
(dp1486
sg71
g1192
sg64
(lp1487
g57
(g78
g59
NtRp1488
(dp1489
g62
(dp1490
g82
g83
ssg71
g1484
sg64
(lp1491
S'http_host'
p1492
asbag57
(g78
g59
NtRp1493
(dp1494
g62
(dp1495
g89
g90
ssg71
g1484
sg64
(lp1496
S':'
asbag57
(g78
g59
NtRp1497
(dp1498
g62
(dp1499
sg71
g1484
sg64
(lp1500
g57
(g58
g59
NtRp1501
(dp1502
g62
(dp1503
g70
I4
ssg71
g1497
sg64
(lp1504
S'127.0.0.1:8000'
p1505
asbasbasbag57
(g73
g59
NtRp1506
(dp1507
g62
(dp1508
sg71
g1192
sg64
(lp1509
g57
(g78
g59
NtRp1510
(dp1511
g62
(dp1512
g82
g83
ssg71
g1506
sg64
(lp1513
S'http_referer'
p1514
asbag57
(g78
g59
NtRp1515
(dp1516
g62
(dp1517
g89
g90
ssg71
g1506
sg64
(lp1518
S':'
asbag57
(g78
g59
NtRp1519
(dp1520
g62
(dp1521
sg71
g1506
sg64
(lp1522
g57
(g58
g59
NtRp1523
(dp1524
g62
(dp1525
g70
I4
ssg71
g1519
sg64
(lp1526
S'http://127.0.0.1:8000/themishrms/default/admindash'
p1527
asbasbasbag57
(g73
g59
NtRp1528
(dp1529
g62
(dp1530
sg71
g1192
sg64
(lp1531
g57
(g78
g59
NtRp1532
(dp1533
g62
(dp1534
g82
g83
ssg71
g1528
sg64
(lp1535
S'http_user_agent'
p1536
asbag57
(g78
g59
NtRp1537
(dp1538
g62
(dp1539
g89
g90
ssg71
g1528
sg64
(lp1540
S':'
asbag57
(g78
g59
NtRp1541
(dp1542
g62
(dp1543
sg71
g1528
sg64
(lp1544
g57
(g58
g59
NtRp1545
(dp1546
g62
(dp1547
g70
I4
ssg71
g1541
sg64
(lp1548
S'Mozilla/5.0 (X11; Linux i686) AppleWebKit/535.19 (KHTML, like Gecko) Chrome/18.0.1025.168 Safari/535.19'
p1549
asbasbasbag57
(g73
g59
NtRp1550
(dp1551
g62
(dp1552
sg71
g1192
sg64
(lp1553
g57
(g78
g59
NtRp1554
(dp1555
g62
(dp1556
g82
g83
ssg71
g1550
sg64
(lp1557
S'is_jython'
p1558
asbag57
(g78
g59
NtRp1559
(dp1560
g62
(dp1561
g89
g90
ssg71
g1550
sg64
(lp1562
S':'
asbag57
(g78
g59
NtRp1563
(dp1564
g62
(dp1565
sg71
g1550
sg64
(lp1566
g57
(g58
g59
NtRp1567
(dp1568
g62
(dp1569
g70
I4
ssg71
g1563
sg64
(lp1570
g100
asbasbasbag57
(g73
g59
NtRp1571
(dp1572
g62
(dp1573
sg71
g1192
sg64
(lp1574
g57
(g78
g59
NtRp1575
(dp1576
g62
(dp1577
g82
g83
ssg71
g1571
sg64
(lp1578
S'is_pypy'
p1579
asbag57
(g78
g59
NtRp1580
(dp1581
g62
(dp1582
g89
g90
ssg71
g1571
sg64
(lp1583
S':'
asbag57
(g78
g59
NtRp1584
(dp1585
g62
(dp1586
sg71
g1571
sg64
(lp1587
g57
(g58
g59
NtRp1588
(dp1589
g62
(dp1590
g70
I4
ssg71
g1584
sg64
(lp1591
g100
asbasbasbag57
(g73
g59
NtRp1592
(dp1593
g62
(dp1594
sg71
g1192
sg64
(lp1595
g57
(g78
g59
NtRp1596
(dp1597
g62
(dp1598
g82
g83
ssg71
g1592
sg64
(lp1599
S'path_info'
p1600
asbag57
(g78
g59
NtRp1601
(dp1602
g62
(dp1603
g89
g90
ssg71
g1592
sg64
(lp1604
S':'
asbag57
(g78
g59
NtRp1605
(dp1606
g62
(dp1607
sg71
g1592
sg64
(lp1608
g57
(g58
g59
NtRp1609
(dp1610
g62
(dp1611
g70
I4
ssg71
g1605
sg64
(lp1612
S'/themishrms/default/admin_newuser'
p1613
asbasbasbag57
(g73
g59
NtRp1614
(dp1615
g62
(dp1616
sg71
g1192
sg64
(lp1617
g57
(g78
g59
NtRp1618
(dp1619
g62
(dp1620
g82
g83
ssg71
g1614
sg64
(lp1621
S'query_string'
p1622
asbag57
(g78
g59
NtRp1623
(dp1624
g62
(dp1625
g89
g90
ssg71
g1614
sg64
(lp1626
S':'
asbag57
(g78
g59
NtRp1627
(dp1628
g62
(dp1629
sg71
g1614
sg64
(lp1630
g57
(g58
g59
NtRp1631
(dp1632
g62
(dp1633
g70
I4
ssg71
g1627
sg64
(lp1634
S''
asbasbasbag57
(g73
g59
NtRp1635
(dp1636
g62
(dp1637
sg71
g1192
sg64
(lp1638
g57
(g78
g59
NtRp1639
(dp1640
g62
(dp1641
g82
g83
ssg71
g1635
sg64
(lp1642
S'remote_addr'
p1643
asbag57
(g78
g59
NtRp1644
(dp1645
g62
(dp1646
g89
g90
ssg71
g1635
sg64
(lp1647
S':'
asbag57
(g78
g59
NtRp1648
(dp1649
g62
(dp1650
sg71
g1635
sg64
(lp1651
g57
(g58
g59
NtRp1652
(dp1653
g62
(dp1654
g70
I4
ssg71
g1648
sg64
(lp1655
g190
asbasbasbag57
(g73
g59
NtRp1656
(dp1657
g62
(dp1658
sg71
g1192
sg64
(lp1659
g57
(g78
g59
NtRp1660
(dp1661
g62
(dp1662
g82
g83
ssg71
g1656
sg64
(lp1663
S'remote_port'
p1664
asbag57
(g78
g59
NtRp1665
(dp1666
g62
(dp1667
g89
g90
ssg71
g1656
sg64
(lp1668
S':'
asbag57
(g78
g59
NtRp1669
(dp1670
g62
(dp1671
sg71
g1656
sg64
(lp1672
g57
(g58
g59
NtRp1673
(dp1674
g62
(dp1675
g70
I4
ssg71
g1669
sg64
(lp1676
S'39730'
p1677
asbasbasbag57
(g73
g59
NtRp1678
(dp1679
g62
(dp1680
sg71
g1192
sg64
(lp1681
g57
(g78
g59
NtRp1682
(dp1683
g62
(dp1684
g82
g83
ssg71
g1678
sg64
(lp1685
S'request_method'
p1686
asbag57
(g78
g59
NtRp1687
(dp1688
g62
(dp1689
g89
g90
ssg71
g1678
sg64
(lp1690
S':'
asbag57
(g78
g59
NtRp1691
(dp1692
g62
(dp1693
sg71
g1678
sg64
(lp1694
g57
(g58
g59
NtRp1695
(dp1696
g62
(dp1697
g70
I4
ssg71
g1691
sg64
(lp1698
S'GET'
p1699
asbasbasbag57
(g73
g59
NtRp1700
(dp1701
g62
(dp1702
sg71
g1192
sg64
(lp1703
g57
(g78
g59
NtRp1704
(dp1705
g62
(dp1706
g82
g83
ssg71
g1700
sg64
(lp1707
S'script_name'
p1708
asbag57
(g78
g59
NtRp1709
(dp1710
g62
(dp1711
g89
g90
ssg71
g1700
sg64
(lp1712
S':'
asbag57
(g78
g59
NtRp1713
(dp1714
g62
(dp1715
sg71
g1700
sg64
(lp1716
g57
(g58
g59
NtRp1717
(dp1718
g62
(dp1719
g70
I4
ssg71
g1713
sg64
(lp1720
S''
asbasbasbag57
(g73
g59
NtRp1721
(dp1722
g62
(dp1723
sg71
g1192
sg64
(lp1724
g57
(g78
g59
NtRp1725
(dp1726
g62
(dp1727
g82
g83
ssg71
g1721
sg64
(lp1728
S'server_name'
p1729
asbag57
(g78
g59
NtRp1730
(dp1731
g62
(dp1732
g89
g90
ssg71
g1721
sg64
(lp1733
S':'
asbag57
(g78
g59
NtRp1734
(dp1735
g62
(dp1736
sg71
g1721
sg64
(lp1737
g57
(g58
g59
NtRp1738
(dp1739
g62
(dp1740
g70
I4
ssg71
g1734
sg64
(lp1741
S'sanjeet-desktop'
p1742
asbasbasbag57
(g73
g59
NtRp1743
(dp1744
g62
(dp1745
sg71
g1192
sg64
(lp1746
g57
(g78
g59
NtRp1747
(dp1748
g62
(dp1749
g82
g83
ssg71
g1743
sg64
(lp1750
S'server_port'
p1751
asbag57
(g78
g59
NtRp1752
(dp1753
g62
(dp1754
g89
g90
ssg71
g1743
sg64
(lp1755
S':'
asbag57
(g78
g59
NtRp1756
(dp1757
g62
(dp1758
sg71
g1743
sg64
(lp1759
g57
(g58
g59
NtRp1760
(dp1761
g62
(dp1762
g70
I4
ssg71
g1756
sg64
(lp1763
S'8000'
p1764
asbasbasbag57
(g73
g59
NtRp1765
(dp1766
g62
(dp1767
sg71
g1192
sg64
(lp1768
g57
(g78
g59
NtRp1769
(dp1770
g62
(dp1771
g82
g83
ssg71
g1765
sg64
(lp1772
S'server_protocol'
p1773
asbag57
(g78
g59
NtRp1774
(dp1775
g62
(dp1776
g89
g90
ssg71
g1765
sg64
(lp1777
S':'
asbag57
(g78
g59
NtRp1778
(dp1779
g62
(dp1780
sg71
g1765
sg64
(lp1781
g57
(g58
g59
NtRp1782
(dp1783
g62
(dp1784
g70
I4
ssg71
g1778
sg64
(lp1785
S'HTTP/1.1'
p1786
asbasbasbag57
(g73
g59
NtRp1787
(dp1788
g62
(dp1789
sg71
g1192
sg64
(lp1790
g57
(g78
g59
NtRp1791
(dp1792
g62
(dp1793
g82
g83
ssg71
g1787
sg64
(lp1794
S'server_software'
p1795
asbag57
(g78
g59
NtRp1796
(dp1797
g62
(dp1798
g89
g90
ssg71
g1787
sg64
(lp1799
S':'
asbag57
(g78
g59
NtRp1800
(dp1801
g62
(dp1802
sg71
g1787
sg64
(lp1803
g57
(g58
g59
NtRp1804
(dp1805
g62
(dp1806
g70
I4
ssg71
g1800
sg64
(lp1807
S'Rocket 1.2.4'
p1808
asbasbasbag57
(g73
g59
NtRp1809
(dp1810
g62
(dp1811
sg71
g1192
sg64
(lp1812
g57
(g78
g59
NtRp1813
(dp1814
g62
(dp1815
g82
g83
ssg71
g1809
sg64
(lp1816
S'web2py_crontype'
p1817
asbag57
(g78
g59
NtRp1818
(dp1819
g62
(dp1820
g89
g90
ssg71
g1809
sg64
(lp1821
S':'
asbag57
(g78
g59
NtRp1822
(dp1823
g62
(dp1824
sg71
g1809
sg64
(lp1825
g57
(g58
g59
NtRp1826
(dp1827
g62
(dp1828
g70
I4
ssg71
g1822
sg64
(lp1829
S'hard'
p1830
asbasbasbag57
(g73
g59
NtRp1831
(dp1832
g62
(dp1833
sg71
g1192
sg64
(lp1834
g57
(g78
g59
NtRp1835
(dp1836
g62
(dp1837
g82
g83
ssg71
g1831
sg64
(lp1838
S'web2py_path'
p1839
asbag57
(g78
g59
NtRp1840
(dp1841
g62
(dp1842
g89
g90
ssg71
g1831
sg64
(lp1843
S':'
asbag57
(g78
g59
NtRp1844
(dp1845
g62
(dp1846
sg71
g1831
sg64
(lp1847
g57
(g58
g59
NtRp1848
(dp1849
g62
(dp1850
g70
I4
ssg71
g1844
sg64
(lp1851
g1239
asbasbasbag57
(g73
g59
NtRp1852
(dp1853
g62
(dp1854
sg71
g1192
sg64
(lp1855
g57
(g78
g59
NtRp1856
(dp1857
g62
(dp1858
g82
g83
ssg71
g1852
sg64
(lp1859
S'web2py_version'
p1860
asbag57
(g78
g59
NtRp1861
(dp1862
g62
(dp1863
g89
g90
ssg71
g1852
sg64
(lp1864
S':'
asbag57
(g78
g59
NtRp1865
(dp1866
g62
(dp1867
sg71
g1852
sg64
(lp1868
g57
(g58
g59
NtRp1869
(dp1870
g62
(dp1871
g70
I4
ssg71
g1865
sg64
(lp1872
g57
(g66
g59
NtRp1873
(dp1874
g62
(dp1875
g70
I3
ssg71
Nsg64
(lp1876
g57
(g73
g59
NtRp1877
(dp1878
g62
(dp1879
sg71
g1873
sg64
(lp1880
g57
(g78
g59
NtRp1881
(dp1882
g62
(dp1883
sg71
g1877
sg64
(lp1884
g57
(g58
g59
NtRp1885
(dp1886
g62
(dp1887
g70
I3
ssg71
g1881
sg64
(lp1888
S'1'
asbasbasbag57
(g73
g59
NtRp1889
(dp1890
g62
(dp1891
sg71
g1873
sg64
(lp1892
g57
(g78
g59
NtRp1893
(dp1894
g62
(dp1895
sg71
g1889
sg64
(lp1896
g57
(g58
g59
NtRp1897
(dp1898
g62
(dp1899
g70
I3
ssg71
g1893
sg64
(lp1900
S'99'
p1901
asbasbasbag57
(g73
g59
NtRp1902
(dp1903
g62
(dp1904
sg71
g1873
sg64
(lp1905
g57
(g78
g59
NtRp1906
(dp1907
g62
(dp1908
sg71
g1902
sg64
(lp1909
g57
(g58
g59
NtRp1910
(dp1911
g62
(dp1912
g70
I3
ssg71
g1906
sg64
(lp1913
S'7'
asbasbasbag57
(g73
g59
NtRp1914
(dp1915
g62
(dp1916
sg71
g1873
sg64
(lp1917
g57
(g78
g59
NtRp1918
(dp1919
g62
(dp1920
sg71
g1914
sg64
(lp1921
g57
(g58
g59
NtRp1922
(dp1923
g62
(dp1924
g70
I3
ssg71
g1918
sg64
(lp1925
S'datetime.datetime(2012, 3, 4, 22, 12, 8)'
p1926
asbasbasbag57
(g73
g59
NtRp1927
(dp1928
g62
(dp1929
sg71
g1873
sg64
(lp1930
g57
(g78
g59
NtRp1931
(dp1932
g62
(dp1933
sg71
g1927
sg64
(lp1934
g57
(g58
g59
NtRp1935
(dp1936
g62
(dp1937
g70
I3
ssg71
g1931
sg64
(lp1938
S'stable'
p1939
asbasbasbasbasbasbasbag57
(g73
g59
NtRp1940
(dp1941
g62
(dp1942
sg71
g1192
sg64
(lp1943
g57
(g78
g59
NtRp1944
(dp1945
g62
(dp1946
g82
g83
ssg71
g1940
sg64
(lp1947
S'wsgi_errors'
p1948
asbag57
(g78
g59
NtRp1949
(dp1950
g62
(dp1951
g89
g90
ssg71
g1940
sg64
(lp1952
S':'
asbag57
(g78
g59
NtRp1953
(dp1954
g62
(dp1955
sg71
g1940
sg64
(lp1956
g57
(g58
g59
NtRp1957
(dp1958
g62
(dp1959
g70
I4
ssg71
g1953
sg64
(lp1960
S"<open file '<stderr>', mode 'w' at 0xb744e0d0>"
p1961
asbasbasbag57
(g73
g59
NtRp1962
(dp1963
g62
(dp1964
sg71
g1192
sg64
(lp1965
g57
(g78
g59
NtRp1966
(dp1967
g62
(dp1968
g82
g83
ssg71
g1962
sg64
(lp1969
S'wsgi_file_wrapper'
p1970
asbag57
(g78
g59
NtRp1971
(dp1972
g62
(dp1973
g89
g90
ssg71
g1962
sg64
(lp1974
S':'
asbag57
(g78
g59
NtRp1975
(dp1976
g62
(dp1977
sg71
g1962
sg64
(lp1978
g57
(g58
g59
NtRp1979
(dp1980
g62
(dp1981
g70
I4
ssg71
g1975
sg64
(lp1982
S'<class wsgiref.util.FileWrapper at 0x8eabaac>'
p1983
asbasbasbag57
(g73
g59
NtRp1984
(dp1985
g62
(dp1986
sg71
g1192
sg64
(lp1987
g57
(g78
g59
NtRp1988
(dp1989
g62
(dp1990
g82
g83
ssg71
g1984
sg64
(lp1991
S'wsgi_input'
p1992
asbag57
(g78
g59
NtRp1993
(dp1994
g62
(dp1995
g89
g90
ssg71
g1984
sg64
(lp1996
S':'
asbag57
(g78
g59
NtRp1997
(dp1998
g62
(dp1999
sg71
g1984
sg64
(lp2000
g57
(g58
g59
NtRp2001
(dp2002
g62
(dp2003
g70
I4
ssg71
g1997
sg64
(lp2004
S'<socket._fileobject object at 0xa314d6c>'
p2005
asbasbasbag57
(g73
g59
NtRp2006
(dp2007
g62
(dp2008
sg71
g1192
sg64
(lp2009
g57
(g78
g59
NtRp2010
(dp2011
g62
(dp2012
g82
g83
ssg71
g2006
sg64
(lp2013
S'wsgi_multiprocess'
p2014
asbag57
(g78
g59
NtRp2015
(dp2016
g62
(dp2017
g89
g90
ssg71
g2006
sg64
(lp2018
S':'
asbag57
(g78
g59
NtRp2019
(dp2020
g62
(dp2021
sg71
g2006
sg64
(lp2022
g57
(g58
g59
NtRp2023
(dp2024
g62
(dp2025
g70
I4
ssg71
g2019
sg64
(lp2026
g100
asbasbasbag57
(g73
g59
NtRp2027
(dp2028
g62
(dp2029
sg71
g1192
sg64
(lp2030
g57
(g78
g59
NtRp2031
(dp2032
g62
(dp2033
g82
g83
ssg71
g2027
sg64
(lp2034
S'wsgi_multithread'
p2035
asbag57
(g78
g59
NtRp2036
(dp2037
g62
(dp2038
g89
g90
ssg71
g2027
sg64
(lp2039
S':'
asbag57
(g78
g59
NtRp2040
(dp2041
g62
(dp2042
sg71
g2027
sg64
(lp2043
g57
(g58
g59
NtRp2044
(dp2045
g62
(dp2046
g70
I4
ssg71
g2040
sg64
(lp2047
S'True'
p2048
asbasbasbag57
(g73
g59
NtRp2049
(dp2050
g62
(dp2051
sg71
g1192
sg64
(lp2052
g57
(g78
g59
NtRp2053
(dp2054
g62
(dp2055
g82
g83
ssg71
g2049
sg64
(lp2056
S'wsgi_run_once'
p2057
asbag57
(g78
g59
NtRp2058
(dp2059
g62
(dp2060
g89
g90
ssg71
g2049
sg64
(lp2061
S':'
asbag57
(g78
g59
NtRp2062
(dp2063
g62
(dp2064
sg71
g2049
sg64
(lp2065
g57
(g58
g59
NtRp2066
(dp2067
g62
(dp2068
g70
I4
ssg71
g2062
sg64
(lp2069
g100
asbasbasbag57
(g73
g59
NtRp2070
(dp2071
g62
(dp2072
sg71
g1192
sg64
(lp2073
g57
(g78
g59
NtRp2074
(dp2075
g62
(dp2076
g82
g83
ssg71
g2070
sg64
(lp2077
S'wsgi_url_scheme'
p2078
asbag57
(g78
g59
NtRp2079
(dp2080
g62
(dp2081
g89
g90
ssg71
g2070
sg64
(lp2082
S':'
asbag57
(g78
g59
NtRp2083
(dp2084
g62
(dp2085
sg71
g2070
sg64
(lp2086
g57
(g58
g59
NtRp2087
(dp2088
g62
(dp2089
g70
I4
ssg71
g2083
sg64
(lp2090
S'http'
p2091
asbasbasbag57
(g73
g59
NtRp2092
(dp2093
g62
(dp2094
sg71
g1192
sg64
(lp2095
g57
(g78
g59
NtRp2096
(dp2097
g62
(dp2098
g82
g83
ssg71
g2092
sg64
(lp2099
S'wsgi_version'
p2100
asbag57
(g78
g59
NtRp2101
(dp2102
g62
(dp2103
g89
g90
ssg71
g2092
sg64
(lp2104
S':'
asbag57
(g78
g59
NtRp2105
(dp2106
g62
(dp2107
sg71
g2092
sg64
(lp2108
g57
(g58
g59
NtRp2109
(dp2110
g62
(dp2111
g70
I4
ssg71
g2105
sg64
(lp2112
g57
(g66
g59
NtRp2113
(dp2114
g62
(dp2115
g70
I3
ssg71
Nsg64
(lp2116
g57
(g73
g59
NtRp2117
(dp2118
g62
(dp2119
sg71
g2113
sg64
(lp2120
g57
(g78
g59
NtRp2121
(dp2122
g62
(dp2123
sg71
g2117
sg64
(lp2124
g57
(g58
g59
NtRp2125
(dp2126
g62
(dp2127
g70
I3
ssg71
g2121
sg64
(lp2128
S'1'
asbasbasbag57
(g73
g59
NtRp2129
(dp2130
g62
(dp2131
sg71
g2113
sg64
(lp2132
g57
(g78
g59
NtRp2133
(dp2134
g62
(dp2135
sg71
g2129
sg64
(lp2136
g57
(g58
g59
NtRp2137
(dp2138
g62
(dp2139
g70
I3
ssg71
g2133
sg64
(lp2140
S'0'
asbasbasbasbasbasbasbasbasbasbasbag57
(g73
g59
NtRp2141
(dp2142
g62
(dp2143
sg71
g67
sg64
(lp2144
g57
(g78
g59
NtRp2145
(dp2146
g62
(dp2147
g82
g83
ssg71
g2141
sg64
(lp2148
S'extension'
p2149
asbag57
(g78
g59
NtRp2150
(dp2151
g62
(dp2152
g89
g90
ssg71
g2141
sg64
(lp2153
S':'
asbag57
(g78
g59
NtRp2154
(dp2155
g62
(dp2156
sg71
g2141
sg64
(lp2157
g57
(g58
g59
NtRp2158
(dp2159
g62
(dp2160
g70
I5
ssg71
g2154
sg64
(lp2161
S'html'
p2162
asbasbasbag57
(g73
g59
NtRp2163
(dp2164
g62
(dp2165
sg71
g67
sg64
(lp2166
g57
(g78
g59
NtRp2167
(dp2168
g62
(dp2169
g82
g83
ssg71
g2163
sg64
(lp2170
S'folder'
p2171
asbag57
(g78
g59
NtRp2172
(dp2173
g62
(dp2174
g89
g90
ssg71
g2163
sg64
(lp2175
S':'
asbag57
(g78
g59
NtRp2176
(dp2177
g62
(dp2178
sg71
g2163
sg64
(lp2179
g57
(g58
g59
NtRp2180
(dp2181
g62
(dp2182
g70
I5
ssg71
g2176
sg64
(lp2183
S'/home/tls-sanjeet/Desktop/HRMS/web2py/applications/themishrms/'
p2184
asbasbasbag57
(g73
g59
NtRp2185
(dp2186
g62
(dp2187
sg71
g67
sg64
(lp2188
g57
(g78
g59
NtRp2189
(dp2190
g62
(dp2191
g82
g83
ssg71
g2185
sg64
(lp2192
S'function'
p2193
asbag57
(g78
g59
NtRp2194
(dp2195
g62
(dp2196
g89
g90
ssg71
g2185
sg64
(lp2197
S':'
asbag57
(g78
g59
NtRp2198
(dp2199
g62
(dp2200
sg71
g2185
sg64
(lp2201
g57
(g58
g59
NtRp2202
(dp2203
g62
(dp2204
g70
I5
ssg71
g2198
sg64
(lp2205
S'admin_newuser'
p2206
asbasbasbag57
(g73
g59
NtRp2207
(dp2208
g62
(dp2209
sg71
g67
sg64
(lp2210
g57
(g78
g59
NtRp2211
(dp2212
g62
(dp2213
g82
g83
ssg71
g2207
sg64
(lp2214
S'get_vars'
p2215
asbag57
(g78
g59
NtRp2216
(dp2217
g62
(dp2218
g89
g90
ssg71
g2207
sg64
(lp2219
S':'
asbag57
(g78
g59
NtRp2220
(dp2221
g62
(dp2222
sg71
g2207
sg64
(lp2223
g57
(g58
g59
NtRp2224
(dp2225
g62
(dp2226
g70
I5
ssg71
g2220
sg64
(lp2227
g57
(g66
g59
NtRp2228
(dp2229
g62
(dp2230
g70
I4
ssg71
Nsg64
(lp2231
sbasbasbasbag57
(g73
g59
NtRp2232
(dp2233
g62
(dp2234
sg71
g67
sg64
(lp2235
g57
(g78
g59
NtRp2236
(dp2237
g62
(dp2238
g82
g83
ssg71
g2232
sg64
(lp2239
S'global_settings'
p2240
asbag57
(g78
g59
NtRp2241
(dp2242
g62
(dp2243
g89
g90
ssg71
g2232
sg64
(lp2244
S':'
asbag57
(g78
g59
NtRp2245
(dp2246
g62
(dp2247
sg71
g2232
sg64
(lp2248
g57
(g58
g59
NtRp2249
(dp2250
g62
(dp2251
g70
I5
ssg71
g2245
sg64
(lp2252
g57
(g66
g59
NtRp2253
(dp2254
g62
(dp2255
g70
I4
ssg71
Nsg64
(lp2256
g57
(g73
g59
NtRp2257
(dp2258
g62
(dp2259
sg71
g2253
sg64
(lp2260
g57
(g78
g59
NtRp2261
(dp2262
g62
(dp2263
g82
g83
ssg71
g2257
sg64
(lp2264
g1204
asbag57
(g78
g59
NtRp2265
(dp2266
g62
(dp2267
g89
g90
ssg71
g2257
sg64
(lp2268
S':'
asbag57
(g78
g59
NtRp2269
(dp2270
g62
(dp2271
sg71
g2257
sg64
(lp2272
g57
(g58
g59
NtRp2273
(dp2274
g62
(dp2275
g70
I4
ssg71
g2269
sg64
(lp2276
S"set(['/home/tls-sanjeet/Desktop/HRMS/web2py/applications/themishrms/', '/home/tls-sanjeet/Desktop/HRMS/web2py/applications/welcome/', '/home/tls-sanjeet/Desktop/HRMS/web2py/applications/admin/'])"
p2277
asbasbasbag57
(g73
g59
NtRp2278
(dp2279
g62
(dp2280
sg71
g2253
sg64
(lp2281
g57
(g78
g59
NtRp2282
(dp2283
g62
(dp2284
g82
g83
ssg71
g2278
sg64
(lp2285
g1226
asbag57
(g78
g59
NtRp2286
(dp2287
g62
(dp2288
g89
g90
ssg71
g2278
sg64
(lp2289
S':'
asbag57
(g78
g59
NtRp2290
(dp2291
g62
(dp2292
sg71
g2278
sg64
(lp2293
g57
(g58
g59
NtRp2294
(dp2295
g62
(dp2296
g70
I4
ssg71
g2290
sg64
(lp2297
g1239
asbasbasbag57
(g73
g59
NtRp2298
(dp2299
g62
(dp2300
sg71
g2253
sg64
(lp2301
g57
(g78
g59
NtRp2302
(dp2303
g62
(dp2304
g82
g83
ssg71
g2298
sg64
(lp2305
g1248
asbag57
(g78
g59
NtRp2306
(dp2307
g62
(dp2308
g89
g90
ssg71
g2298
sg64
(lp2309
S':'
asbag57
(g78
g59
NtRp2310
(dp2311
g62
(dp2312
sg71
g2298
sg64
(lp2313
g57
(g58
g59
NtRp2314
(dp2315
g62
(dp2316
g70
I4
ssg71
g2310
sg64
(lp2317
g57
(g66
g59
NtRp2318
(dp2319
g62
(dp2320
g70
I3
ssg71
Nsg64
(lp2321
sbasbasbasbag57
(g73
g59
NtRp2322
(dp2323
g62
(dp2324
sg71
g2253
sg64
(lp2325
g57
(g78
g59
NtRp2326
(dp2327
g62
(dp2328
g82
g83
ssg71
g2322
sg64
(lp2329
g1273
asbag57
(g78
g59
NtRp2330
(dp2331
g62
(dp2332
g89
g90
ssg71
g2322
sg64
(lp2333
S':'
asbag57
(g78
g59
NtRp2334
(dp2335
g62
(dp2336
sg71
g2322
sg64
(lp2337
g57
(g58
g59
NtRp2338
(dp2339
g62
(dp2340
g70
I4
ssg71
g2334
sg64
(lp2341
S"<Values at 0x8ede5cc: {'verbose': False, 'ip': '127.0.0.1', 'shutdown_timeout': 5, 'taskbar': False, 'nocron': False, 'pid_filename': 'httpserver.pid', 'maxthreads': None, 'softcron': False, 'server_name': 'sanjeet-desktop', 'bpython': False, 'nogui': False, 'port': 8000, 'extcron': False, 'debuglevel': 30, 'test': None, 'folder': '/home/tls-sanjeet/Desktop/HRMS/web2py', 'config': '', 'import_models': False, 'winservice': '', 'shell': None, 'run': '', 'log_filename': 'httpserver.log', 'args': [''], 'socket_timeout': 5, 'ssl_ca_certificate': None, 'scheduler': None, 'profiler_filename': None, 'ssl_private_key': '', 'password': 'a', 'request_queue_size': 5, 'ssl_certificate': '', 'cronjob': False, 'numthreads': None, 'quiet': False, 'interfaces': None, 'minthreads': None, 'timeout': 10, 'plain': False, 'nobanner': False}>"
p2342
asbasbasbag57
(g73
g59
NtRp2343
(dp2344
g62
(dp2345
sg71
g2253
sg64
(lp2346
g57
(g78
g59
NtRp2347
(dp2348
g62
(dp2349
g82
g83
ssg71
g2343
sg64
(lp2350
g1295
asbag57
(g78
g59
NtRp2351
(dp2352
g62
(dp2353
g89
g90
ssg71
g2343
sg64
(lp2354
S':'
asbag57
(g78
g59
NtRp2355
(dp2356
g62
(dp2357
sg71
g2343
sg64
(lp2358
g57
(g58
g59
NtRp2359
(dp2360
g62
(dp2361
g70
I4
ssg71
g2355
sg64
(lp2362
S'set([])'
p2363
asbasbasbag57
(g73
g59
NtRp2364
(dp2365
g62
(dp2366
sg71
g2253
sg64
(lp2367
g57
(g78
g59
NtRp2368
(dp2369
g62
(dp2370
g82
g83
ssg71
g2364
sg64
(lp2371
g1317
asbag57
(g78
g59
NtRp2372
(dp2373
g62
(dp2374
g89
g90
ssg71
g2364
sg64
(lp2375
S':'
asbag57
(g78
g59
NtRp2376
(dp2377
g62
(dp2378
sg71
g2364
sg64
(lp2379
g57
(g58
g59
NtRp2380
(dp2381
g62
(dp2382
g70
I4
ssg71
g2376
sg64
(lp2383
g100
asbasbasbag57
(g73
g59
NtRp2384
(dp2385
g62
(dp2386
sg71
g2253
sg64
(lp2387
g57
(g78
g59
NtRp2388
(dp2389
g62
(dp2390
g82
g83
ssg71
g2384
sg64
(lp2391
g1338
asbag57
(g78
g59
NtRp2392
(dp2393
g62
(dp2394
g89
g90
ssg71
g2384
sg64
(lp2395
S':'
asbag57
(g78
g59
NtRp2396
(dp2397
g62
(dp2398
sg71
g2384
sg64
(lp2399
g57
(g58
g59
NtRp2400
(dp2401
g62
(dp2402
g70
I4
ssg71
g2396
sg64
(lp2403
g1351
asbasbasbag57
(g73
g59
NtRp2404
(dp2405
g62
(dp2406
sg71
g2253
sg64
(lp2407
g57
(g78
g59
NtRp2408
(dp2409
g62
(dp2410
g82
g83
ssg71
g2404
sg64
(lp2411
g1558
asbag57
(g78
g59
NtRp2412
(dp2413
g62
(dp2414
g89
g90
ssg71
g2404
sg64
(lp2415
S':'
asbag57
(g78
g59
NtRp2416
(dp2417
g62
(dp2418
sg71
g2404
sg64
(lp2419
g57
(g58
g59
NtRp2420
(dp2421
g62
(dp2422
g70
I4
ssg71
g2416
sg64
(lp2423
g100
asbasbasbag57
(g73
g59
NtRp2424
(dp2425
g62
(dp2426
sg71
g2253
sg64
(lp2427
g57
(g78
g59
NtRp2428
(dp2429
g62
(dp2430
g82
g83
ssg71
g2424
sg64
(lp2431
g1579
asbag57
(g78
g59
NtRp2432
(dp2433
g62
(dp2434
g89
g90
ssg71
g2424
sg64
(lp2435
S':'
asbag57
(g78
g59
NtRp2436
(dp2437
g62
(dp2438
sg71
g2424
sg64
(lp2439
g57
(g58
g59
NtRp2440
(dp2441
g62
(dp2442
g70
I4
ssg71
g2436
sg64
(lp2443
g100
asbasbasbag57
(g73
g59
NtRp2444
(dp2445
g62
(dp2446
sg71
g2253
sg64
(lp2447
g57
(g78
g59
NtRp2448
(dp2449
g62
(dp2450
g82
g83
ssg71
g2444
sg64
(lp2451
g1817
asbag57
(g78
g59
NtRp2452
(dp2453
g62
(dp2454
g89
g90
ssg71
g2444
sg64
(lp2455
S':'
asbag57
(g78
g59
NtRp2456
(dp2457
g62
(dp2458
sg71
g2444
sg64
(lp2459
g57
(g58
g59
NtRp2460
(dp2461
g62
(dp2462
g70
I4
ssg71
g2456
sg64
(lp2463
g1830
asbasbasbag57
(g73
g59
NtRp2464
(dp2465
g62
(dp2466
sg71
g2253
sg64
(lp2467
g57
(g78
g59
NtRp2468
(dp2469
g62
(dp2470
g82
g83
ssg71
g2464
sg64
(lp2471
g1860
asbag57
(g78
g59
NtRp2472
(dp2473
g62
(dp2474
g89
g90
ssg71
g2464
sg64
(lp2475
S':'
asbag57
(g78
g59
NtRp2476
(dp2477
g62
(dp2478
sg71
g2464
sg64
(lp2479
g57
(g58
g59
NtRp2480
(dp2481
g62
(dp2482
g70
I4
ssg71
g2476
sg64
(lp2483
g57
(g66
g59
NtRp2484
(dp2485
g62
(dp2486
g70
I3
ssg71
Nsg64
(lp2487
g57
(g73
g59
NtRp2488
(dp2489
g62
(dp2490
sg71
g2484
sg64
(lp2491
g57
(g78
g59
NtRp2492
(dp2493
g62
(dp2494
sg71
g2488
sg64
(lp2495
g57
(g58
g59
NtRp2496
(dp2497
g62
(dp2498
g70
I3
ssg71
g2492
sg64
(lp2499
S'1'
asbasbasbag57
(g73
g59
NtRp2500
(dp2501
g62
(dp2502
sg71
g2484
sg64
(lp2503
g57
(g78
g59
NtRp2504
(dp2505
g62
(dp2506
sg71
g2500
sg64
(lp2507
g57
(g58
g59
NtRp2508
(dp2509
g62
(dp2510
g70
I3
ssg71
g2504
sg64
(lp2511
S'99'
p2512
asbasbasbag57
(g73
g59
NtRp2513
(dp2514
g62
(dp2515
sg71
g2484
sg64
(lp2516
g57
(g78
g59
NtRp2517
(dp2518
g62
(dp2519
sg71
g2513
sg64
(lp2520
g57
(g58
g59
NtRp2521
(dp2522
g62
(dp2523
g70
I3
ssg71
g2517
sg64
(lp2524
S'7'
asbasbasbag57
(g73
g59
NtRp2525
(dp2526
g62
(dp2527
sg71
g2484
sg64
(lp2528
g57
(g78
g59
NtRp2529
(dp2530
g62
(dp2531
sg71
g2525
sg64
(lp2532
g57
(g58
g59
NtRp2533
(dp2534
g62
(dp2535
g70
I3
ssg71
g2529
sg64
(lp2536
S'datetime.datetime(2012, 3, 4, 22, 12, 8)'
p2537
asbasbasbag57
(g73
g59
NtRp2538
(dp2539
g62
(dp2540
sg71
g2484
sg64
(lp2541
g57
(g78
g59
NtRp2542
(dp2543
g62
(dp2544
sg71
g2538
sg64
(lp2545
g57
(g58
g59
NtRp2546
(dp2547
g62
(dp2548
g70
I3
ssg71
g2542
sg64
(lp2549
g1939
asbasbasbasbasbasbasbasbasbasbasbag57
(g73
g59
NtRp2550
(dp2551
g62
(dp2552
sg71
g67
sg64
(lp2553
g57
(g78
g59
NtRp2554
(dp2555
g62
(dp2556
g82
g83
ssg71
g2550
sg64
(lp2557
S'is_https'
p2558
asbag57
(g78
g59
NtRp2559
(dp2560
g62
(dp2561
g89
g90
ssg71
g2550
sg64
(lp2562
S':'
asbag57
(g78
g59
NtRp2563
(dp2564
g62
(dp2565
sg71
g2550
sg64
(lp2566
g57
(g58
g59
NtRp2567
(dp2568
g62
(dp2569
g70
I5
ssg71
g2563
sg64
(lp2570
g100
asbasbasbag57
(g73
g59
NtRp2571
(dp2572
g62
(dp2573
sg71
g67
sg64
(lp2574
g57
(g78
g59
NtRp2575
(dp2576
g62
(dp2577
g82
g83
ssg71
g2571
sg64
(lp2578
S'is_local'
p2579
asbag57
(g78
g59
NtRp2580
(dp2581
g62
(dp2582
g89
g90
ssg71
g2571
sg64
(lp2583
S':'
asbag57
(g78
g59
NtRp2584
(dp2585
g62
(dp2586
sg71
g2571
sg64
(lp2587
g57
(g58
g59
NtRp2588
(dp2589
g62
(dp2590
g70
I5
ssg71
g2584
sg64
(lp2591
g2048
asbasbasbag57
(g73
g59
NtRp2592
(dp2593
g62
(dp2594
sg71
g67
sg64
(lp2595
g57
(g78
g59
NtRp2596
(dp2597
g62
(dp2598
g82
g83
ssg71
g2592
sg64
(lp2599
S'is_restful'
p2600
asbag57
(g78
g59
NtRp2601
(dp2602
g62
(dp2603
g89
g90
ssg71
g2592
sg64
(lp2604
S':'
asbag57
(g78
g59
NtRp2605
(dp2606
g62
(dp2607
sg71
g2592
sg64
(lp2608
g57
(g58
g59
NtRp2609
(dp2610
g62
(dp2611
g70
I5
ssg71
g2605
sg64
(lp2612
g100
asbasbasbag57
(g73
g59
NtRp2613
(dp2614
g62
(dp2615
sg71
g67
sg64
(lp2616
g57
(g78
g59
NtRp2617
(dp2618
g62
(dp2619
g82
g83
ssg71
g2613
sg64
(lp2620
S'now'
p2621
asbag57
(g78
g59
NtRp2622
(dp2623
g62
(dp2624
g89
g90
ssg71
g2613
sg64
(lp2625
S':'
asbag57
(g78
g59
NtRp2626
(dp2627
g62
(dp2628
sg71
g2613
sg64
(lp2629
g57
(g58
g59
NtRp2630
(dp2631
g62
(dp2632
g70
I5
ssg71
g2626
sg64
(lp2633
S'datetime.datetime(2012, 5, 5, 12, 44, 26, 426934)'
p2634
asbasbasbag57
(g73
g59
NtRp2635
(dp2636
g62
(dp2637
sg71
g67
sg64
(lp2638
g57
(g78
g59
NtRp2639
(dp2640
g62
(dp2641
g82
g83
ssg71
g2635
sg64
(lp2642
S'post_vars'
p2643
asbag57
(g78
g59
NtRp2644
(dp2645
g62
(dp2646
g89
g90
ssg71
g2635
sg64
(lp2647
S':'
asbag57
(g78
g59
NtRp2648
(dp2649
g62
(dp2650
sg71
g2635
sg64
(lp2651
g57
(g58
g59
NtRp2652
(dp2653
g62
(dp2654
g70
I5
ssg71
g2648
sg64
(lp2655
g57
(g66
g59
NtRp2656
(dp2657
g62
(dp2658
g70
I4
ssg71
Nsg64
(lp2659
sbasbasbasbag57
(g73
g59
NtRp2660
(dp2661
g62
(dp2662
sg71
g67
sg64
(lp2663
g57
(g78
g59
NtRp2664
(dp2665
g62
(dp2666
g82
g83
ssg71
g2660
sg64
(lp2667
S'url'
p2668
asbag57
(g78
g59
NtRp2669
(dp2670
g62
(dp2671
g89
g90
ssg71
g2660
sg64
(lp2672
S':'
asbag57
(g78
g59
NtRp2673
(dp2674
g62
(dp2675
sg71
g2660
sg64
(lp2676
g57
(g58
g59
NtRp2677
(dp2678
g62
(dp2679
g70
I5
ssg71
g2673
sg64
(lp2680
S'/themishrms/default/admin_newuser'
p2681
asbasbasbag57
(g73
g59
NtRp2682
(dp2683
g62
(dp2684
sg71
g67
sg64
(lp2685
g57
(g78
g59
NtRp2686
(dp2687
g62
(dp2688
g82
g83
ssg71
g2682
sg64
(lp2689
S'utcnow'
p2690
asbag57
(g78
g59
NtRp2691
(dp2692
g62
(dp2693
g89
g90
ssg71
g2682
sg64
(lp2694
S':'
asbag57
(g78
g59
NtRp2695
(dp2696
g62
(dp2697
sg71
g2682
sg64
(lp2698
g57
(g58
g59
NtRp2699
(dp2700
g62
(dp2701
g70
I5
ssg71
g2695
sg64
(lp2702
S'datetime.datetime(2012, 5, 5, 7, 14, 26, 426963)'
p2703
asbasbasbag57
(g73
g59
NtRp2704
(dp2705
g62
(dp2706
sg71
g67
sg64
(lp2707
g57
(g78
g59
NtRp2708
(dp2709
g62
(dp2710
g82
g83
ssg71
g2704
sg64
(lp2711
S'uuid'
p2712
asbag57
(g78
g59
NtRp2713
(dp2714
g62
(dp2715
g89
g90
ssg71
g2704
sg64
(lp2716
S':'
asbag57
(g78
g59
NtRp2717
(dp2718
g62
(dp2719
sg71
g2704
sg64
(lp2720
g57
(g58
g59
NtRp2721
(dp2722
g62
(dp2723
g70
I5
ssg71
g2717
sg64
(lp2724
S'themishrms/127.0.0.1.2012-05-05.12-44-26.466d16e5-685d-41e5-94af-fc22c40c3020'
p2725
asbasbasbag57
(g73
g59
NtRp2726
(dp2727
g62
(dp2728
sg71
g67
sg64
(lp2729
g57
(g78
g59
NtRp2730
(dp2731
g62
(dp2732
g82
g83
ssg71
g2726
sg64
(lp2733
S'vars'
p2734
asbag57
(g78
g59
NtRp2735
(dp2736
g62
(dp2737
g89
g90
ssg71
g2726
sg64
(lp2738
S':'
asbag57
(g78
g59
NtRp2739
(dp2740
g62
(dp2741
sg71
g2726
sg64
(lp2742
g57
(g58
g59
NtRp2743
(dp2744
g62
(dp2745
g70
I5
ssg71
g2739
sg64
(lp2746
g57
(g66
g59
NtRp2747
(dp2748
g62
(dp2749
g70
I4
ssg71
Nsg64
(lp2750
g57
(g73
g59
NtRp2751
(dp2752
g62
(dp2753
sg71
g2747
sg64
(lp2754
g57
(g78
g59
NtRp2755
(dp2756
g62
(dp2757
g82
g83
ssg71
g2751
sg64
(lp2758
S'records'
p2759
asbag57
(g78
g59
NtRp2760
(dp2761
g62
(dp2762
g89
g90
ssg71
g2751
sg64
(lp2763
S':'
asbag57
(g78
g59
NtRp2764
(dp2765
g62
(dp2766
sg71
g2751
sg64
(lp2767
g57
(g58
g59
NtRp2768
(dp2769
g62
(dp2770
g70
I4
ssg71
g2764
sg64
(lp2771
g57
(g66
g59
NtRp2772
(dp2773
g62
(dp2774
g70
I3
ssg71
Nsg64
(lp2775
sbasbasbasbasbasbasbasbag57
(g73
g59
NtRp2776
(dp2777
g62
(dp2778
sg71
g67
sg64
(lp2779
g57
(g78
g59
NtRp2780
(dp2781
g62
(dp2782
g82
g83
ssg71
g2776
sg64
(lp2783
S'wsgi'
p2784
asbag57
(g78
g59
NtRp2785
(dp2786
g62
(dp2787
g89
g90
ssg71
g2776
sg64
(lp2788
S':'
asbag57
(g78
g59
NtRp2789
(dp2790
g62
(dp2791
sg71
g2776
sg64
(lp2792
g57
(g58
g59
NtRp2793
(dp2794
g62
(dp2795
g70
I5
ssg71
g2789
sg64
(lp2796
g57
(g66
g59
NtRp2797
(dp2798
g62
(dp2799
g70
I4
ssg71
Nsg64
(lp2800
g57
(g73
g59
NtRp2801
(dp2802
g62
(dp2803
sg71
g2797
sg64
(lp2804
g57
(g78
g59
NtRp2805
(dp2806
g62
(dp2807
g82
g83
ssg71
g2801
sg64
(lp2808
S'environ'
p2809
asbag57
(g78
g59
NtRp2810
(dp2811
g62
(dp2812
g89
g90
ssg71
g2801
sg64
(lp2813
S':'
asbag57
(g78
g59
NtRp2814
(dp2815
g62
(dp2816
sg71
g2801
sg64
(lp2817
g57
(g58
g59
NtRp2818
(dp2819
g62
(dp2820
g70
I4
ssg71
g2814
sg64
(lp2821
g57
(g66
g59
NtRp2822
(dp2823
g62
(dp2824
g70
I3
ssg71
Nsg64
(lp2825
g57
(g73
g59
NtRp2826
(dp2827
g62
(dp2828
sg71
g2822
sg64
(lp2829
g57
(g78
g59
NtRp2830
(dp2831
g62
(dp2832
g82
g83
ssg71
g2826
sg64
(lp2833
S'HTTP_ACCEPT'
p2834
asbag57
(g78
g59
NtRp2835
(dp2836
g62
(dp2837
g89
g90
ssg71
g2826
sg64
(lp2838
S':'
asbag57
(g78
g59
NtRp2839
(dp2840
g62
(dp2841
sg71
g2826
sg64
(lp2842
g57
(g58
g59
NtRp2843
(dp2844
g62
(dp2845
g70
I3
ssg71
g2839
sg64
(lp2846
g1373
asbasbasbag57
(g73
g59
NtRp2847
(dp2848
g62
(dp2849
sg71
g2822
sg64
(lp2850
g57
(g78
g59
NtRp2851
(dp2852
g62
(dp2853
g82
g83
ssg71
g2847
sg64
(lp2854
S'HTTP_ACCEPT_CHARSET'
p2855
asbag57
(g78
g59
NtRp2856
(dp2857
g62
(dp2858
g89
g90
ssg71
g2847
sg64
(lp2859
S':'
asbag57
(g78
g59
NtRp2860
(dp2861
g62
(dp2862
sg71
g2847
sg64
(lp2863
g57
(g58
g59
NtRp2864
(dp2865
g62
(dp2866
g70
I3
ssg71
g2860
sg64
(lp2867
g1395
asbasbasbag57
(g73
g59
NtRp2868
(dp2869
g62
(dp2870
sg71
g2822
sg64
(lp2871
g57
(g78
g59
NtRp2872
(dp2873
g62
(dp2874
g82
g83
ssg71
g2868
sg64
(lp2875
S'HTTP_ACCEPT_ENCODING'
p2876
asbag57
(g78
g59
NtRp2877
(dp2878
g62
(dp2879
g89
g90
ssg71
g2868
sg64
(lp2880
S':'
asbag57
(g78
g59
NtRp2881
(dp2882
g62
(dp2883
sg71
g2868
sg64
(lp2884
g57
(g58
g59
NtRp2885
(dp2886
g62
(dp2887
g70
I3
ssg71
g2881
sg64
(lp2888
g1417
asbasbasbag57
(g73
g59
NtRp2889
(dp2890
g62
(dp2891
sg71
g2822
sg64
(lp2892
g57
(g78
g59
NtRp2893
(dp2894
g62
(dp2895
g82
g83
ssg71
g2889
sg64
(lp2896
S'HTTP_ACCEPT_LANGUAGE'
p2897
asbag57
(g78
g59
NtRp2898
(dp2899
g62
(dp2900
g89
g90
ssg71
g2889
sg64
(lp2901
S':'
asbag57
(g78
g59
NtRp2902
(dp2903
g62
(dp2904
sg71
g2889
sg64
(lp2905
g57
(g58
g59
NtRp2906
(dp2907
g62
(dp2908
g70
I3
ssg71
g2902
sg64
(lp2909
g1439
asbasbasbag57
(g73
g59
NtRp2910
(dp2911
g62
(dp2912
sg71
g2822
sg64
(lp2913
g57
(g78
g59
NtRp2914
(dp2915
g62
(dp2916
g82
g83
ssg71
g2910
sg64
(lp2917
S'HTTP_CONNECTION'
p2918
asbag57
(g78
g59
NtRp2919
(dp2920
g62
(dp2921
g89
g90
ssg71
g2910
sg64
(lp2922
S':'
asbag57
(g78
g59
NtRp2923
(dp2924
g62
(dp2925
sg71
g2910
sg64
(lp2926
g57
(g58
g59
NtRp2927
(dp2928
g62
(dp2929
g70
I3
ssg71
g2923
sg64
(lp2930
g1461
asbasbasbag57
(g73
g59
NtRp2931
(dp2932
g62
(dp2933
sg71
g2822
sg64
(lp2934
g57
(g78
g59
NtRp2935
(dp2936
g62
(dp2937
g82
g83
ssg71
g2931
sg64
(lp2938
S'HTTP_COOKIE'
p2939
asbag57
(g78
g59
NtRp2940
(dp2941
g62
(dp2942
g89
g90
ssg71
g2931
sg64
(lp2943
S':'
asbag57
(g78
g59
NtRp2944
(dp2945
g62
(dp2946
sg71
g2931
sg64
(lp2947
g57
(g58
g59
NtRp2948
(dp2949
g62
(dp2950
g70
I3
ssg71
g2944
sg64
(lp2951
g1483
asbasbasbag57
(g73
g59
NtRp2952
(dp2953
g62
(dp2954
sg71
g2822
sg64
(lp2955
g57
(g78
g59
NtRp2956
(dp2957
g62
(dp2958
g82
g83
ssg71
g2952
sg64
(lp2959
S'HTTP_HOST'
p2960
asbag57
(g78
g59
NtRp2961
(dp2962
g62
(dp2963
g89
g90
ssg71
g2952
sg64
(lp2964
S':'
asbag57
(g78
g59
NtRp2965
(dp2966
g62
(dp2967
sg71
g2952
sg64
(lp2968
g57
(g58
g59
NtRp2969
(dp2970
g62
(dp2971
g70
I3
ssg71
g2965
sg64
(lp2972
g1505
asbasbasbag57
(g73
g59
NtRp2973
(dp2974
g62
(dp2975
sg71
g2822
sg64
(lp2976
g57
(g78
g59
NtRp2977
(dp2978
g62
(dp2979
g82
g83
ssg71
g2973
sg64
(lp2980
S'HTTP_REFERER'
p2981
asbag57
(g78
g59
NtRp2982
(dp2983
g62
(dp2984
g89
g90
ssg71
g2973
sg64
(lp2985
S':'
asbag57
(g78
g59
NtRp2986
(dp2987
g62
(dp2988
sg71
g2973
sg64
(lp2989
g57
(g58
g59
NtRp2990
(dp2991
g62
(dp2992
g70
I3
ssg71
g2986
sg64
(lp2993
g1527
asbasbasbag57
(g73
g59
NtRp2994
(dp2995
g62
(dp2996
sg71
g2822
sg64
(lp2997
g57
(g78
g59
NtRp2998
(dp2999
g62
(dp3000
g82
g83
ssg71
g2994
sg64
(lp3001
S'HTTP_USER_AGENT'
p3002
asbag57
(g78
g59
NtRp3003
(dp3004
g62
(dp3005
g89
g90
ssg71
g2994
sg64
(lp3006
S':'
asbag57
(g78
g59
NtRp3007
(dp3008
g62
(dp3009
sg71
g2994
sg64
(lp3010
g57
(g58
g59
NtRp3011
(dp3012
g62
(dp3013
g70
I3
ssg71
g3007
sg64
(lp3014
g1549
asbasbasbag57
(g73
g59
NtRp3015
(dp3016
g62
(dp3017
sg71
g2822
sg64
(lp3018
g57
(g78
g59
NtRp3019
(dp3020
g62
(dp3021
g82
g83
ssg71
g3015
sg64
(lp3022
S'PATH_INFO'
p3023
asbag57
(g78
g59
NtRp3024
(dp3025
g62
(dp3026
g89
g90
ssg71
g3015
sg64
(lp3027
S':'
asbag57
(g78
g59
NtRp3028
(dp3029
g62
(dp3030
sg71
g3015
sg64
(lp3031
g57
(g58
g59
NtRp3032
(dp3033
g62
(dp3034
g70
I3
ssg71
g3028
sg64
(lp3035
g1613
asbasbasbag57
(g73
g59
NtRp3036
(dp3037
g62
(dp3038
sg71
g2822
sg64
(lp3039
g57
(g78
g59
NtRp3040
(dp3041
g62
(dp3042
g82
g83
ssg71
g3036
sg64
(lp3043
S'QUERY_STRING'
p3044
asbag57
(g78
g59
NtRp3045
(dp3046
g62
(dp3047
g89
g90
ssg71
g3036
sg64
(lp3048
S':'
asbag57
(g78
g59
NtRp3049
(dp3050
g62
(dp3051
sg71
g3036
sg64
(lp3052
g57
(g58
g59
NtRp3053
(dp3054
g62
(dp3055
g70
I3
ssg71
g3049
sg64
(lp3056
S''
asbasbasbag57
(g73
g59
NtRp3057
(dp3058
g62
(dp3059
sg71
g2822
sg64
(lp3060
g57
(g78
g59
NtRp3061
(dp3062
g62
(dp3063
g82
g83
ssg71
g3057
sg64
(lp3064
S'REMOTE_ADDR'
p3065
asbag57
(g78
g59
NtRp3066
(dp3067
g62
(dp3068
g89
g90
ssg71
g3057
sg64
(lp3069
S':'
asbag57
(g78
g59
NtRp3070
(dp3071
g62
(dp3072
sg71
g3057
sg64
(lp3073
g57
(g58
g59
NtRp3074
(dp3075
g62
(dp3076
g70
I3
ssg71
g3070
sg64
(lp3077
g190
asbasbasbag57
(g73
g59
NtRp3078
(dp3079
g62
(dp3080
sg71
g2822
sg64
(lp3081
g57
(g78
g59
NtRp3082
(dp3083
g62
(dp3084
g82
g83
ssg71
g3078
sg64
(lp3085
S'REMOTE_PORT'
p3086
asbag57
(g78
g59
NtRp3087
(dp3088
g62
(dp3089
g89
g90
ssg71
g3078
sg64
(lp3090
S':'
asbag57
(g78
g59
NtRp3091
(dp3092
g62
(dp3093
sg71
g3078
sg64
(lp3094
g57
(g58
g59
NtRp3095
(dp3096
g62
(dp3097
g70
I3
ssg71
g3091
sg64
(lp3098
g1677
asbasbasbag57
(g73
g59
NtRp3099
(dp3100
g62
(dp3101
sg71
g2822
sg64
(lp3102
g57
(g78
g59
NtRp3103
(dp3104
g62
(dp3105
g82
g83
ssg71
g3099
sg64
(lp3106
S'REQUEST_METHOD'
p3107
asbag57
(g78
g59
NtRp3108
(dp3109
g62
(dp3110
g89
g90
ssg71
g3099
sg64
(lp3111
S':'
asbag57
(g78
g59
NtRp3112
(dp3113
g62
(dp3114
sg71
g3099
sg64
(lp3115
g57
(g58
g59
NtRp3116
(dp3117
g62
(dp3118
g70
I3
ssg71
g3112
sg64
(lp3119
g1699
asbasbasbag57
(g73
g59
NtRp3120
(dp3121
g62
(dp3122
sg71
g2822
sg64
(lp3123
g57
(g78
g59
NtRp3124
(dp3125
g62
(dp3126
g82
g83
ssg71
g3120
sg64
(lp3127
S'SCRIPT_NAME'
p3128
asbag57
(g78
g59
NtRp3129
(dp3130
g62
(dp3131
g89
g90
ssg71
g3120
sg64
(lp3132
S':'
asbag57
(g78
g59
NtRp3133
(dp3134
g62
(dp3135
sg71
g3120
sg64
(lp3136
g57
(g58
g59
NtRp3137
(dp3138
g62
(dp3139
g70
I3
ssg71
g3133
sg64
(lp3140
S''
asbasbasbag57
(g73
g59
NtRp3141
(dp3142
g62
(dp3143
sg71
g2822
sg64
(lp3144
g57
(g78
g59
NtRp3145
(dp3146
g62
(dp3147
g82
g83
ssg71
g3141
sg64
(lp3148
S'SERVER_NAME'
p3149
asbag57
(g78
g59
NtRp3150
(dp3151
g62
(dp3152
g89
g90
ssg71
g3141
sg64
(lp3153
S':'
asbag57
(g78
g59
NtRp3154
(dp3155
g62
(dp3156
sg71
g3141
sg64
(lp3157
g57
(g58
g59
NtRp3158
(dp3159
g62
(dp3160
g70
I3
ssg71
g3154
sg64
(lp3161
g1742
asbasbasbag57
(g73
g59
NtRp3162
(dp3163
g62
(dp3164
sg71
g2822
sg64
(lp3165
g57
(g78
g59
NtRp3166
(dp3167
g62
(dp3168
g82
g83
ssg71
g3162
sg64
(lp3169
S'SERVER_PORT'
p3170
asbag57
(g78
g59
NtRp3171
(dp3172
g62
(dp3173
g89
g90
ssg71
g3162
sg64
(lp3174
S':'
asbag57
(g78
g59
NtRp3175
(dp3176
g62
(dp3177
sg71
g3162
sg64
(lp3178
g57
(g58
g59
NtRp3179
(dp3180
g62
(dp3181
g70
I3
ssg71
g3175
sg64
(lp3182
g1764
asbasbasbag57
(g73
g59
NtRp3183
(dp3184
g62
(dp3185
sg71
g2822
sg64
(lp3186
g57
(g78
g59
NtRp3187
(dp3188
g62
(dp3189
g82
g83
ssg71
g3183
sg64
(lp3190
S'SERVER_PROTOCOL'
p3191
asbag57
(g78
g59
NtRp3192
(dp3193
g62
(dp3194
g89
g90
ssg71
g3183
sg64
(lp3195
S':'
asbag57
(g78
g59
NtRp3196
(dp3197
g62
(dp3198
sg71
g3183
sg64
(lp3199
g57
(g58
g59
NtRp3200
(dp3201
g62
(dp3202
g70
I3
ssg71
g3196
sg64
(lp3203
g1786
asbasbasbag57
(g73
g59
NtRp3204
(dp3205
g62
(dp3206
sg71
g2822
sg64
(lp3207
g57
(g78
g59
NtRp3208
(dp3209
g62
(dp3210
g82
g83
ssg71
g3204
sg64
(lp3211
S'SERVER_SOFTWARE'
p3212
asbag57
(g78
g59
NtRp3213
(dp3214
g62
(dp3215
g89
g90
ssg71
g3204
sg64
(lp3216
S':'
asbag57
(g78
g59
NtRp3217
(dp3218
g62
(dp3219
sg71
g3204
sg64
(lp3220
g57
(g58
g59
NtRp3221
(dp3222
g62
(dp3223
g70
I3
ssg71
g3217
sg64
(lp3224
g1808
asbasbasbag57
(g73
g59
NtRp3225
(dp3226
g62
(dp3227
sg71
g2822
sg64
(lp3228
g57
(g78
g59
NtRp3229
(dp3230
g62
(dp3231
g82
g83
ssg71
g3225
sg64
(lp3232
S'wsgi.errors'
p3233
asbag57
(g78
g59
NtRp3234
(dp3235
g62
(dp3236
g89
g90
ssg71
g3225
sg64
(lp3237
S':'
asbag57
(g78
g59
NtRp3238
(dp3239
g62
(dp3240
sg71
g3225
sg64
(lp3241
g57
(g58
g59
NtRp3242
(dp3243
g62
(dp3244
g70
I3
ssg71
g3238
sg64
(lp3245
S"<open file '<stderr>', mode 'w' at 0xb744e0d0>"
p3246
asbasbasbag57
(g73
g59
NtRp3247
(dp3248
g62
(dp3249
sg71
g2822
sg64
(lp3250
g57
(g78
g59
NtRp3251
(dp3252
g62
(dp3253
g82
g83
ssg71
g3247
sg64
(lp3254
S'wsgi.file_wrapper'
p3255
asbag57
(g78
g59
NtRp3256
(dp3257
g62
(dp3258
g89
g90
ssg71
g3247
sg64
(lp3259
S':'
asbag57
(g78
g59
NtRp3260
(dp3261
g62
(dp3262
sg71
g3247
sg64
(lp3263
g57
(g58
g59
NtRp3264
(dp3265
g62
(dp3266
g70
I3
ssg71
g3260
sg64
(lp3267
S'<class wsgiref.util.FileWrapper at 0x8eabaac>'
p3268
asbasbasbag57
(g73
g59
NtRp3269
(dp3270
g62
(dp3271
sg71
g2822
sg64
(lp3272
g57
(g78
g59
NtRp3273
(dp3274
g62
(dp3275
g82
g83
ssg71
g3269
sg64
(lp3276
S'wsgi.input'
p3277
asbag57
(g78
g59
NtRp3278
(dp3279
g62
(dp3280
g89
g90
ssg71
g3269
sg64
(lp3281
S':'
asbag57
(g78
g59
NtRp3282
(dp3283
g62
(dp3284
sg71
g3269
sg64
(lp3285
g57
(g58
g59
NtRp3286
(dp3287
g62
(dp3288
g70
I3
ssg71
g3282
sg64
(lp3289
S'<cStringIO.StringO object at 0x9473cc0>'
p3290
asbasbasbag57
(g73
g59
NtRp3291
(dp3292
g62
(dp3293
sg71
g2822
sg64
(lp3294
g57
(g78
g59
NtRp3295
(dp3296
g62
(dp3297
g82
g83
ssg71
g3291
sg64
(lp3298
S'wsgi.multiprocess'
p3299
asbag57
(g78
g59
NtRp3300
(dp3301
g62
(dp3302
g89
g90
ssg71
g3291
sg64
(lp3303
S':'
asbag57
(g78
g59
NtRp3304
(dp3305
g62
(dp3306
sg71
g3291
sg64
(lp3307
g57
(g58
g59
NtRp3308
(dp3309
g62
(dp3310
g70
I3
ssg71
g3304
sg64
(lp3311
g100
asbasbasbag57
(g73
g59
NtRp3312
(dp3313
g62
(dp3314
sg71
g2822
sg64
(lp3315
g57
(g78
g59
NtRp3316
(dp3317
g62
(dp3318
g82
g83
ssg71
g3312
sg64
(lp3319
S'wsgi.multithread'
p3320
asbag57
(g78
g59
NtRp3321
(dp3322
g62
(dp3323
g89
g90
ssg71
g3312
sg64
(lp3324
S':'
asbag57
(g78
g59
NtRp3325
(dp3326
g62
(dp3327
sg71
g3312
sg64
(lp3328
g57
(g58
g59
NtRp3329
(dp3330
g62
(dp3331
g70
I3
ssg71
g3325
sg64
(lp3332
g2048
asbasbasbag57
(g73
g59
NtRp3333
(dp3334
g62
(dp3335
sg71
g2822
sg64
(lp3336
g57
(g78
g59
NtRp3337
(dp3338
g62
(dp3339
g82
g83
ssg71
g3333
sg64
(lp3340
S'wsgi.run_once'
p3341
asbag57
(g78
g59
NtRp3342
(dp3343
g62
(dp3344
g89
g90
ssg71
g3333
sg64
(lp3345
S':'
asbag57
(g78
g59
NtRp3346
(dp3347
g62
(dp3348
sg71
g3333
sg64
(lp3349
g57
(g58
g59
NtRp3350
(dp3351
g62
(dp3352
g70
I3
ssg71
g3346
sg64
(lp3353
g100
asbasbasbag57
(g73
g59
NtRp3354
(dp3355
g62
(dp3356
sg71
g2822
sg64
(lp3357
g57
(g78
g59
NtRp3358
(dp3359
g62
(dp3360
g82
g83
ssg71
g3354
sg64
(lp3361
S'wsgi.url_scheme'
p3362
asbag57
(g78
g59
NtRp3363
(dp3364
g62
(dp3365
g89
g90
ssg71
g3354
sg64
(lp3366
S':'
asbag57
(g78
g59
NtRp3367
(dp3368
g62
(dp3369
sg71
g3354
sg64
(lp3370
g57
(g58
g59
NtRp3371
(dp3372
g62
(dp3373
g70
I3
ssg71
g3367
sg64
(lp3374
g2091
asbasbasbag57
(g73
g59
NtRp3375
(dp3376
g62
(dp3377
sg71
g2822
sg64
(lp3378
g57
(g78
g59
NtRp3379
(dp3380
g62
(dp3381
g82
g83
ssg71
g3375
sg64
(lp3382
S'wsgi.version'
p3383
asbag57
(g78
g59
NtRp3384
(dp3385
g62
(dp3386
g89
g90
ssg71
g3375
sg64
(lp3387
S':'
asbag57
(g78
g59
NtRp3388
(dp3389
g62
(dp3390
sg71
g3375
sg64
(lp3391
g57
(g58
g59
NtRp3392
(dp3393
g62
(dp3394
g70
I3
ssg71
g3388
sg64
(lp3395
S'1'
asbasbasbasbasbasbasbasbasbasbasbasbasbsS'frames'
p3396
(lp3397
(dp3398
S'file'
p3399
S'/home/tls-sanjeet/Desktop/HRMS/web2py/gluon/restricted.py'
p3400
sS'dump'
p3401
(dp3402
S'environment'
p3403
S"{'A': <class 'gluon.html.A'>, 'Auth': <class 'gluon.tools.Auth'>, 'B': <class 'gluon.html.B'>, 'BEAUTIFY': <class 'gluon.html.BEAUTIFY'>, 'BODY': <class 'gluon.html.BODY'>, 'BR': <class 'gluon.html.BR'>, 'BUTTON': <class 'gluon.html.BUTTON'>, 'CAT': <class 'gluon.html.CAT'>, 'CENTER': <class 'gluon.html.CENTER'>, 'CLEANUP': <class 'gluon.validators.CLEANUP'>, ...}"
p3404
sS'ccode'
p3405
S'<code object <module> at 0x9721068, file "/home/...ions/themishrms/controllers/default.py", line 12>'
p3406
ssS'lnum'
p3407
I205
sS'lines'
p3408
(dp3409
I200
S'    try:'
p3410
sI201
S'        if type(code) == types.CodeType:'
p3411
sI202
S'            ccode = code'
p3412
sI203
S'        else:'
p3413
sI204
S'            ccode = compile2(code,layer)'
p3414
sI205
S'        exec ccode in environment'
p3415
sI206
S'    except HTTP:'
p3416
sI207
S'        raise'
p3417
sI208
S'    except RestrictedError:'
p3418
sI209
S'        # do not encapsulate (obfuscate) the original RestrictedError'
p3419
ssS'call'
p3420
S"(code='# -*- coding: utf-8 -*-\\n# this file is released ...\\n\\nresponse._vars=response._caller(admin_newuser)\\n', environment={'A': <class 'gluon.html.A'>, 'Auth': <class 'gluon.tools.Auth'>, 'B': <class 'gluon.html.B'>, 'BEAUTIFY': <class 'gluon.html.BEAUTIFY'>, 'BODY': <class 'gluon.html.BODY'>, 'BR': <class 'gluon.html.BR'>, 'BUTTON': <class 'gluon.html.BUTTON'>, 'CAT': <class 'gluon.html.CAT'>, 'CENTER': <class 'gluon.html.CENTER'>, 'CLEANUP': <class 'gluon.validators.CLEANUP'>, ...}, layer='/home/tls-sanjeet/Desktop/HRMS/web2py/applications/themishrms/controllers/default.py')"
p3421
sS'func'
p3422
S'restricted'
p3423
sa(dp3424
g3399
S'/home/tls-sanjeet/Desktop/HRMS/web2py/applications/themishrms/controllers/default.py'
p3425
sg3401
(dp3426
sg3407
I1370
sg3408
(dp3427
I1359
S"@auth.requires_permission('Emp', 'auth_user')"
p3428
sI1360
S'def adata():'
p3429
sI1361
S'\timport datetime'
p3430
sI1362
S'\tdte=datetime.date.today()'
p3431
sI1363
S'\tpro=request.vars.proname'
p3432
sI1364
S'\tptask=request.vars.protask'
p3433
sI1365
S'\tptime=request.vars.protime'
p3434
sI1366
S'\tfor row in db(db.auth_user.email==auth.user.email).select():'
p3435
sI1367
S'\t\trmgr=row.reporting_manager'
p3436
sI1368
S'\treturn TABLE([TR("Project Name:",INPUT(_type="text",_name="proj",_value=pro,_readonly="readonly")),TR("Client Name:",INPUT(_type="text",_name="client",_value="Client",_readonly="readonly")),TR("Reporting Manager:",INPUT(_type="text",_name="rpm",_value=rmgr,_readonly="readonly")),TR("Project Task:",INPUT(_type="text",_name="protsk",_value=ptask,_readonly="readonly")),TR("Date:",INPUT(_type="text",_name="dte",_value=dte,_readonly="readonly")),TR("Task Discription:",INPUT(_type="text",_name="tskdisc",_value="")),TR("Total Time:",INPUT(_type="text",_name="tottme",_value=ptime))])'
p3437
ssg3420
S'()'
p3438
sg3422
S'<module>'
p3439
sa(dp3440
g3399
S'/home/tls-sanjeet/Desktop/HRMS/web2py/gluon/globals.py'
p3441
sg3401
(dp3442
S'self'
p3443
S'undefined'
p3444
sS'f'
S'<function admin_newuser>'
p3445
ssg3407
I173
sg3408
(dp3446
I168
S'        self.menu = []             # used by the default view layout'
p3447
sI169
S'        self.files = []            # used by web2py_ajax.html'
p3448
sI170
S'        self.generic_patterns = [] # patterns to allow generic views'
p3449
sI171
S"        self.delimiters = ('{{','}}')"
p3450
sI172
S'        self._vars = None'
p3451
sI173
S'        self._caller = lambda f: f()'
p3452
sI174
S'        self._view_environment = None'
p3453
sI175
S'        self._custom_commit = None'
p3454
sI176
S'        self._custom_rollback = None'
p3455
sI177
S''
ssg3420
S'(f=<function admin_newuser>)'
p3456
sg3422
S'<lambda>'
p3457
sa(dp3458
g3399
S'/home/tls-sanjeet/Desktop/HRMS/web2py/gluon/tools.py'
p3459
sg3401
(dp3460
S'action'
p3461
S'<function admin_newuser>'
p3462
sS'a'
S'()'
p3463
sS'b'
g45
ssg3407
I2575
sg3408
(dp3464
I2570
S'                    flag = condition'
p3465
sI2571
S'                if not flag:'
p3466
sI2572
S'                    current.session.flash = self.messages.access_denied'
p3467
sI2573
S'                    return call_or_redirect('
p3468
sI2574
S'                        self.settings.on_failed_authorization)'
p3469
sI2575
S'                return action(*a, **b)'
p3470
sI2576
S'            f.__doc__ = action.__doc__'
p3471
sI2577
S'            f.__name__ = action.__name__'
p3472
sI2578
S'            f.__dict__.update(action.__dict__)'
p3473
sI2579
S'            return f'
p3474
ssg3420
S'(*a=(), **b={})'
p3475
sg3422
S'f'
sa(dp3476
g3399
S'/home/tls-sanjeet/Desktop/HRMS/web2py/applications/themishrms/controllers/default.py'
p3477
sg3401
(dp3478
S'builtinFalse'
p3479
g100
sS'form'
p3480
g3444
sS'SQLFORM.grid'
p3481
S'<function grid>'
p3482
sS'global SQLFORM'
p3483
S"<class 'gluon.sqlhtml.SQLFORM'>"
p3484
sS'create'
p3485
g3444
sS'ids'
p3486
g3444
sS'global db'
p3487
S"<DAL {'auth_event': <Table {'origin': <gluon.dal...95d836c>, '_singular': 'Add new organization'}>}>"
p3488
sS'global del_emp'
p3489
S'<function del_emp>'
p3490
sS'db.auth_user'
p3491
S"<Table {'employee_status': <gluon.dal.Field obje...ion_key': <gluon.dal.Field object at 0x974422c>}>"
p3492
sS'selectable'
p3493
g3444
ssg3407
I307
sg3408
(dp3494
I302
S"@auth.requires_permission('CRUD', 'auth_user')"
p3495
sI303
S'def admin_newuser():'
p3496
sI304
S'\tfor row in db(db.image.email == auth.user.email).select():'
p3497
sI305
S'\t\timages=row.image'
p3498
sI306
S'\tdb.auth_user.id.readable = False'
p3499
sI307
S'\tform=SQLFORM.grid(db.auth_user, create=False, selectable = lambda ids: del_emp(ids))'
p3500
sI308
S'\treturn dict(images=images,form=form)'
p3501
sI309
S''
sI310
S"@auth.requires_permission('CRUD', 'auth_user')"
p3502
sI311
S'def del_emp(ids):'
p3503
ssg3420
S'()'
p3504
sg3422
S'admin_newuser'
p3505
sa(dp3506
g3399
S'/home/tls-sanjeet/Desktop/HRMS/web2py/gluon/sqlhtml.py'
p3507
sg3401
(dp3508
S'field'
p3509
S'<gluon.dal.Field object>'
p3510
sS'row'
p3511
S"<Row {'auth_event': <gluon.dal.Set object at 0x9...embership': <gluon.dal.Set object at 0x99d440c>}>"
p3512
sS'value'
p3513
S'None'
p3514
sS'field.represent'
p3515
S'<function <lambda>>'
p3516
ssg3407
I1805
sg3408
(dp3517
I1800
S"                    if field.type=='blob': continue"
p3518
sI1801
S'                    value = row[field]'
p3519
sI1802
S'                    maxlength = maxtextlengths.get(str(field),maxtextlength)'
p3520
sI1803
S'                    if field.represent:'
p3521
sI1804
S'                        try:'
p3522
sI1805
S'                            value=field.represent(value,row)'
p3523
sI1806
S'                        except KeyError:'
p3524
sI1807
S'                            try:'
p3525
sI1808
S'                                value=field.represent(value,row[field._tablename])'
p3526
sI1809
S'                            except KeyError:'
p3527
ssg3420
S"(query=<Table {'employee_status': <gluon.dal.Field obje...ion_key': <gluon.dal.Field object at 0x974422c>}>, fields=[<gluon.dal.Field object>, <gluon.dal.Field object>, <gluon.dal.Field object>, <gluon.dal.Field object>, <gluon.dal.Field object>, <gluon.dal.Field object>, <gluon.dal.Field object>, <gluon.dal.Field object>, <gluon.dal.Field object>, <gluon.dal.Field object>, <gluon.dal.Field object>, <gluon.dal.Field object>, <gluon.dal.Field object>, <gluon.dal.Field object>, <gluon.dal.Field object>, <gluon.dal.Field object>, <gluon.dal.Field object>, <gluon.dal.Field object>, <gluon.dal.Field object>], field_id=<gluon.dal.Field object>, left=None, headers={}, orderby=None, searchable=True, sortable=True, paginate=20, deletable=True, editable=True, details=True, selectable=<function <lambda>>, create=False, csv=True, links=None, links_in_grid=True, upload=<function <lambda>>, args=[], user_signature=True, maxtextlengths={}, maxtextlength=20, onvalidation=None, oncreate=None, onupdate=None, ondelete=None, sorter_icons=(<gluon.html.XML object>, <gluon.html.XML object>), ui={'button': 'button', 'buttonadd': 'icon plus', 'buttonback': 'icon leftarrow', 'buttondelete': 'icon trash', 'buttonedit': 'icon pen', 'buttonexport': 'icon downarrow', 'buttontable': 'icon rightarrow', 'buttontext': 'buttontext button', 'buttonview': 'icon magnifier', 'content': '', ...}, showbuttontext=True, _class='web2py_grid', formname='web2py_grid', search_widget=<function <lambda>>, ignore_rw=False, formstyle='table3cols')"
p3528
sg3422
S'grid'
p3529
sa(dp3530
g3399
S'/home/tls-sanjeet/Desktop/HRMS/web2py/applications/themishrms/models/db.py'
p3531
sg3401
(dp3532
S'represent'
p3533
g3444
sS'c'
S'None'
p3534
sS'db.add_new_organization'
p3535
S"<Table {'organization_name': <gluon.dal.Field ob...0x95d836c>, '_singular': 'Add new organization'}>"
p3536
sS'global Field'
p3537
S"<class 'gluon.dal.Field'>"
p3538
sS'global get_org_name'
p3539
S'<function get_org_name>'
p3540
sS'global IS_IN_DB'
p3541
S"<class 'gluon.validators.IS_IN_DB'>"
p3542
sS'global db'
p3543
S"<DAL {'auth_event': <Table {'origin': <gluon.dal...95d836c>, '_singular': 'Add new organization'}>}>"
p3544
sS'requires'
p3545
g3444
sS'row'
p3546
S"<Row {'auth_event': <gluon.dal.Set object at 0x9...embership': <gluon.dal.Set object at 0x99d440c>}>"
p3547
ssg3407
I59
sg3408
(dp3548
I54
S"db.define_table('add_new_department',"
p3549
sI55
S"\t\t\t\tField('department','string',requires=IS_NOT_EMPTY(error_message='Please add the Department Name')),"
p3550
sI56
S"\t\t\t\tField('description','string',requires=IS_NOT_EMPTY(error_message='Please add the Description of the Department Name')))"
p3551
sI57
S''
sI58
S"auth.settings.extra_fields['auth_user']= ["
p3552
sI59
S"\tField('organization_name',db.add_new_organization, represent=lambda c, row:get_org_name(c), requires = IS_IN_DB(db,'add_new_organization.id','%(organization_name)s')),"
p3553
sI60
S"\tField('location', 'string', requires=IS_NOT_EMPTY(error_message='Location name cannot be empty')),"
p3554
sI61
S"\tField('department'),"
p3555
sI62
S"\tField('employee_code', 'string', unique=True, requires=IS_NOT_EMPTY(error_message='Employee code cannot be empty')),"
p3556
sI63
S"\tField('personal_email', requires=IS_EMAIL(error_message='Invalid personal email-id')),"
p3557
ssg3420
S"(c=None, row=<Row {'auth_event': <gluon.dal.Set object at 0x9...embership': <gluon.dal.Set object at 0x99d440c>}>)"
p3558
sg3422
g3457
sa(dp3559
g3399
S'/home/tls-sanjeet/Desktop/HRMS/web2py/applications/themishrms/models/db.py'
p3560
sg3401
(dp3561
S'row.organization_name'
p3562
g3444
sS'row'
p3563
S'None'
p3564
ssg3407
I113
sg3408
(dp3565
I108
S'## >>> for row in rows: print row.id, row.myfield'
p3566
sI109
S'#########################################################################'
p3567
sI110
S''
sI111
S'def get_org_name(c):'
p3568
sI112
S'\trow = db(db.add_new_organization.id == c).select(db.add_new_organization.organization_name).first()'
p3569
sI113
S'\treturn row.organization_name'
p3570
sI114
S''
sI115
S'def get_dpt_name(c):'
p3571
sI116
S'\trow = db(db.add_new_department.id == c).select(db.add_new_department.department).first()'
p3572
sI117
S'\treturn row.department'
p3573
ssg3420
S'(c=None)'
p3574
sg3422
S'get_org_name'
p3575
sasS'pyver'
p3576
S'Python 2.6.5: /usr/bin/python'
p3577
sS'session'
p3578
g57
(g58
g59
NtRp3579
(dp3580
g62
(dp3581
sg64
(lp3582
g57
(g66
g59
NtRp3583
(dp3584
g62
(dp3585
g70
I5
ssg71
Nsg64
(lp3586
g57
(g73
g59
NtRp3587
(dp3588
g62
(dp3589
sg71
g3583
sg64
(lp3590
g57
(g78
g59
NtRp3591
(dp3592
g62
(dp3593
g82
g83
ssg71
g3587
sg64
(lp3594
S'auth'
p3595
asbag57
(g78
g59
NtRp3596
(dp3597
g62
(dp3598
g89
g90
ssg71
g3587
sg64
(lp3599
S':'
asbag57
(g78
g59
NtRp3600
(dp3601
g62
(dp3602
sg71
g3587
sg64
(lp3603
g57
(g58
g59
NtRp3604
(dp3605
g62
(dp3606
g70
I5
ssg71
g3600
sg64
(lp3607
g57
(g66
g59
NtRp3608
(dp3609
g62
(dp3610
g70
I4
ssg71
Nsg64
(lp3611
g57
(g73
g59
NtRp3612
(dp3613
g62
(dp3614
sg71
g3608
sg64
(lp3615
g57
(g78
g59
NtRp3616
(dp3617
g62
(dp3618
g82
g83
ssg71
g3612
sg64
(lp3619
S'expiration'
p3620
asbag57
(g78
g59
NtRp3621
(dp3622
g62
(dp3623
g89
g90
ssg71
g3612
sg64
(lp3624
S':'
asbag57
(g78
g59
NtRp3625
(dp3626
g62
(dp3627
sg71
g3612
sg64
(lp3628
g57
(g58
g59
NtRp3629
(dp3630
g62
(dp3631
g70
I4
ssg71
g3625
sg64
(lp3632
S'3600'
p3633
asbasbasbag57
(g73
g59
NtRp3634
(dp3635
g62
(dp3636
sg71
g3608
sg64
(lp3637
g57
(g78
g59
NtRp3638
(dp3639
g62
(dp3640
g82
g83
ssg71
g3634
sg64
(lp3641
S'hmac_key'
p3642
asbag57
(g78
g59
NtRp3643
(dp3644
g62
(dp3645
g89
g90
ssg71
g3634
sg64
(lp3646
S':'
asbag57
(g78
g59
NtRp3647
(dp3648
g62
(dp3649
sg71
g3634
sg64
(lp3650
g57
(g58
g59
NtRp3651
(dp3652
g62
(dp3653
g70
I4
ssg71
g3647
sg64
(lp3654
S'56e2eb6a-7cb3-46b2-9cfa-35737fd1a70f'
p3655
asbasbasbag57
(g73
g59
NtRp3656
(dp3657
g62
(dp3658
sg71
g3608
sg64
(lp3659
g57
(g78
g59
NtRp3660
(dp3661
g62
(dp3662
g82
g83
ssg71
g3656
sg64
(lp3663
S'last_visit'
p3664
asbag57
(g78
g59
NtRp3665
(dp3666
g62
(dp3667
g89
g90
ssg71
g3656
sg64
(lp3668
S':'
asbag57
(g78
g59
NtRp3669
(dp3670
g62
(dp3671
sg71
g3656
sg64
(lp3672
g57
(g58
g59
NtRp3673
(dp3674
g62
(dp3675
g70
I4
ssg71
g3669
sg64
(lp3676
S'datetime.datetime(2012, 5, 5, 12, 41, 7, 433391)'
p3677
asbasbasbag57
(g73
g59
NtRp3678
(dp3679
g62
(dp3680
sg71
g3608
sg64
(lp3681
g57
(g78
g59
NtRp3682
(dp3683
g62
(dp3684
g82
g83
ssg71
g3678
sg64
(lp3685
S'remember'
p3686
asbag57
(g78
g59
NtRp3687
(dp3688
g62
(dp3689
g89
g90
ssg71
g3678
sg64
(lp3690
S':'
asbag57
(g78
g59
NtRp3691
(dp3692
g62
(dp3693
sg71
g3678
sg64
(lp3694
g57
(g58
g59
NtRp3695
(dp3696
g62
(dp3697
g70
I4
ssg71
g3691
sg64
(lp3698
g100
asbasbasbag57
(g73
g59
NtRp3699
(dp3700
g62
(dp3701
sg71
g3608
sg64
(lp3702
g57
(g78
g59
NtRp3703
(dp3704
g62
(dp3705
g82
g83
ssg71
g3699
sg64
(lp3706
S'user'
p3707
asbag57
(g78
g59
NtRp3708
(dp3709
g62
(dp3710
g89
g90
ssg71
g3699
sg64
(lp3711
S':'
asbag57
(g78
g59
NtRp3712
(dp3713
g62
(dp3714
sg71
g3699
sg64
(lp3715
g57
(g58
g59
NtRp3716
(dp3717
g62
(dp3718
g70
I4
ssg71
g3712
sg64
(lp3719
g57
(g66
g59
NtRp3720
(dp3721
g62
(dp3722
g70
I3
ssg71
Nsg64
(lp3723
g57
(g73
g59
NtRp3724
(dp3725
g62
(dp3726
sg71
g3720
sg64
(lp3727
g57
(g78
g59
NtRp3728
(dp3729
g62
(dp3730
g82
g83
ssg71
g3724
sg64
(lp3731
S'date_of_exit'
p3732
asbag57
(g78
g59
NtRp3733
(dp3734
g62
(dp3735
g89
g90
ssg71
g3724
sg64
(lp3736
S':'
asbag57
(g78
g59
NtRp3737
(dp3738
g62
(dp3739
sg71
g3724
sg64
(lp3740
g57
(g58
g59
NtRp3741
(dp3742
g62
(dp3743
g70
I3
ssg71
g3737
sg64
(lp3744
S'None'
p3745
asbasbasbag57
(g73
g59
NtRp3746
(dp3747
g62
(dp3748
sg71
g3720
sg64
(lp3749
g57
(g78
g59
NtRp3750
(dp3751
g62
(dp3752
g82
g83
ssg71
g3746
sg64
(lp3753
S'date_of_joining'
p3754
asbag57
(g78
g59
NtRp3755
(dp3756
g62
(dp3757
g89
g90
ssg71
g3746
sg64
(lp3758
S':'
asbag57
(g78
g59
NtRp3759
(dp3760
g62
(dp3761
sg71
g3746
sg64
(lp3762
g57
(g58
g59
NtRp3763
(dp3764
g62
(dp3765
g70
I3
ssg71
g3759
sg64
(lp3766
S'None'
p3767
asbasbasbag57
(g73
g59
NtRp3768
(dp3769
g62
(dp3770
sg71
g3720
sg64
(lp3771
g57
(g78
g59
NtRp3772
(dp3773
g62
(dp3774
g82
g83
ssg71
g3768
sg64
(lp3775
S'department'
p3776
asbag57
(g78
g59
NtRp3777
(dp3778
g62
(dp3779
g89
g90
ssg71
g3768
sg64
(lp3780
S':'
asbag57
(g78
g59
NtRp3781
(dp3782
g62
(dp3783
sg71
g3768
sg64
(lp3784
g57
(g58
g59
NtRp3785
(dp3786
g62
(dp3787
g70
I3
ssg71
g3781
sg64
(lp3788
S'None'
p3789
asbasbasbag57
(g73
g59
NtRp3790
(dp3791
g62
(dp3792
sg71
g3720
sg64
(lp3793
g57
(g78
g59
NtRp3794
(dp3795
g62
(dp3796
g82
g83
ssg71
g3790
sg64
(lp3797
S'designation'
p3798
asbag57
(g78
g59
NtRp3799
(dp3800
g62
(dp3801
g89
g90
ssg71
g3790
sg64
(lp3802
S':'
asbag57
(g78
g59
NtRp3803
(dp3804
g62
(dp3805
sg71
g3790
sg64
(lp3806
g57
(g58
g59
NtRp3807
(dp3808
g62
(dp3809
g70
I3
ssg71
g3803
sg64
(lp3810
S'None'
p3811
asbasbasbag57
(g73
g59
NtRp3812
(dp3813
g62
(dp3814
sg71
g3720
sg64
(lp3815
g57
(g78
g59
NtRp3816
(dp3817
g62
(dp3818
g82
g83
ssg71
g3812
sg64
(lp3819
S'email'
p3820
asbag57
(g78
g59
NtRp3821
(dp3822
g62
(dp3823
g89
g90
ssg71
g3812
sg64
(lp3824
S':'
asbag57
(g78
g59
NtRp3825
(dp3826
g62
(dp3827
sg71
g3812
sg64
(lp3828
g57
(g58
g59
NtRp3829
(dp3830
g62
(dp3831
g70
I3
ssg71
g3825
sg64
(lp3832
S'admin@themislexsol.com'
p3833
asbasbasbag57
(g73
g59
NtRp3834
(dp3835
g62
(dp3836
sg71
g3720
sg64
(lp3837
g57
(g78
g59
NtRp3838
(dp3839
g62
(dp3840
g82
g83
ssg71
g3834
sg64
(lp3841
S'employee_code'
p3842
asbag57
(g78
g59
NtRp3843
(dp3844
g62
(dp3845
g89
g90
ssg71
g3834
sg64
(lp3846
S':'
asbag57
(g78
g59
NtRp3847
(dp3848
g62
(dp3849
sg71
g3834
sg64
(lp3850
g57
(g58
g59
NtRp3851
(dp3852
g62
(dp3853
g70
I3
ssg71
g3847
sg64
(lp3854
S'None'
p3855
asbasbasbag57
(g73
g59
NtRp3856
(dp3857
g62
(dp3858
sg71
g3720
sg64
(lp3859
g57
(g78
g59
NtRp3860
(dp3861
g62
(dp3862
g82
g83
ssg71
g3856
sg64
(lp3863
S'employee_status'
p3864
asbag57
(g78
g59
NtRp3865
(dp3866
g62
(dp3867
g89
g90
ssg71
g3856
sg64
(lp3868
S':'
asbag57
(g78
g59
NtRp3869
(dp3870
g62
(dp3871
sg71
g3856
sg64
(lp3872
g57
(g58
g59
NtRp3873
(dp3874
g62
(dp3875
g70
I3
ssg71
g3869
sg64
(lp3876
S'None'
p3877
asbasbasbag57
(g73
g59
NtRp3878
(dp3879
g62
(dp3880
sg71
g3720
sg64
(lp3881
g57
(g78
g59
NtRp3882
(dp3883
g62
(dp3884
g82
g83
ssg71
g3878
sg64
(lp3885
S'exit_remark'
p3886
asbag57
(g78
g59
NtRp3887
(dp3888
g62
(dp3889
g89
g90
ssg71
g3878
sg64
(lp3890
S':'
asbag57
(g78
g59
NtRp3891
(dp3892
g62
(dp3893
sg71
g3878
sg64
(lp3894
g57
(g58
g59
NtRp3895
(dp3896
g62
(dp3897
g70
I3
ssg71
g3891
sg64
(lp3898
S'None'
p3899
asbasbasbag57
(g73
g59
NtRp3900
(dp3901
g62
(dp3902
sg71
g3720
sg64
(lp3903
g57
(g78
g59
NtRp3904
(dp3905
g62
(dp3906
g82
g83
ssg71
g3900
sg64
(lp3907
S'first_name'
p3908
asbag57
(g78
g59
NtRp3909
(dp3910
g62
(dp3911
g89
g90
ssg71
g3900
sg64
(lp3912
S':'
asbag57
(g78
g59
NtRp3913
(dp3914
g62
(dp3915
sg71
g3900
sg64
(lp3916
g57
(g58
g59
NtRp3917
(dp3918
g62
(dp3919
g70
I3
ssg71
g3913
sg64
(lp3920
S''
asbasbasbag57
(g73
g59
NtRp3921
(dp3922
g62
(dp3923
sg71
g3720
sg64
(lp3924
g57
(g78
g59
NtRp3925
(dp3926
g62
(dp3927
g82
g83
ssg71
g3921
sg64
(lp3928
S'id'
p3929
asbag57
(g78
g59
NtRp3930
(dp3931
g62
(dp3932
g89
g90
ssg71
g3921
sg64
(lp3933
S':'
asbag57
(g78
g59
NtRp3934
(dp3935
g62
(dp3936
sg71
g3921
sg64
(lp3937
g57
(g58
g59
NtRp3938
(dp3939
g62
(dp3940
g70
I3
ssg71
g3934
sg64
(lp3941
S'1'
asbasbasbag57
(g73
g59
NtRp3942
(dp3943
g62
(dp3944
sg71
g3720
sg64
(lp3945
g57
(g78
g59
NtRp3946
(dp3947
g62
(dp3948
g82
g83
ssg71
g3942
sg64
(lp3949
S'last_name'
p3950
asbag57
(g78
g59
NtRp3951
(dp3952
g62
(dp3953
g89
g90
ssg71
g3942
sg64
(lp3954
S':'
asbag57
(g78
g59
NtRp3955
(dp3956
g62
(dp3957
sg71
g3942
sg64
(lp3958
g57
(g58
g59
NtRp3959
(dp3960
g62
(dp3961
g70
I3
ssg71
g3955
sg64
(lp3962
S''
asbasbasbag57
(g73
g59
NtRp3963
(dp3964
g62
(dp3965
sg71
g3720
sg64
(lp3966
g57
(g78
g59
NtRp3967
(dp3968
g62
(dp3969
g82
g83
ssg71
g3963
sg64
(lp3970
S'location'
p3971
asbag57
(g78
g59
NtRp3972
(dp3973
g62
(dp3974
g89
g90
ssg71
g3963
sg64
(lp3975
S':'
asbag57
(g78
g59
NtRp3976
(dp3977
g62
(dp3978
sg71
g3963
sg64
(lp3979
g57
(g58
g59
NtRp3980
(dp3981
g62
(dp3982
g70
I3
ssg71
g3976
sg64
(lp3983
S'None'
p3984
asbasbasbag57
(g73
g59
NtRp3985
(dp3986
g62
(dp3987
sg71
g3720
sg64
(lp3988
g57
(g78
g59
NtRp3989
(dp3990
g62
(dp3991
g82
g83
ssg71
g3985
sg64
(lp3992
S'organization_name'
p3993
asbag57
(g78
g59
NtRp3994
(dp3995
g62
(dp3996
g89
g90
ssg71
g3985
sg64
(lp3997
S':'
asbag57
(g78
g59
NtRp3998
(dp3999
g62
(dp4000
sg71
g3985
sg64
(lp4001
g57
(g58
g59
NtRp4002
(dp4003
g62
(dp4004
g70
I3
ssg71
g3998
sg64
(lp4005
S'None'
p4006
asbasbasbag57
(g73
g59
NtRp4007
(dp4008
g62
(dp4009
sg71
g3720
sg64
(lp4010
g57
(g78
g59
NtRp4011
(dp4012
g62
(dp4013
g82
g83
ssg71
g4007
sg64
(lp4014
S'password'
p4015
asbag57
(g78
g59
NtRp4016
(dp4017
g62
(dp4018
g89
g90
ssg71
g4007
sg64
(lp4019
S':'
asbag57
(g78
g59
NtRp4020
(dp4021
g62
(dp4022
sg71
g4007
sg64
(lp4023
g57
(g58
g59
NtRp4024
(dp4025
g62
(dp4026
g70
I3
ssg71
g4020
sg64
(lp4027
S'd9112a75303bdd71a94bf896ec050b70'
p4028
asbasbasbag57
(g73
g59
NtRp4029
(dp4030
g62
(dp4031
sg71
g3720
sg64
(lp4032
g57
(g78
g59
NtRp4033
(dp4034
g62
(dp4035
g82
g83
ssg71
g4029
sg64
(lp4036
S'personal_email'
p4037
asbag57
(g78
g59
NtRp4038
(dp4039
g62
(dp4040
g89
g90
ssg71
g4029
sg64
(lp4041
S':'
asbag57
(g78
g59
NtRp4042
(dp4043
g62
(dp4044
sg71
g4029
sg64
(lp4045
g57
(g58
g59
NtRp4046
(dp4047
g62
(dp4048
g70
I3
ssg71
g4042
sg64
(lp4049
S'None'
p4050
asbasbasbag57
(g73
g59
NtRp4051
(dp4052
g62
(dp4053
sg71
g3720
sg64
(lp4054
g57
(g78
g59
NtRp4055
(dp4056
g62
(dp4057
g82
g83
ssg71
g4051
sg64
(lp4058
S'registration_id'
p4059
asbag57
(g78
g59
NtRp4060
(dp4061
g62
(dp4062
g89
g90
ssg71
g4051
sg64
(lp4063
S':'
asbag57
(g78
g59
NtRp4064
(dp4065
g62
(dp4066
sg71
g4051
sg64
(lp4067
g57
(g58
g59
NtRp4068
(dp4069
g62
(dp4070
g70
I3
ssg71
g4064
sg64
(lp4071
S''
asbasbasbag57
(g73
g59
NtRp4072
(dp4073
g62
(dp4074
sg71
g3720
sg64
(lp4075
g57
(g78
g59
NtRp4076
(dp4077
g62
(dp4078
g82
g83
ssg71
g4072
sg64
(lp4079
S'registration_key'
p4080
asbag57
(g78
g59
NtRp4081
(dp4082
g62
(dp4083
g89
g90
ssg71
g4072
sg64
(lp4084
S':'
asbag57
(g78
g59
NtRp4085
(dp4086
g62
(dp4087
sg71
g4072
sg64
(lp4088
g57
(g58
g59
NtRp4089
(dp4090
g62
(dp4091
g70
I3
ssg71
g4085
sg64
(lp4092
S''
asbasbasbag57
(g73
g59
NtRp4093
(dp4094
g62
(dp4095
sg71
g3720
sg64
(lp4096
g57
(g78
g59
NtRp4097
(dp4098
g62
(dp4099
g82
g83
ssg71
g4093
sg64
(lp4100
S'reporting_manager'
p4101
asbag57
(g78
g59
NtRp4102
(dp4103
g62
(dp4104
g89
g90
ssg71
g4093
sg64
(lp4105
S':'
asbag57
(g78
g59
NtRp4106
(dp4107
g62
(dp4108
sg71
g4093
sg64
(lp4109
g57
(g58
g59
NtRp4110
(dp4111
g62
(dp4112
g70
I3
ssg71
g4106
sg64
(lp4113
S'None'
p4114
asbasbasbag57
(g73
g59
NtRp4115
(dp4116
g62
(dp4117
sg71
g3720
sg64
(lp4118
g57
(g78
g59
NtRp4119
(dp4120
g62
(dp4121
g82
g83
ssg71
g4115
sg64
(lp4122
S'reset_password_key'
p4123
asbag57
(g78
g59
NtRp4124
(dp4125
g62
(dp4126
g89
g90
ssg71
g4115
sg64
(lp4127
S':'
asbag57
(g78
g59
NtRp4128
(dp4129
g62
(dp4130
sg71
g4115
sg64
(lp4131
g57
(g58
g59
NtRp4132
(dp4133
g62
(dp4134
g70
I3
ssg71
g4128
sg64
(lp4135
S''
asbasbasbasbasbasbasbag57
(g73
g59
NtRp4136
(dp4137
g62
(dp4138
sg71
g3608
sg64
(lp4139
g57
(g78
g59
NtRp4140
(dp4141
g62
(dp4142
g82
g83
ssg71
g4136
sg64
(lp4143
S'user_groups'
p4144
asbag57
(g78
g59
NtRp4145
(dp4146
g62
(dp4147
g89
g90
ssg71
g4136
sg64
(lp4148
S':'
asbag57
(g78
g59
NtRp4149
(dp4150
g62
(dp4151
sg71
g4136
sg64
(lp4152
g57
(g58
g59
NtRp4153
(dp4154
g62
(dp4155
g70
I4
ssg71
g4149
sg64
(lp4156
g57
(g66
g59
NtRp4157
(dp4158
g62
(dp4159
g70
I3
ssg71
Nsg64
(lp4160
g57
(g73
g59
NtRp4161
(dp4162
g62
(dp4163
sg71
g4157
sg64
(lp4164
g57
(g78
g59
NtRp4165
(dp4166
g62
(dp4167
g82
g83
ssg71
g4161
sg64
(lp4168
S'1'
asbag57
(g78
g59
NtRp4169
(dp4170
g62
(dp4171
g89
g90
ssg71
g4161
sg64
(lp4172
S':'
asbag57
(g78
g59
NtRp4173
(dp4174
g62
(dp4175
sg71
g4161
sg64
(lp4176
g57
(g58
g59
NtRp4177
(dp4178
g62
(dp4179
g70
I3
ssg71
g4173
sg64
(lp4180
S'Admin'
p4181
asbasbasbag57
(g73
g59
NtRp4182
(dp4183
g62
(dp4184
sg71
g4157
sg64
(lp4185
g57
(g78
g59
NtRp4186
(dp4187
g62
(dp4188
g82
g83
ssg71
g4182
sg64
(lp4189
S'3'
asbag57
(g78
g59
NtRp4190
(dp4191
g62
(dp4192
g89
g90
ssg71
g4182
sg64
(lp4193
S':'
asbag57
(g78
g59
NtRp4194
(dp4195
g62
(dp4196
sg71
g4182
sg64
(lp4197
g57
(g58
g59
NtRp4198
(dp4199
g62
(dp4200
g70
I3
ssg71
g4194
sg64
(lp4201
S'Mgr'
p4202
asbasbasbasbasbasbasbasbasbasbasbag57
(g73
g59
NtRp4203
(dp4204
g62
(dp4205
sg71
g3583
sg64
(lp4206
g57
(g78
g59
NtRp4207
(dp4208
g62
(dp4209
g82
g83
ssg71
g4203
sg64
(lp4210
S'fname'
p4211
asbag57
(g78
g59
NtRp4212
(dp4213
g62
(dp4214
g89
g90
ssg71
g4203
sg64
(lp4215
S':'
asbag57
(g78
g59
NtRp4216
(dp4217
g62
(dp4218
sg71
g4203
sg64
(lp4219
g57
(g58
g59
NtRp4220
(dp4221
g62
(dp4222
g70
I5
ssg71
g4216
sg64
(lp4223
S'Sanjeet'
p4224
asbasbasbag57
(g73
g59
NtRp4225
(dp4226
g62
(dp4227
sg71
g3583
sg64
(lp4228
g57
(g78
g59
NtRp4229
(dp4230
g62
(dp4231
g82
g83
ssg71
g4225
sg64
(lp4232
S'last_query'
p4233
asbag57
(g78
g59
NtRp4234
(dp4235
g62
(dp4236
g89
g90
ssg71
g4225
sg64
(lp4237
S':'
asbag57
(g78
g59
NtRp4238
(dp4239
g62
(dp4240
sg71
g4225
sg64
(lp4241
g57
(g58
g59
NtRp4242
(dp4243
g62
(dp4244
g70
I5
ssg71
g4238
sg64
(lp4245
S'db.auth_user.id>0'
p4246
asbasbasbag57
(g73
g59
NtRp4247
(dp4248
g62
(dp4249
sg71
g3583
sg64
(lp4250
g57
(g78
g59
NtRp4251
(dp4252
g62
(dp4253
g82
g83
ssg71
g4247
sg64
(lp4254
S'mail'
p4255
asbag57
(g78
g59
NtRp4256
(dp4257
g62
(dp4258
g89
g90
ssg71
g4247
sg64
(lp4259
S':'
asbag57
(g78
g59
NtRp4260
(dp4261
g62
(dp4262
sg71
g4247
sg64
(lp4263
g57
(g58
g59
NtRp4264
(dp4265
g62
(dp4266
g70
I5
ssg71
g4260
sg64
(lp4267
S'sanjeet.tls@gmail.com'
p4268
asbasbasbag57
(g73
g59
NtRp4269
(dp4270
g62
(dp4271
sg71
g3583
sg64
(lp4272
g57
(g78
g59
NtRp4273
(dp4274
g62
(dp4275
g82
g83
ssg71
g4269
sg64
(lp4276
S'mgr'
p4277
asbag57
(g78
g59
NtRp4278
(dp4279
g62
(dp4280
g89
g90
ssg71
g4269
sg64
(lp4281
S':'
asbag57
(g78
g59
NtRp4282
(dp4283
g62
(dp4284
sg71
g4269
sg64
(lp4285
g57
(g58
g59
NtRp4286
(dp4287
g62
(dp4288
g70
I5
ssg71
g4282
sg64
(lp4289
S'admin@themislexsol.com'
p4290
asbasbasbag57
(g73
g59
NtRp4291
(dp4292
g62
(dp4293
sg71
g3583
sg64
(lp4294
g57
(g78
g59
NtRp4295
(dp4296
g62
(dp4297
g82
g83
ssg71
g4291
sg64
(lp4298
S'pmail'
p4299
asbag57
(g78
g59
NtRp4300
(dp4301
g62
(dp4302
g89
g90
ssg71
g4291
sg64
(lp4303
S':'
asbag57
(g78
g59
NtRp4304
(dp4305
g62
(dp4306
sg71
g4291
sg64
(lp4307
g57
(g58
g59
NtRp4308
(dp4309
g62
(dp4310
g70
I5
ssg71
g4304
sg64
(lp4311
S'sanjeet.tls@gmail.com'
p4312
asbasbasbasbasbsS'etype'
p4313
S"<type 'exceptions.AttributeError'>"
p4314
sS'date'
p4315
S'Sat May  5 12:44:26 2012'
p4316
sS'response'
p4317
g57
(g58
g59
NtRp4318
(dp4319
g62
(dp4320
sg64
(lp4321
g57
(g66
g59
NtRp4322
(dp4323
g62
(dp4324
g70
I5
ssg71
Nsg64
(lp4325
g57
(g73
g59
NtRp4326
(dp4327
g62
(dp4328
sg71
g4322
sg64
(lp4329
g57
(g78
g59
NtRp4330
(dp4331
g62
(dp4332
g82
g83
ssg71
g4326
sg64
(lp4333
S'atlsmenu'
p4334
asbag57
(g78
g59
NtRp4335
(dp4336
g62
(dp4337
g89
g90
ssg71
g4326
sg64
(lp4338
S':'
asbag57
(g78
g59
NtRp4339
(dp4340
g62
(dp4341
sg71
g4326
sg64
(lp4342
g57
(g58
g59
NtRp4343
(dp4344
g62
(dp4345
g70
I5
ssg71
g4339
sg64
(lp4346
g57
(g66
g59
NtRp4347
(dp4348
g62
(dp4349
g70
I4
ssg71
Nsg64
(lp4350
g57
(g73
g59
NtRp4351
(dp4352
g62
(dp4353
sg71
g4347
sg64
(lp4354
g57
(g78
g59
NtRp4355
(dp4356
g62
(dp4357
sg71
g4351
sg64
(lp4358
g57
(g58
g59
NtRp4359
(dp4360
g62
(dp4361
g70
I4
ssg71
g4355
sg64
(lp4362
g57
(g66
g59
NtRp4363
(dp4364
g62
(dp4365
g70
I3
ssg71
Nsg64
(lp4366
g57
(g73
g59
NtRp4367
(dp4368
g62
(dp4369
sg71
g4363
sg64
(lp4370
g57
(g78
g59
NtRp4371
(dp4372
g62
(dp4373
sg71
g4367
sg64
(lp4374
g57
(g58
g59
NtRp4375
(dp4376
g62
(dp4377
g70
I3
ssg71
g4371
sg64
(lp4378
cgluon.languages
lazyT_unpickle
p4379
(S's\x07\x00\x00\x00Website'
tRp4380
asbasbasbag57
(g73
g59
NtRp4381
(dp4382
g62
(dp4383
sg71
g4363
sg64
(lp4384
g57
(g78
g59
NtRp4385
(dp4386
g62
(dp4387
sg71
g4381
sg64
(lp4388
g57
(g58
g59
NtRp4389
(dp4390
g62
(dp4391
g70
I3
ssg71
g4385
sg64
(lp4392
g100
asbasbasbag57
(g73
g59
NtRp4393
(dp4394
g62
(dp4395
sg71
g4363
sg64
(lp4396
g57
(g78
g59
NtRp4397
(dp4398
g62
(dp4399
sg71
g4393
sg64
(lp4400
g57
(g58
g59
NtRp4401
(dp4402
g62
(dp4403
g70
I3
ssg71
g4397
sg64
(lp4404
S'/themishrms/default/index'
p4405
asbasbasbag57
(g73
g59
NtRp4406
(dp4407
g62
(dp4408
sg71
g4363
sg64
(lp4409
g57
(g78
g59
NtRp4410
(dp4411
g62
(dp4412
sg71
g4406
sg64
(lp4413
g57
(g58
g59
NtRp4414
(dp4415
g62
(dp4416
g70
I3
ssg71
g4410
sg64
(lp4417
g57
(g66
g59
NtRp4418
(dp4419
g62
(dp4420
g70
I2
ssg71
Nsg64
(lp4421
sbasbasbasbasbasbasbasbag57
(g73
g59
NtRp4422
(dp4423
g62
(dp4424
sg71
g4347
sg64
(lp4425
g57
(g78
g59
NtRp4426
(dp4427
g62
(dp4428
sg71
g4422
sg64
(lp4429
g57
(g58
g59
NtRp4430
(dp4431
g62
(dp4432
g70
I4
ssg71
g4426
sg64
(lp4433
g57
(g66
g59
NtRp4434
(dp4435
g62
(dp4436
g70
I3
ssg71
Nsg64
(lp4437
g57
(g73
g59
NtRp4438
(dp4439
g62
(dp4440
sg71
g4434
sg64
(lp4441
g57
(g78
g59
NtRp4442
(dp4443
g62
(dp4444
sg71
g4438
sg64
(lp4445
g57
(g58
g59
NtRp4446
(dp4447
g62
(dp4448
g70
I3
ssg71
g4442
sg64
(lp4449
g4379
(S's\x07\x00\x00\x00Webmail'
tRp4450
asbasbasbag57
(g73
g59
NtRp4451
(dp4452
g62
(dp4453
sg71
g4434
sg64
(lp4454
g57
(g78
g59
NtRp4455
(dp4456
g62
(dp4457
sg71
g4451
sg64
(lp4458
g57
(g58
g59
NtRp4459
(dp4460
g62
(dp4461
g70
I3
ssg71
g4455
sg64
(lp4462
g100
asbasbasbag57
(g73
g59
NtRp4463
(dp4464
g62
(dp4465
sg71
g4434
sg64
(lp4466
g57
(g78
g59
NtRp4467
(dp4468
g62
(dp4469
sg71
g4463
sg64
(lp4470
g57
(g58
g59
NtRp4471
(dp4472
g62
(dp4473
g70
I3
ssg71
g4467
sg64
(lp4474
S'/themishrms/default/#'
p4475
asbasbasbag57
(g73
g59
NtRp4476
(dp4477
g62
(dp4478
sg71
g4434
sg64
(lp4479
g57
(g78
g59
NtRp4480
(dp4481
g62
(dp4482
sg71
g4476
sg64
(lp4483
g57
(g58
g59
NtRp4484
(dp4485
g62
(dp4486
g70
I3
ssg71
g4480
sg64
(lp4487
g57
(g66
g59
NtRp4488
(dp4489
g62
(dp4490
g70
I2
ssg71
Nsg64
(lp4491
sbasbasbasbasbasbasbasbag57
(g73
g59
NtRp4492
(dp4493
g62
(dp4494
sg71
g4347
sg64
(lp4495
g57
(g78
g59
NtRp4496
(dp4497
g62
(dp4498
sg71
g4492
sg64
(lp4499
g57
(g58
g59
NtRp4500
(dp4501
g62
(dp4502
g70
I4
ssg71
g4496
sg64
(lp4503
g57
(g66
g59
NtRp4504
(dp4505
g62
(dp4506
g70
I3
ssg71
Nsg64
(lp4507
g57
(g73
g59
NtRp4508
(dp4509
g62
(dp4510
sg71
g4504
sg64
(lp4511
g57
(g78
g59
NtRp4512
(dp4513
g62
(dp4514
sg71
g4508
sg64
(lp4515
g57
(g58
g59
NtRp4516
(dp4517
g62
(dp4518
g70
I3
ssg71
g4512
sg64
(lp4519
g4379
(S's\r\x00\x00\x00Themis Portal'
tRp4520
asbasbasbag57
(g73
g59
NtRp4521
(dp4522
g62
(dp4523
sg71
g4504
sg64
(lp4524
g57
(g78
g59
NtRp4525
(dp4526
g62
(dp4527
sg71
g4521
sg64
(lp4528
g57
(g58
g59
NtRp4529
(dp4530
g62
(dp4531
g70
I3
ssg71
g4525
sg64
(lp4532
g100
asbasbasbag57
(g73
g59
NtRp4533
(dp4534
g62
(dp4535
sg71
g4504
sg64
(lp4536
g57
(g78
g59
NtRp4537
(dp4538
g62
(dp4539
sg71
g4533
sg64
(lp4540
g57
(g58
g59
NtRp4541
(dp4542
g62
(dp4543
g70
I3
ssg71
g4537
sg64
(lp4544
S'/themishrms/default/#'
p4545
asbasbasbag57
(g73
g59
NtRp4546
(dp4547
g62
(dp4548
sg71
g4504
sg64
(lp4549
g57
(g78
g59
NtRp4550
(dp4551
g62
(dp4552
sg71
g4546
sg64
(lp4553
g57
(g58
g59
NtRp4554
(dp4555
g62
(dp4556
g70
I3
ssg71
g4550
sg64
(lp4557
g57
(g66
g59
NtRp4558
(dp4559
g62
(dp4560
g70
I2
ssg71
Nsg64
(lp4561
sbasbasbasbasbasbasbasbag57
(g73
g59
NtRp4562
(dp4563
g62
(dp4564
sg71
g4347
sg64
(lp4565
g57
(g78
g59
NtRp4566
(dp4567
g62
(dp4568
sg71
g4562
sg64
(lp4569
g57
(g58
g59
NtRp4570
(dp4571
g62
(dp4572
g70
I4
ssg71
g4566
sg64
(lp4573
g57
(g66
g59
NtRp4574
(dp4575
g62
(dp4576
g70
I3
ssg71
Nsg64
(lp4577
g57
(g73
g59
NtRp4578
(dp4579
g62
(dp4580
sg71
g4574
sg64
(lp4581
g57
(g78
g59
NtRp4582
(dp4583
g62
(dp4584
sg71
g4578
sg64
(lp4585
g57
(g58
g59
NtRp4586
(dp4587
g62
(dp4588
g70
I3
ssg71
g4582
sg64
(lp4589
g4379
(S's\x0f\x00\x00\x00Themis Policies'
tRp4590
asbasbasbag57
(g73
g59
NtRp4591
(dp4592
g62
(dp4593
sg71
g4574
sg64
(lp4594
g57
(g78
g59
NtRp4595
(dp4596
g62
(dp4597
sg71
g4591
sg64
(lp4598
g57
(g58
g59
NtRp4599
(dp4600
g62
(dp4601
g70
I3
ssg71
g4595
sg64
(lp4602
g100
asbasbasbag57
(g73
g59
NtRp4603
(dp4604
g62
(dp4605
sg71
g4574
sg64
(lp4606
g57
(g78
g59
NtRp4607
(dp4608
g62
(dp4609
sg71
g4603
sg64
(lp4610
g57
(g58
g59
NtRp4611
(dp4612
g62
(dp4613
g70
I3
ssg71
g4607
sg64
(lp4614
S'/themishrms/default/add_project'
p4615
asbasbasbag57
(g73
g59
NtRp4616
(dp4617
g62
(dp4618
sg71
g4574
sg64
(lp4619
g57
(g78
g59
NtRp4620
(dp4621
g62
(dp4622
sg71
g4616
sg64
(lp4623
g57
(g58
g59
NtRp4624
(dp4625
g62
(dp4626
g70
I3
ssg71
g4620
sg64
(lp4627
g57
(g66
g59
NtRp4628
(dp4629
g62
(dp4630
g70
I2
ssg71
Nsg64
(lp4631
sbasbasbasbasbasbasbasbag57
(g73
g59
NtRp4632
(dp4633
g62
(dp4634
sg71
g4347
sg64
(lp4635
g57
(g78
g59
NtRp4636
(dp4637
g62
(dp4638
sg71
g4632
sg64
(lp4639
g57
(g58
g59
NtRp4640
(dp4641
g62
(dp4642
g70
I4
ssg71
g4636
sg64
(lp4643
g57
(g66
g59
NtRp4644
(dp4645
g62
(dp4646
g70
I3
ssg71
Nsg64
(lp4647
g57
(g73
g59
NtRp4648
(dp4649
g62
(dp4650
sg71
g4644
sg64
(lp4651
g57
(g78
g59
NtRp4652
(dp4653
g62
(dp4654
sg71
g4648
sg64
(lp4655
g57
(g58
g59
NtRp4656
(dp4657
g62
(dp4658
g70
I3
ssg71
g4652
sg64
(lp4659
g4379
(S's\x0f\x00\x00\x00Contact Details'
tRp4660
asbasbasbag57
(g73
g59
NtRp4661
(dp4662
g62
(dp4663
sg71
g4644
sg64
(lp4664
g57
(g78
g59
NtRp4665
(dp4666
g62
(dp4667
sg71
g4661
sg64
(lp4668
g57
(g58
g59
NtRp4669
(dp4670
g62
(dp4671
g70
I3
ssg71
g4665
sg64
(lp4672
g100
asbasbasbag57
(g73
g59
NtRp4673
(dp4674
g62
(dp4675
sg71
g4644
sg64
(lp4676
g57
(g78
g59
NtRp4677
(dp4678
g62
(dp4679
sg71
g4673
sg64
(lp4680
g57
(g58
g59
NtRp4681
(dp4682
g62
(dp4683
g70
I3
ssg71
g4677
sg64
(lp4684
S'/themishrms/default/admin_contact_detail'
p4685
asbasbasbag57
(g73
g59
NtRp4686
(dp4687
g62
(dp4688
sg71
g4644
sg64
(lp4689
g57
(g78
g59
NtRp4690
(dp4691
g62
(dp4692
sg71
g4686
sg64
(lp4693
g57
(g58
g59
NtRp4694
(dp4695
g62
(dp4696
g70
I3
ssg71
g4690
sg64
(lp4697
g57
(g66
g59
NtRp4698
(dp4699
g62
(dp4700
g70
I2
ssg71
Nsg64
(lp4701
sbasbasbasbasbasbasbasbasbasbasbasbag57
(g73
g59
NtRp4702
(dp4703
g62
(dp4704
sg71
g4322
sg64
(lp4705
g57
(g78
g59
NtRp4706
(dp4707
g62
(dp4708
g82
g83
ssg71
g4702
sg64
(lp4709
g155
asbag57
(g78
g59
NtRp4710
(dp4711
g62
(dp4712
g89
g90
ssg71
g4702
sg64
(lp4713
S':'
asbag57
(g78
g59
NtRp4714
(dp4715
g62
(dp4716
sg71
g4702
sg64
(lp4717
g57
(g58
g59
NtRp4718
(dp4719
g62
(dp4720
g70
I5
ssg71
g4714
sg64
(lp4721
S'<cStringIO.StringO object at 0x9473f40>'
p4722
asbasbasbag57
(g73
g59
NtRp4723
(dp4724
g62
(dp4725
sg71
g4322
sg64
(lp4726
g57
(g78
g59
NtRp4727
(dp4728
g62
(dp4729
g82
g83
ssg71
g4723
sg64
(lp4730
g221
asbag57
(g78
g59
NtRp4731
(dp4732
g62
(dp4733
g89
g90
ssg71
g4723
sg64
(lp4734
S':'
asbag57
(g78
g59
NtRp4735
(dp4736
g62
(dp4737
sg71
g4723
sg64
(lp4738
g57
(g58
g59
NtRp4739
(dp4740
g62
(dp4741
g70
I5
ssg71
g4735
sg64
(lp4742
g57
(g66
g59
NtRp4743
(dp4744
g62
(dp4745
g70
I4
ssg71
Nsg64
(lp4746
g57
(g73
g59
NtRp4747
(dp4748
g62
(dp4749
sg71
g4743
sg64
(lp4750
g57
(g78
g59
NtRp4751
(dp4752
g62
(dp4753
g82
g83
ssg71
g4747
sg64
(lp4754
S'session_id_themishrms'
p4755
asbag57
(g78
g59
NtRp4756
(dp4757
g62
(dp4758
g89
g90
ssg71
g4747
sg64
(lp4759
S':'
asbag57
(g78
g59
NtRp4760
(dp4761
g62
(dp4762
sg71
g4747
sg64
(lp4763
g57
(g58
g59
NtRp4764
(dp4765
g62
(dp4766
g70
I4
ssg71
g4760
sg64
(lp4767
g57
(g66
g59
NtRp4768
(dp4769
g62
(dp4770
g70
I3
ssg71
Nsg64
(lp4771
g57
(g73
g59
NtRp4772
(dp4773
g62
(dp4774
sg71
g4768
sg64
(lp4775
g57
(g78
g59
NtRp4776
(dp4777
g62
(dp4778
g82
g83
ssg71
g4772
sg64
(lp4779
g271
asbag57
(g78
g59
NtRp4780
(dp4781
g62
(dp4782
g89
g90
ssg71
g4772
sg64
(lp4783
S':'
asbag57
(g78
g59
NtRp4784
(dp4785
g62
(dp4786
sg71
g4772
sg64
(lp4787
g57
(g58
g59
NtRp4788
(dp4789
g62
(dp4790
g70
I3
ssg71
g4784
sg64
(lp4791
S''
asbasbasbag57
(g73
g59
NtRp4792
(dp4793
g62
(dp4794
sg71
g4768
sg64
(lp4795
g57
(g78
g59
NtRp4796
(dp4797
g62
(dp4798
g82
g83
ssg71
g4792
sg64
(lp4799
g292
asbag57
(g78
g59
NtRp4800
(dp4801
g62
(dp4802
g89
g90
ssg71
g4792
sg64
(lp4803
S':'
asbag57
(g78
g59
NtRp4804
(dp4805
g62
(dp4806
sg71
g4792
sg64
(lp4807
g57
(g58
g59
NtRp4808
(dp4809
g62
(dp4810
g70
I3
ssg71
g4804
sg64
(lp4811
S''
asbasbasbag57
(g73
g59
NtRp4812
(dp4813
g62
(dp4814
sg71
g4768
sg64
(lp4815
g57
(g78
g59
NtRp4816
(dp4817
g62
(dp4818
g82
g83
ssg71
g4812
sg64
(lp4819
g313
asbag57
(g78
g59
NtRp4820
(dp4821
g62
(dp4822
g89
g90
ssg71
g4812
sg64
(lp4823
S':'
asbag57
(g78
g59
NtRp4824
(dp4825
g62
(dp4826
sg71
g4812
sg64
(lp4827
g57
(g58
g59
NtRp4828
(dp4829
g62
(dp4830
g70
I3
ssg71
g4824
sg64
(lp4831
S''
asbasbasbag57
(g73
g59
NtRp4832
(dp4833
g62
(dp4834
sg71
g4768
sg64
(lp4835
g57
(g78
g59
NtRp4836
(dp4837
g62
(dp4838
g82
g83
ssg71
g4832
sg64
(lp4839
g334
asbag57
(g78
g59
NtRp4840
(dp4841
g62
(dp4842
g89
g90
ssg71
g4832
sg64
(lp4843
S':'
asbag57
(g78
g59
NtRp4844
(dp4845
g62
(dp4846
sg71
g4832
sg64
(lp4847
g57
(g58
g59
NtRp4848
(dp4849
g62
(dp4850
g70
I3
ssg71
g4844
sg64
(lp4851
S''
asbasbasbag57
(g73
g59
NtRp4852
(dp4853
g62
(dp4854
sg71
g4768
sg64
(lp4855
g57
(g78
g59
NtRp4856
(dp4857
g62
(dp4858
g82
g83
ssg71
g4852
sg64
(lp4859
g355
asbag57
(g78
g59
NtRp4860
(dp4861
g62
(dp4862
g89
g90
ssg71
g4852
sg64
(lp4863
S':'
asbag57
(g78
g59
NtRp4864
(dp4865
g62
(dp4866
sg71
g4852
sg64
(lp4867
g57
(g58
g59
NtRp4868
(dp4869
g62
(dp4870
g70
I3
ssg71
g4864
sg64
(lp4871
S''
asbasbasbag57
(g73
g59
NtRp4872
(dp4873
g62
(dp4874
sg71
g4768
sg64
(lp4875
g57
(g78
g59
NtRp4876
(dp4877
g62
(dp4878
g82
g83
ssg71
g4872
sg64
(lp4879
g376
asbag57
(g78
g59
NtRp4880
(dp4881
g62
(dp4882
g89
g90
ssg71
g4872
sg64
(lp4883
S':'
asbag57
(g78
g59
NtRp4884
(dp4885
g62
(dp4886
sg71
g4872
sg64
(lp4887
g57
(g58
g59
NtRp4888
(dp4889
g62
(dp4890
g70
I3
ssg71
g4884
sg64
(lp4891
S'/'
asbasbasbag57
(g73
g59
NtRp4892
(dp4893
g62
(dp4894
sg71
g4768
sg64
(lp4895
g57
(g78
g59
NtRp4896
(dp4897
g62
(dp4898
g82
g83
ssg71
g4892
sg64
(lp4899
g397
asbag57
(g78
g59
NtRp4900
(dp4901
g62
(dp4902
g89
g90
ssg71
g4892
sg64
(lp4903
S':'
asbag57
(g78
g59
NtRp4904
(dp4905
g62
(dp4906
sg71
g4892
sg64
(lp4907
g57
(g58
g59
NtRp4908
(dp4909
g62
(dp4910
g70
I3
ssg71
g4904
sg64
(lp4911
S''
asbasbasbag57
(g73
g59
NtRp4912
(dp4913
g62
(dp4914
sg71
g4768
sg64
(lp4915
g57
(g78
g59
NtRp4916
(dp4917
g62
(dp4918
g82
g83
ssg71
g4912
sg64
(lp4919
g418
asbag57
(g78
g59
NtRp4920
(dp4921
g62
(dp4922
g89
g90
ssg71
g4912
sg64
(lp4923
S':'
asbag57
(g78
g59
NtRp4924
(dp4925
g62
(dp4926
sg71
g4912
sg64
(lp4927
g57
(g58
g59
NtRp4928
(dp4929
g62
(dp4930
g70
I3
ssg71
g4924
sg64
(lp4931
S''
asbasbasbasbasbasbasbasbasbasbasbag57
(g73
g59
NtRp4932
(dp4933
g62
(dp4934
sg71
g4322
sg64
(lp4935
g57
(g78
g59
NtRp4936
(dp4937
g62
(dp4938
g82
g83
ssg71
g4932
sg64
(lp4939
S'delimiters'
p4940
asbag57
(g78
g59
NtRp4941
(dp4942
g62
(dp4943
g89
g90
ssg71
g4932
sg64
(lp4944
S':'
asbag57
(g78
g59
NtRp4945
(dp4946
g62
(dp4947
sg71
g4932
sg64
(lp4948
g57
(g58
g59
NtRp4949
(dp4950
g62
(dp4951
g70
I5
ssg71
g4945
sg64
(lp4952
g57
(g66
g59
NtRp4953
(dp4954
g62
(dp4955
g70
I4
ssg71
Nsg64
(lp4956
g57
(g73
g59
NtRp4957
(dp4958
g62
(dp4959
sg71
g4953
sg64
(lp4960
g57
(g78
g59
NtRp4961
(dp4962
g62
(dp4963
sg71
g4957
sg64
(lp4964
g57
(g58
g59
NtRp4965
(dp4966
g62
(dp4967
g70
I4
ssg71
g4961
sg64
(lp4968
S'{{'
p4969
asbasbasbag57
(g73
g59
NtRp4970
(dp4971
g62
(dp4972
sg71
g4953
sg64
(lp4973
g57
(g78
g59
NtRp4974
(dp4975
g62
(dp4976
sg71
g4970
sg64
(lp4977
g57
(g58
g59
NtRp4978
(dp4979
g62
(dp4980
g70
I4
ssg71
g4974
sg64
(lp4981
S'}}'
p4982
asbasbasbasbasbasbasbag57
(g73
g59
NtRp4983
(dp4984
g62
(dp4985
sg71
g4322
sg64
(lp4986
g57
(g78
g59
NtRp4987
(dp4988
g62
(dp4989
g82
g83
ssg71
g4983
sg64
(lp4990
S'files'
p4991
asbag57
(g78
g59
NtRp4992
(dp4993
g62
(dp4994
g89
g90
ssg71
g4983
sg64
(lp4995
S':'
asbag57
(g78
g59
NtRp4996
(dp4997
g62
(dp4998
sg71
g4983
sg64
(lp4999
g57
(g58
g59
NtRp5000
(dp5001
g62
(dp5002
g70
I5
ssg71
g4996
sg64
(lp5003
g57
(g66
g59
NtRp5004
(dp5005
g62
(dp5006
g70
I4
ssg71
Nsg64
(lp5007
sbasbasbasbag57
(g73
g59
NtRp5008
(dp5009
g62
(dp5010
sg71
g4322
sg64
(lp5011
g57
(g78
g59
NtRp5012
(dp5013
g62
(dp5014
g82
g83
ssg71
g5008
sg64
(lp5015
S'flash'
p5016
asbag57
(g78
g59
NtRp5017
(dp5018
g62
(dp5019
g89
g90
ssg71
g5008
sg64
(lp5020
S':'
asbag57
(g78
g59
NtRp5021
(dp5022
g62
(dp5023
sg71
g5008
sg64
(lp5024
g57
(g58
g59
NtRp5025
(dp5026
g62
(dp5027
g70
I5
ssg71
g5021
sg64
(lp5028
S''
asbasbasbag57
(g73
g59
NtRp5029
(dp5030
g62
(dp5031
sg71
g4322
sg64
(lp5032
g57
(g78
g59
NtRp5033
(dp5034
g62
(dp5035
g82
g83
ssg71
g5029
sg64
(lp5036
S'generic_patterns'
p5037
asbag57
(g78
g59
NtRp5038
(dp5039
g62
(dp5040
g89
g90
ssg71
g5029
sg64
(lp5041
S':'
asbag57
(g78
g59
NtRp5042
(dp5043
g62
(dp5044
sg71
g5029
sg64
(lp5045
g57
(g58
g59
NtRp5046
(dp5047
g62
(dp5048
g70
I5
ssg71
g5042
sg64
(lp5049
g57
(g66
g59
NtRp5050
(dp5051
g62
(dp5052
g70
I4
ssg71
Nsg64
(lp5053
g57
(g73
g59
NtRp5054
(dp5055
g62
(dp5056
sg71
g5050
sg64
(lp5057
g57
(g78
g59
NtRp5058
(dp5059
g62
(dp5060
sg71
g5054
sg64
(lp5061
g57
(g58
g59
NtRp5062
(dp5063
g62
(dp5064
g70
I4
ssg71
g5058
sg64
(lp5065
S'*'
asbasbasbasbasbasbasbag57
(g73
g59
NtRp5066
(dp5067
g62
(dp5068
sg71
g4322
sg64
(lp5069
g57
(g78
g59
NtRp5070
(dp5071
g62
(dp5072
g82
g83
ssg71
g5066
sg64
(lp5073
S'headers'
p5074
asbag57
(g78
g59
NtRp5075
(dp5076
g62
(dp5077
g89
g90
ssg71
g5066
sg64
(lp5078
S':'
asbag57
(g78
g59
NtRp5079
(dp5080
g62
(dp5081
sg71
g5066
sg64
(lp5082
g57
(g58
g59
NtRp5083
(dp5084
g62
(dp5085
g70
I5
ssg71
g5079
sg64
(lp5086
g57
(g66
g59
NtRp5087
(dp5088
g62
(dp5089
g70
I4
ssg71
Nsg64
(lp5090
g57
(g73
g59
NtRp5091
(dp5092
g62
(dp5093
sg71
g5087
sg64
(lp5094
g57
(g78
g59
NtRp5095
(dp5096
g62
(dp5097
g82
g83
ssg71
g5091
sg64
(lp5098
S'Cache-Control'
p5099
asbag57
(g78
g59
NtRp5100
(dp5101
g62
(dp5102
g89
g90
ssg71
g5091
sg64
(lp5103
S':'
asbag57
(g78
g59
NtRp5104
(dp5105
g62
(dp5106
sg71
g5091
sg64
(lp5107
g57
(g58
g59
NtRp5108
(dp5109
g62
(dp5110
g70
I4
ssg71
g5104
sg64
(lp5111
S'no-store, no-cache, must-revalidate, post-check=0, pre-check=0'
p5112
asbasbasbag57
(g73
g59
NtRp5113
(dp5114
g62
(dp5115
sg71
g5087
sg64
(lp5116
g57
(g78
g59
NtRp5117
(dp5118
g62
(dp5119
g82
g83
ssg71
g5113
sg64
(lp5120
S'Content-Type'
p5121
asbag57
(g78
g59
NtRp5122
(dp5123
g62
(dp5124
g89
g90
ssg71
g5113
sg64
(lp5125
S':'
asbag57
(g78
g59
NtRp5126
(dp5127
g62
(dp5128
sg71
g5113
sg64
(lp5129
g57
(g58
g59
NtRp5130
(dp5131
g62
(dp5132
g70
I4
ssg71
g5126
sg64
(lp5133
S'text/html; charset=utf-8'
p5134
asbasbasbag57
(g73
g59
NtRp5135
(dp5136
g62
(dp5137
sg71
g5087
sg64
(lp5138
g57
(g78
g59
NtRp5139
(dp5140
g62
(dp5141
g82
g83
ssg71
g5135
sg64
(lp5142
S'Expires'
p5143
asbag57
(g78
g59
NtRp5144
(dp5145
g62
(dp5146
g89
g90
ssg71
g5135
sg64
(lp5147
S':'
asbag57
(g78
g59
NtRp5148
(dp5149
g62
(dp5150
sg71
g5135
sg64
(lp5151
g57
(g58
g59
NtRp5152
(dp5153
g62
(dp5154
g70
I4
ssg71
g5148
sg64
(lp5155
S'Sat, 05 May 2012 07:14:26 GMT'
p5156
asbasbasbag57
(g73
g59
NtRp5157
(dp5158
g62
(dp5159
sg71
g5087
sg64
(lp5160
g57
(g78
g59
NtRp5161
(dp5162
g62
(dp5163
g82
g83
ssg71
g5157
sg64
(lp5164
S'Pragma'
p5165
asbag57
(g78
g59
NtRp5166
(dp5167
g62
(dp5168
g89
g90
ssg71
g5157
sg64
(lp5169
S':'
asbag57
(g78
g59
NtRp5170
(dp5171
g62
(dp5172
sg71
g5157
sg64
(lp5173
g57
(g58
g59
NtRp5174
(dp5175
g62
(dp5176
g70
I4
ssg71
g5170
sg64
(lp5177
S'no-cache'
p5178
asbasbasbag57
(g73
g59
NtRp5179
(dp5180
g62
(dp5181
sg71
g5087
sg64
(lp5182
g57
(g78
g59
NtRp5183
(dp5184
g62
(dp5185
g82
g83
ssg71
g5179
sg64
(lp5186
S'X-Powered-By'
p5187
asbag57
(g78
g59
NtRp5188
(dp5189
g62
(dp5190
g89
g90
ssg71
g5179
sg64
(lp5191
S':'
asbag57
(g78
g59
NtRp5192
(dp5193
g62
(dp5194
sg71
g5179
sg64
(lp5195
g57
(g58
g59
NtRp5196
(dp5197
g62
(dp5198
g70
I4
ssg71
g5192
sg64
(lp5199
S'web2py'
p5200
asbasbasbasbasbasbasbag57
(g73
g59
NtRp5201
(dp5202
g62
(dp5203
sg71
g4322
sg64
(lp5204
g57
(g78
g59
NtRp5205
(dp5206
g62
(dp5207
g82
g83
ssg71
g5201
sg64
(lp5208
S'menu'
p5209
asbag57
(g78
g59
NtRp5210
(dp5211
g62
(dp5212
g89
g90
ssg71
g5201
sg64
(lp5213
S':'
asbag57
(g78
g59
NtRp5214
(dp5215
g62
(dp5216
sg71
g5201
sg64
(lp5217
g57
(g58
g59
NtRp5218
(dp5219
g62
(dp5220
g70
I5
ssg71
g5214
sg64
(lp5221
g57
(g66
g59
NtRp5222
(dp5223
g62
(dp5224
g70
I4
ssg71
Nsg64
(lp5225
g57
(g73
g59
NtRp5226
(dp5227
g62
(dp5228
sg71
g5222
sg64
(lp5229
g57
(g78
g59
NtRp5230
(dp5231
g62
(dp5232
sg71
g5226
sg64
(lp5233
g57
(g58
g59
NtRp5234
(dp5235
g62
(dp5236
g70
I4
ssg71
g5230
sg64
(lp5237
g57
(g66
g59
NtRp5238
(dp5239
g62
(dp5240
g70
I3
ssg71
Nsg64
(lp5241
g57
(g73
g59
NtRp5242
(dp5243
g62
(dp5244
sg71
g5238
sg64
(lp5245
g57
(g78
g59
NtRp5246
(dp5247
g62
(dp5248
sg71
g5242
sg64
(lp5249
g57
(g58
g59
NtRp5250
(dp5251
g62
(dp5252
g70
I3
ssg71
g5246
sg64
(lp5253
g4379
(S's\x04\x00\x00\x00HOME'
tRp5254
asbasbasbag57
(g73
g59
NtRp5255
(dp5256
g62
(dp5257
sg71
g5238
sg64
(lp5258
g57
(g78
g59
NtRp5259
(dp5260
g62
(dp5261
sg71
g5255
sg64
(lp5262
g57
(g58
g59
NtRp5263
(dp5264
g62
(dp5265
g70
I3
ssg71
g5259
sg64
(lp5266
g100
asbasbasbag57
(g73
g59
NtRp5267
(dp5268
g62
(dp5269
sg71
g5238
sg64
(lp5270
g57
(g78
g59
NtRp5271
(dp5272
g62
(dp5273
sg71
g5267
sg64
(lp5274
g57
(g58
g59
NtRp5275
(dp5276
g62
(dp5277
g70
I3
ssg71
g5271
sg64
(lp5278
S'/themishrms/default/index'
p5279
asbasbasbag57
(g73
g59
NtRp5280
(dp5281
g62
(dp5282
sg71
g5238
sg64
(lp5283
g57
(g78
g59
NtRp5284
(dp5285
g62
(dp5286
sg71
g5280
sg64
(lp5287
g57
(g58
g59
NtRp5288
(dp5289
g62
(dp5290
g70
I3
ssg71
g5284
sg64
(lp5291
g57
(g66
g59
NtRp5292
(dp5293
g62
(dp5294
g70
I2
ssg71
Nsg64
(lp5295
sbasbasbasbasbasbasbasbag57
(g73
g59
NtRp5296
(dp5297
g62
(dp5298
sg71
g5222
sg64
(lp5299
g57
(g78
g59
NtRp5300
(dp5301
g62
(dp5302
sg71
g5296
sg64
(lp5303
g57
(g58
g59
NtRp5304
(dp5305
g62
(dp5306
g70
I4
ssg71
g5300
sg64
(lp5307
g57
(g66
g59
NtRp5308
(dp5309
g62
(dp5310
g70
I3
ssg71
Nsg64
(lp5311
g57
(g73
g59
NtRp5312
(dp5313
g62
(dp5314
sg71
g5308
sg64
(lp5315
g57
(g78
g59
NtRp5316
(dp5317
g62
(dp5318
sg71
g5312
sg64
(lp5319
g57
(g58
g59
NtRp5320
(dp5321
g62
(dp5322
g70
I3
ssg71
g5316
sg64
(lp5323
g4379
(S's\t\x00\x00\x00ABOUT US '
tRp5324
asbasbasbag57
(g73
g59
NtRp5325
(dp5326
g62
(dp5327
sg71
g5308
sg64
(lp5328
g57
(g78
g59
NtRp5329
(dp5330
g62
(dp5331
sg71
g5325
sg64
(lp5332
g57
(g58
g59
NtRp5333
(dp5334
g62
(dp5335
g70
I3
ssg71
g5329
sg64
(lp5336
g100
asbasbasbag57
(g73
g59
NtRp5337
(dp5338
g62
(dp5339
sg71
g5308
sg64
(lp5340
g57
(g78
g59
NtRp5341
(dp5342
g62
(dp5343
sg71
g5337
sg64
(lp5344
g57
(g58
g59
NtRp5345
(dp5346
g62
(dp5347
g70
I3
ssg71
g5341
sg64
(lp5348
S'/themishrms/default/tlsabout'
p5349
asbasbasbag57
(g73
g59
NtRp5350
(dp5351
g62
(dp5352
sg71
g5308
sg64
(lp5353
g57
(g78
g59
NtRp5354
(dp5355
g62
(dp5356
sg71
g5350
sg64
(lp5357
g57
(g58
g59
NtRp5358
(dp5359
g62
(dp5360
g70
I3
ssg71
g5354
sg64
(lp5361
g57
(g66
g59
NtRp5362
(dp5363
g62
(dp5364
g70
I2
ssg71
Nsg64
(lp5365
sbasbasbasbasbasbasbasbag57
(g73
g59
NtRp5366
(dp5367
g62
(dp5368
sg71
g5222
sg64
(lp5369
g57
(g78
g59
NtRp5370
(dp5371
g62
(dp5372
sg71
g5366
sg64
(lp5373
g57
(g58
g59
NtRp5374
(dp5375
g62
(dp5376
g70
I4
ssg71
g5370
sg64
(lp5377
g57
(g66
g59
NtRp5378
(dp5379
g62
(dp5380
g70
I3
ssg71
Nsg64
(lp5381
g57
(g73
g59
NtRp5382
(dp5383
g62
(dp5384
sg71
g5378
sg64
(lp5385
g57
(g78
g59
NtRp5386
(dp5387
g62
(dp5388
sg71
g5382
sg64
(lp5389
g57
(g58
g59
NtRp5390
(dp5391
g62
(dp5392
g70
I3
ssg71
g5386
sg64
(lp5393
g4379
(S's\x0f\x00\x00\x00OUR EXPERTISE  '
tRp5394
asbasbasbag57
(g73
g59
NtRp5395
(dp5396
g62
(dp5397
sg71
g5378
sg64
(lp5398
g57
(g78
g59
NtRp5399
(dp5400
g62
(dp5401
sg71
g5395
sg64
(lp5402
g57
(g58
g59
NtRp5403
(dp5404
g62
(dp5405
g70
I3
ssg71
g5399
sg64
(lp5406
g100
asbasbasbag57
(g73
g59
NtRp5407
(dp5408
g62
(dp5409
sg71
g5378
sg64
(lp5410
g57
(g78
g59
NtRp5411
(dp5412
g62
(dp5413
sg71
g5407
sg64
(lp5414
g57
(g58
g59
NtRp5415
(dp5416
g62
(dp5417
g70
I3
ssg71
g5411
sg64
(lp5418
S'/themishrms/default/tlsservice'
p5419
asbasbasbag57
(g73
g59
NtRp5420
(dp5421
g62
(dp5422
sg71
g5378
sg64
(lp5423
g57
(g78
g59
NtRp5424
(dp5425
g62
(dp5426
sg71
g5420
sg64
(lp5427
g57
(g58
g59
NtRp5428
(dp5429
g62
(dp5430
g70
I3
ssg71
g5424
sg64
(lp5431
g57
(g66
g59
NtRp5432
(dp5433
g62
(dp5434
g70
I2
ssg71
Nsg64
(lp5435
sbasbasbasbasbasbasbasbag57
(g73
g59
NtRp5436
(dp5437
g62
(dp5438
sg71
g5222
sg64
(lp5439
g57
(g78
g59
NtRp5440
(dp5441
g62
(dp5442
sg71
g5436
sg64
(lp5443
g57
(g58
g59
NtRp5444
(dp5445
g62
(dp5446
g70
I4
ssg71
g5440
sg64
(lp5447
g57
(g66
g59
NtRp5448
(dp5449
g62
(dp5450
g70
I3
ssg71
Nsg64
(lp5451
g57
(g73
g59
NtRp5452
(dp5453
g62
(dp5454
sg71
g5448
sg64
(lp5455
g57
(g78
g59
NtRp5456
(dp5457
g62
(dp5458
sg71
g5452
sg64
(lp5459
g57
(g58
g59
NtRp5460
(dp5461
g62
(dp5462
g70
I3
ssg71
g5456
sg64
(lp5463
g4379
(S's\x08\x00\x00\x00OUR TEAM'
tRp5464
asbasbasbag57
(g73
g59
NtRp5465
(dp5466
g62
(dp5467
sg71
g5448
sg64
(lp5468
g57
(g78
g59
NtRp5469
(dp5470
g62
(dp5471
sg71
g5465
sg64
(lp5472
g57
(g58
g59
NtRp5473
(dp5474
g62
(dp5475
g70
I3
ssg71
g5469
sg64
(lp5476
g100
asbasbasbag57
(g73
g59
NtRp5477
(dp5478
g62
(dp5479
sg71
g5448
sg64
(lp5480
g57
(g78
g59
NtRp5481
(dp5482
g62
(dp5483
sg71
g5477
sg64
(lp5484
g57
(g58
g59
NtRp5485
(dp5486
g62
(dp5487
g70
I3
ssg71
g5481
sg64
(lp5488
S'/themishrms/default/tlsoteam'
p5489
asbasbasbag57
(g73
g59
NtRp5490
(dp5491
g62
(dp5492
sg71
g5448
sg64
(lp5493
g57
(g78
g59
NtRp5494
(dp5495
g62
(dp5496
sg71
g5490
sg64
(lp5497
g57
(g58
g59
NtRp5498
(dp5499
g62
(dp5500
g70
I3
ssg71
g5494
sg64
(lp5501
g57
(g66
g59
NtRp5502
(dp5503
g62
(dp5504
g70
I2
ssg71
Nsg64
(lp5505
sbasbasbasbasbasbasbasbag57
(g73
g59
NtRp5506
(dp5507
g62
(dp5508
sg71
g5222
sg64
(lp5509
g57
(g78
g59
NtRp5510
(dp5511
g62
(dp5512
sg71
g5506
sg64
(lp5513
g57
(g58
g59
NtRp5514
(dp5515
g62
(dp5516
g70
I4
ssg71
g5510
sg64
(lp5517
g57
(g66
g59
NtRp5518
(dp5519
g62
(dp5520
g70
I3
ssg71
Nsg64
(lp5521
g57
(g73
g59
NtRp5522
(dp5523
g62
(dp5524
sg71
g5518
sg64
(lp5525
g57
(g78
g59
NtRp5526
(dp5527
g62
(dp5528
sg71
g5522
sg64
(lp5529
g57
(g58
g59
NtRp5530
(dp5531
g62
(dp5532
g70
I3
ssg71
g5526
sg64
(lp5533
g4379
(S's\n\x00\x00\x00OPERATIONS'
tRp5534
asbasbasbag57
(g73
g59
NtRp5535
(dp5536
g62
(dp5537
sg71
g5518
sg64
(lp5538
g57
(g78
g59
NtRp5539
(dp5540
g62
(dp5541
sg71
g5535
sg64
(lp5542
g57
(g58
g59
NtRp5543
(dp5544
g62
(dp5545
g70
I3
ssg71
g5539
sg64
(lp5546
g100
asbasbasbag57
(g73
g59
NtRp5547
(dp5548
g62
(dp5549
sg71
g5518
sg64
(lp5550
g57
(g78
g59
NtRp5551
(dp5552
g62
(dp5553
sg71
g5547
sg64
(lp5554
g57
(g58
g59
NtRp5555
(dp5556
g62
(dp5557
g70
I3
ssg71
g5551
sg64
(lp5558
S'/themishrms/default/tlsoo'
p5559
asbasbasbag57
(g73
g59
NtRp5560
(dp5561
g62
(dp5562
sg71
g5518
sg64
(lp5563
g57
(g78
g59
NtRp5564
(dp5565
g62
(dp5566
sg71
g5560
sg64
(lp5567
g57
(g58
g59
NtRp5568
(dp5569
g62
(dp5570
g70
I3
ssg71
g5564
sg64
(lp5571
g57
(g66
g59
NtRp5572
(dp5573
g62
(dp5574
g70
I2
ssg71
Nsg64
(lp5575
sbasbasbasbasbasbasbasbag57
(g73
g59
NtRp5576
(dp5577
g62
(dp5578
sg71
g5222
sg64
(lp5579
g57
(g78
g59
NtRp5580
(dp5581
g62
(dp5582
sg71
g5576
sg64
(lp5583
g57
(g58
g59
NtRp5584
(dp5585
g62
(dp5586
g70
I4
ssg71
g5580
sg64
(lp5587
g57
(g66
g59
NtRp5588
(dp5589
g62
(dp5590
g70
I3
ssg71
Nsg64
(lp5591
g57
(g73
g59
NtRp5592
(dp5593
g62
(dp5594
sg71
g5588
sg64
(lp5595
g57
(g78
g59
NtRp5596
(dp5597
g62
(dp5598
sg71
g5592
sg64
(lp5599
g57
(g58
g59
NtRp5600
(dp5601
g62
(dp5602
g70
I3
ssg71
g5596
sg64
(lp5603
g4379
(S's\x07\x00\x00\x00JOIN US'
tRp5604
asbasbasbag57
(g73
g59
NtRp5605
(dp5606
g62
(dp5607
sg71
g5588
sg64
(lp5608
g57
(g78
g59
NtRp5609
(dp5610
g62
(dp5611
sg71
g5605
sg64
(lp5612
g57
(g58
g59
NtRp5613
(dp5614
g62
(dp5615
g70
I3
ssg71
g5609
sg64
(lp5616
g100
asbasbasbag57
(g73
g59
NtRp5617
(dp5618
g62
(dp5619
sg71
g5588
sg64
(lp5620
g57
(g78
g59
NtRp5621
(dp5622
g62
(dp5623
sg71
g5617
sg64
(lp5624
g57
(g58
g59
NtRp5625
(dp5626
g62
(dp5627
g70
I3
ssg71
g5621
sg64
(lp5628
S'/themishrms/default/tlscareer'
p5629
asbasbasbag57
(g73
g59
NtRp5630
(dp5631
g62
(dp5632
sg71
g5588
sg64
(lp5633
g57
(g78
g59
NtRp5634
(dp5635
g62
(dp5636
sg71
g5630
sg64
(lp5637
g57
(g58
g59
NtRp5638
(dp5639
g62
(dp5640
g70
I3
ssg71
g5634
sg64
(lp5641
g57
(g66
g59
NtRp5642
(dp5643
g62
(dp5644
g70
I2
ssg71
Nsg64
(lp5645
sbasbasbasbasbasbasbasbag57
(g73
g59
NtRp5646
(dp5647
g62
(dp5648
sg71
g5222
sg64
(lp5649
g57
(g78
g59
NtRp5650
(dp5651
g62
(dp5652
sg71
g5646
sg64
(lp5653
g57
(g58
g59
NtRp5654
(dp5655
g62
(dp5656
g70
I4
ssg71
g5650
sg64
(lp5657
g57
(g66
g59
NtRp5658
(dp5659
g62
(dp5660
g70
I3
ssg71
Nsg64
(lp5661
g57
(g73
g59
NtRp5662
(dp5663
g62
(dp5664
sg71
g5658
sg64
(lp5665
g57
(g78
g59
NtRp5666
(dp5667
g62
(dp5668
sg71
g5662
sg64
(lp5669
g57
(g58
g59
NtRp5670
(dp5671
g62
(dp5672
g70
I3
ssg71
g5666
sg64
(lp5673
g4379
(S's\n\x00\x00\x00CONTACT US'
tRp5674
asbasbasbag57
(g73
g59
NtRp5675
(dp5676
g62
(dp5677
sg71
g5658
sg64
(lp5678
g57
(g78
g59
NtRp5679
(dp5680
g62
(dp5681
sg71
g5675
sg64
(lp5682
g57
(g58
g59
NtRp5683
(dp5684
g62
(dp5685
g70
I3
ssg71
g5679
sg64
(lp5686
g100
asbasbasbag57
(g73
g59
NtRp5687
(dp5688
g62
(dp5689
sg71
g5658
sg64
(lp5690
g57
(g78
g59
NtRp5691
(dp5692
g62
(dp5693
sg71
g5687
sg64
(lp5694
g57
(g58
g59
NtRp5695
(dp5696
g62
(dp5697
g70
I3
ssg71
g5691
sg64
(lp5698
S'/themishrms/default/tlscontact'
p5699
asbasbasbag57
(g73
g59
NtRp5700
(dp5701
g62
(dp5702
sg71
g5658
sg64
(lp5703
g57
(g78
g59
NtRp5704
(dp5705
g62
(dp5706
sg71
g5700
sg64
(lp5707
g57
(g58
g59
NtRp5708
(dp5709
g62
(dp5710
g70
I3
ssg71
g5704
sg64
(lp5711
g57
(g66
g59
NtRp5712
(dp5713
g62
(dp5714
g70
I2
ssg71
Nsg64
(lp5715
sbasbasbasbasbasbasbasbasbasbasbasbag57
(g73
g59
NtRp5716
(dp5717
g62
(dp5718
sg71
g4322
sg64
(lp5719
g57
(g78
g59
NtRp5720
(dp5721
g62
(dp5722
g82
g83
ssg71
g5716
sg64
(lp5723
S'meta'
p5724
asbag57
(g78
g59
NtRp5725
(dp5726
g62
(dp5727
g89
g90
ssg71
g5716
sg64
(lp5728
S':'
asbag57
(g78
g59
NtRp5729
(dp5730
g62
(dp5731
sg71
g5716
sg64
(lp5732
g57
(g58
g59
NtRp5733
(dp5734
g62
(dp5735
g70
I5
ssg71
g5729
sg64
(lp5736
g57
(g66
g59
NtRp5737
(dp5738
g62
(dp5739
g70
I4
ssg71
Nsg64
(lp5740
g57
(g73
g59
NtRp5741
(dp5742
g62
(dp5743
sg71
g5737
sg64
(lp5744
g57
(g78
g59
NtRp5745
(dp5746
g62
(dp5747
g82
g83
ssg71
g5741
sg64
(lp5748
S'author'
p5749
asbag57
(g78
g59
NtRp5750
(dp5751
g62
(dp5752
g89
g90
ssg71
g5741
sg64
(lp5753
S':'
asbag57
(g78
g59
NtRp5754
(dp5755
g62
(dp5756
sg71
g5741
sg64
(lp5757
g57
(g58
g59
NtRp5758
(dp5759
g62
(dp5760
g70
I4
ssg71
g5754
sg64
(lp5761
S'Your Name <you@example.com>'
p5762
asbasbasbag57
(g73
g59
NtRp5763
(dp5764
g62
(dp5765
sg71
g5737
sg64
(lp5766
g57
(g78
g59
NtRp5767
(dp5768
g62
(dp5769
g82
g83
ssg71
g5763
sg64
(lp5770
S'copyright'
p5771
asbag57
(g78
g59
NtRp5772
(dp5773
g62
(dp5774
g89
g90
ssg71
g5763
sg64
(lp5775
S':'
asbag57
(g78
g59
NtRp5776
(dp5777
g62
(dp5778
sg71
g5763
sg64
(lp5779
g57
(g58
g59
NtRp5780
(dp5781
g62
(dp5782
g70
I4
ssg71
g5776
sg64
(lp5783
S'Copyright 2011'
p5784
asbasbasbag57
(g73
g59
NtRp5785
(dp5786
g62
(dp5787
sg71
g5737
sg64
(lp5788
g57
(g78
g59
NtRp5789
(dp5790
g62
(dp5791
g82
g83
ssg71
g5785
sg64
(lp5792
S'description'
p5793
asbag57
(g78
g59
NtRp5794
(dp5795
g62
(dp5796
g89
g90
ssg71
g5785
sg64
(lp5797
S':'
asbag57
(g78
g59
NtRp5798
(dp5799
g62
(dp5800
sg71
g5785
sg64
(lp5801
g57
(g58
g59
NtRp5802
(dp5803
g62
(dp5804
g70
I4
ssg71
g5798
sg64
(lp5805
S'a cool new app'
p5806
asbasbasbag57
(g73
g59
NtRp5807
(dp5808
g62
(dp5809
sg71
g5737
sg64
(lp5810
g57
(g78
g59
NtRp5811
(dp5812
g62
(dp5813
g82
g83
ssg71
g5807
sg64
(lp5814
S'generator'
p5815
asbag57
(g78
g59
NtRp5816
(dp5817
g62
(dp5818
g89
g90
ssg71
g5807
sg64
(lp5819
S':'
asbag57
(g78
g59
NtRp5820
(dp5821
g62
(dp5822
sg71
g5807
sg64
(lp5823
g57
(g58
g59
NtRp5824
(dp5825
g62
(dp5826
g70
I4
ssg71
g5820
sg64
(lp5827
S'Web2py Web Framework'
p5828
asbasbasbag57
(g73
g59
NtRp5829
(dp5830
g62
(dp5831
sg71
g5737
sg64
(lp5832
g57
(g78
g59
NtRp5833
(dp5834
g62
(dp5835
g82
g83
ssg71
g5829
sg64
(lp5836
S'keywords'
p5837
asbag57
(g78
g59
NtRp5838
(dp5839
g62
(dp5840
g89
g90
ssg71
g5829
sg64
(lp5841
S':'
asbag57
(g78
g59
NtRp5842
(dp5843
g62
(dp5844
sg71
g5829
sg64
(lp5845
g57
(g58
g59
NtRp5846
(dp5847
g62
(dp5848
g70
I4
ssg71
g5842
sg64
(lp5849
S'web2py, python, framework'
p5850
asbasbasbasbasbasbasbag57
(g73
g59
NtRp5851
(dp5852
g62
(dp5853
sg71
g4322
sg64
(lp5854
g57
(g78
g59
NtRp5855
(dp5856
g62
(dp5857
g82
g83
ssg71
g5851
sg64
(lp5858
S'postprocessing'
p5859
asbag57
(g78
g59
NtRp5860
(dp5861
g62
(dp5862
g89
g90
ssg71
g5851
sg64
(lp5863
S':'
asbag57
(g78
g59
NtRp5864
(dp5865
g62
(dp5866
sg71
g5851
sg64
(lp5867
g57
(g58
g59
NtRp5868
(dp5869
g62
(dp5870
g70
I5
ssg71
g5864
sg64
(lp5871
g57
(g66
g59
NtRp5872
(dp5873
g62
(dp5874
g70
I4
ssg71
Nsg64
(lp5875
sbasbasbasbag57
(g73
g59
NtRp5876
(dp5877
g62
(dp5878
sg71
g4322
sg64
(lp5879
g57
(g78
g59
NtRp5880
(dp5881
g62
(dp5882
g82
g83
ssg71
g5876
sg64
(lp5883
S'session_file'
p5884
asbag57
(g78
g59
NtRp5885
(dp5886
g62
(dp5887
g89
g90
ssg71
g5876
sg64
(lp5888
S':'
asbag57
(g78
g59
NtRp5889
(dp5890
g62
(dp5891
sg71
g5876
sg64
(lp5892
g57
(g58
g59
NtRp5893
(dp5894
g62
(dp5895
g70
I5
ssg71
g5889
sg64
(lp5896
S"<open file '/home/tls-sanjeet/Desktop/HRMS/web2py/applications/themishrms/sessions/127.0.0.1-c6e7e62d-764d-4479-b418-757cf9450e83', mode 'rb+' at 0x95f1020>"
p5897
asbasbasbag57
(g73
g59
NtRp5898
(dp5899
g62
(dp5900
sg71
g4322
sg64
(lp5901
g57
(g78
g59
NtRp5902
(dp5903
g62
(dp5904
g82
g83
ssg71
g5898
sg64
(lp5905
S'session_filename'
p5906
asbag57
(g78
g59
NtRp5907
(dp5908
g62
(dp5909
g89
g90
ssg71
g5898
sg64
(lp5910
S':'
asbag57
(g78
g59
NtRp5911
(dp5912
g62
(dp5913
sg71
g5898
sg64
(lp5914
g57
(g58
g59
NtRp5915
(dp5916
g62
(dp5917
g70
I5
ssg71
g5911
sg64
(lp5918
S'/home/tls-sanjeet/Desktop/HRMS/web2py/applications/themishrms/sessions/127.0.0.1-c6e7e62d-764d-4479-b418-757cf9450e83'
p5919
asbasbasbag57
(g73
g59
NtRp5920
(dp5921
g62
(dp5922
sg71
g4322
sg64
(lp5923
g57
(g78
g59
NtRp5924
(dp5925
g62
(dp5926
g82
g83
ssg71
g5920
sg64
(lp5927
S'session_id'
p5928
asbag57
(g78
g59
NtRp5929
(dp5930
g62
(dp5931
g89
g90
ssg71
g5920
sg64
(lp5932
S':'
asbag57
(g78
g59
NtRp5933
(dp5934
g62
(dp5935
sg71
g5920
sg64
(lp5936
g57
(g58
g59
NtRp5937
(dp5938
g62
(dp5939
g70
I5
ssg71
g5933
sg64
(lp5940
S'127.0.0.1-c6e7e62d-764d-4479-b418-757cf9450e83'
p5941
asbasbasbag57
(g73
g59
NtRp5942
(dp5943
g62
(dp5944
sg71
g4322
sg64
(lp5945
g57
(g78
g59
NtRp5946
(dp5947
g62
(dp5948
g82
g83
ssg71
g5942
sg64
(lp5949
S'session_id_name'
p5950
asbag57
(g78
g59
NtRp5951
(dp5952
g62
(dp5953
g89
g90
ssg71
g5942
sg64
(lp5954
S':'
asbag57
(g78
g59
NtRp5955
(dp5956
g62
(dp5957
sg71
g5942
sg64
(lp5958
g57
(g58
g59
NtRp5959
(dp5960
g62
(dp5961
g70
I5
ssg71
g5955
sg64
(lp5962
g4755
asbasbasbag57
(g73
g59
NtRp5963
(dp5964
g62
(dp5965
sg71
g4322
sg64
(lp5966
g57
(g78
g59
NtRp5967
(dp5968
g62
(dp5969
g82
g83
ssg71
g5963
sg64
(lp5970
S'session_locked'
p5971
asbag57
(g78
g59
NtRp5972
(dp5973
g62
(dp5974
g89
g90
ssg71
g5963
sg64
(lp5975
S':'
asbag57
(g78
g59
NtRp5976
(dp5977
g62
(dp5978
sg71
g5963
sg64
(lp5979
g57
(g58
g59
NtRp5980
(dp5981
g62
(dp5982
g70
I5
ssg71
g5976
sg64
(lp5983
g2048
asbasbasbag57
(g73
g59
NtRp5984
(dp5985
g62
(dp5986
sg71
g4322
sg64
(lp5987
g57
(g78
g59
NtRp5988
(dp5989
g62
(dp5990
g82
g83
ssg71
g5984
sg64
(lp5991
S'session_new'
p5992
asbag57
(g78
g59
NtRp5993
(dp5994
g62
(dp5995
g89
g90
ssg71
g5984
sg64
(lp5996
S':'
asbag57
(g78
g59
NtRp5997
(dp5998
g62
(dp5999
sg71
g5984
sg64
(lp6000
g57
(g58
g59
NtRp6001
(dp6002
g62
(dp6003
g70
I5
ssg71
g5997
sg64
(lp6004
g100
asbasbasbag57
(g73
g59
NtRp6005
(dp6006
g62
(dp6007
sg71
g4322
sg64
(lp6008
g57
(g78
g59
NtRp6009
(dp6010
g62
(dp6011
g82
g83
ssg71
g6005
sg64
(lp6012
S'status'
p6013
asbag57
(g78
g59
NtRp6014
(dp6015
g62
(dp6016
g89
g90
ssg71
g6005
sg64
(lp6017
S':'
asbag57
(g78
g59
NtRp6018
(dp6019
g62
(dp6020
sg71
g6005
sg64
(lp6021
g57
(g58
g59
NtRp6022
(dp6023
g62
(dp6024
g70
I5
ssg71
g6018
sg64
(lp6025
S'200'
p6026
asbasbasbag57
(g73
g59
NtRp6027
(dp6028
g62
(dp6029
sg71
g4322
sg64
(lp6030
g57
(g78
g59
NtRp6031
(dp6032
g62
(dp6033
g82
g83
ssg71
g6027
sg64
(lp6034
S'subtitle'
p6035
asbag57
(g78
g59
NtRp6036
(dp6037
g62
(dp6038
g89
g90
ssg71
g6027
sg64
(lp6039
S':'
asbag57
(g78
g59
NtRp6040
(dp6041
g62
(dp6042
sg71
g6027
sg64
(lp6043
g57
(g58
g59
NtRp6044
(dp6045
g62
(dp6046
g70
I5
ssg71
g6040
sg64
(lp6047
g4379
(S's\r\x00\x00\x00customize me!'
tRp6048
asbasbasbag57
(g73
g59
NtRp6049
(dp6050
g62
(dp6051
sg71
g4322
sg64
(lp6052
g57
(g78
g59
NtRp6053
(dp6054
g62
(dp6055
g82
g83
ssg71
g6049
sg64
(lp6056
S'title'
p6057
asbag57
(g78
g59
NtRp6058
(dp6059
g62
(dp6060
g89
g90
ssg71
g6049
sg64
(lp6061
S':'
asbag57
(g78
g59
NtRp6062
(dp6063
g62
(dp6064
sg71
g6049
sg64
(lp6065
g57
(g58
g59
NtRp6066
(dp6067
g62
(dp6068
g70
I5
ssg71
g6062
sg64
(lp6069
S'Themishrms'
p6070
asbasbasbag57
(g73
g59
NtRp6071
(dp6072
g62
(dp6073
sg71
g4322
sg64
(lp6074
g57
(g78
g59
NtRp6075
(dp6076
g62
(dp6077
g82
g83
ssg71
g6071
sg64
(lp6078
S'tlsmenu'
p6079
asbag57
(g78
g59
NtRp6080
(dp6081
g62
(dp6082
g89
g90
ssg71
g6071
sg64
(lp6083
S':'
asbag57
(g78
g59
NtRp6084
(dp6085
g62
(dp6086
sg71
g6071
sg64
(lp6087
g57
(g58
g59
NtRp6088
(dp6089
g62
(dp6090
g70
I5
ssg71
g6084
sg64
(lp6091
g57
(g66
g59
NtRp6092
(dp6093
g62
(dp6094
g70
I4
ssg71
Nsg64
(lp6095
g57
(g73
g59
NtRp6096
(dp6097
g62
(dp6098
sg71
g6092
sg64
(lp6099
g57
(g78
g59
NtRp6100
(dp6101
g62
(dp6102
sg71
g6096
sg64
(lp6103
g57
(g58
g59
NtRp6104
(dp6105
g62
(dp6106
g70
I4
ssg71
g6100
sg64
(lp6107
g57
(g66
g59
NtRp6108
(dp6109
g62
(dp6110
g70
I3
ssg71
Nsg64
(lp6111
g57
(g73
g59
NtRp6112
(dp6113
g62
(dp6114
sg71
g6108
sg64
(lp6115
g57
(g78
g59
NtRp6116
(dp6117
g62
(dp6118
sg71
g6112
sg64
(lp6119
g57
(g58
g59
NtRp6120
(dp6121
g62
(dp6122
g70
I3
ssg71
g6116
sg64
(lp6123
g4379
(S's\x07\x00\x00\x00Website'
tRp6124
asbasbasbag57
(g73
g59
NtRp6125
(dp6126
g62
(dp6127
sg71
g6108
sg64
(lp6128
g57
(g78
g59
NtRp6129
(dp6130
g62
(dp6131
sg71
g6125
sg64
(lp6132
g57
(g58
g59
NtRp6133
(dp6134
g62
(dp6135
g70
I3
ssg71
g6129
sg64
(lp6136
g100
asbasbasbag57
(g73
g59
NtRp6137
(dp6138
g62
(dp6139
sg71
g6108
sg64
(lp6140
g57
(g78
g59
NtRp6141
(dp6142
g62
(dp6143
sg71
g6137
sg64
(lp6144
g57
(g58
g59
NtRp6145
(dp6146
g62
(dp6147
g70
I3
ssg71
g6141
sg64
(lp6148
S'/themishrms/default/index'
p6149
asbasbasbag57
(g73
g59
NtRp6150
(dp6151
g62
(dp6152
sg71
g6108
sg64
(lp6153
g57
(g78
g59
NtRp6154
(dp6155
g62
(dp6156
sg71
g6150
sg64
(lp6157
g57
(g58
g59
NtRp6158
(dp6159
g62
(dp6160
g70
I3
ssg71
g6154
sg64
(lp6161
g57
(g66
g59
NtRp6162
(dp6163
g62
(dp6164
g70
I2
ssg71
Nsg64
(lp6165
sbasbasbasbasbasbasbasbag57
(g73
g59
NtRp6166
(dp6167
g62
(dp6168
sg71
g6092
sg64
(lp6169
g57
(g78
g59
NtRp6170
(dp6171
g62
(dp6172
sg71
g6166
sg64
(lp6173
g57
(g58
g59
NtRp6174
(dp6175
g62
(dp6176
g70
I4
ssg71
g6170
sg64
(lp6177
g57
(g66
g59
NtRp6178
(dp6179
g62
(dp6180
g70
I3
ssg71
Nsg64
(lp6181
g57
(g73
g59
NtRp6182
(dp6183
g62
(dp6184
sg71
g6178
sg64
(lp6185
g57
(g78
g59
NtRp6186
(dp6187
g62
(dp6188
sg71
g6182
sg64
(lp6189
g57
(g58
g59
NtRp6190
(dp6191
g62
(dp6192
g70
I3
ssg71
g6186
sg64
(lp6193
g4379
(S's\x07\x00\x00\x00WebMail'
tRp6194
asbasbasbag57
(g73
g59
NtRp6195
(dp6196
g62
(dp6197
sg71
g6178
sg64
(lp6198
g57
(g78
g59
NtRp6199
(dp6200
g62
(dp6201
sg71
g6195
sg64
(lp6202
g57
(g58
g59
NtRp6203
(dp6204
g62
(dp6205
g70
I3
ssg71
g6199
sg64
(lp6206
g100
asbasbasbag57
(g73
g59
NtRp6207
(dp6208
g62
(dp6209
sg71
g6178
sg64
(lp6210
g57
(g78
g59
NtRp6211
(dp6212
g62
(dp6213
sg71
g6207
sg64
(lp6214
g57
(g58
g59
NtRp6215
(dp6216
g62
(dp6217
g70
I3
ssg71
g6211
sg64
(lp6218
S'/themishrms/default/webmail'
p6219
asbasbasbag57
(g73
g59
NtRp6220
(dp6221
g62
(dp6222
sg71
g6178
sg64
(lp6223
g57
(g78
g59
NtRp6224
(dp6225
g62
(dp6226
sg71
g6220
sg64
(lp6227
g57
(g58
g59
NtRp6228
(dp6229
g62
(dp6230
g70
I3
ssg71
g6224
sg64
(lp6231
g57
(g66
g59
NtRp6232
(dp6233
g62
(dp6234
g70
I2
ssg71
Nsg64
(lp6235
sbasbasbasbasbasbasbasbag57
(g73
g59
NtRp6236
(dp6237
g62
(dp6238
sg71
g6092
sg64
(lp6239
g57
(g78
g59
NtRp6240
(dp6241
g62
(dp6242
sg71
g6236
sg64
(lp6243
g57
(g58
g59
NtRp6244
(dp6245
g62
(dp6246
g70
I4
ssg71
g6240
sg64
(lp6247
g57
(g66
g59
NtRp6248
(dp6249
g62
(dp6250
g70
I3
ssg71
Nsg64
(lp6251
g57
(g73
g59
NtRp6252
(dp6253
g62
(dp6254
sg71
g6248
sg64
(lp6255
g57
(g78
g59
NtRp6256
(dp6257
g62
(dp6258
sg71
g6252
sg64
(lp6259
g57
(g58
g59
NtRp6260
(dp6261
g62
(dp6262
g70
I3
ssg71
g6256
sg64
(lp6263
g4379
(S's\r\x00\x00\x00Themis Portal'
tRp6264
asbasbasbag57
(g73
g59
NtRp6265
(dp6266
g62
(dp6267
sg71
g6248
sg64
(lp6268
g57
(g78
g59
NtRp6269
(dp6270
g62
(dp6271
sg71
g6265
sg64
(lp6272
g57
(g58
g59
NtRp6273
(dp6274
g62
(dp6275
g70
I3
ssg71
g6269
sg64
(lp6276
g100
asbasbasbag57
(g73
g59
NtRp6277
(dp6278
g62
(dp6279
sg71
g6248
sg64
(lp6280
g57
(g78
g59
NtRp6281
(dp6282
g62
(dp6283
sg71
g6277
sg64
(lp6284
g57
(g58
g59
NtRp6285
(dp6286
g62
(dp6287
g70
I3
ssg71
g6281
sg64
(lp6288
S'/themishrms/default/portal'
p6289
asbasbasbag57
(g73
g59
NtRp6290
(dp6291
g62
(dp6292
sg71
g6248
sg64
(lp6293
g57
(g78
g59
NtRp6294
(dp6295
g62
(dp6296
sg71
g6290
sg64
(lp6297
g57
(g58
g59
NtRp6298
(dp6299
g62
(dp6300
g70
I3
ssg71
g6294
sg64
(lp6301
g57
(g66
g59
NtRp6302
(dp6303
g62
(dp6304
g70
I2
ssg71
Nsg64
(lp6305
sbasbasbasbasbasbasbasbag57
(g73
g59
NtRp6306
(dp6307
g62
(dp6308
sg71
g6092
sg64
(lp6309
g57
(g78
g59
NtRp6310
(dp6311
g62
(dp6312
sg71
g6306
sg64
(lp6313
g57
(g58
g59
NtRp6314
(dp6315
g62
(dp6316
g70
I4
ssg71
g6310
sg64
(lp6317
g57
(g66
g59
NtRp6318
(dp6319
g62
(dp6320
g70
I3
ssg71
Nsg64
(lp6321
g57
(g73
g59
NtRp6322
(dp6323
g62
(dp6324
sg71
g6318
sg64
(lp6325
g57
(g78
g59
NtRp6326
(dp6327
g62
(dp6328
sg71
g6322
sg64
(lp6329
g57
(g58
g59
NtRp6330
(dp6331
g62
(dp6332
g70
I3
ssg71
g6326
sg64
(lp6333
g4379
(S's\x0f\x00\x00\x00Themis Policies'
tRp6334
asbasbasbag57
(g73
g59
NtRp6335
(dp6336
g62
(dp6337
sg71
g6318
sg64
(lp6338
g57
(g78
g59
NtRp6339
(dp6340
g62
(dp6341
sg71
g6335
sg64
(lp6342
g57
(g58
g59
NtRp6343
(dp6344
g62
(dp6345
g70
I3
ssg71
g6339
sg64
(lp6346
g100
asbasbasbag57
(g73
g59
NtRp6347
(dp6348
g62
(dp6349
sg71
g6318
sg64
(lp6350
g57
(g78
g59
NtRp6351
(dp6352
g62
(dp6353
sg71
g6347
sg64
(lp6354
g57
(g58
g59
NtRp6355
(dp6356
g62
(dp6357
g70
I3
ssg71
g6351
sg64
(lp6358
S'/themishrms/default/ourtrem'
p6359
asbasbasbag57
(g73
g59
NtRp6360
(dp6361
g62
(dp6362
sg71
g6318
sg64
(lp6363
g57
(g78
g59
NtRp6364
(dp6365
g62
(dp6366
sg71
g6360
sg64
(lp6367
g57
(g58
g59
NtRp6368
(dp6369
g62
(dp6370
g70
I3
ssg71
g6364
sg64
(lp6371
g57
(g66
g59
NtRp6372
(dp6373
g62
(dp6374
g70
I2
ssg71
Nsg64
(lp6375
sbasbasbasbasbasbasbasbag57
(g73
g59
NtRp6376
(dp6377
g62
(dp6378
sg71
g6092
sg64
(lp6379
g57
(g78
g59
NtRp6380
(dp6381
g62
(dp6382
sg71
g6376
sg64
(lp6383
g57
(g58
g59
NtRp6384
(dp6385
g62
(dp6386
g70
I4
ssg71
g6380
sg64
(lp6387
g57
(g66
g59
NtRp6388
(dp6389
g62
(dp6390
g70
I3
ssg71
Nsg64
(lp6391
g57
(g73
g59
NtRp6392
(dp6393
g62
(dp6394
sg71
g6388
sg64
(lp6395
g57
(g78
g59
NtRp6396
(dp6397
g62
(dp6398
sg71
g6392
sg64
(lp6399
g57
(g58
g59
NtRp6400
(dp6401
g62
(dp6402
g70
I3
ssg71
g6396
sg64
(lp6403
g4379
(S's\x0f\x00\x00\x00Contact Details'
tRp6404
asbasbasbag57
(g73
g59
NtRp6405
(dp6406
g62
(dp6407
sg71
g6388
sg64
(lp6408
g57
(g78
g59
NtRp6409
(dp6410
g62
(dp6411
sg71
g6405
sg64
(lp6412
g57
(g58
g59
NtRp6413
(dp6414
g62
(dp6415
g70
I3
ssg71
g6409
sg64
(lp6416
g100
asbasbasbag57
(g73
g59
NtRp6417
(dp6418
g62
(dp6419
sg71
g6388
sg64
(lp6420
g57
(g78
g59
NtRp6421
(dp6422
g62
(dp6423
sg71
g6417
sg64
(lp6424
g57
(g58
g59
NtRp6425
(dp6426
g62
(dp6427
g70
I3
ssg71
g6421
sg64
(lp6428
S'/themishrms/default/emp_contact_detail'
p6429
asbasbasbag57
(g73
g59
NtRp6430
(dp6431
g62
(dp6432
sg71
g6388
sg64
(lp6433
g57
(g78
g59
NtRp6434
(dp6435
g62
(dp6436
sg71
g6430
sg64
(lp6437
g57
(g58
g59
NtRp6438
(dp6439
g62
(dp6440
g70
I3
ssg71
g6434
sg64
(lp6441
g57
(g66
g59
NtRp6442
(dp6443
g62
(dp6444
g70
I2
ssg71
Nsg64
(lp6445
sbasbasbasbasbasbasbasbasbasbasbasbag57
(g73
g59
NtRp6446
(dp6447
g62
(dp6448
sg71
g4322
sg64
(lp6449
g57
(g78
g59
NtRp6450
(dp6451
g62
(dp6452
g82
g83
ssg71
g6446
sg64
(lp6453
g2712
asbag57
(g78
g59
NtRp6454
(dp6455
g62
(dp6456
g89
g90
ssg71
g6446
sg64
(lp6457
S':'
asbag57
(g78
g59
NtRp6458
(dp6459
g62
(dp6460
sg71
g6446
sg64
(lp6461
g57
(g58
g59
NtRp6462
(dp6463
g62
(dp6464
g70
I5
ssg71
g6458
sg64
(lp6465
g2725
asbasbasbag57
(g73
g59
NtRp6466
(dp6467
g62
(dp6468
sg71
g4322
sg64
(lp6469
g57
(g78
g59
NtRp6470
(dp6471
g62
(dp6472
g82
g83
ssg71
g6466
sg64
(lp6473
S'view'
p6474
asbag57
(g78
g59
NtRp6475
(dp6476
g62
(dp6477
g89
g90
ssg71
g6466
sg64
(lp6478
S':'
asbag57
(g78
g59
NtRp6479
(dp6480
g62
(dp6481
sg71
g6466
sg64
(lp6482
g57
(g58
g59
NtRp6483
(dp6484
g62
(dp6485
g70
I5
ssg71
g6479
sg64
(lp6486
S'default/admin_newuser.html'
p6487
asbasbasbasbasbsS'locals'
p6488
(dp6489
S'c'
S'None'
p6490
sS'row'
p6491
S'None'
p6492
sssS'traceback'
p6493
S'Traceback (most recent call last):\n  File "/home/tls-sanjeet/Desktop/HRMS/web2py/gluon/restricted.py", line 205, in restricted\n    exec ccode in environment\n  File "/home/tls-sanjeet/Desktop/HRMS/web2py/applications/themishrms/controllers/default.py", line 1370, in <module>\n  File "/home/tls-sanjeet/Desktop/HRMS/web2py/gluon/globals.py", line 173, in <lambda>\n    self._caller = lambda f: f()\n  File "/home/tls-sanjeet/Desktop/HRMS/web2py/gluon/tools.py", line 2575, in f\n    return action(*a, **b)\n  File "/home/tls-sanjeet/Desktop/HRMS/web2py/applications/themishrms/controllers/default.py", line 307, in admin_newuser\n    form=SQLFORM.grid(db.auth_user, create=False, selectable = lambda ids: del_emp(ids))\n  File "/home/tls-sanjeet/Desktop/HRMS/web2py/gluon/sqlhtml.py", line 1805, in grid\n    value=field.represent(value,row)\n  File "/home/tls-sanjeet/Desktop/HRMS/web2py/applications/themishrms/models/db.py", line 59, in <lambda>\n    Field(\'organization_name\',db.add_new_organization, represent=lambda c, row:get_org_name(c), requires = IS_IN_DB(db,\'add_new_organization.id\',\'%(organization_name)s\')),\n  File "/home/tls-sanjeet/Desktop/HRMS/web2py/applications/themishrms/models/db.py", line 113, in get_org_name\n    return row.organization_name\nAttributeError: \'NoneType\' object has no attribute \'organization_name\'\n'
p6494
s.