(dp1
S'output'
p2
S"<type 'exceptions.SyntaxError'> invalid syntax (default.py, line 1404)"
p3
sS'layer'
p4
S'/home/sanjeet/Desktop/install/Development/web2py/applications/themishrms/controllers/default.py'
p5
sS'code'
p6
S'# -*- coding: utf-8 -*-\n# this file is released under public domain and you can use without limitations\n\n#########################################################################\n## This is a samples controller\n## - index is the default action of any application\n## - user is required for authentication and authorization\n## - download is for downloading files uploaded in the db (does streaming)\n## - call exposes all registered services (none by default)\n#########################################################################\n\ndef index():\n    """\n    example action using the internationalization operator T and flash\n    rendered by views/default/index.html or views/generic.html\n    """\n    response.flash = "Welcome to Themis Lexsol"\n    return dict(message=T(\'Hello World\'))\n\t\n\t\ndef tlscareer():\n    return dict()\n\ndef tlsabout():\n    return dict()\n    \ndef rt():\n    return dict()\n\ndef employee():\n    return dict()\n    \ndef tlsservice():\n    return dict()\n\n\ndef tlsoo():\n    return dict()   \n\ndef tlsleads():\n    return dict()   \n\ndef tlsoteam():\t\n\t return dict()\n\t \n\ndef tlscontact(): \r\n    use_recaptcha = True \r\n    form = SQLFORM.factory(Field(\'Name\',requires=IS_NOT_EMPTY()),Field (\'your_email\',requires=IS_EMAIL()),Field(\'your_message\',\'text\')) \r\n    return dict(form=form)\r\n\t\t\r\ndef tlscareer(): \r\n    form = SQLFORM.factory(Field(\'name\',requires=IS_NOT_EMPTY()),\n    \t\t\t\t\t\t\t\tField (\'your_email\',requires=IS_EMAIL()),\n    \t\t\t\t\t\t\t\tSQLField(\'contact_details\',requires=IS_NOT_EMPTY()),\n    \t\t\t\t\t\t\t\tField(\'your_message\',\'text\'),\n    \t\t\t\t\t\t\t\tSQLField(\'looking_for_position\',requires=IS_IN_SET([\'Admin\', \'Legal\', \'Finance\',\'IT\'])),\n    \t\t\t\t\t\t\t\tSQLField(\'your_resume\',\'upload\')) \n    if form.accepts(request,session):\n    \tsession.name = form.vars.name\n    \t#careermail() \r\n    return dict(form=form)\t\r\n\t\t\r\ndef careermail():\n    from gluon.tools import Mail\n    mail = Mail()\n        #specify server\n    mail=auth.settings.mailer\n    mail.settings.server = \'smtp.gmail.com:587\'\n    #specify address to send as\n    mail.settings.sender = \'themisdemo1@gmail.com\'\n    mail.settings.login = \'themisdemo1@gmail.com:123456asdfg\'\n    #send the message                             \n    mail.send(to=[\'sanjeet.tls@gmail.com\',\'prakhar.tls@gmail.com\'],\n            subject=\'Welcome User\',\n            message=\'<html>\'\n                        \'<body>\'\n                            \'<span style="font-family: Bodoni MT Ultra Bold;color:  #000000 ;font-size : 18pt;"><b>Themis </span></h1><span style="font-family: Bodoni MT Ultra Bold;color:#C7A317   ;font-size :18pt;"><b>Lexsol</b></span>\'\n                            \n                            \'<p>Dear &nbsp;\'+session.name+\'</p>\'\n                            \n                            \'<p>I just wanted to drop you a quick message to say thank you for joining the LCM Plus. I appreciate you taking the time to register and really look forward to reading your compliances. Your user name is \'+session.mail+\' and please click below to reset your password.<h1>http://jmdlcmplus.fluxflex.com/jmdlcmplus/default/user/request_reset_password</h1>If you need help at any time, please contact me by replying to this message. Similarly, if you ever have any questions then please do not hesitate to send me a message or email.</p>\'\n                            \'<center><p>_________________________________________________________</p><p style="color:red;font-size :5pt;">This email comes to you since your company has subcribed for LCM Plus. TO unsubcribed please contact to your Compliance Manager</p></center>\'\n                      \n                        \'</body>\'\n                    \'</html>\'\n                    \n  )\n    response.flash=\'mail send\'\n    return \'\'\r\n\ndef user():\n    """\n    exposes:\n    http://..../[app]/default/user/login\n    http://..../[app]/default/user/logout\n    http://..../[app]/default/user/register\n    http://..../[app]/default/user/profile\n    http://..../[app]/default/user/retrieve_password\n    http://..../[app]/default/user/change_password\n    use @auth.requires_login()\n        @auth.requires_membership(\'group name\')\n        @auth.requires_permission(\'read\',\'table name\',record_id)\n    to decorate functions that need access control\n    """\n    return dict(form=auth())\n\n\ndef download():\n    """\n    allows downloading of uploaded files\n    http://..../[app]/default/download/[filename]\n    """\n    return response.download(request,db)\n\n\ndef call():\n    """\n    exposes services. for example:\n    http://..../[app]/default/call/jsonrpc\n    decorate with @services.jsonrpc the functions to expose\n    supports xml, json, xmlrpc, jsonrpc, amfrpc, rss, csv\n    """\n    return service()\n\n\n@auth.requires_signature()\ndef data():\n    """\n    http://..../[app]/default/data/tables\n    http://..../[app]/default/data/create/[table]\n    http://..../[app]/default/data/read/[table]/[id]\n    http://..../[app]/default/data/update/[table]/[id]\n    http://..../[app]/default/data/delete/[table]/[id]\n    http://..../[app]/default/data/select/[table]\n    http://..../[app]/default/data/search/[table]\n    but URLs must be signed, i.e. linked with\n      A(\'table\',_href=URL(\'data/tables\',user_signature=True))\n    or with the signed load operator\n      LOAD(\'default\',\'data.load\',args=\'tables\',ajax=True,user_signature=True)\n    """\n    return dict(form=crud())\n    \ndef welcome():\n\t""" First page to be visited after installation. Will create necessary roles and permissions for admin and redirects to index."""\n\tcreate_user()\n\tcreate_group()\n\tcreate_membership()\n\tcreate_permission()\n\tsession.flash = "Welcome to Themis"\n\tredirect(URL(c=\'default\', f=\'index\'))\n\t\ndef create_user():\n\t username = \'admin\'\n\t password = username\n\t if \'username\' in auth.settings.table_user.fields():\n\t \tuserkey = \'username\'\n\t elif \'email\' in auth.settings.table_user.fields():\n\t \tuserkey = \'email\'\n\t \tusername = username + \'@themislexsol.com\'\n\t passfield = auth.settings.password_field \n\t user = db(auth.settings.table_user[userkey] == username).select().first()\n\t if not user:\n\t \tuser_id = db.auth_user.insert(**{userkey:username,passfield:CRYPT(auth.settings.hmac_key)(password)[0]})\n\t \tuser = auth.settings.table_user(user_id)\n\t return user\n\t \ndef create_group():\n    group = db(auth.settings.table_group.role == \'Admin\').select().first()\n    if not group:\n        group_id = auth.add_group(role = \'Admin\', description = \'All Permissions\')\n        group = auth.settings.table_group(group_id)\n    return group\n    \ndef create_membership():\n\tgroup = db(db.auth_group.role == \'Admin\').select().first()\n\tuser = db(db.auth_user.email == \'admin@themislexsol.com\').select().first()\n\tmembership = db(auth.settings.table_membership.group_id == group.id).select().first()\n\tif not membership:\n\t\tmembership_id = auth.add_membership(group_id = group.id, user_id = user.id)\n\t\tmembership = auth.settings.table_membership(membership_id)\n\treturn membership\n\t\ndef create_permission():\n\ttables = list(db.tables)\n\tfor table in tables:\n\t\tgroup = db(db.auth_group.role == \'Admin\').select().first()\n\t\tquery = auth.settings.table_permission.group_id == group.id\n\t\tquery = query & (auth.settings.table_permission.name == \'CRUD\')\n\t\tquery = query & (auth.settings.table_permission.table_name == table)\n\t\tpermission = db(query).select().first()\n\t\tif not permission:\n\t\t\tpermission_id = auth.add_permission(group_id = group.id, name = \'CRUD\', table_name = table)\n\t\t\tpermission = auth.settings.table_permission(permission_id)\n\treturn permission\n\t\ndef lgin(form):\n\tif auth.user.email == \'admin@themislexsol.com\':\n\t\tadmin=db(db.image.email==auth.user.email).select().first()\n\t\tif not admin:\n\t\t\tdb.image.insert(email=auth.user.email)\n\t\t\tredirect(URL(c=\'default\', f=\'admindash\'))\n\t\telse:\n\t\t\tredirect(URL(c=\'default\', f=\'admindash\'))\t\t\t\n\telse:\n\t\tredirect(URL(c=\'default\', f=\'emp_time\'))\n\treturn dict()\n\t\ndef lgout(usr):\n\tif auth.user.email == \'admin@themislexsol.com\':\n\t\tpass\n\telse:\n\t\timport datetime\n\t\timport time, os\n\t\tos.environ[\'TZ\'] = \'Asia/Kolkata\'\n\t\ttime.tzset()\n\t\tcurrentdate=datetime.date.today()\n\t\tnow = time.localtime(time.time())\n\t\tendtime=datetime.datetime.now()\n\t\tstarttime = session.starttime\n\t\tdelta = (endtime - starttime)\n\t\ttotalminutes = str(delta.seconds / 60)\n\t\ttotalhours = str(delta.seconds / 3600)\n\t\ttotmin = totalminutes + \'\\t min\'\n\t\ttothr = totalhours + \'\\t hrs\'\n\t\tcurrenttime = time.strftime("%H:%M:%S", now)\n\t\tdb((db.employee_login_detail.employee_email == auth.user.email) & (db.employee_login_detail.employee_login_date == currentdate) & (db.employee_login_detail.employee_login_time == session.cutime)).update(employee_logout_date=currentdate, employee_logout_time=currenttime, total_minutes=totmin, toal_hours=tothr)\n\t\tdb.commit()\n\treturn dict()\n\n#### Admin Controller Starts from here ####\t\n\t\n@auth.requires(auth.login() and auth.has_permission(\'CRUD\', \'auth_user\'))    \ndef admindash():\n\tfor row in db(db.image.email == auth.user.email).select():\n\t\timages=row.image\n\treturn dict(images=images)\t \n\n@auth.requires_permission(\'CRUD\', \'auth_user\')\t\t\ndef admin_organization():\n\tfor row in db(db.image.email == auth.user.email).select():\n\t\timages=row.image\n\tdb.add_new_organization.id.readable = False\n\tform=SQLFORM.grid(db.add_new_organization, selectable = lambda ids: del_org(ids))\n\treturn dict(images=images,form=form)\n\t\n@auth.requires_permission(\'CRUD\', \'auth_user\')\t\ndef del_org(ids):\n\tif not ids:\n\t\tresponse.flash=\'Please Select the Check-box to Delete\'\n\telse:\n\t\tfor row in ids:\n\t\t\tdb(db.add_new_organization.id == row).delete()\n\t\tpass\n\tpass\n\treturn \'\'\n\t\n@auth.requires_permission(\'CRUD\', \'auth_user\')\t\t\ndef admin_location():\n\tfor row in db(db.image.email == auth.user.email).select():\n\t\timages=row.image\n\tdb.add_new_location.id.readable = False\n\tform=SQLFORM.grid(db.add_new_location, selectable = lambda ids: del_loc(ids))\n\treturn dict(images=images,form=form)\n\t\n@auth.requires_permission(\'CRUD\', \'auth_user\')\t\ndef del_loc(ids):\n\tif not ids:\n\t\tresponse.flash=\'Please Select the Check-box to Delete\'\n\telse:\n\t\tfor row in ids:\n\t\t\tdb(db.add_new_location.id == row).delete()\n\t\tpass\n\tpass\n\treturn \'\'\n\t\n@auth.requires_permission(\'CRUD\', \'auth_user\')\t\t\ndef admin_department():\n\tfor row in db(db.image.email == auth.user.email).select():\n\t\timages=row.image\n\tdb.add_new_department.id.readable = False\n\tform=SQLFORM.grid(db.add_new_department, selectable = lambda ids: del_dpt(ids))\n\treturn dict(images=images,form=form)\n\t\n@auth.requires_permission(\'CRUD\', \'auth_user\')\t\ndef del_dpt(ids):\n\tif not ids:\n\t\tresponse.flash=\'Please Select the Check-box to Delete\'\n\telse:\n\t\tfor row in ids:\n\t\t\tdb(db.add_new_department.id == row).delete()\n\t\tpass\n\tpass\n\treturn \'\'\n\n@auth.requires_permission(\'CRUD\', \'auth_user\')\t\ndef locn(): \n\torg = request.vars.org\n\tloc = db(db.add_new_location.organization_name == org).select()\n\treturn SELECT(_id="locn",_name="locn",*[OPTION(loc [i].location, _value=str (loc[i].location)) for i in range(len(loc))])\n\n@auth.requires_permission(\'CRUD\', \'auth_user\')\t  \ndef admin_newuser():\n\tfor row in db(db.image.email == auth.user.email).select():\n\t\timages=row.image\n\tdb.auth_user.id.readable = False\n\tform=SQLFORM.grid(db.auth_user, create=False, selectable = lambda ids: del_emp(ids))\n\treturn dict(images=images,form=form)\n\t\n@auth.requires_permission(\'CRUD\', \'auth_user\')\t\ndef del_emp(ids):\n\tif not ids:\n\t\tresponse.flash=\'Please Select the Check-box to Delete\'\n\telse:\n\t\tfor row in ids:\n\t\t\tdb(db.auth_user.id == row).delete()\n\t\tpass\n\tpass\n\treturn \'\'\n\n@auth.requires_permission(\'CRUD\', \'auth_user\')\t\ndef admin_create_new_user():\n\tfor row in db(db.image.email == auth.user.email).select():\n\t\timages=row.image\n\t\n\tadmin_create_new_user.count=0\n\tdef counting():\n\t\tfor row in db(db.auth_user.id >= 1).select():\n\t\t\tadmin_create_new_user.count += 1\n\tcounting()\n\tcount=admin_create_new_user.count\n\tprefix=\'00\'\n\tpre=\'0\'\n\tpr=\'\'\n\tif count < 10:\n\t\tid=prefix+str(count)\n\telif count >= 10 and count <= 99:\n\t\tid=pre+str(count)\n\telse:\n\t\tid=pr+str(count)\n\t\t\n\torg = db().select(db.add_new_organization.ALL)\n\tdpt = db().select(db.add_new_department.ALL)\n\trmgr = db().select(db.auth_user.ALL)\n\tstat = [\'Active\',\'Terminated\',\'Resigned\',\'Leave-of-Absence\',\'Deceased\']\n\t\n\tif request.vars.mailerror:\n\t\tvar = \'This email (\'+request.vars.mailerror+\') is allready taken. Please choose another email address.\'\n\telif request.vars.mailerr:\n\t\tvar = \'This email (\'+request.vars.mailerr+\') is Successfully Registered with HRMS.\'\n\telse:\n\t\tvar = \'Add New Employee\'\n\treturn dict(images=images, org=org, dpt=dpt, stat=stat, id=id, var=var,rmgr=rmgr)\n\t\n@auth.requires_permission(\'CRUD\', \'auth_user\')\t\ndef admin_submit_newuser():\n\tfor row in db(db.auth_user.email==request.vars.orgemail).select():\n\t\tsession.regmail=row.email\n\t\tpass\n\tif session.regmail == request.vars.orgemail:\n\t\tredirect(URL(c=\'default\', f=\'admin_create_new_user\', vars={\'mailerror\' :request.vars.orgemail}))\n\telse:\n\t\tsession.mail = request.vars.orgemail\n\t\tsession.pmail = request.vars.pemail\n\t\tsession.fname = request.vars.fname\n\t\tsession.mgr = request.vars.rmgr\n\t\tfor row1 in db(db.add_new_organization.id==request.vars.org).select():\n\t\t\tpr = row1.organization_prefix\n\t\t\tcmpny = row1.organization_name\n\t\tprefix = str(pr+request.vars.empcode)\n\t\tdb.auth_user.bulk_insert([{\'first_name\' : session.fname,\'last_name\' : request.vars.lname,\'email\' : session.mail,\'password\' : db.auth_user.password.validate(\'1234\')[0],\'organization_name\' : cmpny, \'location\' : request.vars.locn, \'department\' : request.vars.dpt, \'employee_code\' : prefix, \'personal_email\' : session.pmail, \'date_of_joining\' : request.vars.doj, \'reporting_manager\' : request.vars.rmgr, \'designation\' : request.vars.dgn, \'employee_status\' : request.vars.stat}])\n\t\tcreate_emp_group()\n\t\tcreate_emp_membership()\n\t\tcreate_emp_permission()\n\t\tcreate_mgr_group()\n\t\tcreate_mgr_membership()\n\t\tcreate_mgr_permission()\n\t\tdb.personal_information.insert(email=session.mail,employee_code=prefix)\n\t\tdb.qualification.insert(email=session.mail,employee_code=prefix)\n\t\tdb.document.insert(email=session.mail,employee_code=prefix)\n\t\tdb.image.insert(email=session.mail,employee_code=prefix)\n\t\t\n\t\ttotvacationleave=18\n\t\ttotmedicalleave=6\n\t\ttotcasualleave=6\n\t\timport datetime\n\t\tmonth = datetime.datetime.now().month\n\t\ttotmonth = 12\n\t\tcurmnth = totmonth - month\n\t\tvacleave = int(curmnth * 1.5)\n\t\tmedleave = int(curmnth * 0.5)\n\t\tcasulleave = int(curmnth * 0.5)\n\t\ttackenvacleave = 0\n\t\ttackenmedleave = 0\n\t\ttakencasulleave = 0\n\t\tdb.employee_leave.insert(employee_code=prefix,email=session.mail,taken_vacation_leave=tackenvacleave,taken_medical_leave=tackenmedleave,taken_casual_leave=takencasulleave,left_vacation_leave=vacleave,left_medical_leave=medleave,left_casual_leave=casulleave)\n\t\tdb.commit()\n\t\twelcome_mail()\n\t\tredirect(URL(c=\'default\', f=\'admin_create_new_user\', vars={\'mailerr\' :request.vars.orgemail}))\n\treturn dict()\n\t\n@auth.requires_permission(\'CRUD\', \'auth_user\')\r\ndef welcome_mail():\r\n    from gluon.tools import Mail\r\n    mail=Mail()\r\n    #specify server\n    \n    mail=auth.settings.mailer\r\n    mail.settings.server=\'smtp.gmail.com:587\'\r\n    mail.settings.login=\'themisdemo1@gmail.com:123456asdfg\'\r\n    #specify address to send as\r\n    mail.settings.sender=\'themisdemo1@gmail.com\'\r\n    #send the message                             \r\n    mail.send(to=[session.mail, session.pmail],\r\n            subject=\'Welcome User\',\r\n            message=\'<html>\'\r\n                        \'<body>\'\r\n                            \'<span style="font-family: Bodoni MT Ultra Bold;color:  #000000 ;font-size : 18pt;"><b>Themis </span></h1><span style="font-family: Bodoni MT Ultra Bold;color:#C7A317   ;font-size :18pt;"><b>Lexsol</b></span>\'\r\n                            \r\n                            \'<p>Dear &nbsp;\'+session.fname+\'</p>\'\r\n                            \r\n                            \'<p>I just wanted to drop you a quick message to say thank you for joining the Themis Lexsol.Your user name is \'+session.mail+\' and please click below to reset your password.<h1>http://jmdlcmplus.fluxflex.com/jmdlcmplus/default/user/request_reset_password</h1>If you need help at any time, please contact me by replying to this message. Similarly, if you ever have any questions then please do not hesitate to send me a message or email.</p>\'\r\n                            \'<center><p>_________________________________________________________</p><p style="color:red;font-size :5pt;">This email comes to you since your company has subcribed for LCM Plus. TO unsubcribed please contact to Themis Lexsol</p></center>\'\r\n                      \r\n                        \'</body>\'\r\n                    \'</html>\'\r\n                    \r\n  )\r\n    response.flash=\'mail send\'\r\n    return \'\'\t\n\t\n@auth.requires_permission(\'CRUD\', \'auth_user\')    \ndef create_emp_group():\r\n    group = db(auth.settings.table_group.role == \'Emp\').select().first()\r\n    if not group:\r\n        group_id = auth.add_group(role = \'Emp\', description = \'Only Employee Permissions\')\r\n        group = auth.settings.table_group(group_id)\r\n    return group\n\n@auth.requires_permission(\'CRUD\', \'auth_user\')    \ndef create_emp_membership():\r\n\tgroup = db(db.auth_group.role == \'Emp\').select().first()\r\n\tuser = db(db.auth_user.email == session.mail).select().first()\r\n\tmembership = db((auth.settings.table_membership.group_id == group.id) & (auth.settings.table_membership.user_id == user.id)).select().first()\r\n\tif not membership:\r\n\t\tmembership_id = auth.add_membership(group_id = group.id, user_id = user.id)\r\n\t\tmembership = auth.settings.table_membership(membership_id)\r\n\treturn membership\n\n@auth.requires_permission(\'CRUD\', \'auth_user\')\t\ndef create_emp_permission():\r\n\tgroup = db(db.auth_group.role == \'Emp\').select().first()\n\tquery = auth.settings.table_permission.group_id == group.id\n\tquery = query & (auth.settings.table_permission.name == \'Emp\')\n\tpermission = db(query).select().first()\n\tif not permission:\n\t\tpermission_id = auth.add_permission(group_id = group.id, name = \'Emp\', table_name = \'auth_user\')\n\t\tpermission = auth.settings.table_permission(permission_id)\n\treturn permission\n\t\n@auth.requires_permission(\'CRUD\', \'auth_user\')    \ndef create_mgr_group():\n    group = db(auth.settings.table_group.role == \'Mgr\').select().first()\n    if not group:\n        group_id = auth.add_group(role = \'Mgr\', description = \'Only Manager Permissions\')\n        group = auth.settings.table_group(group_id)\n    return group\n\n@auth.requires_permission(\'CRUD\', \'auth_user\')    \ndef create_mgr_membership():\n\tgroup = db(db.auth_group.role == \'Mgr\').select().first()\n\tuser = db(db.auth_user.email == session.mgr).select().first()\n\tmembership = db((auth.settings.table_membership.group_id == group.id) & (auth.settings.table_membership.user_id == user.id)).select().first()\n\tif not membership:\n\t\tmembership_id = auth.add_membership(group_id = group.id, user_id = user.id)\n\t\tmembership = auth.settings.table_membership(membership_id)\n\treturn membership\n\n@auth.requires_permission(\'CRUD\', \'auth_user\')\t\ndef create_mgr_permission():\n\tgroup = db(db.auth_group.role == \'Mgr\').select().first()\n\tquery = auth.settings.table_permission.group_id == group.id\n\tquery = query & (auth.settings.table_permission.name == \'Mgr\')\n\tpermission = db(query).select().first()\n\tif not permission:\n\t\tpermission_id = auth.add_permission(group_id = group.id, name = \'Mgr\', table_name = \'auth_user\')\n\t\tpermission = auth.settings.table_permission(permission_id)\n\treturn permission\n\n@auth.requires_permission(\'CRUD\', \'auth_user\')\t\ndef admin_newholiday():\n\tfor row in db(db.image.email == auth.user.email).select():\n\t\timages=row.image\n\tdb.holiday_list.id.readable=False\n\tform=SQLFORM.grid(db.holiday_list, selectable = lambda ids: del_hlist(ids))\n\treturn dict(images=images,form=form)\n\t\n@auth.requires_permission(\'CRUD\', \'auth_user\')\t\ndef del_hlist(ids):\n\tif not ids:\n\t\tresponse.flash=\'Please Select the Check-box to Delete\'\n\telse:\n\t\tfor row in ids:\n\t\t\tdb(db.holiday_list.id == row).delete()\n\t\tpass\n\tpass\n\treturn \'\'\n\n@auth.requires_permission(\'CRUD\', \'auth_user\')    \ndef addthemis():\n\tfor row in db(db.image.email == auth.user.email).select():\n\t\timages=row.image\n\treturn dict(images=images)\n\n@auth.requires_permission(\'CRUD\', \'auth_user\')\t\ndef admin_timesheet():\n\tfor row in db(db.image.email == auth.user.email).select():\n\t\timages=row.image\n\treturn dict(images=images)\n\t\n@auth.requires_permission(\'CRUD\', \'auth_user\')\t\ndef admin_attendance():\n\tfor row in db(db.image.email == auth.user.email).select():\n\t\timages=row.image\n\tdb.employee_login_detail.id.readable=False\n\tform=SQLFORM.grid(db.employee_login_detail, selectable = lambda ids: del_att(ids))\n\treturn dict(form=form,images=images)\n\t\n@auth.requires_permission(\'CRUD\', \'auth_user\')\t\ndef del_att(ids):\n\tif not ids:\n\t\tresponse.flash=\'Please Select the Check-box to Delete\'\n\telse:\n\t\tfor row in ids:\n\t\t\tdb(db.employee_login_detail.id == row).delete()\n\t\tpass\n\tpass\n\treturn \'\'\n\n@auth.requires_permission(\'CRUD\', \'auth_user\')\t\t\ndef admin_report():\n\tfor row in db(db.image.email == auth.user.email).select():\n\t\timages=row.image\n\treturn dict(images=images)\n\n@auth.requires_permission(\'CRUD\', \'auth_user\')    \ndef admin_mydoc():\n\tfor row in db(db.image.email == auth.user.email).select():\n\t\timages=row.image\n\treturn dict(images=images)\n\n@auth.requires_permission(\'CRUD\', \'auth_user\')\t\t\ndef admin_salary():\n\tfor row in db(db.image.email == auth.user.email).select():\n\t\timages=row.image\n\treturn dict(images=images)\n\t\n@auth.requires_permission(\'CRUD\', \'auth_user\')\ndef admin_update_image():\n\tfor row in db(db.image.email == auth.user.email).select():\n\t\timages=row.image\n\tfor row1 in db(db.image.email == auth.user.email).select():\n\t\tmail=row.email\n\t\tecode=row.employee_code\n\t\t\n\tdb.image.email.writable=False\n\tdb.image.employee_code.writable=db.image.employee_code.readable=False\n\tdb.image.email.default=mail\n\tform=SQLFORM(db.image)\n\tif form.accepts(request.vars, session):\n\t\timg = form.vars.image\n\t\tdb(db.image.email == auth.user.email).update(image=img)\n\t\tredirect(URL(c=\'default\', f=\'admindash\'))\n\treturn dict(images=images,form=form)\n\n@auth.requires_permission(\'CRUD\', \'auth_user\')\t\ndef admin_calendar():\n\tfor row in db(db.image.email == auth.user.email).select():\n\t\timages=row.image\n\tcaland=db().select(db.holiday_list.ALL)\r\n\treturn dict(images=images,rows=caland)\n\n@auth.requires_permission(\'CRUD\', \'auth_user\')\t\ndef admin_calread():\n\tfor row in db(db.image.email == auth.user.email).select():\n\t\timages=row.image\n\trecord = db.holiday_list(request.args(0)) or redirect(URL(\'error\'))\n\tform=crud.read(db.holiday_list,record)\n\treturn dict(form=form,images=images)\n    \n@auth.requires_permission(\'CRUD\', \'auth_user\')\t\ndef admin_leave_stat():\n\tfor row in db(db.image.email == auth.user.email).select():\n\t\timages=row.image\n\tadminleave=db().select(db.apply_leave.ALL)\n\treturn dict(images=images,adminleave=adminleave)\n\n@auth.requires_permission(\'CRUD\', \'auth_user\')\t\t\ndef admin_edit_leave():\n\tfor row in db(db.image.email == auth.user.email).select():\n\t\timages=row.image\n\tfor row in db(db.apply_leave.id==request.args(0)).select():\n\t\tid=row.id\n\t\teid=row.employee_code\n\t\testat=row.status\n\t\teltype=row.leave_type\n\t\tefrom=row.from_leave\n\t\teto=row.to_leave\n\t\tereason=row.reason_for_leave\n\t\tetotday=row.total_day\n\treturn dict(id=id,images=images,eid=eid,estat=estat,eltype=eltype,efrom=efrom,eto=eto,ereason=ereason,etotday=etotday)\n\n@auth.requires_permission(\'CRUD\', \'auth_user\')\t\ndef admin_approve_leave():\n\tfor row in db(db.apply_leave.id==request.args(0)).select():\n\t\tsession.lmail=row.email\n\t\tsession.empname=row.name\n\t\tsession.efrom=row.from_leave\n\t\tsession.eto=row.to_leave\n\t\tsession.status=request.vars.status\n\t\tsession.ltype=row.leave_type\n\t\tsession.tday=row.total_day\n\tif session.status == \'Approved\':\n\t\tif session.ltype == \'Casual Leave\':\n\t\t\tfor row in db(db.employee_leave.email==session.lmail).select():\n\t\t\t\ttotday=row.left_casual_leave - session.tday\n\t\t\tdb(db.apply_leave.id==request.args(0)).update(status=session.status, approved_by=\'Administrator\')\n\t\t\tdb(db.employee_leave.email==session.lmail).update(taken_casual_leave=session.tday,left_casual_leave=totday)\n\t\t\tdb.commit()\n\t\t\tredirect(URL(c=\'default\', f=\'admin_leave_mail\'))\n\t\telif session.ltype == \'Medical Leave\':\n\t\t\tfor row in db(db.employee_leave.email==session.lmail).select():\n\t\t\t\ttotday=row.left_medical_leave - session.tday\n\t\t\tdb(db.apply_leave.id==request.args(0)).update(status=session.status, approved_by=\'Administrator\')\n\t\t\tdb(db.employee_leave.email==session.lmail).update(taken_medical_leave=session.tday,left_medical_leave=totday)\n\t\t\tdb.commit()\n\t\t\tredirect(URL(c=\'default\', f=\'admin_leave_mail\'))\n\t\telif session.ltype == \'Vacation Leave\':\n\t\t\tfor row in db(db.employee_leave.email==session.lmail).select():\n\t\t\t\ttotday=row.left_vacation_leave - session.tday\n\t\t\tdb(db.apply_leave.id==request.args(0)).update(status=session.status, approved_by=\'Administrator\')\n\t\t\tdb(db.employee_leave.email==session.lmail).update(taken_vacation_leave=session.tday,left_vacation_leave=totday)\n\t\t\tdb.commit()\n\t\t\tredirect(URL(c=\'default\', f=\'admin_leave_mail\'))\n\t\telse:\n\t\t\tpass\n\telse:\n\t\tdb(db.apply_leave.id==request.args(0)).update(status=session.status, approved_by=\'Administrator\')\n\t\tdb.commit()\n\t\tredirect(URL(c=\'default\', f=\'admin_leave_mail\'))\n\treturn \'\'\n\n@auth.requires_permission(\'CRUD\', \'auth_user\')\ndef admin_edit_leave_status():\n\tfor row2 in db(db.image.email == auth.user.email).select():\n\t\timages=row2.image\n\tltype=[\'Casual Leave\',\'Medical Leave\',\'Vacation Leave\']\n\tsession.eleaveid=request.args(0)\n\tfor row in db(db.apply_leave.id==session.eleaveid).select():\n\t\tecode=row.employee_code\n\t\tname=row.name\n\t\tfle=row.from_leave\n\t\ttle=row.to_leave\n\t\ttday=row.total_day\n\t\trle=row.reason_for_leave\n\t\teltype=row.leave_type\n\treturn dict(ltype=ltype,images=images,ecode=ecode,name=name,fle=fle,tle=tle,tday=tday,rle=rle,eltype=eltype)\n\n@auth.requires_permission(\'CRUD\', \'auth_user\')\t\ndef admin_submit_edit_leave_status():\n\tdb(db.apply_leave.id == session.eleaveid).update(name=request.vars.name, leave_type=request.vars.ltype, from_leave=request.vars.fleave, to_leave=request.vars.tleave, total_day=request.vars.tday, reason_for_leave=request.vars.rleave)\n\tdb.commit()\n\tredirect(URL(c=\'default\',f=\'admin_leave_stat\'))\n\treturn \'\'\n\n@auth.requires_permission(\'CRUD\', \'auth_user\')\ndef admin_leave_mail():\n    from gluon.tools import Mail\n    mail=Mail()\n    #specify server\n    mail=auth.settings.mailer\n    mail.settings.server=\'smtp.gmail.com:587\'\n    mail.settings.login=\'themisdemo1@gmail.com:123456asdfg\'\n    #specify address to send as\n    mail.settings.sender=\'themisdemo1@gmail.com\'\n    #send the message                             \n    mail.send(to=[session.lmail],\n            subject=\'Leave Status\',\n            message=\'<html>\'\n                        \'<body>\'\n                            \'<span style="font-family: Bodoni MT Ultra Bold;color:  #000000 ;font-size : 18pt;"><b>Themis </span></h1><span style="font-family: Bodoni MT Ultra Bold;color:#C7A317   ;font-size :18pt;"><b>Lexsol</b></span>\'\n                            \n                            \'<p>Dear &nbsp;\'+session.empname+\'</p>\'\n                            \n                            \'<p>I just wanted to drop you a quick message to say Your leave request from \'+str(session.efrom)+\' to \'+str(session.eto)+\' is \'+session.status+\' If you need help at any time, please contact me by replying to this message. Similarly, if you ever have any questions then please do not hesitate to send me a message or email.</p>\'\n                            \'<center><p>_________________________________________________________</p><p style="color:red;font-size :5pt;">This email comes to you since you are subcribed for HRMS. TO unsubcribed please contact to Themis Lexsol</p></center>\'\n                      \n                        \'</body>\'\n                    \'</html>\'\n                    \n  )\n    redirect(URL(c=\'default\', f=\'admin_cnf_leave\'))\t\n    return \'\'\n    \n@auth.requires_permission(\'CRUD\', \'auth_user\')\t\ndef admin_cnf_leave():\n\tfor row2 in db(db.image.email == auth.user.email).select():\n\t\timages=row2.image\n\treturn dict(images=images,status=session.status,efrom=session.efrom,eto=session.eto,empname=session.empname)\n\t\n@auth.requires_permission(\'CRUD\', \'auth_user\')\t\ndef admin_contact_detail():\n\tfor row2 in db(db.image.email == auth.user.email).select():\n\t\timages=row2.image\n\treturn dict(images=images)\n\n@auth.requires_permission(\'CRUD\', \'auth_user\')\t\ndef admin_add_project():\n\tfor row2 in db(db.image.email == auth.user.email).select():\n\t\timages=row2.image\n\t\n\tdb.project.id.readable = False\n\tform=SQLFORM.grid(db.project,selectable = lambda ids: del_pro(ids))\n\treturn dict(images=images,form=form)\n\t\n@auth.requires_permission(\'CRUD\', \'auth_user\')\t\ndef del_pro(ids):\n\tif not ids:\n\t\tresponse.flash=\'Please Select the Check-box to Delete\'\n\telse:\n\t\tfor row in ids:\n\t\t\tdb(db.project.id == row).delete()\n\t\tpass\n\tpass\n\treturn \'\'\n\t\n@auth.requires_permission(\'CRUD\', \'auth_user\')\t\ndef admin_activity():\n\tfor row2 in db(db.image.email == auth.user.email).select():\n\t\timages=row2.image\n\t\n\tdb.activity.id.readable = False\n\tform=SQLFORM.grid(db.activity,selectable = lambda ids: del_activity(ids))\n\treturn dict(images=images,form=form)\n\t\n@auth.requires_permission(\'CRUD\', \'auth_user\')\t\ndef del_activity(ids):\n\tif not ids:\n\t\tresponse.flash=\'Please Select the Check-box to Delete\'\n\telse:\n\t\tfor row in ids:\n\t\t\tdb(db.activity.id == row).delete()\n\t\tpass\n\tpass\n\treturn \'\'\n\t\n@auth.requires_permission(\'CRUD\', \'auth_user\')\ndef admin_assign_project():\n\tfor row2 in db(db.image.email == auth.user.email).select():\n\t\timages=row2.image\n\t\n\tdb.assign_project.id.readable=False\n\tform=SQLFORM.grid(db.assign_project,selectable = lambda ids: del_assign_project(ids))\n\treturn dict(images=images,form=form)\n\n@auth.requires_permission(\'CRUD\', \'auth_user\')\t\ndef del_assign_project(ids):\n\tif not ids:\n\t\tresponse.flash=\'Please Select the Check-box to Delete\'\n\telse:\n\t\tfor row in ids:\n\t\t\tdb(db.assign_project.id == row).delete()\n\t\tpass\n\tpass\n\treturn \'\'\n\t\n@auth.requires_permission(\'CRUD\', \'auth_user\')\ndef admin_assign_pro():\n\tfor row2 in db(db.image.email == auth.user.email).select():\n\t\timages=row2.image\n\tproj=db().select(db.project.ALL)\n\torzn=db().select(db.add_new_organization.ALL)\n\tdept=db().select(db.add_new_department.ALL)\n\treturn dict(images=images,proj=proj,orzn=orzn,dept=dept)\n\t\n@auth.requires_permission(\'CRUD\', \'auth_user\')\t\ndef admin_orz():\n\tfor row in db(db.add_new_organization.id == request.vars.orz).select():\n\t\torganization=row.organization_name\n\tfor row1 in db(db.add_new_department.id == request.vars.dp).select():\n\t\tdepartment=row1.department\n\t\n\tusr=[]\n\tfor row in db((db.auth_user.department == department) & (db.auth_user.organization_name == organization)).select():\n\t\tusr.append(row.email)\n\treturn SELECT(_id="usr",_name="usr",*[OPTION((emp), _value=str (emp)) for emp in usr])\n\t\n@auth.requires_permission(\'CRUD\', \'auth_user\')\t\ndef admin_submit_project():\n\tfor row2 in db(db.image.email == auth.user.email).select():\n\t\timages=row2.image\n\tfor row in db(db.add_new_organization.id == request.vars.orz).select():\n\t\torganization=row.organization_name\n\tfor row1 in db(db.add_new_department.id == request.vars.dp).select():\n\t\tdepartment=row1.department\n\tdb.assign_project.insert(project_name=request.vars.pro,organization_name=organization,department=department,employee=request.vars.usr)\n\tdb.commit()\n\tredirect(URL(c=\'default\',f=\'admin_assign_project\'))\n\treturn dict(images=images)\n\t\n#### Employee Controller Starts from here ####\n\ndef emp_time():\n\timport datetime\n\timport time, os\n\tos.environ[\'TZ\'] = \'Asia/Kolkata\'\n\ttime.tzset()\n\tnow = time.localtime(time.time())\n\tsession.cutime = time.strftime("%H:%M:%S", now)\t\n\tredirect(URL(c=\'default\',f=\'employee\'))\n\treturn \'\'\n\n@auth.requires(auth.login() and auth.has_permission(\'Emp\', \'auth_user\'))\ndef employee():\n\tresponse.flash = "Welcome to Employee Lgoin"\n\tfor row in db(db.image.email == auth.user.email).select():\n\t\timages=row.image\n\tllgin=[]\n\tfor log in db(db.employee_login_detail.employee_logout_date==\'Logged in\').select():\n\t\tllgin.append(log.employee_name)\n\tblgin=set(llgin)\n\talgin=list(blgin)\n\t\t\n\tipa = request.env.remote_addr\n\tipaddr = str(ipa[33:])\n\timport datetime\n\timport time, os\n\tos.environ[\'TZ\'] = \'Asia/Kolkata\'\n\ttime.tzset()\n\tcurrentdate=datetime.date.today()\n\tnow = time.localtime(time.time())\n\tstarttime = datetime.datetime.now()\n\tsession.starttime = starttime\n\tcurrenttime = time.strftime("%H:%M:%S", now)\n\tsession.time = currenttime\n\tif session.cutime == session.time:\n\t\tfor row in db(db.auth_user.email == auth.user.email).select(db.auth_user.first_name, db.auth_user.employee_code):\n\t\t\tfirstname=row.first_name\n\t\t\tempcode=row.employee_code\n\t\tdb.employee_login_detail.insert(employee_code = empcode, employee_email = auth.user.email, employee_name=firstname, employee_login_date=currentdate, employee_login_time=currenttime, ip_address=ipaddr)\n\t\tdb.commit()\n\telse:\n\t\tpass\n\treturn dict(algin=algin,images=images)\t\n\n@auth.requires_permission(\'Emp\', \'auth_user\')\t\ndef emp_mydoc():\n\tfor row in db(db.image.email == auth.user.email).select():\n\t\timages=row.image\n\t\n\tllgin=[]\n\tfor log in db(db.employee_login_detail.employee_logout_date==\'Logged in\').select():\n\t\tllgin.append(log.employee_name)\n\tblgin=set(llgin)\n\talgin=list(blgin)\t\n\tfor row in db(db.auth_user.email==auth.user.email).select(db.auth_user.employee_code):\r\n\t\t\tecode=row.employee_code\n\t\t\t\n\tdb.document.id.readable=False\t\n\tdb.document.email.writable=False\n\tdb.document.email.default=auth.user.email\n\tdb.document.employee_code.writable=False\n\tdb.document.employee_code.default=ecode\n\ttable=SQLFORM.grid(db.document.email==auth.user.email)\n\treturn dict(algin=algin,images=images,table=table)\n\n@auth.requires_permission(\'Emp\', \'auth_user\')\t\ndef emp_compliance():\n\tfor row in db(db.image.email == auth.user.email).select():\n\t\timages=row.image\n\t\t\n\tllgin=[]\n\tfor log in db(db.employee_login_detail.employee_logout_date==\'Logged in\').select():\n\t\tllgin.append(log.employee_name)\n\tblgin=set(llgin)\n\talgin=list(blgin)\n\treturn dict(algin=algin,images=images)\n\n@auth.requires_permission(\'Emp\', \'auth_user\')\t\ndef emp_all():\n\tfor row in db(db.image.email == auth.user.email).select():\n\t\timages=row.image\n\tllgin=[]\n\tfor log in db(db.employee_login_detail.employee_logout_date==\'Logged in\').select():\n\t\tllgin.append(log.employee_name)\n\tblgin=set(llgin)\n\talgin=list(blgin)\n\treturn dict(algin=algin,images=images)\n\n@auth.requires_permission(\'Emp\', \'auth_user\')   \ndef emp_myprofile():\n\tfor row2 in db(db.image.email == auth.user.email).select():\n\t\timages=row2.image\n\t\t\n\tllgin=[]\n\tfor log in db(db.employee_login_detail.employee_logout_date==\'Logged in\').select():\n\t\tllgin.append(log.employee_name)\n\tblgin=set(llgin)\n\talgin=list(blgin)\n\tfor row in db(db.auth_user.email == auth.user.email).select():\n\t\tempcode=row.employee_code\n\t\tempfname=row.first_name\n\t\templname=row.last_name\n\t\tempemail=auth.user.email \n\t\temppemail=row.personal_email\n\t\tempdoj=row.date_of_joining\n\t\tempdpt=row.department\n\t\temprptmgr=row.reporting_manager\n\t\tempdgn=row.designation\n\t\t\n\tfor row1 in db(db.personal_information.email == auth.user.email).select():\n\t\tsession.empdob=row1.date_of_birth\n\t\tsession.empgndr=row1.gender\n\t\tsession.empstatus=row1.marital_status\n\t\tsession.empgrp=row1.blood_group\n\t\tsession.empmbl=row1.mobile\n\t\tsession.empphone=row1.phone\n\t\tsession.emppaddr=row1.present_address\n\t\tsession.empperaddr=row1.permanent_address\n\t\tsession.empctz=row1.citizenship\n\t\tsession.empst=row1.state\n\t\tsession.emppassno=row1.passport_no\n\t\tsession.empbank=row1.bank_account_no\n\t\tsession.emppancard=row1.pan_card_no\r\n\tedtable = db(db.qualification.email==auth.user.email).select(db.qualification.ALL) \n\treturn dict(algin=algin,images=images,empcode=empcode,empfname=empfname,emplname=emplname,empemail=empemail,emppemail=emppemail,empdoj=empdoj,empdpt=empdpt,emprptmgr=emprptmgr,empdgn=empdgn,empdob=session.empdob,empgndr=session.empgndr,empstatus=session.empstatus,empgrp=session.empgrp,empmbl=session.empmbl,empphone=session.empphone,emppaddr=session.emppaddr,empperaddr=session.empperaddr,empctz=session.empctz,empst=session.empst,emppassno=session.emppassno,empbank=session.empbank,emppancard=session.emppancard,edtable=edtable)\n\n@auth.requires_permission(\'Emp\', \'auth_user\')\t\ndef emp_update_edu_info():\n\tfor row in db(db.image.email == auth.user.email).select():\n\t\timages=row.image\n\tllgin=[]\n\tfor log in db(db.employee_login_detail.employee_logout_date==\'Logged in\').select():\n\t\tllgin.append(log.employee_name)\n\tblgin=set(llgin)\n\talgin=list(blgin)\n\t\t\n\tfor row in db(db.auth_user.email==auth.user.email).select(db.auth_user.employee_code):\r\n\t\t\tecode=row.employee_code\n\t\t\t\n\tdb.qualification.id.readable=False\t\n\tdb.qualification.email.writable=False\n\tdb.qualification.email.default=auth.user.email\n\tdb.qualification.employee_code.writable=False\n\tdb.qualification.employee_code.default=ecode\n\ttable=SQLFORM.grid(db.qualification.email==auth.user.email)\n\treturn dict(algin=algin,images=images,table=table)\n\n@auth.requires_permission(\'Emp\', \'auth_user\')\ndef emp_update_personal_info():\n\tfor row1 in db(db.image.email == auth.user.email).select():\n\t\timages=row1.image\n\tllgin=[]\n\tfor log in db(db.employee_login_detail.employee_logout_date==\'Logged in\').select():\n\t\tllgin.append(log.employee_name)\n\tblgin=set(llgin)\n\talgin=list(blgin)\n\t\n\tfor row in db(db.personal_information.email == auth.user.email).select():\n\t\tecode=row.employee_code\n\t\tdbr=row.date_of_birth\n\t\tgndr=row.gender\n\t\tmstat=row.marital_status\n\t\tbgrp=row.blood_group\n\t\tmbl=row.mobile\n\t\tph=row.phone\n\t\tpaddr=row.present_address\n\t\tperaddr=row.permanent_address\n\t\tctz=row.citizenship\n\t\tst=row.state\n\t\tpno=row.passport_no\n\t\tbno=row.bank_account_no\n\t\tpcard=row.pan_card_no\t\t\n\t\t\n\tdb.personal_information.email.writable=False\n\tdb.personal_information.employee_code.writable=False\n\tdb.personal_information.email.default=auth.user.email\n\tdb.personal_information.employee_code.default=ecode\n\t\n\tdb.personal_information.date_of_birth.default=dbr \n\tdb.personal_information.gender.default=gndr\n\tdb.personal_information.marital_status.default=mstat\n\tdb.personal_information.blood_group.default=bgrp\n\tdb.personal_information.mobile.default=mbl\n\tdb.personal_information.phone.default=ph\n\tdb.personal_information.present_address.default=paddr \n\tdb.personal_information.permanent_address.default=peraddr\n\tdb.personal_information.citizenship.default=ctz\n\tdb.personal_information.state.default=st\n\tdb.personal_information.passport_no.default=pno\n\tdb.personal_information.bank_account_no.default=bno\n\tdb.personal_information.pan_card_no.default=pcard \n\t\n\tform = SQLFORM(db.personal_information)\n\tif form.accepts(request.vars, session):\n\t\tdob = form.vars.date_of_birth\n\t\tgndr = form.vars.gender\n\t\tmstatus = form.vars.marital_status\n\t\tbgrp = form.vars.blood_group\n\t\tmbl = form.vars.mobile\n\t\tphone = form.vars.phone\n\t\tpaddr = form.vars.present_address\n\t\tperaddr = form.vars.permanent_address\n\t\tctz = form.vars.citizenship\n\t\tst = form.vars.state\n\t\tpno = form.vars.passport_no\n\t\tbaccno = form.vars.bank_account_no\n\t\tpcard = form.vars.pan_card_no\n\t\timg = form.vars.image\n\t\tdb(db.personal_information.email == auth.user.email).update(date_of_birth=dob, gender=gndr, marital_status=mstatus, blood_group=bgrp, mobile=mbl, phone=phone, present_address=paddr, permanent_address=peraddr, citizenship=ctz, state=st, passport_no=pno, bank_account_no=baccno, pan_card_no=pcard)\n\t\tredirect(URL(c=\'default\', f=\'emp_myprofile\'))\n\treturn dict(algin=algin,form=form,images=images)\n\n@auth.requires_permission(\'Emp\', \'auth_user\')\ndef emp_update_image():\n\tfor row in db(db.image.email == auth.user.email).select():\n\t\timages=row.image\n\t\t\n\tllgin=[]\n\tfor log in db(db.employee_login_detail.employee_logout_date==\'Logged in\').select():\n\t\tllgin.append(log.employee_name)\n\tblgin=set(llgin)\n\talgin=list(blgin)\n\tfor row1 in db(db.image.email == auth.user.email).select():\n\t\tmail=row.email\n\t\tecode=row.employee_code\n\t\t\n\tdb.image.email.writable=False\n\tdb.image.employee_code.writable=db.image.employee_code.readable=False\n\tdb.image.email.default=mail\n\tform=SQLFORM(db.image)\n\tif form.accepts(request.vars, session):\n\t\timg = form.vars.image\n\t\tdb(db.image.email == auth.user.email).update(image=img)\n\t\tredirect(URL(c=\'default\', f=\'emp_myprofile\'))\n\treturn dict(algin=algin,images=images,form=form)\n\n@auth.requires_permission(\'Emp\', \'auth_user\')\ndef emp_company():\n\tfor row in db(db.image.email == auth.user.email).select():\n\t\timages=row.image\n\t\t\n\tllgin=[]\n\tfor log in db(db.employee_login_detail.employee_logout_date==\'Logged in\').select():\n\t\tllgin.append(log.employee_name)\n\tblgin=set(llgin)\n\talgin=list(blgin)\n\treturn dict(algin=algin,images=images)\n\n@auth.requires_permission(\'Emp\', \'auth_user\')\t\ndef emp_organization():\n\tfor row in db(db.image.email == auth.user.email).select():\n\t\timages=row.image\n\tllgin=[]\n\tfor log in db(db.employee_login_detail.employee_logout_date==\'Logged in\').select():\n\t\tllgin.append(log.employee_name)\n\tblgin=set(llgin)\n\talgin=list(blgin)\n\treturn dict(algin=algin,images=images)\n\n@auth.requires_permission(\'Emp\', \'auth_user\')\t\ndef emp_leavecalendar():\n\tfor row in db(db.image.email == auth.user.email).select():\n\t\timages=row.image\n\t\n\tllgin=[]\n\tfor log in db(db.employee_login_detail.employee_logout_date==\'Logged in\').select():\n\t\tllgin.append(log.employee_name)\n\tblgin=set(llgin)\n\talgin=list(blgin)\n\ttotvacationleave=18\n\ttotmedicalleave=6\n\ttotcasualleave=6\n\templeave = db(db.employee_leave.email==auth.user.email).select(db.employee_leave.ALL)\n\tempstat = db(db.apply_leave.email==auth.user.email).select(db.apply_leave.ALL)\n\treturn dict(algin=algin,empstat=empstat,images=images,empleave=empleave,totvacationleave=totvacationleave,totmedicalleave=totmedicalleave,totcasualleave=totcasualleave)\n\t\ndef cron_leave():\n\ttotvacationleave=18\n\ttotmedicalleave=6\n\ttotcasualleave=6\n\ttvl=0\n\ttml=0\n\ttcl=0\n\tfor row in db(db.employee_leave.id>0).select():\n\t\tfor row1 in db(db.employee_leave.id==row.id).select():\n\t\t\ttotvacleave = totvacationleave + row1.left_vacation_leave\n\t\t\tdb(db.employee_leave.id==row.id).update(taken_vacation_leave=tvl, taken_medical_leave=tml, taken_casual_leave=tcl, left_vacation_leave=totvacleave, left_medical_leave=totmedicalleave, left_casual_leave=totcasualleave)\n\t\t\tdb.commit()\n\treturn \'\'\t\n\t\n@auth.requires_permission(\'Emp\', \'auth_user\')\t\ndef emp_calendar():\n\tfor row in db(db.image.email == auth.user.email).select():\n\t\timages=row.image\n\t\t\n\tllgin=[]\n\tfor log in db(db.employee_login_detail.employee_logout_date==\'Logged in\').select():\n\t\tllgin.append(log.employee_name)\n\tblgin=set(llgin)\n\talgin=list(blgin)\n\tcaland=db().select(db.holiday_list.ALL)\r\n\treturn dict(algin=algin,images=images,rows=caland)\n\n@auth.requires_permission(\'Emp\', \'auth_user\')\t\ndef emp_calread():\n\tfor row in db(db.image.email == auth.user.email).select():\n\t\timages=row.image\n\tllgin=[]\n\tfor log in db(db.employee_login_detail.employee_logout_date==\'Logged in\').select():\n\t\tllgin.append(log.employee_name)\n\tblgin=set(llgin)\n\talgin=list(blgin)\n\trecord = db.holiday_list(request.args(0)) or redirect(URL(\'error\'))\n\tform=crud.read(db.holiday_list,record)\n\treturn dict(form=form,images=images,algin=algin)\n    \n@auth.requires_permission(\'Emp\', \'auth_user\')\t\ndef emp_apply_leave():\n\tfor row in db(db.image.email == auth.user.email).select():\n\t\timages=row.image\n\tllgin=[]\n\tfor log in db(db.employee_login_detail.employee_logout_date==\'Logged in\').select():\n\t\tllgin.append(log.employee_name)\n\tblgin=set(llgin)\n\talgin=list(blgin)\n\tfor row in db(db.auth_user.email==auth.user.email).select():\n\t\trptmgr=row.reporting_manager\n\treturn dict(algin=algin,images=images)\n\n@auth.requires_permission(\'Emp\', \'auth_user\')\t\ndef submit_emp_apply_leave():\n\tfor row in db(db.image.email == auth.user.email).select():\n\t\timages=row.image\n\tllgin=[]\n\tfor log in db(db.employee_login_detail.employee_logout_date==\'Logged in\').select():\n\t\tllgin.append(log.employee_name)\n\tblgin=set(llgin)\n\talgin=list(blgin)\n\t\t\n\timport datetime\n\tsession.fromdate=request.vars.fromleave\n\tsession.todate=request.vars.toleave\n\tfdate=datetime.date(*map(int, session.fromdate.split(\'-\')))\n\ttdate=datetime.date(*map(int, session.todate.split(\'-\')))\n\ttotday=tdate-fdate\n\tsession.day=totday.days\n\tif request.vars.apply == \'Casual Leave\':\n\t\tfor row in db(db.employee_leave.email==auth.user.email).select():\n\t\t\tif session.day <= row.left_casual_leave:\n\t\t\t\tfor row in db(db.auth_user.email==auth.user.email).select():\n\t\t\t\t\tsession.rptmgr=row.reporting_manager\n\t\t\t\t\tsession.empcode=row.employee_code\n\t\t\t\t\tsession.fname=row.first_name\n\t\t\t\tdb.apply_leave.insert(employee_code=session.empcode,email=auth.user.email,name=session.fname,leave_type=request.vars.apply,from_leave=session.fromdate,to_leave=session.todate,total_day=session.day,reason_for_leave=request.vars.reason,reporting_manager=session.rptmgr)\n\t\t\t\tdb.commit()\n\t\t\t\tleavemail()\n\t\t\telse:\n\t\t\t\tresponse.flash=\'Your Casual leave is not left\'\n\telif request.vars.apply == \'Medical Leave\':\n\t\tfor row in db(db.employee_leave.email==auth.user.email).select():\n\t\t\tif session.day <= row.left_medical_leave:\n\t\t\t\tfor row in db(db.auth_user.email==auth.user.email).select():\n\t\t\t\t\tsession.rptmgr=row.reporting_manager\n\t\t\t\t\tsession.empcode=row.employee_code\n\t\t\t\t\tsession.fname=row.first_name\n\t\t\t\tdb.apply_leave.insert(employee_code=session.empcode,email=auth.user.email,name=session.fname,leave_type=request.vars.apply,from_leave=session.fromdate,to_leave=session.todate,total_day=session.day,reason_for_leave=request.vars.reason,reporting_manager=session.rptmgr)\n\t\t\t\tdb.commit()\n\t\t\t\tleavemail()\n\t\t\telse:\n\t\t\t\tresponse.flash=\'Your Medical leave is not left\'\n\telif request.vars.apply == \'Vacation Leave\':\n\t\tfor row in db(db.employee_leave.email==auth.user.email).select():\n\t\t\tif session.day <= row.left_vacation_leave:\n\t\t\t\tfor row in db(db.auth_user.email==auth.user.email).select():\n\t\t\t\t\tsession.rptmgr=row.reporting_manager\n\t\t\t\t\tsession.empcode=row.employee_code\n\t\t\t\t\tsession.fname=row.first_name\n\t\t\t\tdb.apply_leave.insert(employee_code=session.empcode,email=auth.user.email,name=session.fname,leave_type=request.vars.apply,from_leave=session.fromdate,to_leave=session.todate,total_day=session.day,reason_for_leave=request.vars.reason,reporting_manager=session.rptmgr)\n\t\t\t\tdb.commit()\n\t\t\t\tleavemail()\n\t\t\telse:\n\t\t\t\tresponse.flash=\'Your Vacation leave is not left\'\n\telse:\n\t\tpass\t\n\treturn dict(algin=algin,images=images)\t\n\n@auth.requires_permission(\'Emp\', \'auth_user\')\t\ndef leavemail():\n    from gluon.tools import Mail\n    mail=Mail()\n    #specify server\n    \n    mail=auth.settings.mailer\n    mail.settings.server=\'smtp.gmail.com:587\'\n    mail.settings.login=\'themisdemo1@gmail.com:123456asdfg\'\n    #specify address to send as\n    mail.settings.sender=\'themisdemo1@gmail.com\'\n    #send the message                             \n    mail.send(to=[session.rptmgr],\n            subject=\'Request for Leave\',\n            message=\'<html>\'\n                        \'<body>\'\n                            \'<span style="font-family: Bodoni MT Ultra Bold;color:  #000000 ;font-size : 18pt;"><b>Themis </span></h1><span style="font-family: Bodoni MT Ultra Bold;color:#C7A317   ;font-size :18pt;"><b>Lexsol</b></span>\'\n                            \n                            \'<p>Dear &nbsp;\'+session.fname+\' applied for leave</p>\'\n                            \'<p>Emp Code &nbsp;\'+session.empcode+\' </p>\'\n                             \'<p>From Date &nbsp;\'+session.fromdate+\' </p>\'\n                              \'<p>To Date &nbsp;\'+session.todate+\' </p>\'\n                               \'<p>Total Day &nbsp;\'+str(session.day)+\' </p>\'\n                            \n                            \'<p></p>\'\n                            \'<center><p>_________________________________________________________</p><p style="color:red;font-size :5pt;">This email comes to you since your company has subcribed for LCM Plus. TO unsubcribed please contact to Themis Lexsol</p></center>\'\n                      \n                        \'</body>\'\n                    \'</html>\'\n                    \n  )\n    response.flash=\'mail send\'\n    redirect(URL(c=\'default\',f=\'emp_leavecalendar\'))\n    return \'\'\t\n\n\t\n@auth.requires_permission(\'Mgr\', \'auth_user\')\t\ndef emp_leave_stat():\n\tfor row in db(db.image.email == auth.user.email).select():\n\t\timages=row.image\n\t\t\n\tllgin=[]\n\tfor log in db(db.employee_login_detail.employee_logout_date==\'Logged in\').select():\n\t\tllgin.append(log.employee_name)\n\tblgin=set(llgin)\n\talgin=list(blgin)\n\templeave=db(db.apply_leave.reporting_manager==auth.user.email).select(db.apply_leave.ALL)\n\treturn dict(algin=algin,images=images,empleave=empleave)\n\t\n@auth.requires_permission(\'Mgr\', \'auth_user\')\t\t\ndef emp_edit_leave():\n\tfor row in db(db.image.email == auth.user.email).select():\n\t\timages=row.image\n\t\t\n\tllgin=[]\n\tfor log in db(db.employee_login_detail.employee_logout_date==\'Logged in\').select():\n\t\tllgin.append(log.employee_name)\n\tblgin=set(llgin)\n\talgin=list(blgin)\n\tfor row in db(db.apply_leave.id==request.args(0)).select():\n\t\tid=row.id\n\t\teid=row.employee_code\n\t\testat=row.status\n\t\teltype=row.leave_type\n\t\tefrom=row.from_leave\n\t\teto=row.to_leave\n\t\tereason=row.reason_for_leave\n\t\tetotday=row.total_day\n\treturn dict(algin=algin,id=id,images=images,eid=eid,estat=estat,eltype=eltype,efrom=efrom,eto=eto,ereason=ereason,etotday=etotday)\n\t\n@auth.requires_permission(\'Mgr\', \'auth_user\')\t\t\ndef emp_approve_leave():\n\tfor row in db(db.apply_leave.id==request.args(0)).select():\n\t\tsession.elmail=row.email\n\t\tsession.eempname=row.name\n\t\tsession.eefrom=row.from_leave\n\t\tsession.eeto=row.to_leave\n\t\tsession.estatus=request.vars.status\n\t\tsession.eltype=row.leave_type\n\t\tsession.etday=row.total_day\n\tif session.estatus == \'Approved\':\n\t\tif session.eltype == \'Casual Leave\':\n\t\t\tfor row in db(db.employee_leave.email==session.elmail).select():\n\t\t\t\ttotday=row.left_casual_leave - session.etday\n\t\t\tdb(db.apply_leave.id==request.args(0)).update(status=session.estatus, approved_by=\'Reporting Manager\')\n\t\t\tdb(db.employee_leave.email==session.elmail).update(taken_casual_leave=session.etday,left_casual_leave=totday)\n\t\t\tdb.commit()\n\t\t\tredirect(URL(c=\'default\', f=\'emp_leave_mail\'))\n\t\telif session.eltype == \'Medical Leave\':\n\t\t\tfor row in db(db.employee_leave.email==session.elmail).select():\n\t\t\t\ttotday=row.left_medical_leave - session.etday\n\t\t\tdb(db.apply_leave.id==request.args(0)).update(status=session.estatus, approved_by=\'Reporting Manager\')\n\t\t\tdb(db.employee_leave.email==session.elmail).update(taken_medical_leave=session.etday,left_medical_leave=totday)\n\t\t\tdb.commit()\n\t\t\tredirect(URL(c=\'default\', f=\'emp_leave_mail\'))\n\t\telif session.eltype == \'Vacation Leave\':\n\t\t\tfor row in db(db.employee_leave.email==session.elmail).select():\n\t\t\t\ttotday=row.left_vacation_leave - session.etday\n\t\t\tdb(db.apply_leave.id==request.args(0)).update(status=session.estatus, approved_by=\'Reporting Manager\')\n\t\t\tdb(db.employee_leave.email==session.elmail).update(taken_vacation_leave=session.etday,left_vacation_leave=totday)\n\t\t\tdb.commit()\n\t\t\tredirect(URL(c=\'default\', f=\'emp_leave_mail\'))\n\t\telse:\n\t\t\tpass\n\telse:\n\t\tdb(db.apply_leave.id==request.args(0)).update(status=session.estatus, approved_by=\'Reporting Manager\')\n\t\tdb.commit()\n\t\tredirect(URL(c=\'default\', f=\'emp_leave_mail\'))\n\treturn \'\'\n\t\n@auth.requires_permission(\'Mgr\', \'auth_user\')\t\ndef emp_leave_mail():\n    from gluon.tools import Mail\n    mail=Mail()\n    #specify server\n    mail=auth.settings.mailer\n    mail.settings.server=\'smtp.gmail.com:587\'\n    mail.settings.login=\'themisdemo1@gmail.com:123456asdfg\'\n    #specify address to send as\n    mail.settings.sender=\'themisdemo1@gmail.com\'\n    #send the message                             \n    mail.send(to=[session.elmail],\n            subject=\'Leave Status\',\n            message=\'<html>\'\n                        \'<body>\'\n                            \'<span style="font-family: Bodoni MT Ultra Bold;color:  #000000 ;font-size : 18pt;"><b>Themis </span></h1><span style="font-family: Bodoni MT Ultra Bold;color:#C7A317   ;font-size :18pt;"><b>Lexsol</b></span>\'\n                            \n                            \'<p>Dear &nbsp;\'+session.eempname+\'</p>\'\n                            \n                            \'<p>I just wanted to drop you a quick message to say Your leave request from \'+str(session.eefrom)+\' to \'+str(session.eeto)+\' is \'+session.estatus+\' If you need help at any time, please contact me by replying to this message. Similarly, if you ever have any questions then please do not hesitate to send me a message or email.</p>\'\n                            \'<center><p>_________________________________________________________</p><p style="color:red;font-size :5pt;">This email comes to you since you are subcribed for HRMS. TO unsubcribed please contact to Themis Lexsol</p></center>\'\n                      \n                        \'</body>\'\n                    \'</html>\'\n                    \n  )\n    redirect(URL(c=\'default\', f=\'emp_cnf_leave\'))\t\n    return \'\'\n    \n@auth.requires_permission(\'Mgr\', \'auth_user\')\t\ndef emp_cnf_leave():\n\tfor row2 in db(db.image.email == auth.user.email).select():\n\t\timages=row2.image\n\t\t\n\tllgin=[]\n\tfor log in db(db.employee_login_detail.employee_logout_date==\'Logged in\').select():\n\t\tllgin.append(log.employee_name)\n\tblgin=set(llgin)\n\talgin=list(blgin)\n\treturn dict(algin=algin,images=images,status=session.estatus,efrom=session.eefrom,eto=session.eeto,empname=session.eempname)\n\t\n@auth.requires_permission(\'Mgr\', \'auth_user\')\ndef emp_edit_leave_status():\n\tfor row2 in db(db.image.email == auth.user.email).select():\n\t\timages=row2.image\n\t\t\n\tllgin=[]\n\tfor log in db(db.employee_login_detail.employee_logout_date==\'Logged in\').select():\n\t\tllgin.append(log.employee_name)\n\tblgin=set(llgin)\n\talgin=list(blgin)\n\tltype=[\'Casual Leave\',\'Medical Leave\',\'Vacation Leave\']\n\tsession.eeleaveid=request.args(0)\n\tfor row in db(db.apply_leave.id==session.eeleaveid).select():\n\t\tecode=row.employee_code\n\t\tname=row.name\n\t\tfle=row.from_leave\n\t\ttle=row.to_leave\n\t\ttday=row.total_day\n\t\trle=row.reason_for_leave\n\t\teltype=row.leave_type\n\treturn dict(algin=algin,ltype=ltype,images=images,ecode=ecode,name=name,fle=fle,tle=tle,tday=tday,rle=rle,eltype=eltype)\n\n@auth.requires_permission(\'Mgr\', \'auth_user\')\t\ndef emp_submit_edit_leave_status():\n\tdb(db.apply_leave.id == session.eeleaveid).update(name=request.vars.name, leave_type=request.vars.ltype, from_leave=request.vars.fleave, to_leave=request.vars.tleave, total_day=request.vars.tday, reason_for_leave=request.vars.rleave)\n\tdb.commit()\n\tredirect(URL(c=\'default\',f=\'emp_leave_stat\'))\n\treturn \'\'\n\n@auth.requires_permission(\'Emp\', \'auth_user\')\ndef user_timesheet():\n\tfor row2 in db(db.image.email == auth.user.email).select():\n\t\timages=row2.image\n\t\t\n\tllgin=[]\n\tfor log in db(db.employee_login_detail.employee_logout_date==\'Logged in\').select():\n\t\tllgin.append(log.employee_name)\n\tblgin=set(llgin)\n\talgin=list(blgin)\n\t\n\tproj=db(db.assign_project.employee==auth.user.email).select(db.project.ALL)\n\treturn dict(images=images,algin=algin,proj=proj)\t\n\n@auth.requires_permission(\'Emp\', \'auth_user\')\t\ndef emp_task():\n\ttsk=[]\n\tfor row in db(db.activity.id == request.vars.pro).select():\n\t\ttsk.append(row.activity)\n\treturn SELECT(_id="tsk",_name="tsk",*[OPTION((act), _value=str (act)) for act in tsk])\n\n@auth.requires_permission(\'Emp\', \'auth_user\')\t\ndef emp_task_timesheet():\n\tfor row in db(db.project.id == request.vars.pro).select():\n\t\tproj=row.project_name\n\tprojtask=request.vars.tsk\n\treturn TABLE([TR("Project:",INPUT(_type="text",id="txt1",_name="proname",_value=proj,_readonly="readonly")),TR("Task:",INPUT(_type="text",_id="txt2",_name="protask",_value=projtask)),TR("Task:",INPUT(_type="text",_id="txt",_name="protime",_value="")),TR("",INPUT(_type="button",_value="Start",_onClick="doTimer()")),,TR("",INPUT(_type="button",_value="Stop",_onClick="ajax(\'{{=URL(\'adata\')}}\',[\'proname\',\'protask\',\'protime\'],\'target\');stopCount();"))])\n\n@auth.requires_permission(\'Emp\', \'auth_user\')\t\ndef adata():\n\timport datetime\n\tdte=datetime.date.today()\n\tpro=request.vars.proname\n\tptask=request.vars.protask\n\tptime=request.vars.protime\n\tfor row in db(db.auth_user.email==auth.user.email).select():\n\t\trmgr=row.reporting_manager\n\treturn TABLE([TR("Project Name:",INPUT(_type="text",_name="proj",_value=pro,_readonly="readonly")),TR("Client Name:",INPUT(_type="text",_name="client",_value="Client",_readonly="readonly")),TR("Reporting Manager:",INPUT(_type="text",_name="rpm",_value=rmgr,_readonly="readonly")),TR("Project Task:",INPUT(_type="text",_name="protsk",_value=ptask,_readonly="readonly")),TR("Date:",INPUT(_type="text",_name="dte",_value=dte,_readonly="readonly")),TR("Task Discription:",INPUT(_type="text",_name="tskdisc",_value="")),TR("Total Time:",INPUT(_type="text",_name="tottme",_value=ptime))])\n\n@auth.requires_permission(\'Mgr\', \'auth_user\')\t\ndef emp_activity():\n\tfor row2 in db(db.image.email == auth.user.email).select():\n\t\timages=row2.image\n\tllgin=[]\n\tfor log in db(db.employee_login_detail.employee_logout_date==\'Logged in\').select():\n\t\tllgin.append(log.employee_name)\n\tblgin=set(llgin)\n\talgin=list(blgin)\n\tdb.activity.id.readable = False\n\tform=SQLFORM.grid(db.activity,selectable = lambda ids: emp_del_activity(ids))\n\treturn dict(images=images,form=form,algin=algin)\n\t\n@auth.requires_permission(\'Mgr\', \'auth_user\')\t\ndef emp_del_activity(ids):\n\tif not ids:\n\t\tresponse.flash=\'Please Select the Check-box to Delete\'\n\telse:\n\t\tfor row in ids:\n\t\t\tdb(db.activity.id == row).delete()\n\t\tpass\n\tpass\n\treturn \'\'\n\t\n@auth.requires_permission(\'Mgr\', \'auth_user\')\t\ndef emp_assign_project():\n\tfor row2 in db(db.image.email == auth.user.email).select():\n\t\timages=row2.image\n\tllgin=[]\n\tfor log in db(db.employee_login_detail.employee_logout_date==\'Logged in\').select():\n\t\tllgin.append(log.employee_name)\n\tblgin=set(llgin)\n\talgin=list(blgin)\n\tdb.assign_project.id.readable=False\n\tform=SQLFORM.grid(db.assign_project,create=False,selectable = lambda ids: del_emp_assign_project(ids))\n\treturn dict(images=images,form=form,algin=algin)\n\n@auth.requires_permission(\'Mgr\', \'auth_user\')\t\ndef del_emp_assign_project(ids):\n\tif not ids:\n\t\tresponse.flash=\'Please Select the Check-box to Delete\'\n\telse:\n\t\tfor row in ids:\n\t\t\tdb(db.assign_project.id == row).delete()\n\t\tpass\n\tpass\n\treturn \'\'\n\t\n@auth.requires_permission(\'Mgr\', \'auth_user\')\t\ndef emp_assign_pro():\n\tfor row2 in db(db.image.email == auth.user.email).select():\n\t\timages=row2.image\n\tproj=db().select(db.project.ALL)\n\torzn=db().select(db.add_new_organization.ALL)\n\tdept=db().select(db.add_new_department.ALL)\n\tllgin=[]\n\tfor log in db(db.employee_login_detail.employee_logout_date==\'Logged in\').select():\n\t\tllgin.append(log.employee_name)\n\tblgin=set(llgin)\n\talgin=list(blgin)\n\treturn dict(images=images,proj=proj,orzn=orzn,dept=dept,algin=algin)\n\t\n@auth.requires_permission(\'Mgr\', \'auth_user\')\t\ndef emp_orz():\n\tfor row in db(db.add_new_organization.id == request.vars.orz).select():\n\t\torganization=row.organization_name\n\tfor row1 in db(db.add_new_department.id == request.vars.dp).select():\n\t\tdepartment=row1.department\n\t\n\tusr=[]\n\tfor row in db((db.auth_user.department == department) & (db.auth_user.organization_name == organization)).select():\n\t\tusr.append(row.email)\n\treturn SELECT(_id="usr",_name="usr",*[OPTION((emp), _value=str (emp)) for emp in usr])\n\t\n@auth.requires_permission(\'Mgr\', \'auth_user\')\t\ndef emp_submit_assign_project():\n\tfor row2 in db(db.image.email == auth.user.email).select():\n\t\timages=row2.image\n\tfor row in db(db.add_new_organization.id == request.vars.orz).select():\n\t\torganization=row.organization_name\n\tfor row1 in db(db.add_new_department.id == request.vars.dp).select():\n\t\tdepartment=row1.department\n\tdb.assign_project.insert(project_name=request.vars.pro,organization_name=organization,department=department,employee=request.vars.usr)\n\tdb.commit()\n\tredirect(URL(c=\'default\',f=\'emp_assign_project\'))\n\treturn dict(images=images)\n\nresponse._vars=response._caller(user_timesheet)\n'
p7
sS'snapshot'
p8
(dp9
S'exception'
p10
(dp11
S'__getslice__'
p12
S"<method-wrapper '__getslice__' of exceptions.SyntaxError object>"
p13
sS'text'
p14
S'\'\\treturn TABLE([TR("Project:",INPUT(_type="text",...\\\'protask\\\',\\\'protime\\\'],\\\'target\\\');stopCount();"))])\\n\''
p15
sS'__str__'
p16
S"<method-wrapper '__str__' of exceptions.SyntaxError object>"
p17
sS'__reduce__'
p18
S'<built-in method __reduce__ of exceptions.SyntaxError object>'
p19
sS'__dict__'
p20
S'{}'
p21
sS'__sizeof__'
p22
S'<built-in method __sizeof__ of exceptions.SyntaxError object>'
p23
sS'__init__'
p24
S"<method-wrapper '__init__' of exceptions.SyntaxError object>"
p25
sS'__setattr__'
p26
S"<method-wrapper '__setattr__' of exceptions.SyntaxError object>"
p27
sS'__reduce_ex__'
p28
S'<built-in method __reduce_ex__ of exceptions.SyntaxError object>'
p29
sS'__new__'
p30
S'<built-in method __new__ of type object>'
p31
sS'__format__'
p32
S'<built-in method __format__ of exceptions.SyntaxError object>'
p33
sS'__class__'
p34
S"<type 'exceptions.SyntaxError'>"
p35
sS'filename'
p36
S"'/home/sanjeet/Desktop/install/Development/web2py/applications/themishrms/controllers/default.py'"
p37
sS'lineno'
p38
S'1404'
p39
sS'msg'
p40
S"'invalid syntax'"
p41
sS'__doc__'
p42
S"'Invalid syntax.'"
p43
sS'__getitem__'
p44
S"<method-wrapper '__getitem__' of exceptions.SyntaxError object>"
p45
sS'__setstate__'
p46
S'<built-in method __setstate__ of exceptions.SyntaxError object>'
p47
sS'__getattribute__'
p48
S"<method-wrapper '__getattribute__' of exceptions.SyntaxError object>"
p49
sS'print_file_and_line'
p50
S'None'
p51
sS'args'
p52
S'(\'invalid syntax\', (\'/home/sanjeet/Desktop/install/Development/web2py/applications/themishrms/controllers/default.py\', 1404, 318, \'\\treturn TABLE([TR("Project:",INPUT(_type="text",...\\\'protask\\\',\\\'protime\\\'],\\\'target\\\');stopCount();"))])\\n\'))'
p53
sS'__subclasshook__'
p54
S'<built-in method __subclasshook__ of type object>'
p55
sS'offset'
p56
S'318'
p57
sS'__unicode__'
p58
S'<built-in method __unicode__ of exceptions.SyntaxError object>'
p59
sS'__delattr__'
p60
S"<method-wrapper '__delattr__' of exceptions.SyntaxError object>"
p61
sS'__repr__'
p62
S"<method-wrapper '__repr__' of exceptions.SyntaxError object>"
p63
sS'__hash__'
p64
S"<method-wrapper '__hash__' of exceptions.SyntaxError object>"
p65
ssS'evalue'
p66
S'invalid syntax (default.py, line 1404)'
p67
sS'request'
p68
ccopy_reg
_reconstructor
p69
(cgluon.html
BEAUTIFY
p70
c__builtin__
object
p71
NtRp72
(dp73
S'attributes'
p74
(dp75
sS'components'
p76
(lp77
g69
(cgluon.html
TABLE
p78
g71
NtRp79
(dp80
g74
(dp81
S'level'
p82
I5
ssS'parent'
p83
Nsg76
(lp84
g69
(cgluon.html
TR
p85
g71
NtRp86
(dp87
g74
(dp88
sg83
g79
sg76
(lp89
g69
(cgluon.html
TD
p90
g71
NtRp91
(dp92
g74
(dp93
S'_style'
p94
S'font-weight:bold;vertical-align:top'
p95
ssg83
g86
sg76
(lp96
S'ajax'
p97
asbag69
(g90
g71
NtRp98
(dp99
g74
(dp100
S'_valign'
p101
S'top'
p102
ssg83
g86
sg76
(lp103
S':'
asbag69
(g90
g71
NtRp104
(dp105
g74
(dp106
sg83
g86
sg76
(lp107
g69
(g70
g71
NtRp108
(dp109
g74
(dp110
g82
I5
ssg83
g104
sg76
(lp111
S'False'
p112
asbasbasbag69
(g85
g71
NtRp113
(dp114
g74
(dp115
sg83
g79
sg76
(lp116
g69
(g90
g71
NtRp117
(dp118
g74
(dp119
g94
g95
ssg83
g113
sg76
(lp120
S'application'
p121
asbag69
(g90
g71
NtRp122
(dp123
g74
(dp124
g101
g102
ssg83
g113
sg76
(lp125
S':'
asbag69
(g90
g71
NtRp126
(dp127
g74
(dp128
sg83
g113
sg76
(lp129
g69
(g70
g71
NtRp130
(dp131
g74
(dp132
g82
I5
ssg83
g126
sg76
(lp133
S'themishrms'
p134
asbasbasbag69
(g85
g71
NtRp135
(dp136
g74
(dp137
sg83
g79
sg76
(lp138
g69
(g90
g71
NtRp139
(dp140
g74
(dp141
g94
g95
ssg83
g135
sg76
(lp142
g52
asbag69
(g90
g71
NtRp143
(dp144
g74
(dp145
g101
g102
ssg83
g135
sg76
(lp146
S':'
asbag69
(g90
g71
NtRp147
(dp148
g74
(dp149
sg83
g135
sg76
(lp150
g69
(g70
g71
NtRp151
(dp152
g74
(dp153
g82
I5
ssg83
g147
sg76
(lp154
g69
(g78
g71
NtRp155
(dp156
g74
(dp157
g82
I4
ssg83
Nsg76
(lp158
sbasbasbasbag69
(g85
g71
NtRp159
(dp160
g74
(dp161
sg83
g79
sg76
(lp162
g69
(g90
g71
NtRp163
(dp164
g74
(dp165
g94
g95
ssg83
g159
sg76
(lp166
S'body'
p167
asbag69
(g90
g71
NtRp168
(dp169
g74
(dp170
g101
g102
ssg83
g159
sg76
(lp171
S':'
asbag69
(g90
g71
NtRp172
(dp173
g74
(dp174
sg83
g159
sg76
(lp175
g69
(g70
g71
NtRp176
(dp177
g74
(dp178
g82
I5
ssg83
g172
sg76
(lp179
S'<cStringIO.StringO object at 0xbe6fdc0>'
p180
asbasbasbag69
(g85
g71
NtRp181
(dp182
g74
(dp183
sg83
g79
sg76
(lp184
g69
(g90
g71
NtRp185
(dp186
g74
(dp187
g94
g95
ssg83
g181
sg76
(lp188
S'client'
p189
asbag69
(g90
g71
NtRp190
(dp191
g74
(dp192
g101
g102
ssg83
g181
sg76
(lp193
S':'
asbag69
(g90
g71
NtRp194
(dp195
g74
(dp196
sg83
g181
sg76
(lp197
g69
(g70
g71
NtRp198
(dp199
g74
(dp200
g82
I5
ssg83
g194
sg76
(lp201
S'127.0.0.1'
p202
asbasbasbag69
(g85
g71
NtRp203
(dp204
g74
(dp205
sg83
g79
sg76
(lp206
g69
(g90
g71
NtRp207
(dp208
g74
(dp209
g94
g95
ssg83
g203
sg76
(lp210
S'controller'
p211
asbag69
(g90
g71
NtRp212
(dp213
g74
(dp214
g101
g102
ssg83
g203
sg76
(lp215
S':'
asbag69
(g90
g71
NtRp216
(dp217
g74
(dp218
sg83
g203
sg76
(lp219
g69
(g70
g71
NtRp220
(dp221
g74
(dp222
g82
I5
ssg83
g216
sg76
(lp223
S'default'
p224
asbasbasbag69
(g85
g71
NtRp225
(dp226
g74
(dp227
sg83
g79
sg76
(lp228
g69
(g90
g71
NtRp229
(dp230
g74
(dp231
g94
g95
ssg83
g225
sg76
(lp232
S'cookies'
p233
asbag69
(g90
g71
NtRp234
(dp235
g74
(dp236
g101
g102
ssg83
g225
sg76
(lp237
S':'
asbag69
(g90
g71
NtRp238
(dp239
g74
(dp240
sg83
g225
sg76
(lp241
g69
(g70
g71
NtRp242
(dp243
g74
(dp244
g82
I5
ssg83
g238
sg76
(lp245
g69
(g78
g71
NtRp246
(dp247
g74
(dp248
g82
I4
ssg83
Nsg76
(lp249
g69
(g85
g71
NtRp250
(dp251
g74
(dp252
sg83
g246
sg76
(lp253
g69
(g90
g71
NtRp254
(dp255
g74
(dp256
g94
g95
ssg83
g250
sg76
(lp257
S'mypanel'
p258
asbag69
(g90
g71
NtRp259
(dp260
g74
(dp261
g101
g102
ssg83
g250
sg76
(lp262
S':'
asbag69
(g90
g71
NtRp263
(dp264
g74
(dp265
sg83
g250
sg76
(lp266
g69
(g70
g71
NtRp267
(dp268
g74
(dp269
g82
I4
ssg83
g263
sg76
(lp270
g69
(g78
g71
NtRp271
(dp272
g74
(dp273
g82
I3
ssg83
Nsg76
(lp274
g69
(g85
g71
NtRp275
(dp276
g74
(dp277
sg83
g271
sg76
(lp278
g69
(g90
g71
NtRp279
(dp280
g74
(dp281
g94
g95
ssg83
g275
sg76
(lp282
S'comment'
p283
asbag69
(g90
g71
NtRp284
(dp285
g74
(dp286
g101
g102
ssg83
g275
sg76
(lp287
S':'
asbag69
(g90
g71
NtRp288
(dp289
g74
(dp290
sg83
g275
sg76
(lp291
g69
(g70
g71
NtRp292
(dp293
g74
(dp294
g82
I3
ssg83
g288
sg76
(lp295
S''
asbasbasbag69
(g85
g71
NtRp296
(dp297
g74
(dp298
sg83
g271
sg76
(lp299
g69
(g90
g71
NtRp300
(dp301
g74
(dp302
g94
g95
ssg83
g296
sg76
(lp303
S'domain'
p304
asbag69
(g90
g71
NtRp305
(dp306
g74
(dp307
g101
g102
ssg83
g296
sg76
(lp308
S':'
asbag69
(g90
g71
NtRp309
(dp310
g74
(dp311
sg83
g296
sg76
(lp312
g69
(g70
g71
NtRp313
(dp314
g74
(dp315
g82
I3
ssg83
g309
sg76
(lp316
S''
asbasbasbag69
(g85
g71
NtRp317
(dp318
g74
(dp319
sg83
g271
sg76
(lp320
g69
(g90
g71
NtRp321
(dp322
g74
(dp323
g94
g95
ssg83
g317
sg76
(lp324
S'expires'
p325
asbag69
(g90
g71
NtRp326
(dp327
g74
(dp328
g101
g102
ssg83
g317
sg76
(lp329
S':'
asbag69
(g90
g71
NtRp330
(dp331
g74
(dp332
sg83
g317
sg76
(lp333
g69
(g70
g71
NtRp334
(dp335
g74
(dp336
g82
I3
ssg83
g330
sg76
(lp337
S''
asbasbasbag69
(g85
g71
NtRp338
(dp339
g74
(dp340
sg83
g271
sg76
(lp341
g69
(g90
g71
NtRp342
(dp343
g74
(dp344
g94
g95
ssg83
g338
sg76
(lp345
S'httponly'
p346
asbag69
(g90
g71
NtRp347
(dp348
g74
(dp349
g101
g102
ssg83
g338
sg76
(lp350
S':'
asbag69
(g90
g71
NtRp351
(dp352
g74
(dp353
sg83
g338
sg76
(lp354
g69
(g70
g71
NtRp355
(dp356
g74
(dp357
g82
I3
ssg83
g351
sg76
(lp358
S''
asbasbasbag69
(g85
g71
NtRp359
(dp360
g74
(dp361
sg83
g271
sg76
(lp362
g69
(g90
g71
NtRp363
(dp364
g74
(dp365
g94
g95
ssg83
g359
sg76
(lp366
S'max-age'
p367
asbag69
(g90
g71
NtRp368
(dp369
g74
(dp370
g101
g102
ssg83
g359
sg76
(lp371
S':'
asbag69
(g90
g71
NtRp372
(dp373
g74
(dp374
sg83
g359
sg76
(lp375
g69
(g70
g71
NtRp376
(dp377
g74
(dp378
g82
I3
ssg83
g372
sg76
(lp379
S''
asbasbasbag69
(g85
g71
NtRp380
(dp381
g74
(dp382
sg83
g271
sg76
(lp383
g69
(g90
g71
NtRp384
(dp385
g74
(dp386
g94
g95
ssg83
g380
sg76
(lp387
S'path'
p388
asbag69
(g90
g71
NtRp389
(dp390
g74
(dp391
g101
g102
ssg83
g380
sg76
(lp392
S':'
asbag69
(g90
g71
NtRp393
(dp394
g74
(dp395
sg83
g380
sg76
(lp396
g69
(g70
g71
NtRp397
(dp398
g74
(dp399
g82
I3
ssg83
g393
sg76
(lp400
S''
asbasbasbag69
(g85
g71
NtRp401
(dp402
g74
(dp403
sg83
g271
sg76
(lp404
g69
(g90
g71
NtRp405
(dp406
g74
(dp407
g94
g95
ssg83
g401
sg76
(lp408
S'secure'
p409
asbag69
(g90
g71
NtRp410
(dp411
g74
(dp412
g101
g102
ssg83
g401
sg76
(lp413
S':'
asbag69
(g90
g71
NtRp414
(dp415
g74
(dp416
sg83
g401
sg76
(lp417
g69
(g70
g71
NtRp418
(dp419
g74
(dp420
g82
I3
ssg83
g414
sg76
(lp421
S''
asbasbasbag69
(g85
g71
NtRp422
(dp423
g74
(dp424
sg83
g271
sg76
(lp425
g69
(g90
g71
NtRp426
(dp427
g74
(dp428
g94
g95
ssg83
g422
sg76
(lp429
S'version'
p430
asbag69
(g90
g71
NtRp431
(dp432
g74
(dp433
g101
g102
ssg83
g422
sg76
(lp434
S':'
asbag69
(g90
g71
NtRp435
(dp436
g74
(dp437
sg83
g422
sg76
(lp438
g69
(g70
g71
NtRp439
(dp440
g74
(dp441
g82
I3
ssg83
g435
sg76
(lp442
S''
asbasbasbasbasbasbasbag69
(g85
g71
NtRp443
(dp444
g74
(dp445
sg83
g246
sg76
(lp446
g69
(g90
g71
NtRp447
(dp448
g74
(dp449
g94
g95
ssg83
g443
sg76
(lp450
S'session_id_admin'
p451
asbag69
(g90
g71
NtRp452
(dp453
g74
(dp454
g101
g102
ssg83
g443
sg76
(lp455
S':'
asbag69
(g90
g71
NtRp456
(dp457
g74
(dp458
sg83
g443
sg76
(lp459
g69
(g70
g71
NtRp460
(dp461
g74
(dp462
g82
I4
ssg83
g456
sg76
(lp463
g69
(g78
g71
NtRp464
(dp465
g74
(dp466
g82
I3
ssg83
Nsg76
(lp467
g69
(g85
g71
NtRp468
(dp469
g74
(dp470
sg83
g464
sg76
(lp471
g69
(g90
g71
NtRp472
(dp473
g74
(dp474
g94
g95
ssg83
g468
sg76
(lp475
g283
asbag69
(g90
g71
NtRp476
(dp477
g74
(dp478
g101
g102
ssg83
g468
sg76
(lp479
S':'
asbag69
(g90
g71
NtRp480
(dp481
g74
(dp482
sg83
g468
sg76
(lp483
g69
(g70
g71
NtRp484
(dp485
g74
(dp486
g82
I3
ssg83
g480
sg76
(lp487
S''
asbasbasbag69
(g85
g71
NtRp488
(dp489
g74
(dp490
sg83
g464
sg76
(lp491
g69
(g90
g71
NtRp492
(dp493
g74
(dp494
g94
g95
ssg83
g488
sg76
(lp495
g304
asbag69
(g90
g71
NtRp496
(dp497
g74
(dp498
g101
g102
ssg83
g488
sg76
(lp499
S':'
asbag69
(g90
g71
NtRp500
(dp501
g74
(dp502
sg83
g488
sg76
(lp503
g69
(g70
g71
NtRp504
(dp505
g74
(dp506
g82
I3
ssg83
g500
sg76
(lp507
S''
asbasbasbag69
(g85
g71
NtRp508
(dp509
g74
(dp510
sg83
g464
sg76
(lp511
g69
(g90
g71
NtRp512
(dp513
g74
(dp514
g94
g95
ssg83
g508
sg76
(lp515
g325
asbag69
(g90
g71
NtRp516
(dp517
g74
(dp518
g101
g102
ssg83
g508
sg76
(lp519
S':'
asbag69
(g90
g71
NtRp520
(dp521
g74
(dp522
sg83
g508
sg76
(lp523
g69
(g70
g71
NtRp524
(dp525
g74
(dp526
g82
I3
ssg83
g520
sg76
(lp527
S''
asbasbasbag69
(g85
g71
NtRp528
(dp529
g74
(dp530
sg83
g464
sg76
(lp531
g69
(g90
g71
NtRp532
(dp533
g74
(dp534
g94
g95
ssg83
g528
sg76
(lp535
g346
asbag69
(g90
g71
NtRp536
(dp537
g74
(dp538
g101
g102
ssg83
g528
sg76
(lp539
S':'
asbag69
(g90
g71
NtRp540
(dp541
g74
(dp542
sg83
g528
sg76
(lp543
g69
(g70
g71
NtRp544
(dp545
g74
(dp546
g82
I3
ssg83
g540
sg76
(lp547
S''
asbasbasbag69
(g85
g71
NtRp548
(dp549
g74
(dp550
sg83
g464
sg76
(lp551
g69
(g90
g71
NtRp552
(dp553
g74
(dp554
g94
g95
ssg83
g548
sg76
(lp555
g367
asbag69
(g90
g71
NtRp556
(dp557
g74
(dp558
g101
g102
ssg83
g548
sg76
(lp559
S':'
asbag69
(g90
g71
NtRp560
(dp561
g74
(dp562
sg83
g548
sg76
(lp563
g69
(g70
g71
NtRp564
(dp565
g74
(dp566
g82
I3
ssg83
g560
sg76
(lp567
S''
asbasbasbag69
(g85
g71
NtRp568
(dp569
g74
(dp570
sg83
g464
sg76
(lp571
g69
(g90
g71
NtRp572
(dp573
g74
(dp574
g94
g95
ssg83
g568
sg76
(lp575
g388
asbag69
(g90
g71
NtRp576
(dp577
g74
(dp578
g101
g102
ssg83
g568
sg76
(lp579
S':'
asbag69
(g90
g71
NtRp580
(dp581
g74
(dp582
sg83
g568
sg76
(lp583
g69
(g70
g71
NtRp584
(dp585
g74
(dp586
g82
I3
ssg83
g580
sg76
(lp587
S''
asbasbasbag69
(g85
g71
NtRp588
(dp589
g74
(dp590
sg83
g464
sg76
(lp591
g69
(g90
g71
NtRp592
(dp593
g74
(dp594
g94
g95
ssg83
g588
sg76
(lp595
g409
asbag69
(g90
g71
NtRp596
(dp597
g74
(dp598
g101
g102
ssg83
g588
sg76
(lp599
S':'
asbag69
(g90
g71
NtRp600
(dp601
g74
(dp602
sg83
g588
sg76
(lp603
g69
(g70
g71
NtRp604
(dp605
g74
(dp606
g82
I3
ssg83
g600
sg76
(lp607
S''
asbasbasbag69
(g85
g71
NtRp608
(dp609
g74
(dp610
sg83
g464
sg76
(lp611
g69
(g90
g71
NtRp612
(dp613
g74
(dp614
g94
g95
ssg83
g608
sg76
(lp615
g430
asbag69
(g90
g71
NtRp616
(dp617
g74
(dp618
g101
g102
ssg83
g608
sg76
(lp619
S':'
asbag69
(g90
g71
NtRp620
(dp621
g74
(dp622
sg83
g608
sg76
(lp623
g69
(g70
g71
NtRp624
(dp625
g74
(dp626
g82
I3
ssg83
g620
sg76
(lp627
S''
asbasbasbasbasbasbasbag69
(g85
g71
NtRp628
(dp629
g74
(dp630
sg83
g246
sg76
(lp631
g69
(g90
g71
NtRp632
(dp633
g74
(dp634
g94
g95
ssg83
g628
sg76
(lp635
S'session_id_themishrms'
p636
asbag69
(g90
g71
NtRp637
(dp638
g74
(dp639
g101
g102
ssg83
g628
sg76
(lp640
S':'
asbag69
(g90
g71
NtRp641
(dp642
g74
(dp643
sg83
g628
sg76
(lp644
g69
(g70
g71
NtRp645
(dp646
g74
(dp647
g82
I4
ssg83
g641
sg76
(lp648
g69
(g78
g71
NtRp649
(dp650
g74
(dp651
g82
I3
ssg83
Nsg76
(lp652
g69
(g85
g71
NtRp653
(dp654
g74
(dp655
sg83
g649
sg76
(lp656
g69
(g90
g71
NtRp657
(dp658
g74
(dp659
g94
g95
ssg83
g653
sg76
(lp660
g283
asbag69
(g90
g71
NtRp661
(dp662
g74
(dp663
g101
g102
ssg83
g653
sg76
(lp664
S':'
asbag69
(g90
g71
NtRp665
(dp666
g74
(dp667
sg83
g653
sg76
(lp668
g69
(g70
g71
NtRp669
(dp670
g74
(dp671
g82
I3
ssg83
g665
sg76
(lp672
S''
asbasbasbag69
(g85
g71
NtRp673
(dp674
g74
(dp675
sg83
g649
sg76
(lp676
g69
(g90
g71
NtRp677
(dp678
g74
(dp679
g94
g95
ssg83
g673
sg76
(lp680
g304
asbag69
(g90
g71
NtRp681
(dp682
g74
(dp683
g101
g102
ssg83
g673
sg76
(lp684
S':'
asbag69
(g90
g71
NtRp685
(dp686
g74
(dp687
sg83
g673
sg76
(lp688
g69
(g70
g71
NtRp689
(dp690
g74
(dp691
g82
I3
ssg83
g685
sg76
(lp692
S''
asbasbasbag69
(g85
g71
NtRp693
(dp694
g74
(dp695
sg83
g649
sg76
(lp696
g69
(g90
g71
NtRp697
(dp698
g74
(dp699
g94
g95
ssg83
g693
sg76
(lp700
g325
asbag69
(g90
g71
NtRp701
(dp702
g74
(dp703
g101
g102
ssg83
g693
sg76
(lp704
S':'
asbag69
(g90
g71
NtRp705
(dp706
g74
(dp707
sg83
g693
sg76
(lp708
g69
(g70
g71
NtRp709
(dp710
g74
(dp711
g82
I3
ssg83
g705
sg76
(lp712
S''
asbasbasbag69
(g85
g71
NtRp713
(dp714
g74
(dp715
sg83
g649
sg76
(lp716
g69
(g90
g71
NtRp717
(dp718
g74
(dp719
g94
g95
ssg83
g713
sg76
(lp720
g346
asbag69
(g90
g71
NtRp721
(dp722
g74
(dp723
g101
g102
ssg83
g713
sg76
(lp724
S':'
asbag69
(g90
g71
NtRp725
(dp726
g74
(dp727
sg83
g713
sg76
(lp728
g69
(g70
g71
NtRp729
(dp730
g74
(dp731
g82
I3
ssg83
g725
sg76
(lp732
S''
asbasbasbag69
(g85
g71
NtRp733
(dp734
g74
(dp735
sg83
g649
sg76
(lp736
g69
(g90
g71
NtRp737
(dp738
g74
(dp739
g94
g95
ssg83
g733
sg76
(lp740
g367
asbag69
(g90
g71
NtRp741
(dp742
g74
(dp743
g101
g102
ssg83
g733
sg76
(lp744
S':'
asbag69
(g90
g71
NtRp745
(dp746
g74
(dp747
sg83
g733
sg76
(lp748
g69
(g70
g71
NtRp749
(dp750
g74
(dp751
g82
I3
ssg83
g745
sg76
(lp752
S''
asbasbasbag69
(g85
g71
NtRp753
(dp754
g74
(dp755
sg83
g649
sg76
(lp756
g69
(g90
g71
NtRp757
(dp758
g74
(dp759
g94
g95
ssg83
g753
sg76
(lp760
g388
asbag69
(g90
g71
NtRp761
(dp762
g74
(dp763
g101
g102
ssg83
g753
sg76
(lp764
S':'
asbag69
(g90
g71
NtRp765
(dp766
g74
(dp767
sg83
g753
sg76
(lp768
g69
(g70
g71
NtRp769
(dp770
g74
(dp771
g82
I3
ssg83
g765
sg76
(lp772
S''
asbasbasbag69
(g85
g71
NtRp773
(dp774
g74
(dp775
sg83
g649
sg76
(lp776
g69
(g90
g71
NtRp777
(dp778
g74
(dp779
g94
g95
ssg83
g773
sg76
(lp780
g409
asbag69
(g90
g71
NtRp781
(dp782
g74
(dp783
g101
g102
ssg83
g773
sg76
(lp784
S':'
asbag69
(g90
g71
NtRp785
(dp786
g74
(dp787
sg83
g773
sg76
(lp788
g69
(g70
g71
NtRp789
(dp790
g74
(dp791
g82
I3
ssg83
g785
sg76
(lp792
S''
asbasbasbag69
(g85
g71
NtRp793
(dp794
g74
(dp795
sg83
g649
sg76
(lp796
g69
(g90
g71
NtRp797
(dp798
g74
(dp799
g94
g95
ssg83
g793
sg76
(lp800
g430
asbag69
(g90
g71
NtRp801
(dp802
g74
(dp803
g101
g102
ssg83
g793
sg76
(lp804
S':'
asbag69
(g90
g71
NtRp805
(dp806
g74
(dp807
sg83
g793
sg76
(lp808
g69
(g70
g71
NtRp809
(dp810
g74
(dp811
g82
I3
ssg83
g805
sg76
(lp812
S''
asbasbasbasbasbasbasbag69
(g85
g71
NtRp813
(dp814
g74
(dp815
sg83
g246
sg76
(lp816
g69
(g90
g71
NtRp817
(dp818
g74
(dp819
g94
g95
ssg83
g813
sg76
(lp820
S'session_id_welcome'
p821
asbag69
(g90
g71
NtRp822
(dp823
g74
(dp824
g101
g102
ssg83
g813
sg76
(lp825
S':'
asbag69
(g90
g71
NtRp826
(dp827
g74
(dp828
sg83
g813
sg76
(lp829
g69
(g70
g71
NtRp830
(dp831
g74
(dp832
g82
I4
ssg83
g826
sg76
(lp833
g69
(g78
g71
NtRp834
(dp835
g74
(dp836
g82
I3
ssg83
Nsg76
(lp837
g69
(g85
g71
NtRp838
(dp839
g74
(dp840
sg83
g834
sg76
(lp841
g69
(g90
g71
NtRp842
(dp843
g74
(dp844
g94
g95
ssg83
g838
sg76
(lp845
g283
asbag69
(g90
g71
NtRp846
(dp847
g74
(dp848
g101
g102
ssg83
g838
sg76
(lp849
S':'
asbag69
(g90
g71
NtRp850
(dp851
g74
(dp852
sg83
g838
sg76
(lp853
g69
(g70
g71
NtRp854
(dp855
g74
(dp856
g82
I3
ssg83
g850
sg76
(lp857
S''
asbasbasbag69
(g85
g71
NtRp858
(dp859
g74
(dp860
sg83
g834
sg76
(lp861
g69
(g90
g71
NtRp862
(dp863
g74
(dp864
g94
g95
ssg83
g858
sg76
(lp865
g304
asbag69
(g90
g71
NtRp866
(dp867
g74
(dp868
g101
g102
ssg83
g858
sg76
(lp869
S':'
asbag69
(g90
g71
NtRp870
(dp871
g74
(dp872
sg83
g858
sg76
(lp873
g69
(g70
g71
NtRp874
(dp875
g74
(dp876
g82
I3
ssg83
g870
sg76
(lp877
S''
asbasbasbag69
(g85
g71
NtRp878
(dp879
g74
(dp880
sg83
g834
sg76
(lp881
g69
(g90
g71
NtRp882
(dp883
g74
(dp884
g94
g95
ssg83
g878
sg76
(lp885
g325
asbag69
(g90
g71
NtRp886
(dp887
g74
(dp888
g101
g102
ssg83
g878
sg76
(lp889
S':'
asbag69
(g90
g71
NtRp890
(dp891
g74
(dp892
sg83
g878
sg76
(lp893
g69
(g70
g71
NtRp894
(dp895
g74
(dp896
g82
I3
ssg83
g890
sg76
(lp897
S''
asbasbasbag69
(g85
g71
NtRp898
(dp899
g74
(dp900
sg83
g834
sg76
(lp901
g69
(g90
g71
NtRp902
(dp903
g74
(dp904
g94
g95
ssg83
g898
sg76
(lp905
g346
asbag69
(g90
g71
NtRp906
(dp907
g74
(dp908
g101
g102
ssg83
g898
sg76
(lp909
S':'
asbag69
(g90
g71
NtRp910
(dp911
g74
(dp912
sg83
g898
sg76
(lp913
g69
(g70
g71
NtRp914
(dp915
g74
(dp916
g82
I3
ssg83
g910
sg76
(lp917
S''
asbasbasbag69
(g85
g71
NtRp918
(dp919
g74
(dp920
sg83
g834
sg76
(lp921
g69
(g90
g71
NtRp922
(dp923
g74
(dp924
g94
g95
ssg83
g918
sg76
(lp925
g367
asbag69
(g90
g71
NtRp926
(dp927
g74
(dp928
g101
g102
ssg83
g918
sg76
(lp929
S':'
asbag69
(g90
g71
NtRp930
(dp931
g74
(dp932
sg83
g918
sg76
(lp933
g69
(g70
g71
NtRp934
(dp935
g74
(dp936
g82
I3
ssg83
g930
sg76
(lp937
S''
asbasbasbag69
(g85
g71
NtRp938
(dp939
g74
(dp940
sg83
g834
sg76
(lp941
g69
(g90
g71
NtRp942
(dp943
g74
(dp944
g94
g95
ssg83
g938
sg76
(lp945
g388
asbag69
(g90
g71
NtRp946
(dp947
g74
(dp948
g101
g102
ssg83
g938
sg76
(lp949
S':'
asbag69
(g90
g71
NtRp950
(dp951
g74
(dp952
sg83
g938
sg76
(lp953
g69
(g70
g71
NtRp954
(dp955
g74
(dp956
g82
I3
ssg83
g950
sg76
(lp957
S''
asbasbasbag69
(g85
g71
NtRp958
(dp959
g74
(dp960
sg83
g834
sg76
(lp961
g69
(g90
g71
NtRp962
(dp963
g74
(dp964
g94
g95
ssg83
g958
sg76
(lp965
g409
asbag69
(g90
g71
NtRp966
(dp967
g74
(dp968
g101
g102
ssg83
g958
sg76
(lp969
S':'
asbag69
(g90
g71
NtRp970
(dp971
g74
(dp972
sg83
g958
sg76
(lp973
g69
(g70
g71
NtRp974
(dp975
g74
(dp976
g82
I3
ssg83
g970
sg76
(lp977
S''
asbasbasbag69
(g85
g71
NtRp978
(dp979
g74
(dp980
sg83
g834
sg76
(lp981
g69
(g90
g71
NtRp982
(dp983
g74
(dp984
g94
g95
ssg83
g978
sg76
(lp985
g430
asbag69
(g90
g71
NtRp986
(dp987
g74
(dp988
g101
g102
ssg83
g978
sg76
(lp989
S':'
asbag69
(g90
g71
NtRp990
(dp991
g74
(dp992
sg83
g978
sg76
(lp993
g69
(g70
g71
NtRp994
(dp995
g74
(dp996
g82
I3
ssg83
g990
sg76
(lp997
S''
asbasbasbasbasbasbasbag69
(g85
g71
NtRp998
(dp999
g74
(dp1000
sg83
g246
sg76
(lp1001
g69
(g90
g71
NtRp1002
(dp1003
g74
(dp1004
g94
g95
ssg83
g998
sg76
(lp1005
S'tls'
p1006
asbag69
(g90
g71
NtRp1007
(dp1008
g74
(dp1009
g101
g102
ssg83
g998
sg76
(lp1010
S':'
asbag69
(g90
g71
NtRp1011
(dp1012
g74
(dp1013
sg83
g998
sg76
(lp1014
g69
(g70
g71
NtRp1015
(dp1016
g74
(dp1017
g82
I4
ssg83
g1011
sg76
(lp1018
g69
(g78
g71
NtRp1019
(dp1020
g74
(dp1021
g82
I3
ssg83
Nsg76
(lp1022
g69
(g85
g71
NtRp1023
(dp1024
g74
(dp1025
sg83
g1019
sg76
(lp1026
g69
(g90
g71
NtRp1027
(dp1028
g74
(dp1029
g94
g95
ssg83
g1023
sg76
(lp1030
g283
asbag69
(g90
g71
NtRp1031
(dp1032
g74
(dp1033
g101
g102
ssg83
g1023
sg76
(lp1034
S':'
asbag69
(g90
g71
NtRp1035
(dp1036
g74
(dp1037
sg83
g1023
sg76
(lp1038
g69
(g70
g71
NtRp1039
(dp1040
g74
(dp1041
g82
I3
ssg83
g1035
sg76
(lp1042
S''
asbasbasbag69
(g85
g71
NtRp1043
(dp1044
g74
(dp1045
sg83
g1019
sg76
(lp1046
g69
(g90
g71
NtRp1047
(dp1048
g74
(dp1049
g94
g95
ssg83
g1043
sg76
(lp1050
g304
asbag69
(g90
g71
NtRp1051
(dp1052
g74
(dp1053
g101
g102
ssg83
g1043
sg76
(lp1054
S':'
asbag69
(g90
g71
NtRp1055
(dp1056
g74
(dp1057
sg83
g1043
sg76
(lp1058
g69
(g70
g71
NtRp1059
(dp1060
g74
(dp1061
g82
I3
ssg83
g1055
sg76
(lp1062
S''
asbasbasbag69
(g85
g71
NtRp1063
(dp1064
g74
(dp1065
sg83
g1019
sg76
(lp1066
g69
(g90
g71
NtRp1067
(dp1068
g74
(dp1069
g94
g95
ssg83
g1063
sg76
(lp1070
g325
asbag69
(g90
g71
NtRp1071
(dp1072
g74
(dp1073
g101
g102
ssg83
g1063
sg76
(lp1074
S':'
asbag69
(g90
g71
NtRp1075
(dp1076
g74
(dp1077
sg83
g1063
sg76
(lp1078
g69
(g70
g71
NtRp1079
(dp1080
g74
(dp1081
g82
I3
ssg83
g1075
sg76
(lp1082
S''
asbasbasbag69
(g85
g71
NtRp1083
(dp1084
g74
(dp1085
sg83
g1019
sg76
(lp1086
g69
(g90
g71
NtRp1087
(dp1088
g74
(dp1089
g94
g95
ssg83
g1083
sg76
(lp1090
g346
asbag69
(g90
g71
NtRp1091
(dp1092
g74
(dp1093
g101
g102
ssg83
g1083
sg76
(lp1094
S':'
asbag69
(g90
g71
NtRp1095
(dp1096
g74
(dp1097
sg83
g1083
sg76
(lp1098
g69
(g70
g71
NtRp1099
(dp1100
g74
(dp1101
g82
I3
ssg83
g1095
sg76
(lp1102
S''
asbasbasbag69
(g85
g71
NtRp1103
(dp1104
g74
(dp1105
sg83
g1019
sg76
(lp1106
g69
(g90
g71
NtRp1107
(dp1108
g74
(dp1109
g94
g95
ssg83
g1103
sg76
(lp1110
g367
asbag69
(g90
g71
NtRp1111
(dp1112
g74
(dp1113
g101
g102
ssg83
g1103
sg76
(lp1114
S':'
asbag69
(g90
g71
NtRp1115
(dp1116
g74
(dp1117
sg83
g1103
sg76
(lp1118
g69
(g70
g71
NtRp1119
(dp1120
g74
(dp1121
g82
I3
ssg83
g1115
sg76
(lp1122
S''
asbasbasbag69
(g85
g71
NtRp1123
(dp1124
g74
(dp1125
sg83
g1019
sg76
(lp1126
g69
(g90
g71
NtRp1127
(dp1128
g74
(dp1129
g94
g95
ssg83
g1123
sg76
(lp1130
g388
asbag69
(g90
g71
NtRp1131
(dp1132
g74
(dp1133
g101
g102
ssg83
g1123
sg76
(lp1134
S':'
asbag69
(g90
g71
NtRp1135
(dp1136
g74
(dp1137
sg83
g1123
sg76
(lp1138
g69
(g70
g71
NtRp1139
(dp1140
g74
(dp1141
g82
I3
ssg83
g1135
sg76
(lp1142
S''
asbasbasbag69
(g85
g71
NtRp1143
(dp1144
g74
(dp1145
sg83
g1019
sg76
(lp1146
g69
(g90
g71
NtRp1147
(dp1148
g74
(dp1149
g94
g95
ssg83
g1143
sg76
(lp1150
g409
asbag69
(g90
g71
NtRp1151
(dp1152
g74
(dp1153
g101
g102
ssg83
g1143
sg76
(lp1154
S':'
asbag69
(g90
g71
NtRp1155
(dp1156
g74
(dp1157
sg83
g1143
sg76
(lp1158
g69
(g70
g71
NtRp1159
(dp1160
g74
(dp1161
g82
I3
ssg83
g1155
sg76
(lp1162
S''
asbasbasbag69
(g85
g71
NtRp1163
(dp1164
g74
(dp1165
sg83
g1019
sg76
(lp1166
g69
(g90
g71
NtRp1167
(dp1168
g74
(dp1169
g94
g95
ssg83
g1163
sg76
(lp1170
g430
asbag69
(g90
g71
NtRp1171
(dp1172
g74
(dp1173
g101
g102
ssg83
g1163
sg76
(lp1174
S':'
asbag69
(g90
g71
NtRp1175
(dp1176
g74
(dp1177
sg83
g1163
sg76
(lp1178
g69
(g70
g71
NtRp1179
(dp1180
g74
(dp1181
g82
I3
ssg83
g1175
sg76
(lp1182
S''
asbasbasbasbasbasbasbasbasbasbasbag69
(g85
g71
NtRp1183
(dp1184
g74
(dp1185
sg83
g79
sg76
(lp1186
g69
(g90
g71
NtRp1187
(dp1188
g74
(dp1189
g94
g95
ssg83
g1183
sg76
(lp1190
S'env'
p1191
asbag69
(g90
g71
NtRp1192
(dp1193
g74
(dp1194
g101
g102
ssg83
g1183
sg76
(lp1195
S':'
asbag69
(g90
g71
NtRp1196
(dp1197
g74
(dp1198
sg83
g1183
sg76
(lp1199
g69
(g70
g71
NtRp1200
(dp1201
g74
(dp1202
g82
I5
ssg83
g1196
sg76
(lp1203
g69
(g78
g71
NtRp1204
(dp1205
g74
(dp1206
g82
I4
ssg83
Nsg76
(lp1207
g69
(g85
g71
NtRp1208
(dp1209
g74
(dp1210
sg83
g1204
sg76
(lp1211
g69
(g90
g71
NtRp1212
(dp1213
g74
(dp1214
g94
g95
ssg83
g1208
sg76
(lp1215
S'app_folders'
p1216
asbag69
(g90
g71
NtRp1217
(dp1218
g74
(dp1219
g101
g102
ssg83
g1208
sg76
(lp1220
S':'
asbag69
(g90
g71
NtRp1221
(dp1222
g74
(dp1223
sg83
g1208
sg76
(lp1224
g69
(g70
g71
NtRp1225
(dp1226
g74
(dp1227
g82
I4
ssg83
g1221
sg76
(lp1228
S"set(['/home/sanjeet/Desktop/install/Development/web2py/applications/welcome/', '/home/sanjeet/Desktop/install/Development/web2py/applications/admin/', '/home/sanjeet/Desktop/install/Development/web2py/applications/themishrms/'])"
p1229
asbasbasbag69
(g85
g71
NtRp1230
(dp1231
g74
(dp1232
sg83
g1204
sg76
(lp1233
g69
(g90
g71
NtRp1234
(dp1235
g74
(dp1236
g94
g95
ssg83
g1230
sg76
(lp1237
S'applications_parent'
p1238
asbag69
(g90
g71
NtRp1239
(dp1240
g74
(dp1241
g101
g102
ssg83
g1230
sg76
(lp1242
S':'
asbag69
(g90
g71
NtRp1243
(dp1244
g74
(dp1245
sg83
g1230
sg76
(lp1246
g69
(g70
g71
NtRp1247
(dp1248
g74
(dp1249
g82
I4
ssg83
g1243
sg76
(lp1250
S'/home/sanjeet/Desktop/install/Development/web2py'
p1251
asbasbasbag69
(g85
g71
NtRp1252
(dp1253
g74
(dp1254
sg83
g1204
sg76
(lp1255
g69
(g90
g71
NtRp1256
(dp1257
g74
(dp1258
g94
g95
ssg83
g1252
sg76
(lp1259
S'cmd_args'
p1260
asbag69
(g90
g71
NtRp1261
(dp1262
g74
(dp1263
g101
g102
ssg83
g1252
sg76
(lp1264
S':'
asbag69
(g90
g71
NtRp1265
(dp1266
g74
(dp1267
sg83
g1252
sg76
(lp1268
g69
(g70
g71
NtRp1269
(dp1270
g74
(dp1271
g82
I4
ssg83
g1265
sg76
(lp1272
g69
(g78
g71
NtRp1273
(dp1274
g74
(dp1275
g82
I3
ssg83
Nsg76
(lp1276
sbasbasbasbag69
(g85
g71
NtRp1277
(dp1278
g74
(dp1279
sg83
g1204
sg76
(lp1280
g69
(g90
g71
NtRp1281
(dp1282
g74
(dp1283
g94
g95
ssg83
g1277
sg76
(lp1284
S'cmd_options'
p1285
asbag69
(g90
g71
NtRp1286
(dp1287
g74
(dp1288
g101
g102
ssg83
g1277
sg76
(lp1289
S':'
asbag69
(g90
g71
NtRp1290
(dp1291
g74
(dp1292
sg83
g1277
sg76
(lp1293
g69
(g70
g71
NtRp1294
(dp1295
g74
(dp1296
g82
I4
ssg83
g1290
sg76
(lp1297
S"<Values at 0xa86e68c: {'verbose': False, 'ip': '127.0.0.1', 'shutdown_timeout': 5, 'taskbar': False, 'nocron': False, 'pid_filename': 'httpserver.pid', 'maxthreads': None, 'softcron': False, 'server_name': 'sanjeet-laptop', 'bpython': False, 'nogui': False, 'port': 8000, 'extcron': False, 'debuglevel': 30, 'test': None, 'folder': '/home/sanjeet/Desktop/install/Development/web2py', 'config': '', 'import_models': False, 'winservice': '', 'shell': None, 'run': '', 'log_filename': 'httpserver.log', 'args': [''], 'socket_timeout': 5, 'ssl_ca_certificate': None, 'scheduler': None, 'profiler_filename': None, 'ssl_private_key': '', 'password': 'a', 'request_queue_size': 5, 'ssl_certificate': '', 'cronjob': False, 'numthreads': None, 'quiet': False, 'interfaces': None, 'minthreads': None, 'timeout': 10, 'plain': False, 'nobanner': False}>"
p1298
asbasbasbag69
(g85
g71
NtRp1299
(dp1300
g74
(dp1301
sg83
g1204
sg76
(lp1302
g69
(g90
g71
NtRp1303
(dp1304
g74
(dp1305
g94
g95
ssg83
g1299
sg76
(lp1306
S'db_sessions'
p1307
asbag69
(g90
g71
NtRp1308
(dp1309
g74
(dp1310
g101
g102
ssg83
g1299
sg76
(lp1311
S':'
asbag69
(g90
g71
NtRp1312
(dp1313
g74
(dp1314
sg83
g1299
sg76
(lp1315
g69
(g70
g71
NtRp1316
(dp1317
g74
(dp1318
g82
I4
ssg83
g1312
sg76
(lp1319
S'set([])'
p1320
asbasbasbag69
(g85
g71
NtRp1321
(dp1322
g74
(dp1323
sg83
g1204
sg76
(lp1324
g69
(g90
g71
NtRp1325
(dp1326
g74
(dp1327
g94
g95
ssg83
g1321
sg76
(lp1328
S'debugging'
p1329
asbag69
(g90
g71
NtRp1330
(dp1331
g74
(dp1332
g101
g102
ssg83
g1321
sg76
(lp1333
S':'
asbag69
(g90
g71
NtRp1334
(dp1335
g74
(dp1336
sg83
g1321
sg76
(lp1337
g69
(g70
g71
NtRp1338
(dp1339
g74
(dp1340
g82
I4
ssg83
g1334
sg76
(lp1341
g112
asbasbasbag69
(g85
g71
NtRp1342
(dp1343
g74
(dp1344
sg83
g1204
sg76
(lp1345
g69
(g90
g71
NtRp1346
(dp1347
g74
(dp1348
g94
g95
ssg83
g1342
sg76
(lp1349
S'gluon_parent'
p1350
asbag69
(g90
g71
NtRp1351
(dp1352
g74
(dp1353
g101
g102
ssg83
g1342
sg76
(lp1354
S':'
asbag69
(g90
g71
NtRp1355
(dp1356
g74
(dp1357
sg83
g1342
sg76
(lp1358
g69
(g70
g71
NtRp1359
(dp1360
g74
(dp1361
g82
I4
ssg83
g1355
sg76
(lp1362
S'/home/sanjeet/Desktop/install/Development/web2py'
p1363
asbasbasbag69
(g85
g71
NtRp1364
(dp1365
g74
(dp1366
sg83
g1204
sg76
(lp1367
g69
(g90
g71
NtRp1368
(dp1369
g74
(dp1370
g94
g95
ssg83
g1364
sg76
(lp1371
S'http_accept'
p1372
asbag69
(g90
g71
NtRp1373
(dp1374
g74
(dp1375
g101
g102
ssg83
g1364
sg76
(lp1376
S':'
asbag69
(g90
g71
NtRp1377
(dp1378
g74
(dp1379
sg83
g1364
sg76
(lp1380
g69
(g70
g71
NtRp1381
(dp1382
g74
(dp1383
g82
I4
ssg83
g1377
sg76
(lp1384
S'text/html,application/xhtml+xml,application/xml;q=0.9,*/*;q=0.8'
p1385
asbasbasbag69
(g85
g71
NtRp1386
(dp1387
g74
(dp1388
sg83
g1204
sg76
(lp1389
g69
(g90
g71
NtRp1390
(dp1391
g74
(dp1392
g94
g95
ssg83
g1386
sg76
(lp1393
S'http_accept_charset'
p1394
asbag69
(g90
g71
NtRp1395
(dp1396
g74
(dp1397
g101
g102
ssg83
g1386
sg76
(lp1398
S':'
asbag69
(g90
g71
NtRp1399
(dp1400
g74
(dp1401
sg83
g1386
sg76
(lp1402
g69
(g70
g71
NtRp1403
(dp1404
g74
(dp1405
g82
I4
ssg83
g1399
sg76
(lp1406
S'ISO-8859-1,utf-8;q=0.7,*;q=0.3'
p1407
asbasbasbag69
(g85
g71
NtRp1408
(dp1409
g74
(dp1410
sg83
g1204
sg76
(lp1411
g69
(g90
g71
NtRp1412
(dp1413
g74
(dp1414
g94
g95
ssg83
g1408
sg76
(lp1415
S'http_accept_encoding'
p1416
asbag69
(g90
g71
NtRp1417
(dp1418
g74
(dp1419
g101
g102
ssg83
g1408
sg76
(lp1420
S':'
asbag69
(g90
g71
NtRp1421
(dp1422
g74
(dp1423
sg83
g1408
sg76
(lp1424
g69
(g70
g71
NtRp1425
(dp1426
g74
(dp1427
g82
I4
ssg83
g1421
sg76
(lp1428
S'gzip,deflate,sdch'
p1429
asbasbasbag69
(g85
g71
NtRp1430
(dp1431
g74
(dp1432
sg83
g1204
sg76
(lp1433
g69
(g90
g71
NtRp1434
(dp1435
g74
(dp1436
g94
g95
ssg83
g1430
sg76
(lp1437
S'http_accept_language'
p1438
asbag69
(g90
g71
NtRp1439
(dp1440
g74
(dp1441
g101
g102
ssg83
g1430
sg76
(lp1442
S':'
asbag69
(g90
g71
NtRp1443
(dp1444
g74
(dp1445
sg83
g1430
sg76
(lp1446
g69
(g70
g71
NtRp1447
(dp1448
g74
(dp1449
g82
I4
ssg83
g1443
sg76
(lp1450
S'en-US,en;q=0.8'
p1451
asbasbasbag69
(g85
g71
NtRp1452
(dp1453
g74
(dp1454
sg83
g1204
sg76
(lp1455
g69
(g90
g71
NtRp1456
(dp1457
g74
(dp1458
g94
g95
ssg83
g1452
sg76
(lp1459
S'http_cache_control'
p1460
asbag69
(g90
g71
NtRp1461
(dp1462
g74
(dp1463
g101
g102
ssg83
g1452
sg76
(lp1464
S':'
asbag69
(g90
g71
NtRp1465
(dp1466
g74
(dp1467
sg83
g1452
sg76
(lp1468
g69
(g70
g71
NtRp1469
(dp1470
g74
(dp1471
g82
I4
ssg83
g1465
sg76
(lp1472
S'max-age=0'
p1473
asbasbasbag69
(g85
g71
NtRp1474
(dp1475
g74
(dp1476
sg83
g1204
sg76
(lp1477
g69
(g90
g71
NtRp1478
(dp1479
g74
(dp1480
g94
g95
ssg83
g1474
sg76
(lp1481
S'http_connection'
p1482
asbag69
(g90
g71
NtRp1483
(dp1484
g74
(dp1485
g101
g102
ssg83
g1474
sg76
(lp1486
S':'
asbag69
(g90
g71
NtRp1487
(dp1488
g74
(dp1489
sg83
g1474
sg76
(lp1490
g69
(g70
g71
NtRp1491
(dp1492
g74
(dp1493
g82
I4
ssg83
g1487
sg76
(lp1494
S'keep-alive'
p1495
asbasbasbag69
(g85
g71
NtRp1496
(dp1497
g74
(dp1498
sg83
g1204
sg76
(lp1499
g69
(g90
g71
NtRp1500
(dp1501
g74
(dp1502
g94
g95
ssg83
g1496
sg76
(lp1503
S'http_cookie'
p1504
asbag69
(g90
g71
NtRp1505
(dp1506
g74
(dp1507
g101
g102
ssg83
g1496
sg76
(lp1508
S':'
asbag69
(g90
g71
NtRp1509
(dp1510
g74
(dp1511
sg83
g1496
sg76
(lp1512
g69
(g70
g71
NtRp1513
(dp1514
g74
(dp1515
g82
I4
ssg83
g1509
sg76
(lp1516
S'session_id_welcome=127.0.0.1-53782040-6e3f-4c49-a03e-71178b5445f4; session_id_admin=127.0.0.1-e3d58f2b-cd27-43a1-9f24-a203be4178e4; mypanel=up; tls=up; session_id_themishrms=127.0.0.1-351961f0-0e02-470c-8a78-c9767aef5a1b'
p1517
asbasbasbag69
(g85
g71
NtRp1518
(dp1519
g74
(dp1520
sg83
g1204
sg76
(lp1521
g69
(g90
g71
NtRp1522
(dp1523
g74
(dp1524
g94
g95
ssg83
g1518
sg76
(lp1525
S'http_host'
p1526
asbag69
(g90
g71
NtRp1527
(dp1528
g74
(dp1529
g101
g102
ssg83
g1518
sg76
(lp1530
S':'
asbag69
(g90
g71
NtRp1531
(dp1532
g74
(dp1533
sg83
g1518
sg76
(lp1534
g69
(g70
g71
NtRp1535
(dp1536
g74
(dp1537
g82
I4
ssg83
g1531
sg76
(lp1538
S'127.0.0.1:8000'
p1539
asbasbasbag69
(g85
g71
NtRp1540
(dp1541
g74
(dp1542
sg83
g1204
sg76
(lp1543
g69
(g90
g71
NtRp1544
(dp1545
g74
(dp1546
g94
g95
ssg83
g1540
sg76
(lp1547
S'http_referer'
p1548
asbag69
(g90
g71
NtRp1549
(dp1550
g74
(dp1551
g101
g102
ssg83
g1540
sg76
(lp1552
S':'
asbag69
(g90
g71
NtRp1553
(dp1554
g74
(dp1555
sg83
g1540
sg76
(lp1556
g69
(g70
g71
NtRp1557
(dp1558
g74
(dp1559
g82
I4
ssg83
g1553
sg76
(lp1560
S'http://127.0.0.1:8000/themishrms/default/employee'
p1561
asbasbasbag69
(g85
g71
NtRp1562
(dp1563
g74
(dp1564
sg83
g1204
sg76
(lp1565
g69
(g90
g71
NtRp1566
(dp1567
g74
(dp1568
g94
g95
ssg83
g1562
sg76
(lp1569
S'http_user_agent'
p1570
asbag69
(g90
g71
NtRp1571
(dp1572
g74
(dp1573
g101
g102
ssg83
g1562
sg76
(lp1574
S':'
asbag69
(g90
g71
NtRp1575
(dp1576
g74
(dp1577
sg83
g1562
sg76
(lp1578
g69
(g70
g71
NtRp1579
(dp1580
g74
(dp1581
g82
I4
ssg83
g1575
sg76
(lp1582
S'Mozilla/5.0 (X11; Linux i686) AppleWebKit/535.19 (KHTML, like Gecko) Chrome/18.0.1025.168 Safari/535.19'
p1583
asbasbasbag69
(g85
g71
NtRp1584
(dp1585
g74
(dp1586
sg83
g1204
sg76
(lp1587
g69
(g90
g71
NtRp1588
(dp1589
g74
(dp1590
g94
g95
ssg83
g1584
sg76
(lp1591
S'is_jython'
p1592
asbag69
(g90
g71
NtRp1593
(dp1594
g74
(dp1595
g101
g102
ssg83
g1584
sg76
(lp1596
S':'
asbag69
(g90
g71
NtRp1597
(dp1598
g74
(dp1599
sg83
g1584
sg76
(lp1600
g69
(g70
g71
NtRp1601
(dp1602
g74
(dp1603
g82
I4
ssg83
g1597
sg76
(lp1604
g112
asbasbasbag69
(g85
g71
NtRp1605
(dp1606
g74
(dp1607
sg83
g1204
sg76
(lp1608
g69
(g90
g71
NtRp1609
(dp1610
g74
(dp1611
g94
g95
ssg83
g1605
sg76
(lp1612
S'is_pypy'
p1613
asbag69
(g90
g71
NtRp1614
(dp1615
g74
(dp1616
g101
g102
ssg83
g1605
sg76
(lp1617
S':'
asbag69
(g90
g71
NtRp1618
(dp1619
g74
(dp1620
sg83
g1605
sg76
(lp1621
g69
(g70
g71
NtRp1622
(dp1623
g74
(dp1624
g82
I4
ssg83
g1618
sg76
(lp1625
g112
asbasbasbag69
(g85
g71
NtRp1626
(dp1627
g74
(dp1628
sg83
g1204
sg76
(lp1629
g69
(g90
g71
NtRp1630
(dp1631
g74
(dp1632
g94
g95
ssg83
g1626
sg76
(lp1633
S'path_info'
p1634
asbag69
(g90
g71
NtRp1635
(dp1636
g74
(dp1637
g101
g102
ssg83
g1626
sg76
(lp1638
S':'
asbag69
(g90
g71
NtRp1639
(dp1640
g74
(dp1641
sg83
g1626
sg76
(lp1642
g69
(g70
g71
NtRp1643
(dp1644
g74
(dp1645
g82
I4
ssg83
g1639
sg76
(lp1646
S'/themishrms/default/user_timesheet'
p1647
asbasbasbag69
(g85
g71
NtRp1648
(dp1649
g74
(dp1650
sg83
g1204
sg76
(lp1651
g69
(g90
g71
NtRp1652
(dp1653
g74
(dp1654
g94
g95
ssg83
g1648
sg76
(lp1655
S'query_string'
p1656
asbag69
(g90
g71
NtRp1657
(dp1658
g74
(dp1659
g101
g102
ssg83
g1648
sg76
(lp1660
S':'
asbag69
(g90
g71
NtRp1661
(dp1662
g74
(dp1663
sg83
g1648
sg76
(lp1664
g69
(g70
g71
NtRp1665
(dp1666
g74
(dp1667
g82
I4
ssg83
g1661
sg76
(lp1668
S''
asbasbasbag69
(g85
g71
NtRp1669
(dp1670
g74
(dp1671
sg83
g1204
sg76
(lp1672
g69
(g90
g71
NtRp1673
(dp1674
g74
(dp1675
g94
g95
ssg83
g1669
sg76
(lp1676
S'remote_addr'
p1677
asbag69
(g90
g71
NtRp1678
(dp1679
g74
(dp1680
g101
g102
ssg83
g1669
sg76
(lp1681
S':'
asbag69
(g90
g71
NtRp1682
(dp1683
g74
(dp1684
sg83
g1669
sg76
(lp1685
g69
(g70
g71
NtRp1686
(dp1687
g74
(dp1688
g82
I4
ssg83
g1682
sg76
(lp1689
g202
asbasbasbag69
(g85
g71
NtRp1690
(dp1691
g74
(dp1692
sg83
g1204
sg76
(lp1693
g69
(g90
g71
NtRp1694
(dp1695
g74
(dp1696
g94
g95
ssg83
g1690
sg76
(lp1697
S'remote_port'
p1698
asbag69
(g90
g71
NtRp1699
(dp1700
g74
(dp1701
g101
g102
ssg83
g1690
sg76
(lp1702
S':'
asbag69
(g90
g71
NtRp1703
(dp1704
g74
(dp1705
sg83
g1690
sg76
(lp1706
g69
(g70
g71
NtRp1707
(dp1708
g74
(dp1709
g82
I4
ssg83
g1703
sg76
(lp1710
S'47557'
p1711
asbasbasbag69
(g85
g71
NtRp1712
(dp1713
g74
(dp1714
sg83
g1204
sg76
(lp1715
g69
(g90
g71
NtRp1716
(dp1717
g74
(dp1718
g94
g95
ssg83
g1712
sg76
(lp1719
S'request_method'
p1720
asbag69
(g90
g71
NtRp1721
(dp1722
g74
(dp1723
g101
g102
ssg83
g1712
sg76
(lp1724
S':'
asbag69
(g90
g71
NtRp1725
(dp1726
g74
(dp1727
sg83
g1712
sg76
(lp1728
g69
(g70
g71
NtRp1729
(dp1730
g74
(dp1731
g82
I4
ssg83
g1725
sg76
(lp1732
S'GET'
p1733
asbasbasbag69
(g85
g71
NtRp1734
(dp1735
g74
(dp1736
sg83
g1204
sg76
(lp1737
g69
(g90
g71
NtRp1738
(dp1739
g74
(dp1740
g94
g95
ssg83
g1734
sg76
(lp1741
S'script_name'
p1742
asbag69
(g90
g71
NtRp1743
(dp1744
g74
(dp1745
g101
g102
ssg83
g1734
sg76
(lp1746
S':'
asbag69
(g90
g71
NtRp1747
(dp1748
g74
(dp1749
sg83
g1734
sg76
(lp1750
g69
(g70
g71
NtRp1751
(dp1752
g74
(dp1753
g82
I4
ssg83
g1747
sg76
(lp1754
S''
asbasbasbag69
(g85
g71
NtRp1755
(dp1756
g74
(dp1757
sg83
g1204
sg76
(lp1758
g69
(g90
g71
NtRp1759
(dp1760
g74
(dp1761
g94
g95
ssg83
g1755
sg76
(lp1762
S'server_name'
p1763
asbag69
(g90
g71
NtRp1764
(dp1765
g74
(dp1766
g101
g102
ssg83
g1755
sg76
(lp1767
S':'
asbag69
(g90
g71
NtRp1768
(dp1769
g74
(dp1770
sg83
g1755
sg76
(lp1771
g69
(g70
g71
NtRp1772
(dp1773
g74
(dp1774
g82
I4
ssg83
g1768
sg76
(lp1775
S'sanjeet-laptop'
p1776
asbasbasbag69
(g85
g71
NtRp1777
(dp1778
g74
(dp1779
sg83
g1204
sg76
(lp1780
g69
(g90
g71
NtRp1781
(dp1782
g74
(dp1783
g94
g95
ssg83
g1777
sg76
(lp1784
S'server_port'
p1785
asbag69
(g90
g71
NtRp1786
(dp1787
g74
(dp1788
g101
g102
ssg83
g1777
sg76
(lp1789
S':'
asbag69
(g90
g71
NtRp1790
(dp1791
g74
(dp1792
sg83
g1777
sg76
(lp1793
g69
(g70
g71
NtRp1794
(dp1795
g74
(dp1796
g82
I4
ssg83
g1790
sg76
(lp1797
S'8000'
p1798
asbasbasbag69
(g85
g71
NtRp1799
(dp1800
g74
(dp1801
sg83
g1204
sg76
(lp1802
g69
(g90
g71
NtRp1803
(dp1804
g74
(dp1805
g94
g95
ssg83
g1799
sg76
(lp1806
S'server_protocol'
p1807
asbag69
(g90
g71
NtRp1808
(dp1809
g74
(dp1810
g101
g102
ssg83
g1799
sg76
(lp1811
S':'
asbag69
(g90
g71
NtRp1812
(dp1813
g74
(dp1814
sg83
g1799
sg76
(lp1815
g69
(g70
g71
NtRp1816
(dp1817
g74
(dp1818
g82
I4
ssg83
g1812
sg76
(lp1819
S'HTTP/1.1'
p1820
asbasbasbag69
(g85
g71
NtRp1821
(dp1822
g74
(dp1823
sg83
g1204
sg76
(lp1824
g69
(g90
g71
NtRp1825
(dp1826
g74
(dp1827
g94
g95
ssg83
g1821
sg76
(lp1828
S'server_software'
p1829
asbag69
(g90
g71
NtRp1830
(dp1831
g74
(dp1832
g101
g102
ssg83
g1821
sg76
(lp1833
S':'
asbag69
(g90
g71
NtRp1834
(dp1835
g74
(dp1836
sg83
g1821
sg76
(lp1837
g69
(g70
g71
NtRp1838
(dp1839
g74
(dp1840
g82
I4
ssg83
g1834
sg76
(lp1841
S'Rocket 1.2.4'
p1842
asbasbasbag69
(g85
g71
NtRp1843
(dp1844
g74
(dp1845
sg83
g1204
sg76
(lp1846
g69
(g90
g71
NtRp1847
(dp1848
g74
(dp1849
g94
g95
ssg83
g1843
sg76
(lp1850
S'web2py_crontype'
p1851
asbag69
(g90
g71
NtRp1852
(dp1853
g74
(dp1854
g101
g102
ssg83
g1843
sg76
(lp1855
S':'
asbag69
(g90
g71
NtRp1856
(dp1857
g74
(dp1858
sg83
g1843
sg76
(lp1859
g69
(g70
g71
NtRp1860
(dp1861
g74
(dp1862
g82
I4
ssg83
g1856
sg76
(lp1863
S'hard'
p1864
asbasbasbag69
(g85
g71
NtRp1865
(dp1866
g74
(dp1867
sg83
g1204
sg76
(lp1868
g69
(g90
g71
NtRp1869
(dp1870
g74
(dp1871
g94
g95
ssg83
g1865
sg76
(lp1872
S'web2py_path'
p1873
asbag69
(g90
g71
NtRp1874
(dp1875
g74
(dp1876
g101
g102
ssg83
g1865
sg76
(lp1877
S':'
asbag69
(g90
g71
NtRp1878
(dp1879
g74
(dp1880
sg83
g1865
sg76
(lp1881
g69
(g70
g71
NtRp1882
(dp1883
g74
(dp1884
g82
I4
ssg83
g1878
sg76
(lp1885
g1251
asbasbasbag69
(g85
g71
NtRp1886
(dp1887
g74
(dp1888
sg83
g1204
sg76
(lp1889
g69
(g90
g71
NtRp1890
(dp1891
g74
(dp1892
g94
g95
ssg83
g1886
sg76
(lp1893
S'web2py_version'
p1894
asbag69
(g90
g71
NtRp1895
(dp1896
g74
(dp1897
g101
g102
ssg83
g1886
sg76
(lp1898
S':'
asbag69
(g90
g71
NtRp1899
(dp1900
g74
(dp1901
sg83
g1886
sg76
(lp1902
g69
(g70
g71
NtRp1903
(dp1904
g74
(dp1905
g82
I4
ssg83
g1899
sg76
(lp1906
g69
(g78
g71
NtRp1907
(dp1908
g74
(dp1909
g82
I3
ssg83
Nsg76
(lp1910
g69
(g85
g71
NtRp1911
(dp1912
g74
(dp1913
sg83
g1907
sg76
(lp1914
g69
(g90
g71
NtRp1915
(dp1916
g74
(dp1917
sg83
g1911
sg76
(lp1918
g69
(g70
g71
NtRp1919
(dp1920
g74
(dp1921
g82
I3
ssg83
g1915
sg76
(lp1922
S'1'
asbasbasbag69
(g85
g71
NtRp1923
(dp1924
g74
(dp1925
sg83
g1907
sg76
(lp1926
g69
(g90
g71
NtRp1927
(dp1928
g74
(dp1929
sg83
g1923
sg76
(lp1930
g69
(g70
g71
NtRp1931
(dp1932
g74
(dp1933
g82
I3
ssg83
g1927
sg76
(lp1934
S'99'
p1935
asbasbasbag69
(g85
g71
NtRp1936
(dp1937
g74
(dp1938
sg83
g1907
sg76
(lp1939
g69
(g90
g71
NtRp1940
(dp1941
g74
(dp1942
sg83
g1936
sg76
(lp1943
g69
(g70
g71
NtRp1944
(dp1945
g74
(dp1946
g82
I3
ssg83
g1940
sg76
(lp1947
S'7'
asbasbasbag69
(g85
g71
NtRp1948
(dp1949
g74
(dp1950
sg83
g1907
sg76
(lp1951
g69
(g90
g71
NtRp1952
(dp1953
g74
(dp1954
sg83
g1948
sg76
(lp1955
g69
(g70
g71
NtRp1956
(dp1957
g74
(dp1958
g82
I3
ssg83
g1952
sg76
(lp1959
S'datetime.datetime(2012, 3, 4, 22, 12, 8)'
p1960
asbasbasbag69
(g85
g71
NtRp1961
(dp1962
g74
(dp1963
sg83
g1907
sg76
(lp1964
g69
(g90
g71
NtRp1965
(dp1966
g74
(dp1967
sg83
g1961
sg76
(lp1968
g69
(g70
g71
NtRp1969
(dp1970
g74
(dp1971
g82
I3
ssg83
g1965
sg76
(lp1972
S'stable'
p1973
asbasbasbasbasbasbasbag69
(g85
g71
NtRp1974
(dp1975
g74
(dp1976
sg83
g1204
sg76
(lp1977
g69
(g90
g71
NtRp1978
(dp1979
g74
(dp1980
g94
g95
ssg83
g1974
sg76
(lp1981
S'wsgi_errors'
p1982
asbag69
(g90
g71
NtRp1983
(dp1984
g74
(dp1985
g101
g102
ssg83
g1974
sg76
(lp1986
S':'
asbag69
(g90
g71
NtRp1987
(dp1988
g74
(dp1989
sg83
g1974
sg76
(lp1990
g69
(g70
g71
NtRp1991
(dp1992
g74
(dp1993
g82
I4
ssg83
g1987
sg76
(lp1994
S"<open file '<stderr>', mode 'w' at 0xb779e0d0>"
p1995
asbasbasbag69
(g85
g71
NtRp1996
(dp1997
g74
(dp1998
sg83
g1204
sg76
(lp1999
g69
(g90
g71
NtRp2000
(dp2001
g74
(dp2002
g94
g95
ssg83
g1996
sg76
(lp2003
S'wsgi_file_wrapper'
p2004
asbag69
(g90
g71
NtRp2005
(dp2006
g74
(dp2007
g101
g102
ssg83
g1996
sg76
(lp2008
S':'
asbag69
(g90
g71
NtRp2009
(dp2010
g74
(dp2011
sg83
g1996
sg76
(lp2012
g69
(g70
g71
NtRp2013
(dp2014
g74
(dp2015
g82
I4
ssg83
g2009
sg76
(lp2016
S'<class wsgiref.util.FileWrapper at 0xa804a1c>'
p2017
asbasbasbag69
(g85
g71
NtRp2018
(dp2019
g74
(dp2020
sg83
g1204
sg76
(lp2021
g69
(g90
g71
NtRp2022
(dp2023
g74
(dp2024
g94
g95
ssg83
g2018
sg76
(lp2025
S'wsgi_input'
p2026
asbag69
(g90
g71
NtRp2027
(dp2028
g74
(dp2029
g101
g102
ssg83
g2018
sg76
(lp2030
S':'
asbag69
(g90
g71
NtRp2031
(dp2032
g74
(dp2033
sg83
g2018
sg76
(lp2034
g69
(g70
g71
NtRp2035
(dp2036
g74
(dp2037
g82
I4
ssg83
g2031
sg76
(lp2038
S'<socket._fileobject object at 0xad4a56c>'
p2039
asbasbasbag69
(g85
g71
NtRp2040
(dp2041
g74
(dp2042
sg83
g1204
sg76
(lp2043
g69
(g90
g71
NtRp2044
(dp2045
g74
(dp2046
g94
g95
ssg83
g2040
sg76
(lp2047
S'wsgi_multiprocess'
p2048
asbag69
(g90
g71
NtRp2049
(dp2050
g74
(dp2051
g101
g102
ssg83
g2040
sg76
(lp2052
S':'
asbag69
(g90
g71
NtRp2053
(dp2054
g74
(dp2055
sg83
g2040
sg76
(lp2056
g69
(g70
g71
NtRp2057
(dp2058
g74
(dp2059
g82
I4
ssg83
g2053
sg76
(lp2060
g112
asbasbasbag69
(g85
g71
NtRp2061
(dp2062
g74
(dp2063
sg83
g1204
sg76
(lp2064
g69
(g90
g71
NtRp2065
(dp2066
g74
(dp2067
g94
g95
ssg83
g2061
sg76
(lp2068
S'wsgi_multithread'
p2069
asbag69
(g90
g71
NtRp2070
(dp2071
g74
(dp2072
g101
g102
ssg83
g2061
sg76
(lp2073
S':'
asbag69
(g90
g71
NtRp2074
(dp2075
g74
(dp2076
sg83
g2061
sg76
(lp2077
g69
(g70
g71
NtRp2078
(dp2079
g74
(dp2080
g82
I4
ssg83
g2074
sg76
(lp2081
S'True'
p2082
asbasbasbag69
(g85
g71
NtRp2083
(dp2084
g74
(dp2085
sg83
g1204
sg76
(lp2086
g69
(g90
g71
NtRp2087
(dp2088
g74
(dp2089
g94
g95
ssg83
g2083
sg76
(lp2090
S'wsgi_run_once'
p2091
asbag69
(g90
g71
NtRp2092
(dp2093
g74
(dp2094
g101
g102
ssg83
g2083
sg76
(lp2095
S':'
asbag69
(g90
g71
NtRp2096
(dp2097
g74
(dp2098
sg83
g2083
sg76
(lp2099
g69
(g70
g71
NtRp2100
(dp2101
g74
(dp2102
g82
I4
ssg83
g2096
sg76
(lp2103
g112
asbasbasbag69
(g85
g71
NtRp2104
(dp2105
g74
(dp2106
sg83
g1204
sg76
(lp2107
g69
(g90
g71
NtRp2108
(dp2109
g74
(dp2110
g94
g95
ssg83
g2104
sg76
(lp2111
S'wsgi_url_scheme'
p2112
asbag69
(g90
g71
NtRp2113
(dp2114
g74
(dp2115
g101
g102
ssg83
g2104
sg76
(lp2116
S':'
asbag69
(g90
g71
NtRp2117
(dp2118
g74
(dp2119
sg83
g2104
sg76
(lp2120
g69
(g70
g71
NtRp2121
(dp2122
g74
(dp2123
g82
I4
ssg83
g2117
sg76
(lp2124
S'http'
p2125
asbasbasbag69
(g85
g71
NtRp2126
(dp2127
g74
(dp2128
sg83
g1204
sg76
(lp2129
g69
(g90
g71
NtRp2130
(dp2131
g74
(dp2132
g94
g95
ssg83
g2126
sg76
(lp2133
S'wsgi_version'
p2134
asbag69
(g90
g71
NtRp2135
(dp2136
g74
(dp2137
g101
g102
ssg83
g2126
sg76
(lp2138
S':'
asbag69
(g90
g71
NtRp2139
(dp2140
g74
(dp2141
sg83
g2126
sg76
(lp2142
g69
(g70
g71
NtRp2143
(dp2144
g74
(dp2145
g82
I4
ssg83
g2139
sg76
(lp2146
g69
(g78
g71
NtRp2147
(dp2148
g74
(dp2149
g82
I3
ssg83
Nsg76
(lp2150
g69
(g85
g71
NtRp2151
(dp2152
g74
(dp2153
sg83
g2147
sg76
(lp2154
g69
(g90
g71
NtRp2155
(dp2156
g74
(dp2157
sg83
g2151
sg76
(lp2158
g69
(g70
g71
NtRp2159
(dp2160
g74
(dp2161
g82
I3
ssg83
g2155
sg76
(lp2162
S'1'
asbasbasbag69
(g85
g71
NtRp2163
(dp2164
g74
(dp2165
sg83
g2147
sg76
(lp2166
g69
(g90
g71
NtRp2167
(dp2168
g74
(dp2169
sg83
g2163
sg76
(lp2170
g69
(g70
g71
NtRp2171
(dp2172
g74
(dp2173
g82
I3
ssg83
g2167
sg76
(lp2174
S'0'
asbasbasbasbasbasbasbasbasbasbasbag69
(g85
g71
NtRp2175
(dp2176
g74
(dp2177
sg83
g79
sg76
(lp2178
g69
(g90
g71
NtRp2179
(dp2180
g74
(dp2181
g94
g95
ssg83
g2175
sg76
(lp2182
S'extension'
p2183
asbag69
(g90
g71
NtRp2184
(dp2185
g74
(dp2186
g101
g102
ssg83
g2175
sg76
(lp2187
S':'
asbag69
(g90
g71
NtRp2188
(dp2189
g74
(dp2190
sg83
g2175
sg76
(lp2191
g69
(g70
g71
NtRp2192
(dp2193
g74
(dp2194
g82
I5
ssg83
g2188
sg76
(lp2195
S'html'
p2196
asbasbasbag69
(g85
g71
NtRp2197
(dp2198
g74
(dp2199
sg83
g79
sg76
(lp2200
g69
(g90
g71
NtRp2201
(dp2202
g74
(dp2203
g94
g95
ssg83
g2197
sg76
(lp2204
S'folder'
p2205
asbag69
(g90
g71
NtRp2206
(dp2207
g74
(dp2208
g101
g102
ssg83
g2197
sg76
(lp2209
S':'
asbag69
(g90
g71
NtRp2210
(dp2211
g74
(dp2212
sg83
g2197
sg76
(lp2213
g69
(g70
g71
NtRp2214
(dp2215
g74
(dp2216
g82
I5
ssg83
g2210
sg76
(lp2217
S'/home/sanjeet/Desktop/install/Development/web2py/applications/themishrms/'
p2218
asbasbasbag69
(g85
g71
NtRp2219
(dp2220
g74
(dp2221
sg83
g79
sg76
(lp2222
g69
(g90
g71
NtRp2223
(dp2224
g74
(dp2225
g94
g95
ssg83
g2219
sg76
(lp2226
S'function'
p2227
asbag69
(g90
g71
NtRp2228
(dp2229
g74
(dp2230
g101
g102
ssg83
g2219
sg76
(lp2231
S':'
asbag69
(g90
g71
NtRp2232
(dp2233
g74
(dp2234
sg83
g2219
sg76
(lp2235
g69
(g70
g71
NtRp2236
(dp2237
g74
(dp2238
g82
I5
ssg83
g2232
sg76
(lp2239
S'user_timesheet'
p2240
asbasbasbag69
(g85
g71
NtRp2241
(dp2242
g74
(dp2243
sg83
g79
sg76
(lp2244
g69
(g90
g71
NtRp2245
(dp2246
g74
(dp2247
g94
g95
ssg83
g2241
sg76
(lp2248
S'get_vars'
p2249
asbag69
(g90
g71
NtRp2250
(dp2251
g74
(dp2252
g101
g102
ssg83
g2241
sg76
(lp2253
S':'
asbag69
(g90
g71
NtRp2254
(dp2255
g74
(dp2256
sg83
g2241
sg76
(lp2257
g69
(g70
g71
NtRp2258
(dp2259
g74
(dp2260
g82
I5
ssg83
g2254
sg76
(lp2261
g69
(g78
g71
NtRp2262
(dp2263
g74
(dp2264
g82
I4
ssg83
Nsg76
(lp2265
sbasbasbasbag69
(g85
g71
NtRp2266
(dp2267
g74
(dp2268
sg83
g79
sg76
(lp2269
g69
(g90
g71
NtRp2270
(dp2271
g74
(dp2272
g94
g95
ssg83
g2266
sg76
(lp2273
S'global_settings'
p2274
asbag69
(g90
g71
NtRp2275
(dp2276
g74
(dp2277
g101
g102
ssg83
g2266
sg76
(lp2278
S':'
asbag69
(g90
g71
NtRp2279
(dp2280
g74
(dp2281
sg83
g2266
sg76
(lp2282
g69
(g70
g71
NtRp2283
(dp2284
g74
(dp2285
g82
I5
ssg83
g2279
sg76
(lp2286
g69
(g78
g71
NtRp2287
(dp2288
g74
(dp2289
g82
I4
ssg83
Nsg76
(lp2290
g69
(g85
g71
NtRp2291
(dp2292
g74
(dp2293
sg83
g2287
sg76
(lp2294
g69
(g90
g71
NtRp2295
(dp2296
g74
(dp2297
g94
g95
ssg83
g2291
sg76
(lp2298
g1216
asbag69
(g90
g71
NtRp2299
(dp2300
g74
(dp2301
g101
g102
ssg83
g2291
sg76
(lp2302
S':'
asbag69
(g90
g71
NtRp2303
(dp2304
g74
(dp2305
sg83
g2291
sg76
(lp2306
g69
(g70
g71
NtRp2307
(dp2308
g74
(dp2309
g82
I4
ssg83
g2303
sg76
(lp2310
S"set(['/home/sanjeet/Desktop/install/Development/web2py/applications/welcome/', '/home/sanjeet/Desktop/install/Development/web2py/applications/admin/', '/home/sanjeet/Desktop/install/Development/web2py/applications/themishrms/'])"
p2311
asbasbasbag69
(g85
g71
NtRp2312
(dp2313
g74
(dp2314
sg83
g2287
sg76
(lp2315
g69
(g90
g71
NtRp2316
(dp2317
g74
(dp2318
g94
g95
ssg83
g2312
sg76
(lp2319
g1238
asbag69
(g90
g71
NtRp2320
(dp2321
g74
(dp2322
g101
g102
ssg83
g2312
sg76
(lp2323
S':'
asbag69
(g90
g71
NtRp2324
(dp2325
g74
(dp2326
sg83
g2312
sg76
(lp2327
g69
(g70
g71
NtRp2328
(dp2329
g74
(dp2330
g82
I4
ssg83
g2324
sg76
(lp2331
g1251
asbasbasbag69
(g85
g71
NtRp2332
(dp2333
g74
(dp2334
sg83
g2287
sg76
(lp2335
g69
(g90
g71
NtRp2336
(dp2337
g74
(dp2338
g94
g95
ssg83
g2332
sg76
(lp2339
g1260
asbag69
(g90
g71
NtRp2340
(dp2341
g74
(dp2342
g101
g102
ssg83
g2332
sg76
(lp2343
S':'
asbag69
(g90
g71
NtRp2344
(dp2345
g74
(dp2346
sg83
g2332
sg76
(lp2347
g69
(g70
g71
NtRp2348
(dp2349
g74
(dp2350
g82
I4
ssg83
g2344
sg76
(lp2351
g69
(g78
g71
NtRp2352
(dp2353
g74
(dp2354
g82
I3
ssg83
Nsg76
(lp2355
sbasbasbasbag69
(g85
g71
NtRp2356
(dp2357
g74
(dp2358
sg83
g2287
sg76
(lp2359
g69
(g90
g71
NtRp2360
(dp2361
g74
(dp2362
g94
g95
ssg83
g2356
sg76
(lp2363
g1285
asbag69
(g90
g71
NtRp2364
(dp2365
g74
(dp2366
g101
g102
ssg83
g2356
sg76
(lp2367
S':'
asbag69
(g90
g71
NtRp2368
(dp2369
g74
(dp2370
sg83
g2356
sg76
(lp2371
g69
(g70
g71
NtRp2372
(dp2373
g74
(dp2374
g82
I4
ssg83
g2368
sg76
(lp2375
S"<Values at 0xa86e68c: {'verbose': False, 'ip': '127.0.0.1', 'shutdown_timeout': 5, 'taskbar': False, 'nocron': False, 'pid_filename': 'httpserver.pid', 'maxthreads': None, 'softcron': False, 'server_name': 'sanjeet-laptop', 'bpython': False, 'nogui': False, 'port': 8000, 'extcron': False, 'debuglevel': 30, 'test': None, 'folder': '/home/sanjeet/Desktop/install/Development/web2py', 'config': '', 'import_models': False, 'winservice': '', 'shell': None, 'run': '', 'log_filename': 'httpserver.log', 'args': [''], 'socket_timeout': 5, 'ssl_ca_certificate': None, 'scheduler': None, 'profiler_filename': None, 'ssl_private_key': '', 'password': 'a', 'request_queue_size': 5, 'ssl_certificate': '', 'cronjob': False, 'numthreads': None, 'quiet': False, 'interfaces': None, 'minthreads': None, 'timeout': 10, 'plain': False, 'nobanner': False}>"
p2376
asbasbasbag69
(g85
g71
NtRp2377
(dp2378
g74
(dp2379
sg83
g2287
sg76
(lp2380
g69
(g90
g71
NtRp2381
(dp2382
g74
(dp2383
g94
g95
ssg83
g2377
sg76
(lp2384
g1307
asbag69
(g90
g71
NtRp2385
(dp2386
g74
(dp2387
g101
g102
ssg83
g2377
sg76
(lp2388
S':'
asbag69
(g90
g71
NtRp2389
(dp2390
g74
(dp2391
sg83
g2377
sg76
(lp2392
g69
(g70
g71
NtRp2393
(dp2394
g74
(dp2395
g82
I4
ssg83
g2389
sg76
(lp2396
S'set([])'
p2397
asbasbasbag69
(g85
g71
NtRp2398
(dp2399
g74
(dp2400
sg83
g2287
sg76
(lp2401
g69
(g90
g71
NtRp2402
(dp2403
g74
(dp2404
g94
g95
ssg83
g2398
sg76
(lp2405
g1329
asbag69
(g90
g71
NtRp2406
(dp2407
g74
(dp2408
g101
g102
ssg83
g2398
sg76
(lp2409
S':'
asbag69
(g90
g71
NtRp2410
(dp2411
g74
(dp2412
sg83
g2398
sg76
(lp2413
g69
(g70
g71
NtRp2414
(dp2415
g74
(dp2416
g82
I4
ssg83
g2410
sg76
(lp2417
g112
asbasbasbag69
(g85
g71
NtRp2418
(dp2419
g74
(dp2420
sg83
g2287
sg76
(lp2421
g69
(g90
g71
NtRp2422
(dp2423
g74
(dp2424
g94
g95
ssg83
g2418
sg76
(lp2425
g1350
asbag69
(g90
g71
NtRp2426
(dp2427
g74
(dp2428
g101
g102
ssg83
g2418
sg76
(lp2429
S':'
asbag69
(g90
g71
NtRp2430
(dp2431
g74
(dp2432
sg83
g2418
sg76
(lp2433
g69
(g70
g71
NtRp2434
(dp2435
g74
(dp2436
g82
I4
ssg83
g2430
sg76
(lp2437
g1363
asbasbasbag69
(g85
g71
NtRp2438
(dp2439
g74
(dp2440
sg83
g2287
sg76
(lp2441
g69
(g90
g71
NtRp2442
(dp2443
g74
(dp2444
g94
g95
ssg83
g2438
sg76
(lp2445
g1592
asbag69
(g90
g71
NtRp2446
(dp2447
g74
(dp2448
g101
g102
ssg83
g2438
sg76
(lp2449
S':'
asbag69
(g90
g71
NtRp2450
(dp2451
g74
(dp2452
sg83
g2438
sg76
(lp2453
g69
(g70
g71
NtRp2454
(dp2455
g74
(dp2456
g82
I4
ssg83
g2450
sg76
(lp2457
g112
asbasbasbag69
(g85
g71
NtRp2458
(dp2459
g74
(dp2460
sg83
g2287
sg76
(lp2461
g69
(g90
g71
NtRp2462
(dp2463
g74
(dp2464
g94
g95
ssg83
g2458
sg76
(lp2465
g1613
asbag69
(g90
g71
NtRp2466
(dp2467
g74
(dp2468
g101
g102
ssg83
g2458
sg76
(lp2469
S':'
asbag69
(g90
g71
NtRp2470
(dp2471
g74
(dp2472
sg83
g2458
sg76
(lp2473
g69
(g70
g71
NtRp2474
(dp2475
g74
(dp2476
g82
I4
ssg83
g2470
sg76
(lp2477
g112
asbasbasbag69
(g85
g71
NtRp2478
(dp2479
g74
(dp2480
sg83
g2287
sg76
(lp2481
g69
(g90
g71
NtRp2482
(dp2483
g74
(dp2484
g94
g95
ssg83
g2478
sg76
(lp2485
g1851
asbag69
(g90
g71
NtRp2486
(dp2487
g74
(dp2488
g101
g102
ssg83
g2478
sg76
(lp2489
S':'
asbag69
(g90
g71
NtRp2490
(dp2491
g74
(dp2492
sg83
g2478
sg76
(lp2493
g69
(g70
g71
NtRp2494
(dp2495
g74
(dp2496
g82
I4
ssg83
g2490
sg76
(lp2497
g1864
asbasbasbag69
(g85
g71
NtRp2498
(dp2499
g74
(dp2500
sg83
g2287
sg76
(lp2501
g69
(g90
g71
NtRp2502
(dp2503
g74
(dp2504
g94
g95
ssg83
g2498
sg76
(lp2505
g1894
asbag69
(g90
g71
NtRp2506
(dp2507
g74
(dp2508
g101
g102
ssg83
g2498
sg76
(lp2509
S':'
asbag69
(g90
g71
NtRp2510
(dp2511
g74
(dp2512
sg83
g2498
sg76
(lp2513
g69
(g70
g71
NtRp2514
(dp2515
g74
(dp2516
g82
I4
ssg83
g2510
sg76
(lp2517
g69
(g78
g71
NtRp2518
(dp2519
g74
(dp2520
g82
I3
ssg83
Nsg76
(lp2521
g69
(g85
g71
NtRp2522
(dp2523
g74
(dp2524
sg83
g2518
sg76
(lp2525
g69
(g90
g71
NtRp2526
(dp2527
g74
(dp2528
sg83
g2522
sg76
(lp2529
g69
(g70
g71
NtRp2530
(dp2531
g74
(dp2532
g82
I3
ssg83
g2526
sg76
(lp2533
S'1'
asbasbasbag69
(g85
g71
NtRp2534
(dp2535
g74
(dp2536
sg83
g2518
sg76
(lp2537
g69
(g90
g71
NtRp2538
(dp2539
g74
(dp2540
sg83
g2534
sg76
(lp2541
g69
(g70
g71
NtRp2542
(dp2543
g74
(dp2544
g82
I3
ssg83
g2538
sg76
(lp2545
S'99'
p2546
asbasbasbag69
(g85
g71
NtRp2547
(dp2548
g74
(dp2549
sg83
g2518
sg76
(lp2550
g69
(g90
g71
NtRp2551
(dp2552
g74
(dp2553
sg83
g2547
sg76
(lp2554
g69
(g70
g71
NtRp2555
(dp2556
g74
(dp2557
g82
I3
ssg83
g2551
sg76
(lp2558
S'7'
asbasbasbag69
(g85
g71
NtRp2559
(dp2560
g74
(dp2561
sg83
g2518
sg76
(lp2562
g69
(g90
g71
NtRp2563
(dp2564
g74
(dp2565
sg83
g2559
sg76
(lp2566
g69
(g70
g71
NtRp2567
(dp2568
g74
(dp2569
g82
I3
ssg83
g2563
sg76
(lp2570
S'datetime.datetime(2012, 3, 4, 22, 12, 8)'
p2571
asbasbasbag69
(g85
g71
NtRp2572
(dp2573
g74
(dp2574
sg83
g2518
sg76
(lp2575
g69
(g90
g71
NtRp2576
(dp2577
g74
(dp2578
sg83
g2572
sg76
(lp2579
g69
(g70
g71
NtRp2580
(dp2581
g74
(dp2582
g82
I3
ssg83
g2576
sg76
(lp2583
g1973
asbasbasbasbasbasbasbasbasbasbasbag69
(g85
g71
NtRp2584
(dp2585
g74
(dp2586
sg83
g79
sg76
(lp2587
g69
(g90
g71
NtRp2588
(dp2589
g74
(dp2590
g94
g95
ssg83
g2584
sg76
(lp2591
S'is_https'
p2592
asbag69
(g90
g71
NtRp2593
(dp2594
g74
(dp2595
g101
g102
ssg83
g2584
sg76
(lp2596
S':'
asbag69
(g90
g71
NtRp2597
(dp2598
g74
(dp2599
sg83
g2584
sg76
(lp2600
g69
(g70
g71
NtRp2601
(dp2602
g74
(dp2603
g82
I5
ssg83
g2597
sg76
(lp2604
g112
asbasbasbag69
(g85
g71
NtRp2605
(dp2606
g74
(dp2607
sg83
g79
sg76
(lp2608
g69
(g90
g71
NtRp2609
(dp2610
g74
(dp2611
g94
g95
ssg83
g2605
sg76
(lp2612
S'is_local'
p2613
asbag69
(g90
g71
NtRp2614
(dp2615
g74
(dp2616
g101
g102
ssg83
g2605
sg76
(lp2617
S':'
asbag69
(g90
g71
NtRp2618
(dp2619
g74
(dp2620
sg83
g2605
sg76
(lp2621
g69
(g70
g71
NtRp2622
(dp2623
g74
(dp2624
g82
I5
ssg83
g2618
sg76
(lp2625
g2082
asbasbasbag69
(g85
g71
NtRp2626
(dp2627
g74
(dp2628
sg83
g79
sg76
(lp2629
g69
(g90
g71
NtRp2630
(dp2631
g74
(dp2632
g94
g95
ssg83
g2626
sg76
(lp2633
S'is_restful'
p2634
asbag69
(g90
g71
NtRp2635
(dp2636
g74
(dp2637
g101
g102
ssg83
g2626
sg76
(lp2638
S':'
asbag69
(g90
g71
NtRp2639
(dp2640
g74
(dp2641
sg83
g2626
sg76
(lp2642
g69
(g70
g71
NtRp2643
(dp2644
g74
(dp2645
g82
I5
ssg83
g2639
sg76
(lp2646
g112
asbasbasbag69
(g85
g71
NtRp2647
(dp2648
g74
(dp2649
sg83
g79
sg76
(lp2650
g69
(g90
g71
NtRp2651
(dp2652
g74
(dp2653
g94
g95
ssg83
g2647
sg76
(lp2654
S'now'
p2655
asbag69
(g90
g71
NtRp2656
(dp2657
g74
(dp2658
g101
g102
ssg83
g2647
sg76
(lp2659
S':'
asbag69
(g90
g71
NtRp2660
(dp2661
g74
(dp2662
sg83
g2647
sg76
(lp2663
g69
(g70
g71
NtRp2664
(dp2665
g74
(dp2666
g82
I5
ssg83
g2660
sg76
(lp2667
S'datetime.datetime(2012, 5, 6, 18, 29, 29, 660186)'
p2668
asbasbasbag69
(g85
g71
NtRp2669
(dp2670
g74
(dp2671
sg83
g79
sg76
(lp2672
g69
(g90
g71
NtRp2673
(dp2674
g74
(dp2675
g94
g95
ssg83
g2669
sg76
(lp2676
S'post_vars'
p2677
asbag69
(g90
g71
NtRp2678
(dp2679
g74
(dp2680
g101
g102
ssg83
g2669
sg76
(lp2681
S':'
asbag69
(g90
g71
NtRp2682
(dp2683
g74
(dp2684
sg83
g2669
sg76
(lp2685
g69
(g70
g71
NtRp2686
(dp2687
g74
(dp2688
g82
I5
ssg83
g2682
sg76
(lp2689
g69
(g78
g71
NtRp2690
(dp2691
g74
(dp2692
g82
I4
ssg83
Nsg76
(lp2693
sbasbasbasbag69
(g85
g71
NtRp2694
(dp2695
g74
(dp2696
sg83
g79
sg76
(lp2697
g69
(g90
g71
NtRp2698
(dp2699
g74
(dp2700
g94
g95
ssg83
g2694
sg76
(lp2701
S'url'
p2702
asbag69
(g90
g71
NtRp2703
(dp2704
g74
(dp2705
g101
g102
ssg83
g2694
sg76
(lp2706
S':'
asbag69
(g90
g71
NtRp2707
(dp2708
g74
(dp2709
sg83
g2694
sg76
(lp2710
g69
(g70
g71
NtRp2711
(dp2712
g74
(dp2713
g82
I5
ssg83
g2707
sg76
(lp2714
S'/themishrms/default/user_timesheet'
p2715
asbasbasbag69
(g85
g71
NtRp2716
(dp2717
g74
(dp2718
sg83
g79
sg76
(lp2719
g69
(g90
g71
NtRp2720
(dp2721
g74
(dp2722
g94
g95
ssg83
g2716
sg76
(lp2723
S'utcnow'
p2724
asbag69
(g90
g71
NtRp2725
(dp2726
g74
(dp2727
g101
g102
ssg83
g2716
sg76
(lp2728
S':'
asbag69
(g90
g71
NtRp2729
(dp2730
g74
(dp2731
sg83
g2716
sg76
(lp2732
g69
(g70
g71
NtRp2733
(dp2734
g74
(dp2735
g82
I5
ssg83
g2729
sg76
(lp2736
S'datetime.datetime(2012, 5, 6, 12, 59, 29, 660214)'
p2737
asbasbasbag69
(g85
g71
NtRp2738
(dp2739
g74
(dp2740
sg83
g79
sg76
(lp2741
g69
(g90
g71
NtRp2742
(dp2743
g74
(dp2744
g94
g95
ssg83
g2738
sg76
(lp2745
S'uuid'
p2746
asbag69
(g90
g71
NtRp2747
(dp2748
g74
(dp2749
g101
g102
ssg83
g2738
sg76
(lp2750
S':'
asbag69
(g90
g71
NtRp2751
(dp2752
g74
(dp2753
sg83
g2738
sg76
(lp2754
g69
(g70
g71
NtRp2755
(dp2756
g74
(dp2757
g82
I5
ssg83
g2751
sg76
(lp2758
S'themishrms/127.0.0.1.2012-05-06.18-29-29.00f8484c-b779-4590-a802-c342770303a4'
p2759
asbasbasbag69
(g85
g71
NtRp2760
(dp2761
g74
(dp2762
sg83
g79
sg76
(lp2763
g69
(g90
g71
NtRp2764
(dp2765
g74
(dp2766
g94
g95
ssg83
g2760
sg76
(lp2767
S'vars'
p2768
asbag69
(g90
g71
NtRp2769
(dp2770
g74
(dp2771
g101
g102
ssg83
g2760
sg76
(lp2772
S':'
asbag69
(g90
g71
NtRp2773
(dp2774
g74
(dp2775
sg83
g2760
sg76
(lp2776
g69
(g70
g71
NtRp2777
(dp2778
g74
(dp2779
g82
I5
ssg83
g2773
sg76
(lp2780
g69
(g78
g71
NtRp2781
(dp2782
g74
(dp2783
g82
I4
ssg83
Nsg76
(lp2784
sbasbasbasbag69
(g85
g71
NtRp2785
(dp2786
g74
(dp2787
sg83
g79
sg76
(lp2788
g69
(g90
g71
NtRp2789
(dp2790
g74
(dp2791
g94
g95
ssg83
g2785
sg76
(lp2792
S'wsgi'
p2793
asbag69
(g90
g71
NtRp2794
(dp2795
g74
(dp2796
g101
g102
ssg83
g2785
sg76
(lp2797
S':'
asbag69
(g90
g71
NtRp2798
(dp2799
g74
(dp2800
sg83
g2785
sg76
(lp2801
g69
(g70
g71
NtRp2802
(dp2803
g74
(dp2804
g82
I5
ssg83
g2798
sg76
(lp2805
g69
(g78
g71
NtRp2806
(dp2807
g74
(dp2808
g82
I4
ssg83
Nsg76
(lp2809
g69
(g85
g71
NtRp2810
(dp2811
g74
(dp2812
sg83
g2806
sg76
(lp2813
g69
(g90
g71
NtRp2814
(dp2815
g74
(dp2816
g94
g95
ssg83
g2810
sg76
(lp2817
S'environ'
p2818
asbag69
(g90
g71
NtRp2819
(dp2820
g74
(dp2821
g101
g102
ssg83
g2810
sg76
(lp2822
S':'
asbag69
(g90
g71
NtRp2823
(dp2824
g74
(dp2825
sg83
g2810
sg76
(lp2826
g69
(g70
g71
NtRp2827
(dp2828
g74
(dp2829
g82
I4
ssg83
g2823
sg76
(lp2830
g69
(g78
g71
NtRp2831
(dp2832
g74
(dp2833
g82
I3
ssg83
Nsg76
(lp2834
g69
(g85
g71
NtRp2835
(dp2836
g74
(dp2837
sg83
g2831
sg76
(lp2838
g69
(g90
g71
NtRp2839
(dp2840
g74
(dp2841
g94
g95
ssg83
g2835
sg76
(lp2842
S'HTTP_ACCEPT'
p2843
asbag69
(g90
g71
NtRp2844
(dp2845
g74
(dp2846
g101
g102
ssg83
g2835
sg76
(lp2847
S':'
asbag69
(g90
g71
NtRp2848
(dp2849
g74
(dp2850
sg83
g2835
sg76
(lp2851
g69
(g70
g71
NtRp2852
(dp2853
g74
(dp2854
g82
I3
ssg83
g2848
sg76
(lp2855
g1385
asbasbasbag69
(g85
g71
NtRp2856
(dp2857
g74
(dp2858
sg83
g2831
sg76
(lp2859
g69
(g90
g71
NtRp2860
(dp2861
g74
(dp2862
g94
g95
ssg83
g2856
sg76
(lp2863
S'HTTP_ACCEPT_CHARSET'
p2864
asbag69
(g90
g71
NtRp2865
(dp2866
g74
(dp2867
g101
g102
ssg83
g2856
sg76
(lp2868
S':'
asbag69
(g90
g71
NtRp2869
(dp2870
g74
(dp2871
sg83
g2856
sg76
(lp2872
g69
(g70
g71
NtRp2873
(dp2874
g74
(dp2875
g82
I3
ssg83
g2869
sg76
(lp2876
g1407
asbasbasbag69
(g85
g71
NtRp2877
(dp2878
g74
(dp2879
sg83
g2831
sg76
(lp2880
g69
(g90
g71
NtRp2881
(dp2882
g74
(dp2883
g94
g95
ssg83
g2877
sg76
(lp2884
S'HTTP_ACCEPT_ENCODING'
p2885
asbag69
(g90
g71
NtRp2886
(dp2887
g74
(dp2888
g101
g102
ssg83
g2877
sg76
(lp2889
S':'
asbag69
(g90
g71
NtRp2890
(dp2891
g74
(dp2892
sg83
g2877
sg76
(lp2893
g69
(g70
g71
NtRp2894
(dp2895
g74
(dp2896
g82
I3
ssg83
g2890
sg76
(lp2897
g1429
asbasbasbag69
(g85
g71
NtRp2898
(dp2899
g74
(dp2900
sg83
g2831
sg76
(lp2901
g69
(g90
g71
NtRp2902
(dp2903
g74
(dp2904
g94
g95
ssg83
g2898
sg76
(lp2905
S'HTTP_ACCEPT_LANGUAGE'
p2906
asbag69
(g90
g71
NtRp2907
(dp2908
g74
(dp2909
g101
g102
ssg83
g2898
sg76
(lp2910
S':'
asbag69
(g90
g71
NtRp2911
(dp2912
g74
(dp2913
sg83
g2898
sg76
(lp2914
g69
(g70
g71
NtRp2915
(dp2916
g74
(dp2917
g82
I3
ssg83
g2911
sg76
(lp2918
g1451
asbasbasbag69
(g85
g71
NtRp2919
(dp2920
g74
(dp2921
sg83
g2831
sg76
(lp2922
g69
(g90
g71
NtRp2923
(dp2924
g74
(dp2925
g94
g95
ssg83
g2919
sg76
(lp2926
S'HTTP_CACHE_CONTROL'
p2927
asbag69
(g90
g71
NtRp2928
(dp2929
g74
(dp2930
g101
g102
ssg83
g2919
sg76
(lp2931
S':'
asbag69
(g90
g71
NtRp2932
(dp2933
g74
(dp2934
sg83
g2919
sg76
(lp2935
g69
(g70
g71
NtRp2936
(dp2937
g74
(dp2938
g82
I3
ssg83
g2932
sg76
(lp2939
g1473
asbasbasbag69
(g85
g71
NtRp2940
(dp2941
g74
(dp2942
sg83
g2831
sg76
(lp2943
g69
(g90
g71
NtRp2944
(dp2945
g74
(dp2946
g94
g95
ssg83
g2940
sg76
(lp2947
S'HTTP_CONNECTION'
p2948
asbag69
(g90
g71
NtRp2949
(dp2950
g74
(dp2951
g101
g102
ssg83
g2940
sg76
(lp2952
S':'
asbag69
(g90
g71
NtRp2953
(dp2954
g74
(dp2955
sg83
g2940
sg76
(lp2956
g69
(g70
g71
NtRp2957
(dp2958
g74
(dp2959
g82
I3
ssg83
g2953
sg76
(lp2960
g1495
asbasbasbag69
(g85
g71
NtRp2961
(dp2962
g74
(dp2963
sg83
g2831
sg76
(lp2964
g69
(g90
g71
NtRp2965
(dp2966
g74
(dp2967
g94
g95
ssg83
g2961
sg76
(lp2968
S'HTTP_COOKIE'
p2969
asbag69
(g90
g71
NtRp2970
(dp2971
g74
(dp2972
g101
g102
ssg83
g2961
sg76
(lp2973
S':'
asbag69
(g90
g71
NtRp2974
(dp2975
g74
(dp2976
sg83
g2961
sg76
(lp2977
g69
(g70
g71
NtRp2978
(dp2979
g74
(dp2980
g82
I3
ssg83
g2974
sg76
(lp2981
g1517
asbasbasbag69
(g85
g71
NtRp2982
(dp2983
g74
(dp2984
sg83
g2831
sg76
(lp2985
g69
(g90
g71
NtRp2986
(dp2987
g74
(dp2988
g94
g95
ssg83
g2982
sg76
(lp2989
S'HTTP_HOST'
p2990
asbag69
(g90
g71
NtRp2991
(dp2992
g74
(dp2993
g101
g102
ssg83
g2982
sg76
(lp2994
S':'
asbag69
(g90
g71
NtRp2995
(dp2996
g74
(dp2997
sg83
g2982
sg76
(lp2998
g69
(g70
g71
NtRp2999
(dp3000
g74
(dp3001
g82
I3
ssg83
g2995
sg76
(lp3002
g1539
asbasbasbag69
(g85
g71
NtRp3003
(dp3004
g74
(dp3005
sg83
g2831
sg76
(lp3006
g69
(g90
g71
NtRp3007
(dp3008
g74
(dp3009
g94
g95
ssg83
g3003
sg76
(lp3010
S'HTTP_REFERER'
p3011
asbag69
(g90
g71
NtRp3012
(dp3013
g74
(dp3014
g101
g102
ssg83
g3003
sg76
(lp3015
S':'
asbag69
(g90
g71
NtRp3016
(dp3017
g74
(dp3018
sg83
g3003
sg76
(lp3019
g69
(g70
g71
NtRp3020
(dp3021
g74
(dp3022
g82
I3
ssg83
g3016
sg76
(lp3023
g1561
asbasbasbag69
(g85
g71
NtRp3024
(dp3025
g74
(dp3026
sg83
g2831
sg76
(lp3027
g69
(g90
g71
NtRp3028
(dp3029
g74
(dp3030
g94
g95
ssg83
g3024
sg76
(lp3031
S'HTTP_USER_AGENT'
p3032
asbag69
(g90
g71
NtRp3033
(dp3034
g74
(dp3035
g101
g102
ssg83
g3024
sg76
(lp3036
S':'
asbag69
(g90
g71
NtRp3037
(dp3038
g74
(dp3039
sg83
g3024
sg76
(lp3040
g69
(g70
g71
NtRp3041
(dp3042
g74
(dp3043
g82
I3
ssg83
g3037
sg76
(lp3044
g1583
asbasbasbag69
(g85
g71
NtRp3045
(dp3046
g74
(dp3047
sg83
g2831
sg76
(lp3048
g69
(g90
g71
NtRp3049
(dp3050
g74
(dp3051
g94
g95
ssg83
g3045
sg76
(lp3052
S'PATH_INFO'
p3053
asbag69
(g90
g71
NtRp3054
(dp3055
g74
(dp3056
g101
g102
ssg83
g3045
sg76
(lp3057
S':'
asbag69
(g90
g71
NtRp3058
(dp3059
g74
(dp3060
sg83
g3045
sg76
(lp3061
g69
(g70
g71
NtRp3062
(dp3063
g74
(dp3064
g82
I3
ssg83
g3058
sg76
(lp3065
g1647
asbasbasbag69
(g85
g71
NtRp3066
(dp3067
g74
(dp3068
sg83
g2831
sg76
(lp3069
g69
(g90
g71
NtRp3070
(dp3071
g74
(dp3072
g94
g95
ssg83
g3066
sg76
(lp3073
S'QUERY_STRING'
p3074
asbag69
(g90
g71
NtRp3075
(dp3076
g74
(dp3077
g101
g102
ssg83
g3066
sg76
(lp3078
S':'
asbag69
(g90
g71
NtRp3079
(dp3080
g74
(dp3081
sg83
g3066
sg76
(lp3082
g69
(g70
g71
NtRp3083
(dp3084
g74
(dp3085
g82
I3
ssg83
g3079
sg76
(lp3086
S''
asbasbasbag69
(g85
g71
NtRp3087
(dp3088
g74
(dp3089
sg83
g2831
sg76
(lp3090
g69
(g90
g71
NtRp3091
(dp3092
g74
(dp3093
g94
g95
ssg83
g3087
sg76
(lp3094
S'REMOTE_ADDR'
p3095
asbag69
(g90
g71
NtRp3096
(dp3097
g74
(dp3098
g101
g102
ssg83
g3087
sg76
(lp3099
S':'
asbag69
(g90
g71
NtRp3100
(dp3101
g74
(dp3102
sg83
g3087
sg76
(lp3103
g69
(g70
g71
NtRp3104
(dp3105
g74
(dp3106
g82
I3
ssg83
g3100
sg76
(lp3107
g202
asbasbasbag69
(g85
g71
NtRp3108
(dp3109
g74
(dp3110
sg83
g2831
sg76
(lp3111
g69
(g90
g71
NtRp3112
(dp3113
g74
(dp3114
g94
g95
ssg83
g3108
sg76
(lp3115
S'REMOTE_PORT'
p3116
asbag69
(g90
g71
NtRp3117
(dp3118
g74
(dp3119
g101
g102
ssg83
g3108
sg76
(lp3120
S':'
asbag69
(g90
g71
NtRp3121
(dp3122
g74
(dp3123
sg83
g3108
sg76
(lp3124
g69
(g70
g71
NtRp3125
(dp3126
g74
(dp3127
g82
I3
ssg83
g3121
sg76
(lp3128
g1711
asbasbasbag69
(g85
g71
NtRp3129
(dp3130
g74
(dp3131
sg83
g2831
sg76
(lp3132
g69
(g90
g71
NtRp3133
(dp3134
g74
(dp3135
g94
g95
ssg83
g3129
sg76
(lp3136
S'REQUEST_METHOD'
p3137
asbag69
(g90
g71
NtRp3138
(dp3139
g74
(dp3140
g101
g102
ssg83
g3129
sg76
(lp3141
S':'
asbag69
(g90
g71
NtRp3142
(dp3143
g74
(dp3144
sg83
g3129
sg76
(lp3145
g69
(g70
g71
NtRp3146
(dp3147
g74
(dp3148
g82
I3
ssg83
g3142
sg76
(lp3149
g1733
asbasbasbag69
(g85
g71
NtRp3150
(dp3151
g74
(dp3152
sg83
g2831
sg76
(lp3153
g69
(g90
g71
NtRp3154
(dp3155
g74
(dp3156
g94
g95
ssg83
g3150
sg76
(lp3157
S'SCRIPT_NAME'
p3158
asbag69
(g90
g71
NtRp3159
(dp3160
g74
(dp3161
g101
g102
ssg83
g3150
sg76
(lp3162
S':'
asbag69
(g90
g71
NtRp3163
(dp3164
g74
(dp3165
sg83
g3150
sg76
(lp3166
g69
(g70
g71
NtRp3167
(dp3168
g74
(dp3169
g82
I3
ssg83
g3163
sg76
(lp3170
S''
asbasbasbag69
(g85
g71
NtRp3171
(dp3172
g74
(dp3173
sg83
g2831
sg76
(lp3174
g69
(g90
g71
NtRp3175
(dp3176
g74
(dp3177
g94
g95
ssg83
g3171
sg76
(lp3178
S'SERVER_NAME'
p3179
asbag69
(g90
g71
NtRp3180
(dp3181
g74
(dp3182
g101
g102
ssg83
g3171
sg76
(lp3183
S':'
asbag69
(g90
g71
NtRp3184
(dp3185
g74
(dp3186
sg83
g3171
sg76
(lp3187
g69
(g70
g71
NtRp3188
(dp3189
g74
(dp3190
g82
I3
ssg83
g3184
sg76
(lp3191
g1776
asbasbasbag69
(g85
g71
NtRp3192
(dp3193
g74
(dp3194
sg83
g2831
sg76
(lp3195
g69
(g90
g71
NtRp3196
(dp3197
g74
(dp3198
g94
g95
ssg83
g3192
sg76
(lp3199
S'SERVER_PORT'
p3200
asbag69
(g90
g71
NtRp3201
(dp3202
g74
(dp3203
g101
g102
ssg83
g3192
sg76
(lp3204
S':'
asbag69
(g90
g71
NtRp3205
(dp3206
g74
(dp3207
sg83
g3192
sg76
(lp3208
g69
(g70
g71
NtRp3209
(dp3210
g74
(dp3211
g82
I3
ssg83
g3205
sg76
(lp3212
g1798
asbasbasbag69
(g85
g71
NtRp3213
(dp3214
g74
(dp3215
sg83
g2831
sg76
(lp3216
g69
(g90
g71
NtRp3217
(dp3218
g74
(dp3219
g94
g95
ssg83
g3213
sg76
(lp3220
S'SERVER_PROTOCOL'
p3221
asbag69
(g90
g71
NtRp3222
(dp3223
g74
(dp3224
g101
g102
ssg83
g3213
sg76
(lp3225
S':'
asbag69
(g90
g71
NtRp3226
(dp3227
g74
(dp3228
sg83
g3213
sg76
(lp3229
g69
(g70
g71
NtRp3230
(dp3231
g74
(dp3232
g82
I3
ssg83
g3226
sg76
(lp3233
g1820
asbasbasbag69
(g85
g71
NtRp3234
(dp3235
g74
(dp3236
sg83
g2831
sg76
(lp3237
g69
(g90
g71
NtRp3238
(dp3239
g74
(dp3240
g94
g95
ssg83
g3234
sg76
(lp3241
S'SERVER_SOFTWARE'
p3242
asbag69
(g90
g71
NtRp3243
(dp3244
g74
(dp3245
g101
g102
ssg83
g3234
sg76
(lp3246
S':'
asbag69
(g90
g71
NtRp3247
(dp3248
g74
(dp3249
sg83
g3234
sg76
(lp3250
g69
(g70
g71
NtRp3251
(dp3252
g74
(dp3253
g82
I3
ssg83
g3247
sg76
(lp3254
g1842
asbasbasbag69
(g85
g71
NtRp3255
(dp3256
g74
(dp3257
sg83
g2831
sg76
(lp3258
g69
(g90
g71
NtRp3259
(dp3260
g74
(dp3261
g94
g95
ssg83
g3255
sg76
(lp3262
S'wsgi.errors'
p3263
asbag69
(g90
g71
NtRp3264
(dp3265
g74
(dp3266
g101
g102
ssg83
g3255
sg76
(lp3267
S':'
asbag69
(g90
g71
NtRp3268
(dp3269
g74
(dp3270
sg83
g3255
sg76
(lp3271
g69
(g70
g71
NtRp3272
(dp3273
g74
(dp3274
g82
I3
ssg83
g3268
sg76
(lp3275
S"<open file '<stderr>', mode 'w' at 0xb779e0d0>"
p3276
asbasbasbag69
(g85
g71
NtRp3277
(dp3278
g74
(dp3279
sg83
g2831
sg76
(lp3280
g69
(g90
g71
NtRp3281
(dp3282
g74
(dp3283
g94
g95
ssg83
g3277
sg76
(lp3284
S'wsgi.file_wrapper'
p3285
asbag69
(g90
g71
NtRp3286
(dp3287
g74
(dp3288
g101
g102
ssg83
g3277
sg76
(lp3289
S':'
asbag69
(g90
g71
NtRp3290
(dp3291
g74
(dp3292
sg83
g3277
sg76
(lp3293
g69
(g70
g71
NtRp3294
(dp3295
g74
(dp3296
g82
I3
ssg83
g3290
sg76
(lp3297
S'<class wsgiref.util.FileWrapper at 0xa804a1c>'
p3298
asbasbasbag69
(g85
g71
NtRp3299
(dp3300
g74
(dp3301
sg83
g2831
sg76
(lp3302
g69
(g90
g71
NtRp3303
(dp3304
g74
(dp3305
g94
g95
ssg83
g3299
sg76
(lp3306
S'wsgi.input'
p3307
asbag69
(g90
g71
NtRp3308
(dp3309
g74
(dp3310
g101
g102
ssg83
g3299
sg76
(lp3311
S':'
asbag69
(g90
g71
NtRp3312
(dp3313
g74
(dp3314
sg83
g3299
sg76
(lp3315
g69
(g70
g71
NtRp3316
(dp3317
g74
(dp3318
g82
I3
ssg83
g3312
sg76
(lp3319
S'<cStringIO.StringO object at 0xbe6fdc0>'
p3320
asbasbasbag69
(g85
g71
NtRp3321
(dp3322
g74
(dp3323
sg83
g2831
sg76
(lp3324
g69
(g90
g71
NtRp3325
(dp3326
g74
(dp3327
g94
g95
ssg83
g3321
sg76
(lp3328
S'wsgi.multiprocess'
p3329
asbag69
(g90
g71
NtRp3330
(dp3331
g74
(dp3332
g101
g102
ssg83
g3321
sg76
(lp3333
S':'
asbag69
(g90
g71
NtRp3334
(dp3335
g74
(dp3336
sg83
g3321
sg76
(lp3337
g69
(g70
g71
NtRp3338
(dp3339
g74
(dp3340
g82
I3
ssg83
g3334
sg76
(lp3341
g112
asbasbasbag69
(g85
g71
NtRp3342
(dp3343
g74
(dp3344
sg83
g2831
sg76
(lp3345
g69
(g90
g71
NtRp3346
(dp3347
g74
(dp3348
g94
g95
ssg83
g3342
sg76
(lp3349
S'wsgi.multithread'
p3350
asbag69
(g90
g71
NtRp3351
(dp3352
g74
(dp3353
g101
g102
ssg83
g3342
sg76
(lp3354
S':'
asbag69
(g90
g71
NtRp3355
(dp3356
g74
(dp3357
sg83
g3342
sg76
(lp3358
g69
(g70
g71
NtRp3359
(dp3360
g74
(dp3361
g82
I3
ssg83
g3355
sg76
(lp3362
g2082
asbasbasbag69
(g85
g71
NtRp3363
(dp3364
g74
(dp3365
sg83
g2831
sg76
(lp3366
g69
(g90
g71
NtRp3367
(dp3368
g74
(dp3369
g94
g95
ssg83
g3363
sg76
(lp3370
S'wsgi.run_once'
p3371
asbag69
(g90
g71
NtRp3372
(dp3373
g74
(dp3374
g101
g102
ssg83
g3363
sg76
(lp3375
S':'
asbag69
(g90
g71
NtRp3376
(dp3377
g74
(dp3378
sg83
g3363
sg76
(lp3379
g69
(g70
g71
NtRp3380
(dp3381
g74
(dp3382
g82
I3
ssg83
g3376
sg76
(lp3383
g112
asbasbasbag69
(g85
g71
NtRp3384
(dp3385
g74
(dp3386
sg83
g2831
sg76
(lp3387
g69
(g90
g71
NtRp3388
(dp3389
g74
(dp3390
g94
g95
ssg83
g3384
sg76
(lp3391
S'wsgi.url_scheme'
p3392
asbag69
(g90
g71
NtRp3393
(dp3394
g74
(dp3395
g101
g102
ssg83
g3384
sg76
(lp3396
S':'
asbag69
(g90
g71
NtRp3397
(dp3398
g74
(dp3399
sg83
g3384
sg76
(lp3400
g69
(g70
g71
NtRp3401
(dp3402
g74
(dp3403
g82
I3
ssg83
g3397
sg76
(lp3404
g2125
asbasbasbag69
(g85
g71
NtRp3405
(dp3406
g74
(dp3407
sg83
g2831
sg76
(lp3408
g69
(g90
g71
NtRp3409
(dp3410
g74
(dp3411
g94
g95
ssg83
g3405
sg76
(lp3412
S'wsgi.version'
p3413
asbag69
(g90
g71
NtRp3414
(dp3415
g74
(dp3416
g101
g102
ssg83
g3405
sg76
(lp3417
S':'
asbag69
(g90
g71
NtRp3418
(dp3419
g74
(dp3420
sg83
g3405
sg76
(lp3421
g69
(g70
g71
NtRp3422
(dp3423
g74
(dp3424
g82
I3
ssg83
g3418
sg76
(lp3425
S'1'
asbasbasbasbasbasbasbasbasbasbasbasbasbsS'frames'
p3426
(lp3427
(dp3428
S'file'
p3429
S'/home/sanjeet/Desktop/install/Development/web2py/gluon/restricted.py'
p3430
sS'dump'
p3431
(dp3432
S'code'
p3433
S"'# -*- coding: utf-8 -*-\\n# this file is released ...\\nresponse._vars=response._caller(user_timesheet)\\n'"
p3434
sS'layer'
p3435
S"'/home/sanjeet/Desktop/install/Development/web2py/applications/themishrms/controllers/default.py'"
p3436
sS'global compile2'
p3437
S'<function compile2>'
p3438
sS'ccode'
p3439
S'undefined'
p3440
ssS'lnum'
p3441
I204
sS'lines'
p3442
(dp3443
I199
S"    environment['__name__'] = '__restricted__'"
p3444
sI200
S'    try:'
p3445
sI201
S'        if type(code) == types.CodeType:'
p3446
sI202
S'            ccode = code'
p3447
sI203
S'        else:'
p3448
sI204
S'            ccode = compile2(code,layer)'
p3449
sI205
S'        exec ccode in environment'
p3450
sI206
S'    except HTTP:'
p3451
sI207
S'        raise'
p3452
sI208
S'    except RestrictedError:'
p3453
ssS'call'
p3454
S"(code='# -*- coding: utf-8 -*-\\n# this file is released ...\\nresponse._vars=response._caller(user_timesheet)\\n', environment={'A': <class 'gluon.html.A'>, 'Auth': <class 'gluon.tools.Auth'>, 'B': <class 'gluon.html.B'>, 'BEAUTIFY': <class 'gluon.html.BEAUTIFY'>, 'BODY': <class 'gluon.html.BODY'>, 'BR': <class 'gluon.html.BR'>, 'BUTTON': <class 'gluon.html.BUTTON'>, 'CAT': <class 'gluon.html.CAT'>, 'CENTER': <class 'gluon.html.CENTER'>, 'CLEANUP': <class 'gluon.validators.CLEANUP'>, ...}, layer='/home/sanjeet/Desktop/install/Development/web2py/applications/themishrms/controllers/default.py')"
p3455
sS'func'
p3456
S'restricted'
p3457
sa(dp3458
g3429
S'/home/sanjeet/Desktop/install/Development/web2py/gluon/restricted.py'
p3459
sg3431
(dp3460
S'builtincompile'
p3461
S'<built-in function compile>'
p3462
sS'code'
p3463
S"'# -*- coding: utf-8 -*-\\n# this file is released ...\\nresponse._vars=response._caller(user_timesheet)\\n'"
p3464
sS'code.rstrip'
p3465
S'<built-in method rstrip of str object>'
p3466
sS').replace'
p3467
g3440
sS'layer'
p3468
S"'/home/sanjeet/Desktop/install/Development/web2py/applications/themishrms/controllers/default.py'"
p3469
ssg3441
I189
sg3442
(dp3470
I192
S'    """'
p3471
sI193
S'    runs code in environment and returns the output. if an exception occurs'
p3472
sI184
S''
sI185
S'def compile2(code,layer):'
p3473
sI186
S'    """'
p3474
sI187
S"    The +'\\n' is necessary else compile fails when code ends in a comment."
p3475
sI188
S'    """'
p3476
sI189
S"    return compile(code.rstrip().replace('\\r\\n','\\n')+'\\n', layer, 'exec')"
p3477
sI190
S''
sI191
S"def restricted(code, environment=None, layer='Unknown'):"
p3478
ssg3454
S"(code='# -*- coding: utf-8 -*-\\n# this file is released ...\\nresponse._vars=response._caller(user_timesheet)\\n', layer='/home/sanjeet/Desktop/install/Development/web2py/applications/themishrms/controllers/default.py')"
p3479
sg3456
S'compile2'
p3480
sasS'pyver'
p3481
S'Python 2.6.5: /usr/bin/python'
p3482
sS'session'
p3483
g69
(g70
g71
NtRp3484
(dp3485
g74
(dp3486
sg76
(lp3487
g69
(g78
g71
NtRp3488
(dp3489
g74
(dp3490
g82
I5
ssg83
Nsg76
(lp3491
g69
(g85
g71
NtRp3492
(dp3493
g74
(dp3494
sg83
g3488
sg76
(lp3495
g69
(g90
g71
NtRp3496
(dp3497
g74
(dp3498
g94
g95
ssg83
g3492
sg76
(lp3499
S'auth'
p3500
asbag69
(g90
g71
NtRp3501
(dp3502
g74
(dp3503
g101
g102
ssg83
g3492
sg76
(lp3504
S':'
asbag69
(g90
g71
NtRp3505
(dp3506
g74
(dp3507
sg83
g3492
sg76
(lp3508
g69
(g70
g71
NtRp3509
(dp3510
g74
(dp3511
g82
I5
ssg83
g3505
sg76
(lp3512
g69
(g78
g71
NtRp3513
(dp3514
g74
(dp3515
g82
I4
ssg83
Nsg76
(lp3516
g69
(g85
g71
NtRp3517
(dp3518
g74
(dp3519
sg83
g3513
sg76
(lp3520
g69
(g90
g71
NtRp3521
(dp3522
g74
(dp3523
g94
g95
ssg83
g3517
sg76
(lp3524
S'expiration'
p3525
asbag69
(g90
g71
NtRp3526
(dp3527
g74
(dp3528
g101
g102
ssg83
g3517
sg76
(lp3529
S':'
asbag69
(g90
g71
NtRp3530
(dp3531
g74
(dp3532
sg83
g3517
sg76
(lp3533
g69
(g70
g71
NtRp3534
(dp3535
g74
(dp3536
g82
I4
ssg83
g3530
sg76
(lp3537
S'3600'
p3538
asbasbasbag69
(g85
g71
NtRp3539
(dp3540
g74
(dp3541
sg83
g3513
sg76
(lp3542
g69
(g90
g71
NtRp3543
(dp3544
g74
(dp3545
g94
g95
ssg83
g3539
sg76
(lp3546
S'hmac_key'
p3547
asbag69
(g90
g71
NtRp3548
(dp3549
g74
(dp3550
g101
g102
ssg83
g3539
sg76
(lp3551
S':'
asbag69
(g90
g71
NtRp3552
(dp3553
g74
(dp3554
sg83
g3539
sg76
(lp3555
g69
(g70
g71
NtRp3556
(dp3557
g74
(dp3558
g82
I4
ssg83
g3552
sg76
(lp3559
S'59ccdb03-7266-4b70-91a1-5fc7f046c707'
p3560
asbasbasbag69
(g85
g71
NtRp3561
(dp3562
g74
(dp3563
sg83
g3513
sg76
(lp3564
g69
(g90
g71
NtRp3565
(dp3566
g74
(dp3567
g94
g95
ssg83
g3561
sg76
(lp3568
S'last_visit'
p3569
asbag69
(g90
g71
NtRp3570
(dp3571
g74
(dp3572
g101
g102
ssg83
g3561
sg76
(lp3573
S':'
asbag69
(g90
g71
NtRp3574
(dp3575
g74
(dp3576
sg83
g3561
sg76
(lp3577
g69
(g70
g71
NtRp3578
(dp3579
g74
(dp3580
g82
I4
ssg83
g3574
sg76
(lp3581
S'datetime.datetime(2012, 5, 6, 18, 29, 29, 660186)'
p3582
asbasbasbag69
(g85
g71
NtRp3583
(dp3584
g74
(dp3585
sg83
g3513
sg76
(lp3586
g69
(g90
g71
NtRp3587
(dp3588
g74
(dp3589
g94
g95
ssg83
g3583
sg76
(lp3590
S'remember'
p3591
asbag69
(g90
g71
NtRp3592
(dp3593
g74
(dp3594
g101
g102
ssg83
g3583
sg76
(lp3595
S':'
asbag69
(g90
g71
NtRp3596
(dp3597
g74
(dp3598
sg83
g3583
sg76
(lp3599
g69
(g70
g71
NtRp3600
(dp3601
g74
(dp3602
g82
I4
ssg83
g3596
sg76
(lp3603
g112
asbasbasbag69
(g85
g71
NtRp3604
(dp3605
g74
(dp3606
sg83
g3513
sg76
(lp3607
g69
(g90
g71
NtRp3608
(dp3609
g74
(dp3610
g94
g95
ssg83
g3604
sg76
(lp3611
S'user'
p3612
asbag69
(g90
g71
NtRp3613
(dp3614
g74
(dp3615
g101
g102
ssg83
g3604
sg76
(lp3616
S':'
asbag69
(g90
g71
NtRp3617
(dp3618
g74
(dp3619
sg83
g3604
sg76
(lp3620
g69
(g70
g71
NtRp3621
(dp3622
g74
(dp3623
g82
I4
ssg83
g3617
sg76
(lp3624
g69
(g78
g71
NtRp3625
(dp3626
g74
(dp3627
g82
I3
ssg83
Nsg76
(lp3628
g69
(g85
g71
NtRp3629
(dp3630
g74
(dp3631
sg83
g3625
sg76
(lp3632
g69
(g90
g71
NtRp3633
(dp3634
g74
(dp3635
g94
g95
ssg83
g3629
sg76
(lp3636
S'date_of_exit'
p3637
asbag69
(g90
g71
NtRp3638
(dp3639
g74
(dp3640
g101
g102
ssg83
g3629
sg76
(lp3641
S':'
asbag69
(g90
g71
NtRp3642
(dp3643
g74
(dp3644
sg83
g3629
sg76
(lp3645
g69
(g70
g71
NtRp3646
(dp3647
g74
(dp3648
g82
I3
ssg83
g3642
sg76
(lp3649
S'None'
p3650
asbasbasbag69
(g85
g71
NtRp3651
(dp3652
g74
(dp3653
sg83
g3625
sg76
(lp3654
g69
(g90
g71
NtRp3655
(dp3656
g74
(dp3657
g94
g95
ssg83
g3651
sg76
(lp3658
S'date_of_joining'
p3659
asbag69
(g90
g71
NtRp3660
(dp3661
g74
(dp3662
g101
g102
ssg83
g3651
sg76
(lp3663
S':'
asbag69
(g90
g71
NtRp3664
(dp3665
g74
(dp3666
sg83
g3651
sg76
(lp3667
g69
(g70
g71
NtRp3668
(dp3669
g74
(dp3670
g82
I3
ssg83
g3664
sg76
(lp3671
S'datetime.date(2012, 5, 28)'
p3672
asbasbasbag69
(g85
g71
NtRp3673
(dp3674
g74
(dp3675
sg83
g3625
sg76
(lp3676
g69
(g90
g71
NtRp3677
(dp3678
g74
(dp3679
g94
g95
ssg83
g3673
sg76
(lp3680
S'department'
p3681
asbag69
(g90
g71
NtRp3682
(dp3683
g74
(dp3684
g101
g102
ssg83
g3673
sg76
(lp3685
S':'
asbag69
(g90
g71
NtRp3686
(dp3687
g74
(dp3688
sg83
g3673
sg76
(lp3689
g69
(g70
g71
NtRp3690
(dp3691
g74
(dp3692
g82
I3
ssg83
g3686
sg76
(lp3693
S'IT'
p3694
asbasbasbag69
(g85
g71
NtRp3695
(dp3696
g74
(dp3697
sg83
g3625
sg76
(lp3698
g69
(g90
g71
NtRp3699
(dp3700
g74
(dp3701
g94
g95
ssg83
g3695
sg76
(lp3702
S'designation'
p3703
asbag69
(g90
g71
NtRp3704
(dp3705
g74
(dp3706
g101
g102
ssg83
g3695
sg76
(lp3707
S':'
asbag69
(g90
g71
NtRp3708
(dp3709
g74
(dp3710
sg83
g3695
sg76
(lp3711
g69
(g70
g71
NtRp3712
(dp3713
g74
(dp3714
g82
I3
ssg83
g3708
sg76
(lp3715
S'Web Developer'
p3716
asbasbasbag69
(g85
g71
NtRp3717
(dp3718
g74
(dp3719
sg83
g3625
sg76
(lp3720
g69
(g90
g71
NtRp3721
(dp3722
g74
(dp3723
g94
g95
ssg83
g3717
sg76
(lp3724
S'email'
p3725
asbag69
(g90
g71
NtRp3726
(dp3727
g74
(dp3728
g101
g102
ssg83
g3717
sg76
(lp3729
S':'
asbag69
(g90
g71
NtRp3730
(dp3731
g74
(dp3732
sg83
g3717
sg76
(lp3733
g69
(g70
g71
NtRp3734
(dp3735
g74
(dp3736
g82
I3
ssg83
g3730
sg76
(lp3737
S'sanjeet.tls@gmail.com'
p3738
asbasbasbag69
(g85
g71
NtRp3739
(dp3740
g74
(dp3741
sg83
g3625
sg76
(lp3742
g69
(g90
g71
NtRp3743
(dp3744
g74
(dp3745
g94
g95
ssg83
g3739
sg76
(lp3746
S'employee_code'
p3747
asbag69
(g90
g71
NtRp3748
(dp3749
g74
(dp3750
g101
g102
ssg83
g3739
sg76
(lp3751
S':'
asbag69
(g90
g71
NtRp3752
(dp3753
g74
(dp3754
sg83
g3739
sg76
(lp3755
g69
(g70
g71
NtRp3756
(dp3757
g74
(dp3758
g82
I3
ssg83
g3752
sg76
(lp3759
S'TLS001'
p3760
asbasbasbag69
(g85
g71
NtRp3761
(dp3762
g74
(dp3763
sg83
g3625
sg76
(lp3764
g69
(g90
g71
NtRp3765
(dp3766
g74
(dp3767
g94
g95
ssg83
g3761
sg76
(lp3768
S'employee_status'
p3769
asbag69
(g90
g71
NtRp3770
(dp3771
g74
(dp3772
g101
g102
ssg83
g3761
sg76
(lp3773
S':'
asbag69
(g90
g71
NtRp3774
(dp3775
g74
(dp3776
sg83
g3761
sg76
(lp3777
g69
(g70
g71
NtRp3778
(dp3779
g74
(dp3780
g82
I3
ssg83
g3774
sg76
(lp3781
S'Active'
p3782
asbasbasbag69
(g85
g71
NtRp3783
(dp3784
g74
(dp3785
sg83
g3625
sg76
(lp3786
g69
(g90
g71
NtRp3787
(dp3788
g74
(dp3789
g94
g95
ssg83
g3783
sg76
(lp3790
S'exit_remark'
p3791
asbag69
(g90
g71
NtRp3792
(dp3793
g74
(dp3794
g101
g102
ssg83
g3783
sg76
(lp3795
S':'
asbag69
(g90
g71
NtRp3796
(dp3797
g74
(dp3798
sg83
g3783
sg76
(lp3799
g69
(g70
g71
NtRp3800
(dp3801
g74
(dp3802
g82
I3
ssg83
g3796
sg76
(lp3803
S'None'
p3804
asbasbasbag69
(g85
g71
NtRp3805
(dp3806
g74
(dp3807
sg83
g3625
sg76
(lp3808
g69
(g90
g71
NtRp3809
(dp3810
g74
(dp3811
g94
g95
ssg83
g3805
sg76
(lp3812
S'first_name'
p3813
asbag69
(g90
g71
NtRp3814
(dp3815
g74
(dp3816
g101
g102
ssg83
g3805
sg76
(lp3817
S':'
asbag69
(g90
g71
NtRp3818
(dp3819
g74
(dp3820
sg83
g3805
sg76
(lp3821
g69
(g70
g71
NtRp3822
(dp3823
g74
(dp3824
g82
I3
ssg83
g3818
sg76
(lp3825
S'Sanjeet'
p3826
asbasbasbag69
(g85
g71
NtRp3827
(dp3828
g74
(dp3829
sg83
g3625
sg76
(lp3830
g69
(g90
g71
NtRp3831
(dp3832
g74
(dp3833
g94
g95
ssg83
g3827
sg76
(lp3834
S'id'
p3835
asbag69
(g90
g71
NtRp3836
(dp3837
g74
(dp3838
g101
g102
ssg83
g3827
sg76
(lp3839
S':'
asbag69
(g90
g71
NtRp3840
(dp3841
g74
(dp3842
sg83
g3827
sg76
(lp3843
g69
(g70
g71
NtRp3844
(dp3845
g74
(dp3846
g82
I3
ssg83
g3840
sg76
(lp3847
S'2'
asbasbasbag69
(g85
g71
NtRp3848
(dp3849
g74
(dp3850
sg83
g3625
sg76
(lp3851
g69
(g90
g71
NtRp3852
(dp3853
g74
(dp3854
g94
g95
ssg83
g3848
sg76
(lp3855
S'last_name'
p3856
asbag69
(g90
g71
NtRp3857
(dp3858
g74
(dp3859
g101
g102
ssg83
g3848
sg76
(lp3860
S':'
asbag69
(g90
g71
NtRp3861
(dp3862
g74
(dp3863
sg83
g3848
sg76
(lp3864
g69
(g70
g71
NtRp3865
(dp3866
g74
(dp3867
g82
I3
ssg83
g3861
sg76
(lp3868
S'Kumar'
p3869
asbasbasbag69
(g85
g71
NtRp3870
(dp3871
g74
(dp3872
sg83
g3625
sg76
(lp3873
g69
(g90
g71
NtRp3874
(dp3875
g74
(dp3876
g94
g95
ssg83
g3870
sg76
(lp3877
S'location'
p3878
asbag69
(g90
g71
NtRp3879
(dp3880
g74
(dp3881
g101
g102
ssg83
g3870
sg76
(lp3882
S':'
asbag69
(g90
g71
NtRp3883
(dp3884
g74
(dp3885
sg83
g3870
sg76
(lp3886
g69
(g70
g71
NtRp3887
(dp3888
g74
(dp3889
g82
I3
ssg83
g3883
sg76
(lp3890
S'Bangalore'
p3891
asbasbasbag69
(g85
g71
NtRp3892
(dp3893
g74
(dp3894
sg83
g3625
sg76
(lp3895
g69
(g90
g71
NtRp3896
(dp3897
g74
(dp3898
g94
g95
ssg83
g3892
sg76
(lp3899
S'organization_name'
p3900
asbag69
(g90
g71
NtRp3901
(dp3902
g74
(dp3903
g101
g102
ssg83
g3892
sg76
(lp3904
S':'
asbag69
(g90
g71
NtRp3905
(dp3906
g74
(dp3907
sg83
g3892
sg76
(lp3908
g69
(g70
g71
NtRp3909
(dp3910
g74
(dp3911
g82
I3
ssg83
g3905
sg76
(lp3912
S'Themis Lexsol'
p3913
asbasbasbag69
(g85
g71
NtRp3914
(dp3915
g74
(dp3916
sg83
g3625
sg76
(lp3917
g69
(g90
g71
NtRp3918
(dp3919
g74
(dp3920
g94
g95
ssg83
g3914
sg76
(lp3921
S'password'
p3922
asbag69
(g90
g71
NtRp3923
(dp3924
g74
(dp3925
g101
g102
ssg83
g3914
sg76
(lp3926
S':'
asbag69
(g90
g71
NtRp3927
(dp3928
g74
(dp3929
sg83
g3914
sg76
(lp3930
g69
(g70
g71
NtRp3931
(dp3932
g74
(dp3933
g82
I3
ssg83
g3927
sg76
(lp3934
S'3b00954a2acd03e4a32d91f4bdebb4b7'
p3935
asbasbasbag69
(g85
g71
NtRp3936
(dp3937
g74
(dp3938
sg83
g3625
sg76
(lp3939
g69
(g90
g71
NtRp3940
(dp3941
g74
(dp3942
g94
g95
ssg83
g3936
sg76
(lp3943
S'personal_email'
p3944
asbag69
(g90
g71
NtRp3945
(dp3946
g74
(dp3947
g101
g102
ssg83
g3936
sg76
(lp3948
S':'
asbag69
(g90
g71
NtRp3949
(dp3950
g74
(dp3951
sg83
g3936
sg76
(lp3952
g69
(g70
g71
NtRp3953
(dp3954
g74
(dp3955
g82
I3
ssg83
g3949
sg76
(lp3956
S'sanjeet.tls@gmail.com'
p3957
asbasbasbag69
(g85
g71
NtRp3958
(dp3959
g74
(dp3960
sg83
g3625
sg76
(lp3961
g69
(g90
g71
NtRp3962
(dp3963
g74
(dp3964
g94
g95
ssg83
g3958
sg76
(lp3965
S'registration_id'
p3966
asbag69
(g90
g71
NtRp3967
(dp3968
g74
(dp3969
g101
g102
ssg83
g3958
sg76
(lp3970
S':'
asbag69
(g90
g71
NtRp3971
(dp3972
g74
(dp3973
sg83
g3958
sg76
(lp3974
g69
(g70
g71
NtRp3975
(dp3976
g74
(dp3977
g82
I3
ssg83
g3971
sg76
(lp3978
S''
asbasbasbag69
(g85
g71
NtRp3979
(dp3980
g74
(dp3981
sg83
g3625
sg76
(lp3982
g69
(g90
g71
NtRp3983
(dp3984
g74
(dp3985
g94
g95
ssg83
g3979
sg76
(lp3986
S'registration_key'
p3987
asbag69
(g90
g71
NtRp3988
(dp3989
g74
(dp3990
g101
g102
ssg83
g3979
sg76
(lp3991
S':'
asbag69
(g90
g71
NtRp3992
(dp3993
g74
(dp3994
sg83
g3979
sg76
(lp3995
g69
(g70
g71
NtRp3996
(dp3997
g74
(dp3998
g82
I3
ssg83
g3992
sg76
(lp3999
S''
asbasbasbag69
(g85
g71
NtRp4000
(dp4001
g74
(dp4002
sg83
g3625
sg76
(lp4003
g69
(g90
g71
NtRp4004
(dp4005
g74
(dp4006
g94
g95
ssg83
g4000
sg76
(lp4007
S'reporting_manager'
p4008
asbag69
(g90
g71
NtRp4009
(dp4010
g74
(dp4011
g101
g102
ssg83
g4000
sg76
(lp4012
S':'
asbag69
(g90
g71
NtRp4013
(dp4014
g74
(dp4015
sg83
g4000
sg76
(lp4016
g69
(g70
g71
NtRp4017
(dp4018
g74
(dp4019
g82
I3
ssg83
g4013
sg76
(lp4020
S'admin@themislexsol.com'
p4021
asbasbasbag69
(g85
g71
NtRp4022
(dp4023
g74
(dp4024
sg83
g3625
sg76
(lp4025
g69
(g90
g71
NtRp4026
(dp4027
g74
(dp4028
g94
g95
ssg83
g4022
sg76
(lp4029
S'reset_password_key'
p4030
asbag69
(g90
g71
NtRp4031
(dp4032
g74
(dp4033
g101
g102
ssg83
g4022
sg76
(lp4034
S':'
asbag69
(g90
g71
NtRp4035
(dp4036
g74
(dp4037
sg83
g4022
sg76
(lp4038
g69
(g70
g71
NtRp4039
(dp4040
g74
(dp4041
g82
I3
ssg83
g4035
sg76
(lp4042
S''
asbasbasbasbasbasbasbag69
(g85
g71
NtRp4043
(dp4044
g74
(dp4045
sg83
g3513
sg76
(lp4046
g69
(g90
g71
NtRp4047
(dp4048
g74
(dp4049
g94
g95
ssg83
g4043
sg76
(lp4050
S'user_groups'
p4051
asbag69
(g90
g71
NtRp4052
(dp4053
g74
(dp4054
g101
g102
ssg83
g4043
sg76
(lp4055
S':'
asbag69
(g90
g71
NtRp4056
(dp4057
g74
(dp4058
sg83
g4043
sg76
(lp4059
g69
(g70
g71
NtRp4060
(dp4061
g74
(dp4062
g82
I4
ssg83
g4056
sg76
(lp4063
g69
(g78
g71
NtRp4064
(dp4065
g74
(dp4066
g82
I3
ssg83
Nsg76
(lp4067
g69
(g85
g71
NtRp4068
(dp4069
g74
(dp4070
sg83
g4064
sg76
(lp4071
g69
(g90
g71
NtRp4072
(dp4073
g74
(dp4074
g94
g95
ssg83
g4068
sg76
(lp4075
S'2'
asbag69
(g90
g71
NtRp4076
(dp4077
g74
(dp4078
g101
g102
ssg83
g4068
sg76
(lp4079
S':'
asbag69
(g90
g71
NtRp4080
(dp4081
g74
(dp4082
sg83
g4068
sg76
(lp4083
g69
(g70
g71
NtRp4084
(dp4085
g74
(dp4086
g82
I3
ssg83
g4080
sg76
(lp4087
S'Emp'
p4088
asbasbasbag69
(g85
g71
NtRp4089
(dp4090
g74
(dp4091
sg83
g4064
sg76
(lp4092
g69
(g90
g71
NtRp4093
(dp4094
g74
(dp4095
g94
g95
ssg83
g4089
sg76
(lp4096
S'3'
asbag69
(g90
g71
NtRp4097
(dp4098
g74
(dp4099
g101
g102
ssg83
g4089
sg76
(lp4100
S':'
asbag69
(g90
g71
NtRp4101
(dp4102
g74
(dp4103
sg83
g4089
sg76
(lp4104
g69
(g70
g71
NtRp4105
(dp4106
g74
(dp4107
g82
I3
ssg83
g4101
sg76
(lp4108
S'Mgr'
p4109
asbasbasbasbasbasbasbasbasbasbasbag69
(g85
g71
NtRp4110
(dp4111
g74
(dp4112
sg83
g3488
sg76
(lp4113
g69
(g90
g71
NtRp4114
(dp4115
g74
(dp4116
g94
g95
ssg83
g4110
sg76
(lp4117
S'cutime'
p4118
asbag69
(g90
g71
NtRp4119
(dp4120
g74
(dp4121
g101
g102
ssg83
g4110
sg76
(lp4122
S':'
asbag69
(g90
g71
NtRp4123
(dp4124
g74
(dp4125
sg83
g4110
sg76
(lp4126
g69
(g70
g71
NtRp4127
(dp4128
g74
(dp4129
g82
I5
ssg83
g4123
sg76
(lp4130
S'17:15:14'
p4131
asbasbasbag69
(g85
g71
NtRp4132
(dp4133
g74
(dp4134
sg83
g3488
sg76
(lp4135
g69
(g90
g71
NtRp4136
(dp4137
g74
(dp4138
g94
g95
ssg83
g4132
sg76
(lp4139
S'fname'
p4140
asbag69
(g90
g71
NtRp4141
(dp4142
g74
(dp4143
g101
g102
ssg83
g4132
sg76
(lp4144
S':'
asbag69
(g90
g71
NtRp4145
(dp4146
g74
(dp4147
sg83
g4132
sg76
(lp4148
g69
(g70
g71
NtRp4149
(dp4150
g74
(dp4151
g82
I5
ssg83
g4145
sg76
(lp4152
S'Aman'
p4153
asbasbasbag69
(g85
g71
NtRp4154
(dp4155
g74
(dp4156
sg83
g3488
sg76
(lp4157
g69
(g90
g71
NtRp4158
(dp4159
g74
(dp4160
g94
g95
ssg83
g4154
sg76
(lp4161
S'mail'
p4162
asbag69
(g90
g71
NtRp4163
(dp4164
g74
(dp4165
g101
g102
ssg83
g4154
sg76
(lp4166
S':'
asbag69
(g90
g71
NtRp4167
(dp4168
g74
(dp4169
sg83
g4154
sg76
(lp4170
g69
(g70
g71
NtRp4171
(dp4172
g74
(dp4173
g82
I5
ssg83
g4167
sg76
(lp4174
S'signor@gmail.com'
p4175
asbasbasbag69
(g85
g71
NtRp4176
(dp4177
g74
(dp4178
sg83
g3488
sg76
(lp4179
g69
(g90
g71
NtRp4180
(dp4181
g74
(dp4182
g94
g95
ssg83
g4176
sg76
(lp4183
S'mgr'
p4184
asbag69
(g90
g71
NtRp4185
(dp4186
g74
(dp4187
g101
g102
ssg83
g4176
sg76
(lp4188
S':'
asbag69
(g90
g71
NtRp4189
(dp4190
g74
(dp4191
sg83
g4176
sg76
(lp4192
g69
(g70
g71
NtRp4193
(dp4194
g74
(dp4195
g82
I5
ssg83
g4189
sg76
(lp4196
S'sanjeet.tls@gmail.com'
p4197
asbasbasbag69
(g85
g71
NtRp4198
(dp4199
g74
(dp4200
sg83
g3488
sg76
(lp4201
g69
(g90
g71
NtRp4202
(dp4203
g74
(dp4204
g94
g95
ssg83
g4198
sg76
(lp4205
S'pmail'
p4206
asbag69
(g90
g71
NtRp4207
(dp4208
g74
(dp4209
g101
g102
ssg83
g4198
sg76
(lp4210
S':'
asbag69
(g90
g71
NtRp4211
(dp4212
g74
(dp4213
sg83
g4198
sg76
(lp4214
g69
(g70
g71
NtRp4215
(dp4216
g74
(dp4217
g82
I5
ssg83
g4211
sg76
(lp4218
S'signor@gmail.com'
p4219
asbasbasbag69
(g85
g71
NtRp4220
(dp4221
g74
(dp4222
sg83
g3488
sg76
(lp4223
g69
(g90
g71
NtRp4224
(dp4225
g74
(dp4226
g94
g95
ssg83
g4220
sg76
(lp4227
S'starttime'
p4228
asbag69
(g90
g71
NtRp4229
(dp4230
g74
(dp4231
g101
g102
ssg83
g4220
sg76
(lp4232
S':'
asbag69
(g90
g71
NtRp4233
(dp4234
g74
(dp4235
sg83
g4220
sg76
(lp4236
g69
(g70
g71
NtRp4237
(dp4238
g74
(dp4239
g82
I5
ssg83
g4233
sg76
(lp4240
S'datetime.datetime(2012, 5, 6, 17, 15, 14, 432790)'
p4241
asbasbasbag69
(g85
g71
NtRp4242
(dp4243
g74
(dp4244
sg83
g3488
sg76
(lp4245
g69
(g90
g71
NtRp4246
(dp4247
g74
(dp4248
g94
g95
ssg83
g4242
sg76
(lp4249
S'time'
p4250
asbag69
(g90
g71
NtRp4251
(dp4252
g74
(dp4253
g101
g102
ssg83
g4242
sg76
(lp4254
S':'
asbag69
(g90
g71
NtRp4255
(dp4256
g74
(dp4257
sg83
g4242
sg76
(lp4258
g69
(g70
g71
NtRp4259
(dp4260
g74
(dp4261
g82
I5
ssg83
g4255
sg76
(lp4262
S'17:15:14'
p4263
asbasbasbasbasbsS'etype'
p4264
S"<type 'exceptions.SyntaxError'>"
p4265
sS'date'
p4266
S'Sun May  6 18:29:29 2012'
p4267
sS'response'
p4268
g69
(g70
g71
NtRp4269
(dp4270
g74
(dp4271
sg76
(lp4272
g69
(g78
g71
NtRp4273
(dp4274
g74
(dp4275
g82
I5
ssg83
Nsg76
(lp4276
g69
(g85
g71
NtRp4277
(dp4278
g74
(dp4279
sg83
g4273
sg76
(lp4280
g69
(g90
g71
NtRp4281
(dp4282
g74
(dp4283
g94
g95
ssg83
g4277
sg76
(lp4284
S'atlsmenu'
p4285
asbag69
(g90
g71
NtRp4286
(dp4287
g74
(dp4288
g101
g102
ssg83
g4277
sg76
(lp4289
S':'
asbag69
(g90
g71
NtRp4290
(dp4291
g74
(dp4292
sg83
g4277
sg76
(lp4293
g69
(g70
g71
NtRp4294
(dp4295
g74
(dp4296
g82
I5
ssg83
g4290
sg76
(lp4297
g69
(g78
g71
NtRp4298
(dp4299
g74
(dp4300
g82
I4
ssg83
Nsg76
(lp4301
g69
(g85
g71
NtRp4302
(dp4303
g74
(dp4304
sg83
g4298
sg76
(lp4305
g69
(g90
g71
NtRp4306
(dp4307
g74
(dp4308
sg83
g4302
sg76
(lp4309
g69
(g70
g71
NtRp4310
(dp4311
g74
(dp4312
g82
I4
ssg83
g4306
sg76
(lp4313
g69
(g78
g71
NtRp4314
(dp4315
g74
(dp4316
g82
I3
ssg83
Nsg76
(lp4317
g69
(g85
g71
NtRp4318
(dp4319
g74
(dp4320
sg83
g4314
sg76
(lp4321
g69
(g90
g71
NtRp4322
(dp4323
g74
(dp4324
sg83
g4318
sg76
(lp4325
g69
(g70
g71
NtRp4326
(dp4327
g74
(dp4328
g82
I3
ssg83
g4322
sg76
(lp4329
cgluon.languages
lazyT_unpickle
p4330
(S's\x07\x00\x00\x00Website'
tRp4331
asbasbasbag69
(g85
g71
NtRp4332
(dp4333
g74
(dp4334
sg83
g4314
sg76
(lp4335
g69
(g90
g71
NtRp4336
(dp4337
g74
(dp4338
sg83
g4332
sg76
(lp4339
g69
(g70
g71
NtRp4340
(dp4341
g74
(dp4342
g82
I3
ssg83
g4336
sg76
(lp4343
g112
asbasbasbag69
(g85
g71
NtRp4344
(dp4345
g74
(dp4346
sg83
g4314
sg76
(lp4347
g69
(g90
g71
NtRp4348
(dp4349
g74
(dp4350
sg83
g4344
sg76
(lp4351
g69
(g70
g71
NtRp4352
(dp4353
g74
(dp4354
g82
I3
ssg83
g4348
sg76
(lp4355
S'/themishrms/default/index'
p4356
asbasbasbag69
(g85
g71
NtRp4357
(dp4358
g74
(dp4359
sg83
g4314
sg76
(lp4360
g69
(g90
g71
NtRp4361
(dp4362
g74
(dp4363
sg83
g4357
sg76
(lp4364
g69
(g70
g71
NtRp4365
(dp4366
g74
(dp4367
g82
I3
ssg83
g4361
sg76
(lp4368
g69
(g78
g71
NtRp4369
(dp4370
g74
(dp4371
g82
I2
ssg83
Nsg76
(lp4372
sbasbasbasbasbasbasbasbag69
(g85
g71
NtRp4373
(dp4374
g74
(dp4375
sg83
g4298
sg76
(lp4376
g69
(g90
g71
NtRp4377
(dp4378
g74
(dp4379
sg83
g4373
sg76
(lp4380
g69
(g70
g71
NtRp4381
(dp4382
g74
(dp4383
g82
I4
ssg83
g4377
sg76
(lp4384
g69
(g78
g71
NtRp4385
(dp4386
g74
(dp4387
g82
I3
ssg83
Nsg76
(lp4388
g69
(g85
g71
NtRp4389
(dp4390
g74
(dp4391
sg83
g4385
sg76
(lp4392
g69
(g90
g71
NtRp4393
(dp4394
g74
(dp4395
sg83
g4389
sg76
(lp4396
g69
(g70
g71
NtRp4397
(dp4398
g74
(dp4399
g82
I3
ssg83
g4393
sg76
(lp4400
g4330
(S's\x07\x00\x00\x00Webmail'
tRp4401
asbasbasbag69
(g85
g71
NtRp4402
(dp4403
g74
(dp4404
sg83
g4385
sg76
(lp4405
g69
(g90
g71
NtRp4406
(dp4407
g74
(dp4408
sg83
g4402
sg76
(lp4409
g69
(g70
g71
NtRp4410
(dp4411
g74
(dp4412
g82
I3
ssg83
g4406
sg76
(lp4413
g112
asbasbasbag69
(g85
g71
NtRp4414
(dp4415
g74
(dp4416
sg83
g4385
sg76
(lp4417
g69
(g90
g71
NtRp4418
(dp4419
g74
(dp4420
sg83
g4414
sg76
(lp4421
g69
(g70
g71
NtRp4422
(dp4423
g74
(dp4424
g82
I3
ssg83
g4418
sg76
(lp4425
S'/themishrms/default/#'
p4426
asbasbasbag69
(g85
g71
NtRp4427
(dp4428
g74
(dp4429
sg83
g4385
sg76
(lp4430
g69
(g90
g71
NtRp4431
(dp4432
g74
(dp4433
sg83
g4427
sg76
(lp4434
g69
(g70
g71
NtRp4435
(dp4436
g74
(dp4437
g82
I3
ssg83
g4431
sg76
(lp4438
g69
(g78
g71
NtRp4439
(dp4440
g74
(dp4441
g82
I2
ssg83
Nsg76
(lp4442
sbasbasbasbasbasbasbasbag69
(g85
g71
NtRp4443
(dp4444
g74
(dp4445
sg83
g4298
sg76
(lp4446
g69
(g90
g71
NtRp4447
(dp4448
g74
(dp4449
sg83
g4443
sg76
(lp4450
g69
(g70
g71
NtRp4451
(dp4452
g74
(dp4453
g82
I4
ssg83
g4447
sg76
(lp4454
g69
(g78
g71
NtRp4455
(dp4456
g74
(dp4457
g82
I3
ssg83
Nsg76
(lp4458
g69
(g85
g71
NtRp4459
(dp4460
g74
(dp4461
sg83
g4455
sg76
(lp4462
g69
(g90
g71
NtRp4463
(dp4464
g74
(dp4465
sg83
g4459
sg76
(lp4466
g69
(g70
g71
NtRp4467
(dp4468
g74
(dp4469
g82
I3
ssg83
g4463
sg76
(lp4470
g4330
(S's\r\x00\x00\x00Themis Portal'
tRp4471
asbasbasbag69
(g85
g71
NtRp4472
(dp4473
g74
(dp4474
sg83
g4455
sg76
(lp4475
g69
(g90
g71
NtRp4476
(dp4477
g74
(dp4478
sg83
g4472
sg76
(lp4479
g69
(g70
g71
NtRp4480
(dp4481
g74
(dp4482
g82
I3
ssg83
g4476
sg76
(lp4483
g112
asbasbasbag69
(g85
g71
NtRp4484
(dp4485
g74
(dp4486
sg83
g4455
sg76
(lp4487
g69
(g90
g71
NtRp4488
(dp4489
g74
(dp4490
sg83
g4484
sg76
(lp4491
g69
(g70
g71
NtRp4492
(dp4493
g74
(dp4494
g82
I3
ssg83
g4488
sg76
(lp4495
S'/themishrms/default/#'
p4496
asbasbasbag69
(g85
g71
NtRp4497
(dp4498
g74
(dp4499
sg83
g4455
sg76
(lp4500
g69
(g90
g71
NtRp4501
(dp4502
g74
(dp4503
sg83
g4497
sg76
(lp4504
g69
(g70
g71
NtRp4505
(dp4506
g74
(dp4507
g82
I3
ssg83
g4501
sg76
(lp4508
g69
(g78
g71
NtRp4509
(dp4510
g74
(dp4511
g82
I2
ssg83
Nsg76
(lp4512
sbasbasbasbasbasbasbasbag69
(g85
g71
NtRp4513
(dp4514
g74
(dp4515
sg83
g4298
sg76
(lp4516
g69
(g90
g71
NtRp4517
(dp4518
g74
(dp4519
sg83
g4513
sg76
(lp4520
g69
(g70
g71
NtRp4521
(dp4522
g74
(dp4523
g82
I4
ssg83
g4517
sg76
(lp4524
g69
(g78
g71
NtRp4525
(dp4526
g74
(dp4527
g82
I3
ssg83
Nsg76
(lp4528
g69
(g85
g71
NtRp4529
(dp4530
g74
(dp4531
sg83
g4525
sg76
(lp4532
g69
(g90
g71
NtRp4533
(dp4534
g74
(dp4535
sg83
g4529
sg76
(lp4536
g69
(g70
g71
NtRp4537
(dp4538
g74
(dp4539
g82
I3
ssg83
g4533
sg76
(lp4540
g4330
(S's\x0f\x00\x00\x00Themis Policies'
tRp4541
asbasbasbag69
(g85
g71
NtRp4542
(dp4543
g74
(dp4544
sg83
g4525
sg76
(lp4545
g69
(g90
g71
NtRp4546
(dp4547
g74
(dp4548
sg83
g4542
sg76
(lp4549
g69
(g70
g71
NtRp4550
(dp4551
g74
(dp4552
g82
I3
ssg83
g4546
sg76
(lp4553
g112
asbasbasbag69
(g85
g71
NtRp4554
(dp4555
g74
(dp4556
sg83
g4525
sg76
(lp4557
g69
(g90
g71
NtRp4558
(dp4559
g74
(dp4560
sg83
g4554
sg76
(lp4561
g69
(g70
g71
NtRp4562
(dp4563
g74
(dp4564
g82
I3
ssg83
g4558
sg76
(lp4565
S'/themishrms/default/add_project'
p4566
asbasbasbag69
(g85
g71
NtRp4567
(dp4568
g74
(dp4569
sg83
g4525
sg76
(lp4570
g69
(g90
g71
NtRp4571
(dp4572
g74
(dp4573
sg83
g4567
sg76
(lp4574
g69
(g70
g71
NtRp4575
(dp4576
g74
(dp4577
g82
I3
ssg83
g4571
sg76
(lp4578
g69
(g78
g71
NtRp4579
(dp4580
g74
(dp4581
g82
I2
ssg83
Nsg76
(lp4582
sbasbasbasbasbasbasbasbag69
(g85
g71
NtRp4583
(dp4584
g74
(dp4585
sg83
g4298
sg76
(lp4586
g69
(g90
g71
NtRp4587
(dp4588
g74
(dp4589
sg83
g4583
sg76
(lp4590
g69
(g70
g71
NtRp4591
(dp4592
g74
(dp4593
g82
I4
ssg83
g4587
sg76
(lp4594
g69
(g78
g71
NtRp4595
(dp4596
g74
(dp4597
g82
I3
ssg83
Nsg76
(lp4598
g69
(g85
g71
NtRp4599
(dp4600
g74
(dp4601
sg83
g4595
sg76
(lp4602
g69
(g90
g71
NtRp4603
(dp4604
g74
(dp4605
sg83
g4599
sg76
(lp4606
g69
(g70
g71
NtRp4607
(dp4608
g74
(dp4609
g82
I3
ssg83
g4603
sg76
(lp4610
g4330
(S's\x0f\x00\x00\x00Contact Details'
tRp4611
asbasbasbag69
(g85
g71
NtRp4612
(dp4613
g74
(dp4614
sg83
g4595
sg76
(lp4615
g69
(g90
g71
NtRp4616
(dp4617
g74
(dp4618
sg83
g4612
sg76
(lp4619
g69
(g70
g71
NtRp4620
(dp4621
g74
(dp4622
g82
I3
ssg83
g4616
sg76
(lp4623
g112
asbasbasbag69
(g85
g71
NtRp4624
(dp4625
g74
(dp4626
sg83
g4595
sg76
(lp4627
g69
(g90
g71
NtRp4628
(dp4629
g74
(dp4630
sg83
g4624
sg76
(lp4631
g69
(g70
g71
NtRp4632
(dp4633
g74
(dp4634
g82
I3
ssg83
g4628
sg76
(lp4635
S'/themishrms/default/admin_contact_detail'
p4636
asbasbasbag69
(g85
g71
NtRp4637
(dp4638
g74
(dp4639
sg83
g4595
sg76
(lp4640
g69
(g90
g71
NtRp4641
(dp4642
g74
(dp4643
sg83
g4637
sg76
(lp4644
g69
(g70
g71
NtRp4645
(dp4646
g74
(dp4647
g82
I3
ssg83
g4641
sg76
(lp4648
g69
(g78
g71
NtRp4649
(dp4650
g74
(dp4651
g82
I2
ssg83
Nsg76
(lp4652
sbasbasbasbasbasbasbasbasbasbasbasbag69
(g85
g71
NtRp4653
(dp4654
g74
(dp4655
sg83
g4273
sg76
(lp4656
g69
(g90
g71
NtRp4657
(dp4658
g74
(dp4659
g94
g95
ssg83
g4653
sg76
(lp4660
g167
asbag69
(g90
g71
NtRp4661
(dp4662
g74
(dp4663
g101
g102
ssg83
g4653
sg76
(lp4664
S':'
asbag69
(g90
g71
NtRp4665
(dp4666
g74
(dp4667
sg83
g4653
sg76
(lp4668
g69
(g70
g71
NtRp4669
(dp4670
g74
(dp4671
g82
I5
ssg83
g4665
sg76
(lp4672
S'<cStringIO.StringO object at 0xbe6f260>'
p4673
asbasbasbag69
(g85
g71
NtRp4674
(dp4675
g74
(dp4676
sg83
g4273
sg76
(lp4677
g69
(g90
g71
NtRp4678
(dp4679
g74
(dp4680
g94
g95
ssg83
g4674
sg76
(lp4681
g233
asbag69
(g90
g71
NtRp4682
(dp4683
g74
(dp4684
g101
g102
ssg83
g4674
sg76
(lp4685
S':'
asbag69
(g90
g71
NtRp4686
(dp4687
g74
(dp4688
sg83
g4674
sg76
(lp4689
g69
(g70
g71
NtRp4690
(dp4691
g74
(dp4692
g82
I5
ssg83
g4686
sg76
(lp4693
g69
(g78
g71
NtRp4694
(dp4695
g74
(dp4696
g82
I4
ssg83
Nsg76
(lp4697
g69
(g85
g71
NtRp4698
(dp4699
g74
(dp4700
sg83
g4694
sg76
(lp4701
g69
(g90
g71
NtRp4702
(dp4703
g74
(dp4704
g94
g95
ssg83
g4698
sg76
(lp4705
S'session_id_themishrms'
p4706
asbag69
(g90
g71
NtRp4707
(dp4708
g74
(dp4709
g101
g102
ssg83
g4698
sg76
(lp4710
S':'
asbag69
(g90
g71
NtRp4711
(dp4712
g74
(dp4713
sg83
g4698
sg76
(lp4714
g69
(g70
g71
NtRp4715
(dp4716
g74
(dp4717
g82
I4
ssg83
g4711
sg76
(lp4718
g69
(g78
g71
NtRp4719
(dp4720
g74
(dp4721
g82
I3
ssg83
Nsg76
(lp4722
g69
(g85
g71
NtRp4723
(dp4724
g74
(dp4725
sg83
g4719
sg76
(lp4726
g69
(g90
g71
NtRp4727
(dp4728
g74
(dp4729
g94
g95
ssg83
g4723
sg76
(lp4730
g283
asbag69
(g90
g71
NtRp4731
(dp4732
g74
(dp4733
g101
g102
ssg83
g4723
sg76
(lp4734
S':'
asbag69
(g90
g71
NtRp4735
(dp4736
g74
(dp4737
sg83
g4723
sg76
(lp4738
g69
(g70
g71
NtRp4739
(dp4740
g74
(dp4741
g82
I3
ssg83
g4735
sg76
(lp4742
S''
asbasbasbag69
(g85
g71
NtRp4743
(dp4744
g74
(dp4745
sg83
g4719
sg76
(lp4746
g69
(g90
g71
NtRp4747
(dp4748
g74
(dp4749
g94
g95
ssg83
g4743
sg76
(lp4750
g304
asbag69
(g90
g71
NtRp4751
(dp4752
g74
(dp4753
g101
g102
ssg83
g4743
sg76
(lp4754
S':'
asbag69
(g90
g71
NtRp4755
(dp4756
g74
(dp4757
sg83
g4743
sg76
(lp4758
g69
(g70
g71
NtRp4759
(dp4760
g74
(dp4761
g82
I3
ssg83
g4755
sg76
(lp4762
S''
asbasbasbag69
(g85
g71
NtRp4763
(dp4764
g74
(dp4765
sg83
g4719
sg76
(lp4766
g69
(g90
g71
NtRp4767
(dp4768
g74
(dp4769
g94
g95
ssg83
g4763
sg76
(lp4770
g325
asbag69
(g90
g71
NtRp4771
(dp4772
g74
(dp4773
g101
g102
ssg83
g4763
sg76
(lp4774
S':'
asbag69
(g90
g71
NtRp4775
(dp4776
g74
(dp4777
sg83
g4763
sg76
(lp4778
g69
(g70
g71
NtRp4779
(dp4780
g74
(dp4781
g82
I3
ssg83
g4775
sg76
(lp4782
S''
asbasbasbag69
(g85
g71
NtRp4783
(dp4784
g74
(dp4785
sg83
g4719
sg76
(lp4786
g69
(g90
g71
NtRp4787
(dp4788
g74
(dp4789
g94
g95
ssg83
g4783
sg76
(lp4790
g346
asbag69
(g90
g71
NtRp4791
(dp4792
g74
(dp4793
g101
g102
ssg83
g4783
sg76
(lp4794
S':'
asbag69
(g90
g71
NtRp4795
(dp4796
g74
(dp4797
sg83
g4783
sg76
(lp4798
g69
(g70
g71
NtRp4799
(dp4800
g74
(dp4801
g82
I3
ssg83
g4795
sg76
(lp4802
S''
asbasbasbag69
(g85
g71
NtRp4803
(dp4804
g74
(dp4805
sg83
g4719
sg76
(lp4806
g69
(g90
g71
NtRp4807
(dp4808
g74
(dp4809
g94
g95
ssg83
g4803
sg76
(lp4810
g367
asbag69
(g90
g71
NtRp4811
(dp4812
g74
(dp4813
g101
g102
ssg83
g4803
sg76
(lp4814
S':'
asbag69
(g90
g71
NtRp4815
(dp4816
g74
(dp4817
sg83
g4803
sg76
(lp4818
g69
(g70
g71
NtRp4819
(dp4820
g74
(dp4821
g82
I3
ssg83
g4815
sg76
(lp4822
S''
asbasbasbag69
(g85
g71
NtRp4823
(dp4824
g74
(dp4825
sg83
g4719
sg76
(lp4826
g69
(g90
g71
NtRp4827
(dp4828
g74
(dp4829
g94
g95
ssg83
g4823
sg76
(lp4830
g388
asbag69
(g90
g71
NtRp4831
(dp4832
g74
(dp4833
g101
g102
ssg83
g4823
sg76
(lp4834
S':'
asbag69
(g90
g71
NtRp4835
(dp4836
g74
(dp4837
sg83
g4823
sg76
(lp4838
g69
(g70
g71
NtRp4839
(dp4840
g74
(dp4841
g82
I3
ssg83
g4835
sg76
(lp4842
S'/'
asbasbasbag69
(g85
g71
NtRp4843
(dp4844
g74
(dp4845
sg83
g4719
sg76
(lp4846
g69
(g90
g71
NtRp4847
(dp4848
g74
(dp4849
g94
g95
ssg83
g4843
sg76
(lp4850
g409
asbag69
(g90
g71
NtRp4851
(dp4852
g74
(dp4853
g101
g102
ssg83
g4843
sg76
(lp4854
S':'
asbag69
(g90
g71
NtRp4855
(dp4856
g74
(dp4857
sg83
g4843
sg76
(lp4858
g69
(g70
g71
NtRp4859
(dp4860
g74
(dp4861
g82
I3
ssg83
g4855
sg76
(lp4862
S''
asbasbasbag69
(g85
g71
NtRp4863
(dp4864
g74
(dp4865
sg83
g4719
sg76
(lp4866
g69
(g90
g71
NtRp4867
(dp4868
g74
(dp4869
g94
g95
ssg83
g4863
sg76
(lp4870
g430
asbag69
(g90
g71
NtRp4871
(dp4872
g74
(dp4873
g101
g102
ssg83
g4863
sg76
(lp4874
S':'
asbag69
(g90
g71
NtRp4875
(dp4876
g74
(dp4877
sg83
g4863
sg76
(lp4878
g69
(g70
g71
NtRp4879
(dp4880
g74
(dp4881
g82
I3
ssg83
g4875
sg76
(lp4882
S''
asbasbasbasbasbasbasbasbasbasbasbag69
(g85
g71
NtRp4883
(dp4884
g74
(dp4885
sg83
g4273
sg76
(lp4886
g69
(g90
g71
NtRp4887
(dp4888
g74
(dp4889
g94
g95
ssg83
g4883
sg76
(lp4890
S'delimiters'
p4891
asbag69
(g90
g71
NtRp4892
(dp4893
g74
(dp4894
g101
g102
ssg83
g4883
sg76
(lp4895
S':'
asbag69
(g90
g71
NtRp4896
(dp4897
g74
(dp4898
sg83
g4883
sg76
(lp4899
g69
(g70
g71
NtRp4900
(dp4901
g74
(dp4902
g82
I5
ssg83
g4896
sg76
(lp4903
g69
(g78
g71
NtRp4904
(dp4905
g74
(dp4906
g82
I4
ssg83
Nsg76
(lp4907
g69
(g85
g71
NtRp4908
(dp4909
g74
(dp4910
sg83
g4904
sg76
(lp4911
g69
(g90
g71
NtRp4912
(dp4913
g74
(dp4914
sg83
g4908
sg76
(lp4915
g69
(g70
g71
NtRp4916
(dp4917
g74
(dp4918
g82
I4
ssg83
g4912
sg76
(lp4919
S'{{'
p4920
asbasbasbag69
(g85
g71
NtRp4921
(dp4922
g74
(dp4923
sg83
g4904
sg76
(lp4924
g69
(g90
g71
NtRp4925
(dp4926
g74
(dp4927
sg83
g4921
sg76
(lp4928
g69
(g70
g71
NtRp4929
(dp4930
g74
(dp4931
g82
I4
ssg83
g4925
sg76
(lp4932
S'}}'
p4933
asbasbasbasbasbasbasbag69
(g85
g71
NtRp4934
(dp4935
g74
(dp4936
sg83
g4273
sg76
(lp4937
g69
(g90
g71
NtRp4938
(dp4939
g74
(dp4940
g94
g95
ssg83
g4934
sg76
(lp4941
S'files'
p4942
asbag69
(g90
g71
NtRp4943
(dp4944
g74
(dp4945
g101
g102
ssg83
g4934
sg76
(lp4946
S':'
asbag69
(g90
g71
NtRp4947
(dp4948
g74
(dp4949
sg83
g4934
sg76
(lp4950
g69
(g70
g71
NtRp4951
(dp4952
g74
(dp4953
g82
I5
ssg83
g4947
sg76
(lp4954
g69
(g78
g71
NtRp4955
(dp4956
g74
(dp4957
g82
I4
ssg83
Nsg76
(lp4958
sbasbasbasbag69
(g85
g71
NtRp4959
(dp4960
g74
(dp4961
sg83
g4273
sg76
(lp4962
g69
(g90
g71
NtRp4963
(dp4964
g74
(dp4965
g94
g95
ssg83
g4959
sg76
(lp4966
S'flash'
p4967
asbag69
(g90
g71
NtRp4968
(dp4969
g74
(dp4970
g101
g102
ssg83
g4959
sg76
(lp4971
S':'
asbag69
(g90
g71
NtRp4972
(dp4973
g74
(dp4974
sg83
g4959
sg76
(lp4975
g69
(g70
g71
NtRp4976
(dp4977
g74
(dp4978
g82
I5
ssg83
g4972
sg76
(lp4979
S''
asbasbasbag69
(g85
g71
NtRp4980
(dp4981
g74
(dp4982
sg83
g4273
sg76
(lp4983
g69
(g90
g71
NtRp4984
(dp4985
g74
(dp4986
g94
g95
ssg83
g4980
sg76
(lp4987
S'generic_patterns'
p4988
asbag69
(g90
g71
NtRp4989
(dp4990
g74
(dp4991
g101
g102
ssg83
g4980
sg76
(lp4992
S':'
asbag69
(g90
g71
NtRp4993
(dp4994
g74
(dp4995
sg83
g4980
sg76
(lp4996
g69
(g70
g71
NtRp4997
(dp4998
g74
(dp4999
g82
I5
ssg83
g4993
sg76
(lp5000
g69
(g78
g71
NtRp5001
(dp5002
g74
(dp5003
g82
I4
ssg83
Nsg76
(lp5004
g69
(g85
g71
NtRp5005
(dp5006
g74
(dp5007
sg83
g5001
sg76
(lp5008
g69
(g90
g71
NtRp5009
(dp5010
g74
(dp5011
sg83
g5005
sg76
(lp5012
g69
(g70
g71
NtRp5013
(dp5014
g74
(dp5015
g82
I4
ssg83
g5009
sg76
(lp5016
S'*'
asbasbasbasbasbasbasbag69
(g85
g71
NtRp5017
(dp5018
g74
(dp5019
sg83
g4273
sg76
(lp5020
g69
(g90
g71
NtRp5021
(dp5022
g74
(dp5023
g94
g95
ssg83
g5017
sg76
(lp5024
S'headers'
p5025
asbag69
(g90
g71
NtRp5026
(dp5027
g74
(dp5028
g101
g102
ssg83
g5017
sg76
(lp5029
S':'
asbag69
(g90
g71
NtRp5030
(dp5031
g74
(dp5032
sg83
g5017
sg76
(lp5033
g69
(g70
g71
NtRp5034
(dp5035
g74
(dp5036
g82
I5
ssg83
g5030
sg76
(lp5037
g69
(g78
g71
NtRp5038
(dp5039
g74
(dp5040
g82
I4
ssg83
Nsg76
(lp5041
g69
(g85
g71
NtRp5042
(dp5043
g74
(dp5044
sg83
g5038
sg76
(lp5045
g69
(g90
g71
NtRp5046
(dp5047
g74
(dp5048
g94
g95
ssg83
g5042
sg76
(lp5049
S'Cache-Control'
p5050
asbag69
(g90
g71
NtRp5051
(dp5052
g74
(dp5053
g101
g102
ssg83
g5042
sg76
(lp5054
S':'
asbag69
(g90
g71
NtRp5055
(dp5056
g74
(dp5057
sg83
g5042
sg76
(lp5058
g69
(g70
g71
NtRp5059
(dp5060
g74
(dp5061
g82
I4
ssg83
g5055
sg76
(lp5062
S'no-store, no-cache, must-revalidate, post-check=0, pre-check=0'
p5063
asbasbasbag69
(g85
g71
NtRp5064
(dp5065
g74
(dp5066
sg83
g5038
sg76
(lp5067
g69
(g90
g71
NtRp5068
(dp5069
g74
(dp5070
g94
g95
ssg83
g5064
sg76
(lp5071
S'Content-Type'
p5072
asbag69
(g90
g71
NtRp5073
(dp5074
g74
(dp5075
g101
g102
ssg83
g5064
sg76
(lp5076
S':'
asbag69
(g90
g71
NtRp5077
(dp5078
g74
(dp5079
sg83
g5064
sg76
(lp5080
g69
(g70
g71
NtRp5081
(dp5082
g74
(dp5083
g82
I4
ssg83
g5077
sg76
(lp5084
S'text/html; charset=utf-8'
p5085
asbasbasbag69
(g85
g71
NtRp5086
(dp5087
g74
(dp5088
sg83
g5038
sg76
(lp5089
g69
(g90
g71
NtRp5090
(dp5091
g74
(dp5092
g94
g95
ssg83
g5086
sg76
(lp5093
S'Expires'
p5094
asbag69
(g90
g71
NtRp5095
(dp5096
g74
(dp5097
g101
g102
ssg83
g5086
sg76
(lp5098
S':'
asbag69
(g90
g71
NtRp5099
(dp5100
g74
(dp5101
sg83
g5086
sg76
(lp5102
g69
(g70
g71
NtRp5103
(dp5104
g74
(dp5105
g82
I4
ssg83
g5099
sg76
(lp5106
S'Sun, 06 May 2012 12:59:29 GMT'
p5107
asbasbasbag69
(g85
g71
NtRp5108
(dp5109
g74
(dp5110
sg83
g5038
sg76
(lp5111
g69
(g90
g71
NtRp5112
(dp5113
g74
(dp5114
g94
g95
ssg83
g5108
sg76
(lp5115
S'Pragma'
p5116
asbag69
(g90
g71
NtRp5117
(dp5118
g74
(dp5119
g101
g102
ssg83
g5108
sg76
(lp5120
S':'
asbag69
(g90
g71
NtRp5121
(dp5122
g74
(dp5123
sg83
g5108
sg76
(lp5124
g69
(g70
g71
NtRp5125
(dp5126
g74
(dp5127
g82
I4
ssg83
g5121
sg76
(lp5128
S'no-cache'
p5129
asbasbasbag69
(g85
g71
NtRp5130
(dp5131
g74
(dp5132
sg83
g5038
sg76
(lp5133
g69
(g90
g71
NtRp5134
(dp5135
g74
(dp5136
g94
g95
ssg83
g5130
sg76
(lp5137
S'X-Powered-By'
p5138
asbag69
(g90
g71
NtRp5139
(dp5140
g74
(dp5141
g101
g102
ssg83
g5130
sg76
(lp5142
S':'
asbag69
(g90
g71
NtRp5143
(dp5144
g74
(dp5145
sg83
g5130
sg76
(lp5146
g69
(g70
g71
NtRp5147
(dp5148
g74
(dp5149
g82
I4
ssg83
g5143
sg76
(lp5150
S'web2py'
p5151
asbasbasbasbasbasbasbag69
(g85
g71
NtRp5152
(dp5153
g74
(dp5154
sg83
g4273
sg76
(lp5155
g69
(g90
g71
NtRp5156
(dp5157
g74
(dp5158
g94
g95
ssg83
g5152
sg76
(lp5159
S'menu'
p5160
asbag69
(g90
g71
NtRp5161
(dp5162
g74
(dp5163
g101
g102
ssg83
g5152
sg76
(lp5164
S':'
asbag69
(g90
g71
NtRp5165
(dp5166
g74
(dp5167
sg83
g5152
sg76
(lp5168
g69
(g70
g71
NtRp5169
(dp5170
g74
(dp5171
g82
I5
ssg83
g5165
sg76
(lp5172
g69
(g78
g71
NtRp5173
(dp5174
g74
(dp5175
g82
I4
ssg83
Nsg76
(lp5176
g69
(g85
g71
NtRp5177
(dp5178
g74
(dp5179
sg83
g5173
sg76
(lp5180
g69
(g90
g71
NtRp5181
(dp5182
g74
(dp5183
sg83
g5177
sg76
(lp5184
g69
(g70
g71
NtRp5185
(dp5186
g74
(dp5187
g82
I4
ssg83
g5181
sg76
(lp5188
g69
(g78
g71
NtRp5189
(dp5190
g74
(dp5191
g82
I3
ssg83
Nsg76
(lp5192
g69
(g85
g71
NtRp5193
(dp5194
g74
(dp5195
sg83
g5189
sg76
(lp5196
g69
(g90
g71
NtRp5197
(dp5198
g74
(dp5199
sg83
g5193
sg76
(lp5200
g69
(g70
g71
NtRp5201
(dp5202
g74
(dp5203
g82
I3
ssg83
g5197
sg76
(lp5204
g4330
(S's\x04\x00\x00\x00HOME'
tRp5205
asbasbasbag69
(g85
g71
NtRp5206
(dp5207
g74
(dp5208
sg83
g5189
sg76
(lp5209
g69
(g90
g71
NtRp5210
(dp5211
g74
(dp5212
sg83
g5206
sg76
(lp5213
g69
(g70
g71
NtRp5214
(dp5215
g74
(dp5216
g82
I3
ssg83
g5210
sg76
(lp5217
g112
asbasbasbag69
(g85
g71
NtRp5218
(dp5219
g74
(dp5220
sg83
g5189
sg76
(lp5221
g69
(g90
g71
NtRp5222
(dp5223
g74
(dp5224
sg83
g5218
sg76
(lp5225
g69
(g70
g71
NtRp5226
(dp5227
g74
(dp5228
g82
I3
ssg83
g5222
sg76
(lp5229
S'/themishrms/default/index'
p5230
asbasbasbag69
(g85
g71
NtRp5231
(dp5232
g74
(dp5233
sg83
g5189
sg76
(lp5234
g69
(g90
g71
NtRp5235
(dp5236
g74
(dp5237
sg83
g5231
sg76
(lp5238
g69
(g70
g71
NtRp5239
(dp5240
g74
(dp5241
g82
I3
ssg83
g5235
sg76
(lp5242
g69
(g78
g71
NtRp5243
(dp5244
g74
(dp5245
g82
I2
ssg83
Nsg76
(lp5246
sbasbasbasbasbasbasbasbag69
(g85
g71
NtRp5247
(dp5248
g74
(dp5249
sg83
g5173
sg76
(lp5250
g69
(g90
g71
NtRp5251
(dp5252
g74
(dp5253
sg83
g5247
sg76
(lp5254
g69
(g70
g71
NtRp5255
(dp5256
g74
(dp5257
g82
I4
ssg83
g5251
sg76
(lp5258
g69
(g78
g71
NtRp5259
(dp5260
g74
(dp5261
g82
I3
ssg83
Nsg76
(lp5262
g69
(g85
g71
NtRp5263
(dp5264
g74
(dp5265
sg83
g5259
sg76
(lp5266
g69
(g90
g71
NtRp5267
(dp5268
g74
(dp5269
sg83
g5263
sg76
(lp5270
g69
(g70
g71
NtRp5271
(dp5272
g74
(dp5273
g82
I3
ssg83
g5267
sg76
(lp5274
g4330
(S's\t\x00\x00\x00ABOUT US '
tRp5275
asbasbasbag69
(g85
g71
NtRp5276
(dp5277
g74
(dp5278
sg83
g5259
sg76
(lp5279
g69
(g90
g71
NtRp5280
(dp5281
g74
(dp5282
sg83
g5276
sg76
(lp5283
g69
(g70
g71
NtRp5284
(dp5285
g74
(dp5286
g82
I3
ssg83
g5280
sg76
(lp5287
g112
asbasbasbag69
(g85
g71
NtRp5288
(dp5289
g74
(dp5290
sg83
g5259
sg76
(lp5291
g69
(g90
g71
NtRp5292
(dp5293
g74
(dp5294
sg83
g5288
sg76
(lp5295
g69
(g70
g71
NtRp5296
(dp5297
g74
(dp5298
g82
I3
ssg83
g5292
sg76
(lp5299
S'/themishrms/default/tlsabout'
p5300
asbasbasbag69
(g85
g71
NtRp5301
(dp5302
g74
(dp5303
sg83
g5259
sg76
(lp5304
g69
(g90
g71
NtRp5305
(dp5306
g74
(dp5307
sg83
g5301
sg76
(lp5308
g69
(g70
g71
NtRp5309
(dp5310
g74
(dp5311
g82
I3
ssg83
g5305
sg76
(lp5312
g69
(g78
g71
NtRp5313
(dp5314
g74
(dp5315
g82
I2
ssg83
Nsg76
(lp5316
sbasbasbasbasbasbasbasbag69
(g85
g71
NtRp5317
(dp5318
g74
(dp5319
sg83
g5173
sg76
(lp5320
g69
(g90
g71
NtRp5321
(dp5322
g74
(dp5323
sg83
g5317
sg76
(lp5324
g69
(g70
g71
NtRp5325
(dp5326
g74
(dp5327
g82
I4
ssg83
g5321
sg76
(lp5328
g69
(g78
g71
NtRp5329
(dp5330
g74
(dp5331
g82
I3
ssg83
Nsg76
(lp5332
g69
(g85
g71
NtRp5333
(dp5334
g74
(dp5335
sg83
g5329
sg76
(lp5336
g69
(g90
g71
NtRp5337
(dp5338
g74
(dp5339
sg83
g5333
sg76
(lp5340
g69
(g70
g71
NtRp5341
(dp5342
g74
(dp5343
g82
I3
ssg83
g5337
sg76
(lp5344
g4330
(S's\x0f\x00\x00\x00OUR EXPERTISE  '
tRp5345
asbasbasbag69
(g85
g71
NtRp5346
(dp5347
g74
(dp5348
sg83
g5329
sg76
(lp5349
g69
(g90
g71
NtRp5350
(dp5351
g74
(dp5352
sg83
g5346
sg76
(lp5353
g69
(g70
g71
NtRp5354
(dp5355
g74
(dp5356
g82
I3
ssg83
g5350
sg76
(lp5357
g112
asbasbasbag69
(g85
g71
NtRp5358
(dp5359
g74
(dp5360
sg83
g5329
sg76
(lp5361
g69
(g90
g71
NtRp5362
(dp5363
g74
(dp5364
sg83
g5358
sg76
(lp5365
g69
(g70
g71
NtRp5366
(dp5367
g74
(dp5368
g82
I3
ssg83
g5362
sg76
(lp5369
S'/themishrms/default/tlsservice'
p5370
asbasbasbag69
(g85
g71
NtRp5371
(dp5372
g74
(dp5373
sg83
g5329
sg76
(lp5374
g69
(g90
g71
NtRp5375
(dp5376
g74
(dp5377
sg83
g5371
sg76
(lp5378
g69
(g70
g71
NtRp5379
(dp5380
g74
(dp5381
g82
I3
ssg83
g5375
sg76
(lp5382
g69
(g78
g71
NtRp5383
(dp5384
g74
(dp5385
g82
I2
ssg83
Nsg76
(lp5386
sbasbasbasbasbasbasbasbag69
(g85
g71
NtRp5387
(dp5388
g74
(dp5389
sg83
g5173
sg76
(lp5390
g69
(g90
g71
NtRp5391
(dp5392
g74
(dp5393
sg83
g5387
sg76
(lp5394
g69
(g70
g71
NtRp5395
(dp5396
g74
(dp5397
g82
I4
ssg83
g5391
sg76
(lp5398
g69
(g78
g71
NtRp5399
(dp5400
g74
(dp5401
g82
I3
ssg83
Nsg76
(lp5402
g69
(g85
g71
NtRp5403
(dp5404
g74
(dp5405
sg83
g5399
sg76
(lp5406
g69
(g90
g71
NtRp5407
(dp5408
g74
(dp5409
sg83
g5403
sg76
(lp5410
g69
(g70
g71
NtRp5411
(dp5412
g74
(dp5413
g82
I3
ssg83
g5407
sg76
(lp5414
g4330
(S's\x08\x00\x00\x00OUR TEAM'
tRp5415
asbasbasbag69
(g85
g71
NtRp5416
(dp5417
g74
(dp5418
sg83
g5399
sg76
(lp5419
g69
(g90
g71
NtRp5420
(dp5421
g74
(dp5422
sg83
g5416
sg76
(lp5423
g69
(g70
g71
NtRp5424
(dp5425
g74
(dp5426
g82
I3
ssg83
g5420
sg76
(lp5427
g112
asbasbasbag69
(g85
g71
NtRp5428
(dp5429
g74
(dp5430
sg83
g5399
sg76
(lp5431
g69
(g90
g71
NtRp5432
(dp5433
g74
(dp5434
sg83
g5428
sg76
(lp5435
g69
(g70
g71
NtRp5436
(dp5437
g74
(dp5438
g82
I3
ssg83
g5432
sg76
(lp5439
S'/themishrms/default/tlsoteam'
p5440
asbasbasbag69
(g85
g71
NtRp5441
(dp5442
g74
(dp5443
sg83
g5399
sg76
(lp5444
g69
(g90
g71
NtRp5445
(dp5446
g74
(dp5447
sg83
g5441
sg76
(lp5448
g69
(g70
g71
NtRp5449
(dp5450
g74
(dp5451
g82
I3
ssg83
g5445
sg76
(lp5452
g69
(g78
g71
NtRp5453
(dp5454
g74
(dp5455
g82
I2
ssg83
Nsg76
(lp5456
sbasbasbasbasbasbasbasbag69
(g85
g71
NtRp5457
(dp5458
g74
(dp5459
sg83
g5173
sg76
(lp5460
g69
(g90
g71
NtRp5461
(dp5462
g74
(dp5463
sg83
g5457
sg76
(lp5464
g69
(g70
g71
NtRp5465
(dp5466
g74
(dp5467
g82
I4
ssg83
g5461
sg76
(lp5468
g69
(g78
g71
NtRp5469
(dp5470
g74
(dp5471
g82
I3
ssg83
Nsg76
(lp5472
g69
(g85
g71
NtRp5473
(dp5474
g74
(dp5475
sg83
g5469
sg76
(lp5476
g69
(g90
g71
NtRp5477
(dp5478
g74
(dp5479
sg83
g5473
sg76
(lp5480
g69
(g70
g71
NtRp5481
(dp5482
g74
(dp5483
g82
I3
ssg83
g5477
sg76
(lp5484
g4330
(S's\n\x00\x00\x00OPERATIONS'
tRp5485
asbasbasbag69
(g85
g71
NtRp5486
(dp5487
g74
(dp5488
sg83
g5469
sg76
(lp5489
g69
(g90
g71
NtRp5490
(dp5491
g74
(dp5492
sg83
g5486
sg76
(lp5493
g69
(g70
g71
NtRp5494
(dp5495
g74
(dp5496
g82
I3
ssg83
g5490
sg76
(lp5497
g112
asbasbasbag69
(g85
g71
NtRp5498
(dp5499
g74
(dp5500
sg83
g5469
sg76
(lp5501
g69
(g90
g71
NtRp5502
(dp5503
g74
(dp5504
sg83
g5498
sg76
(lp5505
g69
(g70
g71
NtRp5506
(dp5507
g74
(dp5508
g82
I3
ssg83
g5502
sg76
(lp5509
S'/themishrms/default/tlsoo'
p5510
asbasbasbag69
(g85
g71
NtRp5511
(dp5512
g74
(dp5513
sg83
g5469
sg76
(lp5514
g69
(g90
g71
NtRp5515
(dp5516
g74
(dp5517
sg83
g5511
sg76
(lp5518
g69
(g70
g71
NtRp5519
(dp5520
g74
(dp5521
g82
I3
ssg83
g5515
sg76
(lp5522
g69
(g78
g71
NtRp5523
(dp5524
g74
(dp5525
g82
I2
ssg83
Nsg76
(lp5526
sbasbasbasbasbasbasbasbag69
(g85
g71
NtRp5527
(dp5528
g74
(dp5529
sg83
g5173
sg76
(lp5530
g69
(g90
g71
NtRp5531
(dp5532
g74
(dp5533
sg83
g5527
sg76
(lp5534
g69
(g70
g71
NtRp5535
(dp5536
g74
(dp5537
g82
I4
ssg83
g5531
sg76
(lp5538
g69
(g78
g71
NtRp5539
(dp5540
g74
(dp5541
g82
I3
ssg83
Nsg76
(lp5542
g69
(g85
g71
NtRp5543
(dp5544
g74
(dp5545
sg83
g5539
sg76
(lp5546
g69
(g90
g71
NtRp5547
(dp5548
g74
(dp5549
sg83
g5543
sg76
(lp5550
g69
(g70
g71
NtRp5551
(dp5552
g74
(dp5553
g82
I3
ssg83
g5547
sg76
(lp5554
g4330
(S's\x07\x00\x00\x00JOIN US'
tRp5555
asbasbasbag69
(g85
g71
NtRp5556
(dp5557
g74
(dp5558
sg83
g5539
sg76
(lp5559
g69
(g90
g71
NtRp5560
(dp5561
g74
(dp5562
sg83
g5556
sg76
(lp5563
g69
(g70
g71
NtRp5564
(dp5565
g74
(dp5566
g82
I3
ssg83
g5560
sg76
(lp5567
g112
asbasbasbag69
(g85
g71
NtRp5568
(dp5569
g74
(dp5570
sg83
g5539
sg76
(lp5571
g69
(g90
g71
NtRp5572
(dp5573
g74
(dp5574
sg83
g5568
sg76
(lp5575
g69
(g70
g71
NtRp5576
(dp5577
g74
(dp5578
g82
I3
ssg83
g5572
sg76
(lp5579
S'/themishrms/default/tlscareer'
p5580
asbasbasbag69
(g85
g71
NtRp5581
(dp5582
g74
(dp5583
sg83
g5539
sg76
(lp5584
g69
(g90
g71
NtRp5585
(dp5586
g74
(dp5587
sg83
g5581
sg76
(lp5588
g69
(g70
g71
NtRp5589
(dp5590
g74
(dp5591
g82
I3
ssg83
g5585
sg76
(lp5592
g69
(g78
g71
NtRp5593
(dp5594
g74
(dp5595
g82
I2
ssg83
Nsg76
(lp5596
sbasbasbasbasbasbasbasbag69
(g85
g71
NtRp5597
(dp5598
g74
(dp5599
sg83
g5173
sg76
(lp5600
g69
(g90
g71
NtRp5601
(dp5602
g74
(dp5603
sg83
g5597
sg76
(lp5604
g69
(g70
g71
NtRp5605
(dp5606
g74
(dp5607
g82
I4
ssg83
g5601
sg76
(lp5608
g69
(g78
g71
NtRp5609
(dp5610
g74
(dp5611
g82
I3
ssg83
Nsg76
(lp5612
g69
(g85
g71
NtRp5613
(dp5614
g74
(dp5615
sg83
g5609
sg76
(lp5616
g69
(g90
g71
NtRp5617
(dp5618
g74
(dp5619
sg83
g5613
sg76
(lp5620
g69
(g70
g71
NtRp5621
(dp5622
g74
(dp5623
g82
I3
ssg83
g5617
sg76
(lp5624
g4330
(S's\n\x00\x00\x00CONTACT US'
tRp5625
asbasbasbag69
(g85
g71
NtRp5626
(dp5627
g74
(dp5628
sg83
g5609
sg76
(lp5629
g69
(g90
g71
NtRp5630
(dp5631
g74
(dp5632
sg83
g5626
sg76
(lp5633
g69
(g70
g71
NtRp5634
(dp5635
g74
(dp5636
g82
I3
ssg83
g5630
sg76
(lp5637
g112
asbasbasbag69
(g85
g71
NtRp5638
(dp5639
g74
(dp5640
sg83
g5609
sg76
(lp5641
g69
(g90
g71
NtRp5642
(dp5643
g74
(dp5644
sg83
g5638
sg76
(lp5645
g69
(g70
g71
NtRp5646
(dp5647
g74
(dp5648
g82
I3
ssg83
g5642
sg76
(lp5649
S'/themishrms/default/tlscontact'
p5650
asbasbasbag69
(g85
g71
NtRp5651
(dp5652
g74
(dp5653
sg83
g5609
sg76
(lp5654
g69
(g90
g71
NtRp5655
(dp5656
g74
(dp5657
sg83
g5651
sg76
(lp5658
g69
(g70
g71
NtRp5659
(dp5660
g74
(dp5661
g82
I3
ssg83
g5655
sg76
(lp5662
g69
(g78
g71
NtRp5663
(dp5664
g74
(dp5665
g82
I2
ssg83
Nsg76
(lp5666
sbasbasbasbasbasbasbasbasbasbasbasbag69
(g85
g71
NtRp5667
(dp5668
g74
(dp5669
sg83
g4273
sg76
(lp5670
g69
(g90
g71
NtRp5671
(dp5672
g74
(dp5673
g94
g95
ssg83
g5667
sg76
(lp5674
S'meta'
p5675
asbag69
(g90
g71
NtRp5676
(dp5677
g74
(dp5678
g101
g102
ssg83
g5667
sg76
(lp5679
S':'
asbag69
(g90
g71
NtRp5680
(dp5681
g74
(dp5682
sg83
g5667
sg76
(lp5683
g69
(g70
g71
NtRp5684
(dp5685
g74
(dp5686
g82
I5
ssg83
g5680
sg76
(lp5687
g69
(g78
g71
NtRp5688
(dp5689
g74
(dp5690
g82
I4
ssg83
Nsg76
(lp5691
g69
(g85
g71
NtRp5692
(dp5693
g74
(dp5694
sg83
g5688
sg76
(lp5695
g69
(g90
g71
NtRp5696
(dp5697
g74
(dp5698
g94
g95
ssg83
g5692
sg76
(lp5699
S'author'
p5700
asbag69
(g90
g71
NtRp5701
(dp5702
g74
(dp5703
g101
g102
ssg83
g5692
sg76
(lp5704
S':'
asbag69
(g90
g71
NtRp5705
(dp5706
g74
(dp5707
sg83
g5692
sg76
(lp5708
g69
(g70
g71
NtRp5709
(dp5710
g74
(dp5711
g82
I4
ssg83
g5705
sg76
(lp5712
S'Your Name <you@example.com>'
p5713
asbasbasbag69
(g85
g71
NtRp5714
(dp5715
g74
(dp5716
sg83
g5688
sg76
(lp5717
g69
(g90
g71
NtRp5718
(dp5719
g74
(dp5720
g94
g95
ssg83
g5714
sg76
(lp5721
S'copyright'
p5722
asbag69
(g90
g71
NtRp5723
(dp5724
g74
(dp5725
g101
g102
ssg83
g5714
sg76
(lp5726
S':'
asbag69
(g90
g71
NtRp5727
(dp5728
g74
(dp5729
sg83
g5714
sg76
(lp5730
g69
(g70
g71
NtRp5731
(dp5732
g74
(dp5733
g82
I4
ssg83
g5727
sg76
(lp5734
S'Copyright 2011'
p5735
asbasbasbag69
(g85
g71
NtRp5736
(dp5737
g74
(dp5738
sg83
g5688
sg76
(lp5739
g69
(g90
g71
NtRp5740
(dp5741
g74
(dp5742
g94
g95
ssg83
g5736
sg76
(lp5743
S'description'
p5744
asbag69
(g90
g71
NtRp5745
(dp5746
g74
(dp5747
g101
g102
ssg83
g5736
sg76
(lp5748
S':'
asbag69
(g90
g71
NtRp5749
(dp5750
g74
(dp5751
sg83
g5736
sg76
(lp5752
g69
(g70
g71
NtRp5753
(dp5754
g74
(dp5755
g82
I4
ssg83
g5749
sg76
(lp5756
S'a cool new app'
p5757
asbasbasbag69
(g85
g71
NtRp5758
(dp5759
g74
(dp5760
sg83
g5688
sg76
(lp5761
g69
(g90
g71
NtRp5762
(dp5763
g74
(dp5764
g94
g95
ssg83
g5758
sg76
(lp5765
S'generator'
p5766
asbag69
(g90
g71
NtRp5767
(dp5768
g74
(dp5769
g101
g102
ssg83
g5758
sg76
(lp5770
S':'
asbag69
(g90
g71
NtRp5771
(dp5772
g74
(dp5773
sg83
g5758
sg76
(lp5774
g69
(g70
g71
NtRp5775
(dp5776
g74
(dp5777
g82
I4
ssg83
g5771
sg76
(lp5778
S'Web2py Web Framework'
p5779
asbasbasbag69
(g85
g71
NtRp5780
(dp5781
g74
(dp5782
sg83
g5688
sg76
(lp5783
g69
(g90
g71
NtRp5784
(dp5785
g74
(dp5786
g94
g95
ssg83
g5780
sg76
(lp5787
S'keywords'
p5788
asbag69
(g90
g71
NtRp5789
(dp5790
g74
(dp5791
g101
g102
ssg83
g5780
sg76
(lp5792
S':'
asbag69
(g90
g71
NtRp5793
(dp5794
g74
(dp5795
sg83
g5780
sg76
(lp5796
g69
(g70
g71
NtRp5797
(dp5798
g74
(dp5799
g82
I4
ssg83
g5793
sg76
(lp5800
S'web2py, python, framework'
p5801
asbasbasbasbasbasbasbag69
(g85
g71
NtRp5802
(dp5803
g74
(dp5804
sg83
g4273
sg76
(lp5805
g69
(g90
g71
NtRp5806
(dp5807
g74
(dp5808
g94
g95
ssg83
g5802
sg76
(lp5809
S'postprocessing'
p5810
asbag69
(g90
g71
NtRp5811
(dp5812
g74
(dp5813
g101
g102
ssg83
g5802
sg76
(lp5814
S':'
asbag69
(g90
g71
NtRp5815
(dp5816
g74
(dp5817
sg83
g5802
sg76
(lp5818
g69
(g70
g71
NtRp5819
(dp5820
g74
(dp5821
g82
I5
ssg83
g5815
sg76
(lp5822
g69
(g78
g71
NtRp5823
(dp5824
g74
(dp5825
g82
I4
ssg83
Nsg76
(lp5826
sbasbasbasbag69
(g85
g71
NtRp5827
(dp5828
g74
(dp5829
sg83
g4273
sg76
(lp5830
g69
(g90
g71
NtRp5831
(dp5832
g74
(dp5833
g94
g95
ssg83
g5827
sg76
(lp5834
S'session_file'
p5835
asbag69
(g90
g71
NtRp5836
(dp5837
g74
(dp5838
g101
g102
ssg83
g5827
sg76
(lp5839
S':'
asbag69
(g90
g71
NtRp5840
(dp5841
g74
(dp5842
sg83
g5827
sg76
(lp5843
g69
(g70
g71
NtRp5844
(dp5845
g74
(dp5846
g82
I5
ssg83
g5840
sg76
(lp5847
S"<open file '/home/sanjeet/Desktop/install/Development/web2py/applications/themishrms/sessions/127.0.0.1-351961f0-0e02-470c-8a78-c9767aef5a1b', mode 'rb+' at 0xba582e0>"
p5848
asbasbasbag69
(g85
g71
NtRp5849
(dp5850
g74
(dp5851
sg83
g4273
sg76
(lp5852
g69
(g90
g71
NtRp5853
(dp5854
g74
(dp5855
g94
g95
ssg83
g5849
sg76
(lp5856
S'session_filename'
p5857
asbag69
(g90
g71
NtRp5858
(dp5859
g74
(dp5860
g101
g102
ssg83
g5849
sg76
(lp5861
S':'
asbag69
(g90
g71
NtRp5862
(dp5863
g74
(dp5864
sg83
g5849
sg76
(lp5865
g69
(g70
g71
NtRp5866
(dp5867
g74
(dp5868
g82
I5
ssg83
g5862
sg76
(lp5869
S'/home/sanjeet/Desktop/install/Development/web2py/applications/themishrms/sessions/127.0.0.1-351961f0-0e02-470c-8a78-c9767aef5a1b'
p5870
asbasbasbag69
(g85
g71
NtRp5871
(dp5872
g74
(dp5873
sg83
g4273
sg76
(lp5874
g69
(g90
g71
NtRp5875
(dp5876
g74
(dp5877
g94
g95
ssg83
g5871
sg76
(lp5878
S'session_id'
p5879
asbag69
(g90
g71
NtRp5880
(dp5881
g74
(dp5882
g101
g102
ssg83
g5871
sg76
(lp5883
S':'
asbag69
(g90
g71
NtRp5884
(dp5885
g74
(dp5886
sg83
g5871
sg76
(lp5887
g69
(g70
g71
NtRp5888
(dp5889
g74
(dp5890
g82
I5
ssg83
g5884
sg76
(lp5891
S'127.0.0.1-351961f0-0e02-470c-8a78-c9767aef5a1b'
p5892
asbasbasbag69
(g85
g71
NtRp5893
(dp5894
g74
(dp5895
sg83
g4273
sg76
(lp5896
g69
(g90
g71
NtRp5897
(dp5898
g74
(dp5899
g94
g95
ssg83
g5893
sg76
(lp5900
S'session_id_name'
p5901
asbag69
(g90
g71
NtRp5902
(dp5903
g74
(dp5904
g101
g102
ssg83
g5893
sg76
(lp5905
S':'
asbag69
(g90
g71
NtRp5906
(dp5907
g74
(dp5908
sg83
g5893
sg76
(lp5909
g69
(g70
g71
NtRp5910
(dp5911
g74
(dp5912
g82
I5
ssg83
g5906
sg76
(lp5913
g4706
asbasbasbag69
(g85
g71
NtRp5914
(dp5915
g74
(dp5916
sg83
g4273
sg76
(lp5917
g69
(g90
g71
NtRp5918
(dp5919
g74
(dp5920
g94
g95
ssg83
g5914
sg76
(lp5921
S'session_locked'
p5922
asbag69
(g90
g71
NtRp5923
(dp5924
g74
(dp5925
g101
g102
ssg83
g5914
sg76
(lp5926
S':'
asbag69
(g90
g71
NtRp5927
(dp5928
g74
(dp5929
sg83
g5914
sg76
(lp5930
g69
(g70
g71
NtRp5931
(dp5932
g74
(dp5933
g82
I5
ssg83
g5927
sg76
(lp5934
g2082
asbasbasbag69
(g85
g71
NtRp5935
(dp5936
g74
(dp5937
sg83
g4273
sg76
(lp5938
g69
(g90
g71
NtRp5939
(dp5940
g74
(dp5941
g94
g95
ssg83
g5935
sg76
(lp5942
S'session_new'
p5943
asbag69
(g90
g71
NtRp5944
(dp5945
g74
(dp5946
g101
g102
ssg83
g5935
sg76
(lp5947
S':'
asbag69
(g90
g71
NtRp5948
(dp5949
g74
(dp5950
sg83
g5935
sg76
(lp5951
g69
(g70
g71
NtRp5952
(dp5953
g74
(dp5954
g82
I5
ssg83
g5948
sg76
(lp5955
g112
asbasbasbag69
(g85
g71
NtRp5956
(dp5957
g74
(dp5958
sg83
g4273
sg76
(lp5959
g69
(g90
g71
NtRp5960
(dp5961
g74
(dp5962
g94
g95
ssg83
g5956
sg76
(lp5963
S'status'
p5964
asbag69
(g90
g71
NtRp5965
(dp5966
g74
(dp5967
g101
g102
ssg83
g5956
sg76
(lp5968
S':'
asbag69
(g90
g71
NtRp5969
(dp5970
g74
(dp5971
sg83
g5956
sg76
(lp5972
g69
(g70
g71
NtRp5973
(dp5974
g74
(dp5975
g82
I5
ssg83
g5969
sg76
(lp5976
S'200'
p5977
asbasbasbag69
(g85
g71
NtRp5978
(dp5979
g74
(dp5980
sg83
g4273
sg76
(lp5981
g69
(g90
g71
NtRp5982
(dp5983
g74
(dp5984
g94
g95
ssg83
g5978
sg76
(lp5985
S'subtitle'
p5986
asbag69
(g90
g71
NtRp5987
(dp5988
g74
(dp5989
g101
g102
ssg83
g5978
sg76
(lp5990
S':'
asbag69
(g90
g71
NtRp5991
(dp5992
g74
(dp5993
sg83
g5978
sg76
(lp5994
g69
(g70
g71
NtRp5995
(dp5996
g74
(dp5997
g82
I5
ssg83
g5991
sg76
(lp5998
g4330
(S's\r\x00\x00\x00customize me!'
tRp5999
asbasbasbag69
(g85
g71
NtRp6000
(dp6001
g74
(dp6002
sg83
g4273
sg76
(lp6003
g69
(g90
g71
NtRp6004
(dp6005
g74
(dp6006
g94
g95
ssg83
g6000
sg76
(lp6007
S'title'
p6008
asbag69
(g90
g71
NtRp6009
(dp6010
g74
(dp6011
g101
g102
ssg83
g6000
sg76
(lp6012
S':'
asbag69
(g90
g71
NtRp6013
(dp6014
g74
(dp6015
sg83
g6000
sg76
(lp6016
g69
(g70
g71
NtRp6017
(dp6018
g74
(dp6019
g82
I5
ssg83
g6013
sg76
(lp6020
S'Themishrms'
p6021
asbasbasbag69
(g85
g71
NtRp6022
(dp6023
g74
(dp6024
sg83
g4273
sg76
(lp6025
g69
(g90
g71
NtRp6026
(dp6027
g74
(dp6028
g94
g95
ssg83
g6022
sg76
(lp6029
S'tlsmenu'
p6030
asbag69
(g90
g71
NtRp6031
(dp6032
g74
(dp6033
g101
g102
ssg83
g6022
sg76
(lp6034
S':'
asbag69
(g90
g71
NtRp6035
(dp6036
g74
(dp6037
sg83
g6022
sg76
(lp6038
g69
(g70
g71
NtRp6039
(dp6040
g74
(dp6041
g82
I5
ssg83
g6035
sg76
(lp6042
g69
(g78
g71
NtRp6043
(dp6044
g74
(dp6045
g82
I4
ssg83
Nsg76
(lp6046
g69
(g85
g71
NtRp6047
(dp6048
g74
(dp6049
sg83
g6043
sg76
(lp6050
g69
(g90
g71
NtRp6051
(dp6052
g74
(dp6053
sg83
g6047
sg76
(lp6054
g69
(g70
g71
NtRp6055
(dp6056
g74
(dp6057
g82
I4
ssg83
g6051
sg76
(lp6058
g69
(g78
g71
NtRp6059
(dp6060
g74
(dp6061
g82
I3
ssg83
Nsg76
(lp6062
g69
(g85
g71
NtRp6063
(dp6064
g74
(dp6065
sg83
g6059
sg76
(lp6066
g69
(g90
g71
NtRp6067
(dp6068
g74
(dp6069
sg83
g6063
sg76
(lp6070
g69
(g70
g71
NtRp6071
(dp6072
g74
(dp6073
g82
I3
ssg83
g6067
sg76
(lp6074
g4330
(S's\x07\x00\x00\x00Website'
tRp6075
asbasbasbag69
(g85
g71
NtRp6076
(dp6077
g74
(dp6078
sg83
g6059
sg76
(lp6079
g69
(g90
g71
NtRp6080
(dp6081
g74
(dp6082
sg83
g6076
sg76
(lp6083
g69
(g70
g71
NtRp6084
(dp6085
g74
(dp6086
g82
I3
ssg83
g6080
sg76
(lp6087
g112
asbasbasbag69
(g85
g71
NtRp6088
(dp6089
g74
(dp6090
sg83
g6059
sg76
(lp6091
g69
(g90
g71
NtRp6092
(dp6093
g74
(dp6094
sg83
g6088
sg76
(lp6095
g69
(g70
g71
NtRp6096
(dp6097
g74
(dp6098
g82
I3
ssg83
g6092
sg76
(lp6099
S'/themishrms/default/index'
p6100
asbasbasbag69
(g85
g71
NtRp6101
(dp6102
g74
(dp6103
sg83
g6059
sg76
(lp6104
g69
(g90
g71
NtRp6105
(dp6106
g74
(dp6107
sg83
g6101
sg76
(lp6108
g69
(g70
g71
NtRp6109
(dp6110
g74
(dp6111
g82
I3
ssg83
g6105
sg76
(lp6112
g69
(g78
g71
NtRp6113
(dp6114
g74
(dp6115
g82
I2
ssg83
Nsg76
(lp6116
sbasbasbasbasbasbasbasbag69
(g85
g71
NtRp6117
(dp6118
g74
(dp6119
sg83
g6043
sg76
(lp6120
g69
(g90
g71
NtRp6121
(dp6122
g74
(dp6123
sg83
g6117
sg76
(lp6124
g69
(g70
g71
NtRp6125
(dp6126
g74
(dp6127
g82
I4
ssg83
g6121
sg76
(lp6128
g69
(g78
g71
NtRp6129
(dp6130
g74
(dp6131
g82
I3
ssg83
Nsg76
(lp6132
g69
(g85
g71
NtRp6133
(dp6134
g74
(dp6135
sg83
g6129
sg76
(lp6136
g69
(g90
g71
NtRp6137
(dp6138
g74
(dp6139
sg83
g6133
sg76
(lp6140
g69
(g70
g71
NtRp6141
(dp6142
g74
(dp6143
g82
I3
ssg83
g6137
sg76
(lp6144
g4330
(S's\x07\x00\x00\x00WebMail'
tRp6145
asbasbasbag69
(g85
g71
NtRp6146
(dp6147
g74
(dp6148
sg83
g6129
sg76
(lp6149
g69
(g90
g71
NtRp6150
(dp6151
g74
(dp6152
sg83
g6146
sg76
(lp6153
g69
(g70
g71
NtRp6154
(dp6155
g74
(dp6156
g82
I3
ssg83
g6150
sg76
(lp6157
g112
asbasbasbag69
(g85
g71
NtRp6158
(dp6159
g74
(dp6160
sg83
g6129
sg76
(lp6161
g69
(g90
g71
NtRp6162
(dp6163
g74
(dp6164
sg83
g6158
sg76
(lp6165
g69
(g70
g71
NtRp6166
(dp6167
g74
(dp6168
g82
I3
ssg83
g6162
sg76
(lp6169
S'/themishrms/default/webmail'
p6170
asbasbasbag69
(g85
g71
NtRp6171
(dp6172
g74
(dp6173
sg83
g6129
sg76
(lp6174
g69
(g90
g71
NtRp6175
(dp6176
g74
(dp6177
sg83
g6171
sg76
(lp6178
g69
(g70
g71
NtRp6179
(dp6180
g74
(dp6181
g82
I3
ssg83
g6175
sg76
(lp6182
g69
(g78
g71
NtRp6183
(dp6184
g74
(dp6185
g82
I2
ssg83
Nsg76
(lp6186
sbasbasbasbasbasbasbasbag69
(g85
g71
NtRp6187
(dp6188
g74
(dp6189
sg83
g6043
sg76
(lp6190
g69
(g90
g71
NtRp6191
(dp6192
g74
(dp6193
sg83
g6187
sg76
(lp6194
g69
(g70
g71
NtRp6195
(dp6196
g74
(dp6197
g82
I4
ssg83
g6191
sg76
(lp6198
g69
(g78
g71
NtRp6199
(dp6200
g74
(dp6201
g82
I3
ssg83
Nsg76
(lp6202
g69
(g85
g71
NtRp6203
(dp6204
g74
(dp6205
sg83
g6199
sg76
(lp6206
g69
(g90
g71
NtRp6207
(dp6208
g74
(dp6209
sg83
g6203
sg76
(lp6210
g69
(g70
g71
NtRp6211
(dp6212
g74
(dp6213
g82
I3
ssg83
g6207
sg76
(lp6214
g4330
(S's\r\x00\x00\x00Themis Portal'
tRp6215
asbasbasbag69
(g85
g71
NtRp6216
(dp6217
g74
(dp6218
sg83
g6199
sg76
(lp6219
g69
(g90
g71
NtRp6220
(dp6221
g74
(dp6222
sg83
g6216
sg76
(lp6223
g69
(g70
g71
NtRp6224
(dp6225
g74
(dp6226
g82
I3
ssg83
g6220
sg76
(lp6227
g112
asbasbasbag69
(g85
g71
NtRp6228
(dp6229
g74
(dp6230
sg83
g6199
sg76
(lp6231
g69
(g90
g71
NtRp6232
(dp6233
g74
(dp6234
sg83
g6228
sg76
(lp6235
g69
(g70
g71
NtRp6236
(dp6237
g74
(dp6238
g82
I3
ssg83
g6232
sg76
(lp6239
S'/themishrms/default/portal'
p6240
asbasbasbag69
(g85
g71
NtRp6241
(dp6242
g74
(dp6243
sg83
g6199
sg76
(lp6244
g69
(g90
g71
NtRp6245
(dp6246
g74
(dp6247
sg83
g6241
sg76
(lp6248
g69
(g70
g71
NtRp6249
(dp6250
g74
(dp6251
g82
I3
ssg83
g6245
sg76
(lp6252
g69
(g78
g71
NtRp6253
(dp6254
g74
(dp6255
g82
I2
ssg83
Nsg76
(lp6256
sbasbasbasbasbasbasbasbag69
(g85
g71
NtRp6257
(dp6258
g74
(dp6259
sg83
g6043
sg76
(lp6260
g69
(g90
g71
NtRp6261
(dp6262
g74
(dp6263
sg83
g6257
sg76
(lp6264
g69
(g70
g71
NtRp6265
(dp6266
g74
(dp6267
g82
I4
ssg83
g6261
sg76
(lp6268
g69
(g78
g71
NtRp6269
(dp6270
g74
(dp6271
g82
I3
ssg83
Nsg76
(lp6272
g69
(g85
g71
NtRp6273
(dp6274
g74
(dp6275
sg83
g6269
sg76
(lp6276
g69
(g90
g71
NtRp6277
(dp6278
g74
(dp6279
sg83
g6273
sg76
(lp6280
g69
(g70
g71
NtRp6281
(dp6282
g74
(dp6283
g82
I3
ssg83
g6277
sg76
(lp6284
g4330
(S's\x0f\x00\x00\x00Themis Policies'
tRp6285
asbasbasbag69
(g85
g71
NtRp6286
(dp6287
g74
(dp6288
sg83
g6269
sg76
(lp6289
g69
(g90
g71
NtRp6290
(dp6291
g74
(dp6292
sg83
g6286
sg76
(lp6293
g69
(g70
g71
NtRp6294
(dp6295
g74
(dp6296
g82
I3
ssg83
g6290
sg76
(lp6297
g112
asbasbasbag69
(g85
g71
NtRp6298
(dp6299
g74
(dp6300
sg83
g6269
sg76
(lp6301
g69
(g90
g71
NtRp6302
(dp6303
g74
(dp6304
sg83
g6298
sg76
(lp6305
g69
(g70
g71
NtRp6306
(dp6307
g74
(dp6308
g82
I3
ssg83
g6302
sg76
(lp6309
S'/themishrms/default/ourtrem'
p6310
asbasbasbag69
(g85
g71
NtRp6311
(dp6312
g74
(dp6313
sg83
g6269
sg76
(lp6314
g69
(g90
g71
NtRp6315
(dp6316
g74
(dp6317
sg83
g6311
sg76
(lp6318
g69
(g70
g71
NtRp6319
(dp6320
g74
(dp6321
g82
I3
ssg83
g6315
sg76
(lp6322
g69
(g78
g71
NtRp6323
(dp6324
g74
(dp6325
g82
I2
ssg83
Nsg76
(lp6326
sbasbasbasbasbasbasbasbag69
(g85
g71
NtRp6327
(dp6328
g74
(dp6329
sg83
g6043
sg76
(lp6330
g69
(g90
g71
NtRp6331
(dp6332
g74
(dp6333
sg83
g6327
sg76
(lp6334
g69
(g70
g71
NtRp6335
(dp6336
g74
(dp6337
g82
I4
ssg83
g6331
sg76
(lp6338
g69
(g78
g71
NtRp6339
(dp6340
g74
(dp6341
g82
I3
ssg83
Nsg76
(lp6342
g69
(g85
g71
NtRp6343
(dp6344
g74
(dp6345
sg83
g6339
sg76
(lp6346
g69
(g90
g71
NtRp6347
(dp6348
g74
(dp6349
sg83
g6343
sg76
(lp6350
g69
(g70
g71
NtRp6351
(dp6352
g74
(dp6353
g82
I3
ssg83
g6347
sg76
(lp6354
g4330
(S's\x0f\x00\x00\x00Contact Details'
tRp6355
asbasbasbag69
(g85
g71
NtRp6356
(dp6357
g74
(dp6358
sg83
g6339
sg76
(lp6359
g69
(g90
g71
NtRp6360
(dp6361
g74
(dp6362
sg83
g6356
sg76
(lp6363
g69
(g70
g71
NtRp6364
(dp6365
g74
(dp6366
g82
I3
ssg83
g6360
sg76
(lp6367
g112
asbasbasbag69
(g85
g71
NtRp6368
(dp6369
g74
(dp6370
sg83
g6339
sg76
(lp6371
g69
(g90
g71
NtRp6372
(dp6373
g74
(dp6374
sg83
g6368
sg76
(lp6375
g69
(g70
g71
NtRp6376
(dp6377
g74
(dp6378
g82
I3
ssg83
g6372
sg76
(lp6379
S'/themishrms/default/emp_contact_detail'
p6380
asbasbasbag69
(g85
g71
NtRp6381
(dp6382
g74
(dp6383
sg83
g6339
sg76
(lp6384
g69
(g90
g71
NtRp6385
(dp6386
g74
(dp6387
sg83
g6381
sg76
(lp6388
g69
(g70
g71
NtRp6389
(dp6390
g74
(dp6391
g82
I3
ssg83
g6385
sg76
(lp6392
g69
(g78
g71
NtRp6393
(dp6394
g74
(dp6395
g82
I2
ssg83
Nsg76
(lp6396
sbasbasbasbasbasbasbasbasbasbasbasbag69
(g85
g71
NtRp6397
(dp6398
g74
(dp6399
sg83
g4273
sg76
(lp6400
g69
(g90
g71
NtRp6401
(dp6402
g74
(dp6403
g94
g95
ssg83
g6397
sg76
(lp6404
g2746
asbag69
(g90
g71
NtRp6405
(dp6406
g74
(dp6407
g101
g102
ssg83
g6397
sg76
(lp6408
S':'
asbag69
(g90
g71
NtRp6409
(dp6410
g74
(dp6411
sg83
g6397
sg76
(lp6412
g69
(g70
g71
NtRp6413
(dp6414
g74
(dp6415
g82
I5
ssg83
g6409
sg76
(lp6416
g2759
asbasbasbag69
(g85
g71
NtRp6417
(dp6418
g74
(dp6419
sg83
g4273
sg76
(lp6420
g69
(g90
g71
NtRp6421
(dp6422
g74
(dp6423
g94
g95
ssg83
g6417
sg76
(lp6424
S'view'
p6425
asbag69
(g90
g71
NtRp6426
(dp6427
g74
(dp6428
g101
g102
ssg83
g6417
sg76
(lp6429
S':'
asbag69
(g90
g71
NtRp6430
(dp6431
g74
(dp6432
sg83
g6417
sg76
(lp6433
g69
(g70
g71
NtRp6434
(dp6435
g74
(dp6436
g82
I5
ssg83
g6430
sg76
(lp6437
S'default/user_timesheet.html'
p6438
asbasbasbasbasbsS'locals'
p6439
(dp6440
g4
S"'/home/sanjeet/Desktop/install/Development/web2py/applications/themishrms/controllers/default.py'"
p6441
sg6
S"'# -*- coding: utf-8 -*-\\n# this file is released ...\\nresponse._vars=response._caller(user_timesheet)\\n'"
p6442
sssS'traceback'
p6443
S'Traceback (most recent call last):\n  File "/home/sanjeet/Desktop/install/Development/web2py/gluon/restricted.py", line 204, in restricted\n    ccode = compile2(code,layer)\n  File "/home/sanjeet/Desktop/install/Development/web2py/gluon/restricted.py", line 189, in compile2\n    return compile(code.rstrip().replace(\'\\r\\n\',\'\\n\')+\'\\n\', layer, \'exec\')\n  File "/home/sanjeet/Desktop/install/Development/web2py/applications/themishrms/controllers/default.py", line 1404\n    return TABLE([TR("Project:",INPUT(_type="text",id="txt1",_name="proname",_value=proj,_readonly="readonly")),TR("Task:",INPUT(_type="text",_id="txt2",_name="protask",_value=projtask)),TR("Task:",INPUT(_type="text",_id="txt",_name="protime",_value="")),TR("",INPUT(_type="button",_value="Start",_onClick="doTimer()")),,TR("",INPUT(_type="button",_value="Stop",_onClick="ajax(\'{{=URL(\'adata\')}}\',[\'proname\',\'protask\',\'protime\'],\'target\');stopCount();"))])\n                                                                                                                                                                                                                                                                                                                                ^\nSyntaxError: invalid syntax\n'
p6444
s.