(dp1
S'output'
p2
S"<type 'exceptions.AttributeError'> 'builtin_function_or_method' object has no attribute 'orz'"
p3
sS'layer'
p4
S'/home/sanjeet/Desktop/install/Development/web2py/applications/themishrms/controllers/default.py'
p5
sS'code'
p6
S'# -*- coding: utf-8 -*-\n# this file is released under public domain and you can use without limitations\n\n#########################################################################\n## This is a samples controller\n## - index is the default action of any application\n## - user is required for authentication and authorization\n## - download is for downloading files uploaded in the db (does streaming)\n## - call exposes all registered services (none by default)\n#########################################################################\n\ndef index():\n    """\n    example action using the internationalization operator T and flash\n    rendered by views/default/index.html or views/generic.html\n    """\n    response.flash = "Welcome to Themis Lexsol"\n    return dict(message=T(\'Hello World\'))\n\t\n\t\ndef tlscareer():\n    return dict()\n\ndef tlsabout():\n    return dict()\n    \ndef rt():\n    return dict()\n\ndef employee():\n    return dict()\n    \ndef tlsservice():\n    return dict()\n\n\ndef tlsoo():\n    return dict()   \n\ndef tlsleads():\n    return dict()   \n\ndef tlsoteam():\t\n\t return dict()\n\t \n\ndef tlscontact(): \r\n    use_recaptcha = True \r\n    form = SQLFORM.factory(Field(\'Name\',requires=IS_NOT_EMPTY()),Field (\'your_email\',requires=IS_EMAIL()),Field(\'your_message\',\'text\')) \r\n    return dict(form=form)\r\n\t\t\r\ndef tlscareer(): \r\n    form = SQLFORM.factory(Field(\'name\',requires=IS_NOT_EMPTY()),\n    \t\t\t\t\t\t\t\tField (\'your_email\',requires=IS_EMAIL()),\n    \t\t\t\t\t\t\t\tSQLField(\'contact_details\',requires=IS_NOT_EMPTY()),\n    \t\t\t\t\t\t\t\tField(\'your_message\',\'text\'),\n    \t\t\t\t\t\t\t\tSQLField(\'looking_for_position\',requires=IS_IN_SET([\'Admin\', \'Legal\', \'Finance\',\'IT\'])),\n    \t\t\t\t\t\t\t\tSQLField(\'your_resume\',\'upload\')) \n    if form.accepts(request,session):\n    \tsession.name = form.vars.name\n    \t#careermail() \r\n    return dict(form=form)\t\r\n\t\t\r\ndef careermail():\n    from gluon.tools import Mail\n    mail = Mail()\n        #specify server\n    mail=auth.settings.mailer\n    mail.settings.server = \'smtp.gmail.com:587\'\n    #specify address to send as\n    mail.settings.sender = \'themisdemo1@gmail.com\'\n    mail.settings.login = \'themisdemo1@gmail.com:123456asdfg\'\n    #send the message                             \n    mail.send(to=[\'sanjeet.tls@gmail.com\',\'prakhar.tls@gmail.com\'],\n            subject=\'Welcome User\',\n            message=\'<html>\'\n                        \'<body>\'\n                            \'<span style="font-family: Bodoni MT Ultra Bold;color:  #000000 ;font-size : 18pt;"><b>Themis </span></h1><span style="font-family: Bodoni MT Ultra Bold;color:#C7A317   ;font-size :18pt;"><b>Lexsol</b></span>\'\n                            \n                            \'<p>Dear &nbsp;\'+session.name+\'</p>\'\n                            \n                            \'<p>I just wanted to drop you a quick message to say thank you for joining the LCM Plus. I appreciate you taking the time to register and really look forward to reading your compliances. Your user name is \'+session.mail+\' and please click below to reset your password.<h1>http://jmdlcmplus.fluxflex.com/jmdlcmplus/default/user/request_reset_password</h1>If you need help at any time, please contact me by replying to this message. Similarly, if you ever have any questions then please do not hesitate to send me a message or email.</p>\'\n                            \'<center><p>_________________________________________________________</p><p style="color:red;font-size :5pt;">This email comes to you since your company has subcribed for LCM Plus. TO unsubcribed please contact to your Compliance Manager</p></center>\'\n                      \n                        \'</body>\'\n                    \'</html>\'\n                    \n  )\n    response.flash=\'mail send\'\n    return \'\'\r\n\ndef user():\n    """\n    exposes:\n    http://..../[app]/default/user/login\n    http://..../[app]/default/user/logout\n    http://..../[app]/default/user/register\n    http://..../[app]/default/user/profile\n    http://..../[app]/default/user/retrieve_password\n    http://..../[app]/default/user/change_password\n    use @auth.requires_login()\n        @auth.requires_membership(\'group name\')\n        @auth.requires_permission(\'read\',\'table name\',record_id)\n    to decorate functions that need access control\n    """\n    return dict(form=auth())\n\n\ndef download():\n    """\n    allows downloading of uploaded files\n    http://..../[app]/default/download/[filename]\n    """\n    return response.download(request,db)\n\n\ndef call():\n    """\n    exposes services. for example:\n    http://..../[app]/default/call/jsonrpc\n    decorate with @services.jsonrpc the functions to expose\n    supports xml, json, xmlrpc, jsonrpc, amfrpc, rss, csv\n    """\n    return service()\n\n\n@auth.requires_signature()\ndef data():\n    """\n    http://..../[app]/default/data/tables\n    http://..../[app]/default/data/create/[table]\n    http://..../[app]/default/data/read/[table]/[id]\n    http://..../[app]/default/data/update/[table]/[id]\n    http://..../[app]/default/data/delete/[table]/[id]\n    http://..../[app]/default/data/select/[table]\n    http://..../[app]/default/data/search/[table]\n    but URLs must be signed, i.e. linked with\n      A(\'table\',_href=URL(\'data/tables\',user_signature=True))\n    or with the signed load operator\n      LOAD(\'default\',\'data.load\',args=\'tables\',ajax=True,user_signature=True)\n    """\n    return dict(form=crud())\n    \ndef welcome():\n\t""" First page to be visited after installation. Will create necessary roles and permissions for admin and redirects to index."""\n\tcreate_user()\n\tcreate_group()\n\tcreate_membership()\n\tcreate_permission()\n\tsession.flash = "Welcome to Themis"\n\tredirect(URL(c=\'default\', f=\'index\'))\n\t\ndef create_user():\n\t username = \'admin\'\n\t password = username\n\t if \'username\' in auth.settings.table_user.fields():\n\t \tuserkey = \'username\'\n\t elif \'email\' in auth.settings.table_user.fields():\n\t \tuserkey = \'email\'\n\t \tusername = username + \'@themislexsol.com\'\n\t passfield = auth.settings.password_field \n\t user = db(auth.settings.table_user[userkey] == username).select().first()\n\t if not user:\n\t \tuser_id = db.auth_user.insert(**{userkey:username,passfield:CRYPT(auth.settings.hmac_key)(password)[0]})\n\t \tuser = auth.settings.table_user(user_id)\n\t return user\n\t \ndef create_group():\n    group = db(auth.settings.table_group.role == \'Admin\').select().first()\n    if not group:\n        group_id = auth.add_group(role = \'Admin\', description = \'All Permissions\')\n        group = auth.settings.table_group(group_id)\n    return group\n    \ndef create_membership():\n\tgroup = db(db.auth_group.role == \'Admin\').select().first()\n\tuser = db(db.auth_user.email == \'admin@themislexsol.com\').select().first()\n\tmembership = db(auth.settings.table_membership.group_id == group.id).select().first()\n\tif not membership:\n\t\tmembership_id = auth.add_membership(group_id = group.id, user_id = user.id)\n\t\tmembership = auth.settings.table_membership(membership_id)\n\treturn membership\n\t\ndef create_permission():\n\ttables = list(db.tables)\n\tfor table in tables:\n\t\tgroup = db(db.auth_group.role == \'Admin\').select().first()\n\t\tquery = auth.settings.table_permission.group_id == group.id\n\t\tquery = query & (auth.settings.table_permission.name == \'CRUD\')\n\t\tquery = query & (auth.settings.table_permission.table_name == table)\n\t\tpermission = db(query).select().first()\n\t\tif not permission:\n\t\t\tpermission_id = auth.add_permission(group_id = group.id, name = \'CRUD\', table_name = table)\n\t\t\tpermission = auth.settings.table_permission(permission_id)\n\treturn permission\n\t\ndef lgin(form):\n\tif auth.user.email == \'admin@themislexsol.com\':\n\t\tadmin=db(db.image.email==auth.user.email).select().first()\n\t\tif not admin:\n\t\t\tdb.image.insert(email=auth.user.email)\n\t\t\tredirect(URL(c=\'default\', f=\'admindash\'))\n\t\telse:\n\t\t\tredirect(URL(c=\'default\', f=\'admindash\'))\t\t\t\n\telse:\n\t\tredirect(URL(c=\'default\', f=\'emp_time\'))\n\treturn dict()\n\t\ndef lgout(usr):\n\tif auth.user.email == \'admin@themislexsol.com\':\n\t\tpass\n\telse:\n\t\timport datetime\n\t\timport time, os\n\t\tos.environ[\'TZ\'] = \'Asia/Kolkata\'\n\t\ttime.tzset()\n\t\tcurrentdate=datetime.date.today()\n\t\tnow = time.localtime(time.time())\n\t\tendtime=datetime.datetime.now()\n\t\tstarttime = session.starttime\n\t\tdelta = (endtime - starttime)\n\t\ttotalminutes = str(delta.seconds / 60)\n\t\ttotalhours = str(delta.seconds / 3600)\n\t\ttotmin = totalminutes + \'\\t min\'\n\t\ttothr = totalhours + \'\\t hrs\'\n\t\tcurrenttime = time.strftime("%H:%M:%S", now)\n\t\tdb((db.employee_login_detail.employee_email == auth.user.email) & (db.employee_login_detail.employee_login_date == currentdate) & (db.employee_login_detail.employee_login_time == session.cutime)).update(employee_logout_date=currentdate, employee_logout_time=currenttime, total_minutes=totmin, toal_hours=tothr)\n\t\tdb.commit()\n\treturn dict()\n\n#### Admin Controller Starts from here ####\t\n\t\n@auth.requires(auth.login() and auth.has_permission(\'CRUD\', \'auth_user\'))    \ndef admindash():\n\tfor row in db(db.image.email == auth.user.email).select():\n\t\timages=row.image\n\treturn dict(images=images)\t \n\n@auth.requires_permission(\'CRUD\', \'auth_user\')\t\t\ndef admin_organization():\n\tfor row in db(db.image.email == auth.user.email).select():\n\t\timages=row.image\n\tdb.add_new_organization.id.readable = False\n\tform=SQLFORM.grid(db.add_new_organization, selectable = lambda ids: del_org(ids))\n\treturn dict(images=images,form=form)\n\t\n@auth.requires_permission(\'CRUD\', \'auth_user\')\t\ndef del_org(ids):\n\tif not ids:\n\t\tresponse.flash=\'Please Select the Check-box to Delete\'\n\telse:\n\t\tfor row in ids:\n\t\t\tdb(db.add_new_organization.id == row).delete()\n\t\tpass\n\tpass\n\treturn \'\'\n\t\n@auth.requires_permission(\'CRUD\', \'auth_user\')\t\t\ndef admin_location():\n\tfor row in db(db.image.email == auth.user.email).select():\n\t\timages=row.image\n\tdb.add_new_location.id.readable = False\n\tform=SQLFORM.grid(db.add_new_location, selectable = lambda ids: del_loc(ids))\n\treturn dict(images=images,form=form)\n\t\n@auth.requires_permission(\'CRUD\', \'auth_user\')\t\ndef del_loc(ids):\n\tif not ids:\n\t\tresponse.flash=\'Please Select the Check-box to Delete\'\n\telse:\n\t\tfor row in ids:\n\t\t\tdb(db.add_new_location.id == row).delete()\n\t\tpass\n\tpass\n\treturn \'\'\n\t\n@auth.requires_permission(\'CRUD\', \'auth_user\')\t\t\ndef admin_department():\n\tfor row in db(db.image.email == auth.user.email).select():\n\t\timages=row.image\n\tdb.add_new_department.id.readable = False\n\tform=SQLFORM.grid(db.add_new_department, selectable = lambda ids: del_dpt(ids))\n\treturn dict(images=images,form=form)\n\t\n@auth.requires_permission(\'CRUD\', \'auth_user\')\t\ndef del_dpt(ids):\n\tif not ids:\n\t\tresponse.flash=\'Please Select the Check-box to Delete\'\n\telse:\n\t\tfor row in ids:\n\t\t\tdb(db.add_new_department.id == row).delete()\n\t\tpass\n\tpass\n\treturn \'\'\n\n@auth.requires_permission(\'CRUD\', \'auth_user\')\t\ndef locn(): \n\torg = request.vars.org\n\tloc = db(db.add_new_location.organization_name == org).select()\n\treturn SELECT(_id="locn",_name="locn",*[OPTION(loc [i].location, _value=str (loc[i].location)) for i in range(len(loc))])\n\n@auth.requires_permission(\'CRUD\', \'auth_user\')\t  \ndef admin_newuser():\n\tfor row in db(db.image.email == auth.user.email).select():\n\t\timages=row.image\n\tdb.auth_user.id.readable = False\n\tform=SQLFORM.grid(db.auth_user, create=False, selectable = lambda ids: del_emp(ids))\n\treturn dict(images=images,form=form)\n\t\n@auth.requires_permission(\'CRUD\', \'auth_user\')\t\ndef del_emp(ids):\n\tif not ids:\n\t\tresponse.flash=\'Please Select the Check-box to Delete\'\n\telse:\n\t\tfor row in ids:\n\t\t\tdb(db.auth_user.id == row).delete()\n\t\tpass\n\tpass\n\treturn \'\'\n\n@auth.requires_permission(\'CRUD\', \'auth_user\')\t\ndef admin_create_new_user():\n\tfor row in db(db.image.email == auth.user.email).select():\n\t\timages=row.image\n\t\n\tadmin_create_new_user.count=0\n\tdef counting():\n\t\tfor row in db(db.auth_user.id >= 1).select():\n\t\t\tadmin_create_new_user.count += 1\n\tcounting()\n\tcount=admin_create_new_user.count\n\tprefix=\'00\'\n\tpre=\'0\'\n\tpr=\'\'\n\tif count < 10:\n\t\tid=prefix+str(count)\n\telif count >= 10 and count <= 99:\n\t\tid=pre+str(count)\n\telse:\n\t\tid=pr+str(count)\n\t\t\n\torg = db().select(db.add_new_organization.ALL)\n\tdpt = db().select(db.add_new_department.ALL)\n\trmgr = db().select(db.auth_user.ALL)\n\tstat = [\'Active\',\'Terminated\',\'Resigned\',\'Leave-of-Absence\',\'Deceased\']\n\t\n\tif request.vars.mailerror:\n\t\tvar = \'This email (\'+request.vars.mailerror+\') is allready taken. Please choose another email address.\'\n\telif request.vars.mailerr:\n\t\tvar = \'This email (\'+request.vars.mailerr+\') is Successfully Registered with HRMS.\'\n\telse:\n\t\tvar = \'Add New Employee\'\n\treturn dict(images=images, org=org, dpt=dpt, stat=stat, id=id, var=var,rmgr=rmgr)\n\t\n@auth.requires_permission(\'CRUD\', \'auth_user\')\t\ndef admin_submit_newuser():\n\tfor row in db(db.auth_user.email==request.vars.orgemail).select():\n\t\tsession.regmail=row.email\n\t\tpass\n\tif session.regmail == request.vars.orgemail:\n\t\tredirect(URL(c=\'default\', f=\'admin_create_new_user\', vars={\'mailerror\' :request.vars.orgemail}))\n\telse:\n\t\tsession.mail = request.vars.orgemail\n\t\tsession.pmail = request.vars.pemail\n\t\tsession.fname = request.vars.fname\n\t\tsession.mgr = request.vars.rmgr\n\t\tfor row1 in db(db.add_new_organization.id==request.vars.org).select():\n\t\t\tpr = row1.organization_prefix\n\t\t\tcmpny = row1.organization_name\n\t\tprefix = str(pr+request.vars.empcode)\n\t\tdb.auth_user.bulk_insert([{\'first_name\' : session.fname,\'last_name\' : request.vars.lname,\'email\' : session.mail,\'password\' : db.auth_user.password.validate(\'1234\')[0],\'organization_name\' : cmpny, \'location\' : request.vars.locn, \'department\' : request.vars.dpt, \'employee_code\' : prefix, \'personal_email\' : session.pmail, \'date_of_joining\' : request.vars.doj, \'reporting_manager\' : request.vars.rmgr, \'designation\' : request.vars.dgn, \'employee_status\' : request.vars.stat}])\n\t\tcreate_emp_group()\n\t\tcreate_emp_membership()\n\t\tcreate_emp_permission()\n\t\tcreate_mgr_group()\n\t\tcreate_mgr_membership()\n\t\tcreate_mgr_permission()\n\t\tdb.personal_information.insert(email=session.mail,employee_code=prefix)\n\t\tdb.qualification.insert(email=session.mail,employee_code=prefix)\n\t\tdb.document.insert(email=session.mail,employee_code=prefix)\n\t\tdb.image.insert(email=session.mail,employee_code=prefix)\n\t\t\n\t\ttotvacationleave=18\n\t\ttotmedicalleave=6\n\t\ttotcasualleave=6\n\t\timport datetime\n\t\tmonth = datetime.datetime.now().month\n\t\ttotmonth = 12\n\t\tcurmnth = totmonth - month\n\t\tvacleave = int(curmnth * 1.5)\n\t\tmedleave = int(curmnth * 0.5)\n\t\tcasulleave = int(curmnth * 0.5)\n\t\ttackenvacleave = 0\n\t\ttackenmedleave = 0\n\t\ttakencasulleave = 0\n\t\tdb.employee_leave.insert(employee_code=prefix,email=session.mail,taken_vacation_leave=tackenvacleave,taken_medical_leave=tackenmedleave,taken_casual_leave=takencasulleave,left_vacation_leave=vacleave,left_medical_leave=medleave,left_casual_leave=casulleave)\n\t\tdb.commit()\n\t\twelcome_mail()\n\t\tredirect(URL(c=\'default\', f=\'admin_create_new_user\', vars={\'mailerr\' :request.vars.orgemail}))\n\treturn dict()\n\t\n@auth.requires_permission(\'CRUD\', \'auth_user\')\r\ndef welcome_mail():\r\n    from gluon.tools import Mail\r\n    mail=Mail()\r\n    #specify server\n    \n    mail=auth.settings.mailer\r\n    mail.settings.server=\'smtp.gmail.com:587\'\r\n    mail.settings.login=\'themisdemo1@gmail.com:123456asdfg\'\r\n    #specify address to send as\r\n    mail.settings.sender=\'themisdemo1@gmail.com\'\r\n    #send the message                             \r\n    mail.send(to=[session.mail, session.pmail],\r\n            subject=\'Welcome User\',\r\n            message=\'<html>\'\r\n                        \'<body>\'\r\n                            \'<span style="font-family: Bodoni MT Ultra Bold;color:  #000000 ;font-size : 18pt;"><b>Themis </span></h1><span style="font-family: Bodoni MT Ultra Bold;color:#C7A317   ;font-size :18pt;"><b>Lexsol</b></span>\'\r\n                            \r\n                            \'<p>Dear &nbsp;\'+session.fname+\'</p>\'\r\n                            \r\n                            \'<p>I just wanted to drop you a quick message to say thank you for joining the Themis Lexsol.Your user name is \'+session.mail+\' and please click below to reset your password.<h1>http://jmdlcmplus.fluxflex.com/jmdlcmplus/default/user/request_reset_password</h1>If you need help at any time, please contact me by replying to this message. Similarly, if you ever have any questions then please do not hesitate to send me a message or email.</p>\'\r\n                            \'<center><p>_________________________________________________________</p><p style="color:red;font-size :5pt;">This email comes to you since your company has subcribed for LCM Plus. TO unsubcribed please contact to Themis Lexsol</p></center>\'\r\n                      \r\n                        \'</body>\'\r\n                    \'</html>\'\r\n                    \r\n  )\r\n    response.flash=\'mail send\'\r\n    return \'\'\t\n\t\n@auth.requires_permission(\'CRUD\', \'auth_user\')    \ndef create_emp_group():\r\n    group = db(auth.settings.table_group.role == \'Emp\').select().first()\r\n    if not group:\r\n        group_id = auth.add_group(role = \'Emp\', description = \'Only Employee Permissions\')\r\n        group = auth.settings.table_group(group_id)\r\n    return group\n\n@auth.requires_permission(\'CRUD\', \'auth_user\')    \ndef create_emp_membership():\r\n\tgroup = db(db.auth_group.role == \'Emp\').select().first()\r\n\tuser = db(db.auth_user.email == session.mail).select().first()\r\n\tmembership = db((auth.settings.table_membership.group_id == group.id) & (auth.settings.table_membership.user_id == user.id)).select().first()\r\n\tif not membership:\r\n\t\tmembership_id = auth.add_membership(group_id = group.id, user_id = user.id)\r\n\t\tmembership = auth.settings.table_membership(membership_id)\r\n\treturn membership\n\n@auth.requires_permission(\'CRUD\', \'auth_user\')\t\ndef create_emp_permission():\r\n\tgroup = db(db.auth_group.role == \'Emp\').select().first()\n\tquery = auth.settings.table_permission.group_id == group.id\n\tquery = query & (auth.settings.table_permission.name == \'Emp\')\n\tpermission = db(query).select().first()\n\tif not permission:\n\t\tpermission_id = auth.add_permission(group_id = group.id, name = \'Emp\', table_name = \'auth_user\')\n\t\tpermission = auth.settings.table_permission(permission_id)\n\treturn permission\n\t\n@auth.requires_permission(\'CRUD\', \'auth_user\')    \ndef create_mgr_group():\n    group = db(auth.settings.table_group.role == \'Mgr\').select().first()\n    if not group:\n        group_id = auth.add_group(role = \'Mgr\', description = \'Only Manager Permissions\')\n        group = auth.settings.table_group(group_id)\n    return group\n\n@auth.requires_permission(\'CRUD\', \'auth_user\')    \ndef create_mgr_membership():\n\tgroup = db(db.auth_group.role == \'Mgr\').select().first()\n\tuser = db(db.auth_user.email == session.mgr).select().first()\n\tmembership = db((auth.settings.table_membership.group_id == group.id) & (auth.settings.table_membership.user_id == user.id)).select().first()\n\tif not membership:\n\t\tmembership_id = auth.add_membership(group_id = group.id, user_id = user.id)\n\t\tmembership = auth.settings.table_membership(membership_id)\n\treturn membership\n\n@auth.requires_permission(\'CRUD\', \'auth_user\')\t\ndef create_mgr_permission():\n\tgroup = db(db.auth_group.role == \'Mgr\').select().first()\n\tquery = auth.settings.table_permission.group_id == group.id\n\tquery = query & (auth.settings.table_permission.name == \'Mgr\')\n\tpermission = db(query).select().first()\n\tif not permission:\n\t\tpermission_id = auth.add_permission(group_id = group.id, name = \'Mgr\', table_name = \'auth_user\')\n\t\tpermission = auth.settings.table_permission(permission_id)\n\treturn permission\n\n@auth.requires_permission(\'CRUD\', \'auth_user\')\t\ndef admin_newholiday():\n\tfor row in db(db.image.email == auth.user.email).select():\n\t\timages=row.image\n\tdb.holiday_list.id.readable=False\n\tform=SQLFORM.grid(db.holiday_list, selectable = lambda ids: del_hlist(ids))\n\treturn dict(images=images,form=form)\n\t\n@auth.requires_permission(\'CRUD\', \'auth_user\')\t\ndef del_hlist(ids):\n\tif not ids:\n\t\tresponse.flash=\'Please Select the Check-box to Delete\'\n\telse:\n\t\tfor row in ids:\n\t\t\tdb(db.holiday_list.id == row).delete()\n\t\tpass\n\tpass\n\treturn \'\'\n\n@auth.requires_permission(\'CRUD\', \'auth_user\')    \ndef addthemis():\n\tfor row in db(db.image.email == auth.user.email).select():\n\t\timages=row.image\n\treturn dict(images=images)\n\n@auth.requires_permission(\'CRUD\', \'auth_user\')\t\ndef admin_timesheet():\n\tfor row in db(db.image.email == auth.user.email).select():\n\t\timages=row.image\n\treturn dict(images=images)\n\t\n@auth.requires_permission(\'CRUD\', \'auth_user\')\t\ndef admin_attendance():\n\tfor row in db(db.image.email == auth.user.email).select():\n\t\timages=row.image\n\tdb.employee_login_detail.id.readable=False\n\tform=SQLFORM.grid(db.employee_login_detail, selectable = lambda ids: del_att(ids))\n\treturn dict(form=form,images=images)\n\t\n@auth.requires_permission(\'CRUD\', \'auth_user\')\t\ndef del_att(ids):\n\tif not ids:\n\t\tresponse.flash=\'Please Select the Check-box to Delete\'\n\telse:\n\t\tfor row in ids:\n\t\t\tdb(db.employee_login_detail.id == row).delete()\n\t\tpass\n\tpass\n\treturn \'\'\n\n@auth.requires_permission(\'CRUD\', \'auth_user\')\t\t\ndef admin_report():\n\tfor row in db(db.image.email == auth.user.email).select():\n\t\timages=row.image\n\treturn dict(images=images)\n\n@auth.requires_permission(\'CRUD\', \'auth_user\')    \ndef admin_mydoc():\n\tfor row in db(db.image.email == auth.user.email).select():\n\t\timages=row.image\n\treturn dict(images=images)\n\n@auth.requires_permission(\'CRUD\', \'auth_user\')\t\t\ndef admin_salary():\n\tfor row in db(db.image.email == auth.user.email).select():\n\t\timages=row.image\n\treturn dict(images=images)\n\t\n@auth.requires_permission(\'CRUD\', \'auth_user\')\ndef admin_update_image():\n\tfor row in db(db.image.email == auth.user.email).select():\n\t\timages=row.image\n\tfor row1 in db(db.image.email == auth.user.email).select():\n\t\tmail=row.email\n\t\tecode=row.employee_code\n\t\t\n\tdb.image.email.writable=False\n\tdb.image.employee_code.writable=db.image.employee_code.readable=False\n\tdb.image.email.default=mail\n\tform=SQLFORM(db.image)\n\tif form.accepts(request.vars, session):\n\t\timg = form.vars.image\n\t\tdb(db.image.email == auth.user.email).update(image=img)\n\t\tredirect(URL(c=\'default\', f=\'admindash\'))\n\treturn dict(images=images,form=form)\n\n@auth.requires_permission(\'CRUD\', \'auth_user\')\t\ndef admin_calendar():\n\tfor row in db(db.image.email == auth.user.email).select():\n\t\timages=row.image\n\tcaland=db().select(db.holiday_list.ALL)\r\n\treturn dict(images=images,rows=caland)\n\n@auth.requires_permission(\'CRUD\', \'auth_user\')\t\ndef admin_calread():\n\tfor row in db(db.image.email == auth.user.email).select():\n\t\timages=row.image\n\trecord = db.holiday_list(request.args(0)) or redirect(URL(\'error\'))\n\tform=crud.read(db.holiday_list,record)\n\treturn dict(form=form,images=images)\n    \n@auth.requires_permission(\'CRUD\', \'auth_user\')\t\ndef admin_leave_stat():\n\tfor row in db(db.image.email == auth.user.email).select():\n\t\timages=row.image\n\tadminleave=db().select(db.apply_leave.ALL)\n\treturn dict(images=images,adminleave=adminleave)\n\n@auth.requires_permission(\'CRUD\', \'auth_user\')\t\t\ndef admin_edit_leave():\n\tfor row in db(db.image.email == auth.user.email).select():\n\t\timages=row.image\n\tfor row in db(db.apply_leave.id==request.args(0)).select():\n\t\tid=row.id\n\t\teid=row.employee_code\n\t\testat=row.status\n\t\teltype=row.leave_type\n\t\tefrom=row.from_leave\n\t\teto=row.to_leave\n\t\tereason=row.reason_for_leave\n\t\tetotday=row.total_day\n\treturn dict(id=id,images=images,eid=eid,estat=estat,eltype=eltype,efrom=efrom,eto=eto,ereason=ereason,etotday=etotday)\n\n@auth.requires_permission(\'CRUD\', \'auth_user\')\t\ndef admin_approve_leave():\n\tfor row in db(db.apply_leave.id==request.args(0)).select():\n\t\tsession.lmail=row.email\n\t\tsession.empname=row.name\n\t\tsession.efrom=row.from_leave\n\t\tsession.eto=row.to_leave\n\t\tsession.status=request.vars.status\n\t\tsession.ltype=row.leave_type\n\t\tsession.tday=row.total_day\n\tif session.status == \'Approved\':\n\t\tif session.ltype == \'Casual Leave\':\n\t\t\tfor row in db(db.employee_leave.email==session.lmail).select():\n\t\t\t\ttotday=row.left_casual_leave - session.tday\n\t\t\tdb(db.apply_leave.id==request.args(0)).update(status=session.status, approved_by=\'Administrator\')\n\t\t\tdb(db.employee_leave.email==session.lmail).update(taken_casual_leave=session.tday,left_casual_leave=totday)\n\t\t\tdb.commit()\n\t\t\tredirect(URL(c=\'default\', f=\'admin_leave_mail\'))\n\t\telif session.ltype == \'Medical Leave\':\n\t\t\tfor row in db(db.employee_leave.email==session.lmail).select():\n\t\t\t\ttotday=row.left_medical_leave - session.tday\n\t\t\tdb(db.apply_leave.id==request.args(0)).update(status=session.status, approved_by=\'Administrator\')\n\t\t\tdb(db.employee_leave.email==session.lmail).update(taken_medical_leave=session.tday,left_medical_leave=totday)\n\t\t\tdb.commit()\n\t\t\tredirect(URL(c=\'default\', f=\'admin_leave_mail\'))\n\t\telif session.ltype == \'Vacation Leave\':\n\t\t\tfor row in db(db.employee_leave.email==session.lmail).select():\n\t\t\t\ttotday=row.left_vacation_leave - session.tday\n\t\t\tdb(db.apply_leave.id==request.args(0)).update(status=session.status, approved_by=\'Administrator\')\n\t\t\tdb(db.employee_leave.email==session.lmail).update(taken_vacation_leave=session.tday,left_vacation_leave=totday)\n\t\t\tdb.commit()\n\t\t\tredirect(URL(c=\'default\', f=\'admin_leave_mail\'))\n\t\telse:\n\t\t\tpass\n\telse:\n\t\tdb(db.apply_leave.id==request.args(0)).update(status=session.status, approved_by=\'Administrator\')\n\t\tdb.commit()\n\t\tredirect(URL(c=\'default\', f=\'admin_leave_mail\'))\n\treturn \'\'\n\n@auth.requires_permission(\'CRUD\', \'auth_user\')\ndef admin_edit_leave_status():\n\tfor row2 in db(db.image.email == auth.user.email).select():\n\t\timages=row2.image\n\tltype=[\'Casual Leave\',\'Medical Leave\',\'Vacation Leave\']\n\tsession.eleaveid=request.args(0)\n\tfor row in db(db.apply_leave.id==session.eleaveid).select():\n\t\tecode=row.employee_code\n\t\tname=row.name\n\t\tfle=row.from_leave\n\t\ttle=row.to_leave\n\t\ttday=row.total_day\n\t\trle=row.reason_for_leave\n\t\teltype=row.leave_type\n\treturn dict(ltype=ltype,images=images,ecode=ecode,name=name,fle=fle,tle=tle,tday=tday,rle=rle,eltype=eltype)\n\n@auth.requires_permission(\'CRUD\', \'auth_user\')\t\ndef admin_submit_edit_leave_status():\n\tdb(db.apply_leave.id == session.eleaveid).update(name=request.vars.name, leave_type=request.vars.ltype, from_leave=request.vars.fleave, to_leave=request.vars.tleave, total_day=request.vars.tday, reason_for_leave=request.vars.rleave)\n\tdb.commit()\n\tredirect(URL(c=\'default\',f=\'admin_leave_stat\'))\n\treturn \'\'\n\n@auth.requires_permission(\'CRUD\', \'auth_user\')\ndef admin_leave_mail():\n    from gluon.tools import Mail\n    mail=Mail()\n    #specify server\n    mail=auth.settings.mailer\n    mail.settings.server=\'smtp.gmail.com:587\'\n    mail.settings.login=\'themisdemo1@gmail.com:123456asdfg\'\n    #specify address to send as\n    mail.settings.sender=\'themisdemo1@gmail.com\'\n    #send the message                             \n    mail.send(to=[session.lmail],\n            subject=\'Leave Status\',\n            message=\'<html>\'\n                        \'<body>\'\n                            \'<span style="font-family: Bodoni MT Ultra Bold;color:  #000000 ;font-size : 18pt;"><b>Themis </span></h1><span style="font-family: Bodoni MT Ultra Bold;color:#C7A317   ;font-size :18pt;"><b>Lexsol</b></span>\'\n                            \n                            \'<p>Dear &nbsp;\'+session.empname+\'</p>\'\n                            \n                            \'<p>I just wanted to drop you a quick message to say Your leave request from \'+str(session.efrom)+\' to \'+str(session.eto)+\' is \'+session.status+\' If you need help at any time, please contact me by replying to this message. Similarly, if you ever have any questions then please do not hesitate to send me a message or email.</p>\'\n                            \'<center><p>_________________________________________________________</p><p style="color:red;font-size :5pt;">This email comes to you since you are subcribed for HRMS. TO unsubcribed please contact to Themis Lexsol</p></center>\'\n                      \n                        \'</body>\'\n                    \'</html>\'\n                    \n  )\n    redirect(URL(c=\'default\', f=\'admin_cnf_leave\'))\t\n    return \'\'\n    \n@auth.requires_permission(\'CRUD\', \'auth_user\')\t\ndef admin_cnf_leave():\n\tfor row2 in db(db.image.email == auth.user.email).select():\n\t\timages=row2.image\n\treturn dict(images=images,status=session.status,efrom=session.efrom,eto=session.eto,empname=session.empname)\n\t\n@auth.requires_permission(\'CRUD\', \'auth_user\')\t\ndef admin_contact_detail():\n\tfor row2 in db(db.image.email == auth.user.email).select():\n\t\timages=row2.image\n\treturn dict(images=images)\n\n@auth.requires_permission(\'CRUD\', \'auth_user\')\t\ndef admin_add_project():\n\tfor row2 in db(db.image.email == auth.user.email).select():\n\t\timages=row2.image\n\t\n\tdb.project.id.readable = False\n\tform=SQLFORM.grid(db.project,selectable = lambda ids: del_pro(ids))\n\treturn dict(images=images,form=form)\n\t\n@auth.requires_permission(\'CRUD\', \'auth_user\')\t\ndef del_pro(ids):\n\tif not ids:\n\t\tresponse.flash=\'Please Select the Check-box to Delete\'\n\telse:\n\t\tfor row in ids:\n\t\t\tdb(db.project.id == row).delete()\n\t\tpass\n\tpass\n\treturn \'\'\n\t\n@auth.requires_permission(\'CRUD\', \'auth_user\')\t\ndef admin_activity():\n\tfor row2 in db(db.image.email == auth.user.email).select():\n\t\timages=row2.image\n\t\n\tdb.activity.id.readable = False\n\tform=SQLFORM.grid(db.activity,selectable = lambda ids: del_activity(ids))\n\treturn dict(images=images,form=form)\n\t\n@auth.requires_permission(\'CRUD\', \'auth_user\')\t\ndef del_activity(ids):\n\tif not ids:\n\t\tresponse.flash=\'Please Select the Check-box to Delete\'\n\telse:\n\t\tfor row in ids:\n\t\t\tdb(db.activity.id == row).delete()\n\t\tpass\n\tpass\n\treturn \'\'\n\t\n@auth.requires_permission(\'CRUD\', \'auth_user\')\ndef admin_assign_project():\n\tfor row2 in db(db.image.email == auth.user.email).select():\n\t\timages=row2.image\n\tproj=db().select(db.project.ALL)\n\torzn=db().select(db.add_new_organization.ALL)\n\tdept=db().select(db.add_new_department.ALL)\n\treturn dict(images=images,proj=proj,orzn=orzn,dept=dept)\n\n@auth.requires_permission(\'CRUD\', \'auth_user\')\t\ndef admin_orz():\n\t#for row in db(db.add_new_organization.id == request,vars.orz).select():\n\t\t#organization=row.organization_name\n\t#for row1 in db(db.add_new_department.id == request.vars.dp).select():\n\t\t#department=row1.department\n\tusr=[]\n\tfor row in db((db.auth_user.department == request.vars.dp) & (db.auth_user.organization_name == request,vars.orz)).select():\n\t\tusr.append(row.email)\n\treturn SELECT(_id="usr",_name="usr",*[OPTION((emp), _value=str (emp)) for emp in usr])\n\t\n@auth.requires_permission(\'CRUD\', \'auth_user\')\t\ndef admin_submit_project():\n\tfor row2 in db(db.image.email == auth.user.email).select():\n\t\timages=row2.image\n\t\n\treturn dict(images=images)\n\t\n#### Employee Controller Starts from here ####\n\ndef emp_time():\n\timport datetime\n\timport time, os\n\tos.environ[\'TZ\'] = \'Asia/Kolkata\'\n\ttime.tzset()\n\tnow = time.localtime(time.time())\n\tsession.cutime = time.strftime("%H:%M:%S", now)\t\n\tredirect(URL(c=\'default\',f=\'employee\'))\n\treturn \'\'\n\n@auth.requires(auth.login() and auth.has_permission(\'Emp\', \'auth_user\'))\ndef employee():\n\tresponse.flash = "Welcome to Employee Lgoin"\n\tfor row in db(db.image.email == auth.user.email).select():\n\t\timages=row.image\n\tllgin=[]\n\tfor log in db(db.employee_login_detail.employee_logout_date==\'Logged in\').select():\n\t\tllgin.append(log.employee_name)\n\tblgin=set(llgin)\n\talgin=list(blgin)\n\t\t\n\tipa = request.env.remote_addr\n\tipaddr = str(ipa[33:])\n\timport datetime\n\timport time, os\n\tos.environ[\'TZ\'] = \'Asia/Kolkata\'\n\ttime.tzset()\n\tcurrentdate=datetime.date.today()\n\tnow = time.localtime(time.time())\n\tstarttime = datetime.datetime.now()\n\tsession.starttime = starttime\n\tcurrenttime = time.strftime("%H:%M:%S", now)\n\tsession.time = currenttime\n\tif session.cutime == session.time:\n\t\tfor row in db(db.auth_user.email == auth.user.email).select(db.auth_user.first_name, db.auth_user.employee_code):\n\t\t\tfirstname=row.first_name\n\t\t\tempcode=row.employee_code\n\t\tdb.employee_login_detail.insert(employee_code = empcode, employee_email = auth.user.email, employee_name=firstname, employee_login_date=currentdate, employee_login_time=currenttime, ip_address=ipaddr)\n\t\tdb.commit()\n\telse:\n\t\tpass\n\treturn dict(algin=algin,images=images)\t\n\n@auth.requires_permission(\'Emp\', \'auth_user\')\t\ndef emp_mydoc():\n\tfor row in db(db.image.email == auth.user.email).select():\n\t\timages=row.image\n\t\n\tllgin=[]\n\tfor log in db(db.employee_login_detail.employee_logout_date==\'Logged in\').select():\n\t\tllgin.append(log.employee_name)\n\tblgin=set(llgin)\n\talgin=list(blgin)\t\n\tfor row in db(db.auth_user.email==auth.user.email).select(db.auth_user.employee_code):\r\n\t\t\tecode=row.employee_code\n\t\t\t\n\tdb.document.id.readable=False\t\n\tdb.document.email.writable=False\n\tdb.document.email.default=auth.user.email\n\tdb.document.employee_code.writable=False\n\tdb.document.employee_code.default=ecode\n\ttable=SQLFORM.grid(db.document.email==auth.user.email)\n\treturn dict(algin=algin,images=images,table=table)\n\n@auth.requires_permission(\'Emp\', \'auth_user\')\t\ndef emp_compliance():\n\tfor row in db(db.image.email == auth.user.email).select():\n\t\timages=row.image\n\t\t\n\tllgin=[]\n\tfor log in db(db.employee_login_detail.employee_logout_date==\'Logged in\').select():\n\t\tllgin.append(log.employee_name)\n\tblgin=set(llgin)\n\talgin=list(blgin)\n\treturn dict(algin=algin,images=images)\n\n@auth.requires_permission(\'Emp\', \'auth_user\')\t\ndef emp_all():\n\tfor row in db(db.image.email == auth.user.email).select():\n\t\timages=row.image\n\tllgin=[]\n\tfor log in db(db.employee_login_detail.employee_logout_date==\'Logged in\').select():\n\t\tllgin.append(log.employee_name)\n\tblgin=set(llgin)\n\talgin=list(blgin)\n\treturn dict(algin=algin,images=images)\n\n@auth.requires_permission(\'Emp\', \'auth_user\')   \ndef emp_myprofile():\n\tfor row2 in db(db.image.email == auth.user.email).select():\n\t\timages=row2.image\n\t\t\n\tllgin=[]\n\tfor log in db(db.employee_login_detail.employee_logout_date==\'Logged in\').select():\n\t\tllgin.append(log.employee_name)\n\tblgin=set(llgin)\n\talgin=list(blgin)\n\tfor row in db(db.auth_user.email == auth.user.email).select():\n\t\tempcode=row.employee_code\n\t\tempfname=row.first_name\n\t\templname=row.last_name\n\t\tempemail=auth.user.email \n\t\temppemail=row.personal_email\n\t\tempdoj=row.date_of_joining\n\t\tempdpt=row.department\n\t\temprptmgr=row.reporting_manager\n\t\tempdgn=row.designation\n\t\t\n\tfor row1 in db(db.personal_information.email == auth.user.email).select():\n\t\tsession.empdob=row1.date_of_birth\n\t\tsession.empgndr=row1.gender\n\t\tsession.empstatus=row1.marital_status\n\t\tsession.empgrp=row1.blood_group\n\t\tsession.empmbl=row1.mobile\n\t\tsession.empphone=row1.phone\n\t\tsession.emppaddr=row1.present_address\n\t\tsession.empperaddr=row1.permanent_address\n\t\tsession.empctz=row1.citizenship\n\t\tsession.empst=row1.state\n\t\tsession.emppassno=row1.passport_no\n\t\tsession.empbank=row1.bank_account_no\n\t\tsession.emppancard=row1.pan_card_no\r\n\tedtable = db(db.qualification.email==auth.user.email).select(db.qualification.ALL) \n\treturn dict(algin=algin,images=images,empcode=empcode,empfname=empfname,emplname=emplname,empemail=empemail,emppemail=emppemail,empdoj=empdoj,empdpt=empdpt,emprptmgr=emprptmgr,empdgn=empdgn,empdob=session.empdob,empgndr=session.empgndr,empstatus=session.empstatus,empgrp=session.empgrp,empmbl=session.empmbl,empphone=session.empphone,emppaddr=session.emppaddr,empperaddr=session.empperaddr,empctz=session.empctz,empst=session.empst,emppassno=session.emppassno,empbank=session.empbank,emppancard=session.emppancard,edtable=edtable)\n\n@auth.requires_permission(\'Emp\', \'auth_user\')\t\ndef emp_update_edu_info():\n\tfor row in db(db.image.email == auth.user.email).select():\n\t\timages=row.image\n\tllgin=[]\n\tfor log in db(db.employee_login_detail.employee_logout_date==\'Logged in\').select():\n\t\tllgin.append(log.employee_name)\n\tblgin=set(llgin)\n\talgin=list(blgin)\n\t\t\n\tfor row in db(db.auth_user.email==auth.user.email).select(db.auth_user.employee_code):\r\n\t\t\tecode=row.employee_code\n\t\t\t\n\tdb.qualification.id.readable=False\t\n\tdb.qualification.email.writable=False\n\tdb.qualification.email.default=auth.user.email\n\tdb.qualification.employee_code.writable=False\n\tdb.qualification.employee_code.default=ecode\n\ttable=SQLFORM.grid(db.qualification.email==auth.user.email)\n\treturn dict(algin=algin,images=images,table=table)\n\n@auth.requires_permission(\'Emp\', \'auth_user\')\ndef emp_update_personal_info():\n\tfor row1 in db(db.image.email == auth.user.email).select():\n\t\timages=row1.image\n\tllgin=[]\n\tfor log in db(db.employee_login_detail.employee_logout_date==\'Logged in\').select():\n\t\tllgin.append(log.employee_name)\n\tblgin=set(llgin)\n\talgin=list(blgin)\n\t\n\tfor row in db(db.personal_information.email == auth.user.email).select():\n\t\tecode=row.employee_code\n\t\tdbr=row.date_of_birth\n\t\tgndr=row.gender\n\t\tmstat=row.marital_status\n\t\tbgrp=row.blood_group\n\t\tmbl=row.mobile\n\t\tph=row.phone\n\t\tpaddr=row.present_address\n\t\tperaddr=row.permanent_address\n\t\tctz=row.citizenship\n\t\tst=row.state\n\t\tpno=row.passport_no\n\t\tbno=row.bank_account_no\n\t\tpcard=row.pan_card_no\t\t\n\t\t\n\tdb.personal_information.email.writable=False\n\tdb.personal_information.employee_code.writable=False\n\tdb.personal_information.email.default=auth.user.email\n\tdb.personal_information.employee_code.default=ecode\n\t\n\tdb.personal_information.date_of_birth.default=dbr \n\tdb.personal_information.gender.default=gndr\n\tdb.personal_information.marital_status.default=mstat\n\tdb.personal_information.blood_group.default=bgrp\n\tdb.personal_information.mobile.default=mbl\n\tdb.personal_information.phone.default=ph\n\tdb.personal_information.present_address.default=paddr \n\tdb.personal_information.permanent_address.default=peraddr\n\tdb.personal_information.citizenship.default=ctz\n\tdb.personal_information.state.default=st\n\tdb.personal_information.passport_no.default=pno\n\tdb.personal_information.bank_account_no.default=bno\n\tdb.personal_information.pan_card_no.default=pcard \n\t\n\tform = SQLFORM(db.personal_information)\n\tif form.accepts(request.vars, session):\n\t\tdob = form.vars.date_of_birth\n\t\tgndr = form.vars.gender\n\t\tmstatus = form.vars.marital_status\n\t\tbgrp = form.vars.blood_group\n\t\tmbl = form.vars.mobile\n\t\tphone = form.vars.phone\n\t\tpaddr = form.vars.present_address\n\t\tperaddr = form.vars.permanent_address\n\t\tctz = form.vars.citizenship\n\t\tst = form.vars.state\n\t\tpno = form.vars.passport_no\n\t\tbaccno = form.vars.bank_account_no\n\t\tpcard = form.vars.pan_card_no\n\t\timg = form.vars.image\n\t\tdb(db.personal_information.email == auth.user.email).update(date_of_birth=dob, gender=gndr, marital_status=mstatus, blood_group=bgrp, mobile=mbl, phone=phone, present_address=paddr, permanent_address=peraddr, citizenship=ctz, state=st, passport_no=pno, bank_account_no=baccno, pan_card_no=pcard)\n\t\tredirect(URL(c=\'default\', f=\'emp_myprofile\'))\n\treturn dict(algin=algin,form=form,images=images)\n\n@auth.requires_permission(\'Emp\', \'auth_user\')\ndef emp_update_image():\n\tfor row in db(db.image.email == auth.user.email).select():\n\t\timages=row.image\n\t\t\n\tllgin=[]\n\tfor log in db(db.employee_login_detail.employee_logout_date==\'Logged in\').select():\n\t\tllgin.append(log.employee_name)\n\tblgin=set(llgin)\n\talgin=list(blgin)\n\tfor row1 in db(db.image.email == auth.user.email).select():\n\t\tmail=row.email\n\t\tecode=row.employee_code\n\t\t\n\tdb.image.email.writable=False\n\tdb.image.employee_code.writable=db.image.employee_code.readable=False\n\tdb.image.email.default=mail\n\tform=SQLFORM(db.image)\n\tif form.accepts(request.vars, session):\n\t\timg = form.vars.image\n\t\tdb(db.image.email == auth.user.email).update(image=img)\n\t\tredirect(URL(c=\'default\', f=\'emp_myprofile\'))\n\treturn dict(algin=algin,images=images,form=form)\n\n@auth.requires_permission(\'Emp\', \'auth_user\')\ndef emp_company():\n\tfor row in db(db.image.email == auth.user.email).select():\n\t\timages=row.image\n\t\t\n\tllgin=[]\n\tfor log in db(db.employee_login_detail.employee_logout_date==\'Logged in\').select():\n\t\tllgin.append(log.employee_name)\n\tblgin=set(llgin)\n\talgin=list(blgin)\n\treturn dict(algin=algin,images=images)\n\n@auth.requires_permission(\'Emp\', \'auth_user\')\t\ndef emp_organization():\n\tfor row in db(db.image.email == auth.user.email).select():\n\t\timages=row.image\n\tllgin=[]\n\tfor log in db(db.employee_login_detail.employee_logout_date==\'Logged in\').select():\n\t\tllgin.append(log.employee_name)\n\tblgin=set(llgin)\n\talgin=list(blgin)\n\treturn dict(algin=algin,images=images)\n\n@auth.requires_permission(\'Emp\', \'auth_user\')\t\ndef emp_leavecalendar():\n\tfor row in db(db.image.email == auth.user.email).select():\n\t\timages=row.image\n\t\n\tllgin=[]\n\tfor log in db(db.employee_login_detail.employee_logout_date==\'Logged in\').select():\n\t\tllgin.append(log.employee_name)\n\tblgin=set(llgin)\n\talgin=list(blgin)\n\ttotvacationleave=18\n\ttotmedicalleave=6\n\ttotcasualleave=6\n\templeave = db(db.employee_leave.email==auth.user.email).select(db.employee_leave.ALL)\n\tempstat = db(db.apply_leave.email==auth.user.email).select(db.apply_leave.ALL)\n\treturn dict(algin=algin,empstat=empstat,images=images,empleave=empleave,totvacationleave=totvacationleave,totmedicalleave=totmedicalleave,totcasualleave=totcasualleave)\n\t\ndef cron_leave():\n\ttotvacationleave=18\n\ttotmedicalleave=6\n\ttotcasualleave=6\n\ttvl=0\n\ttml=0\n\ttcl=0\n\tfor row in db(db.employee_leave.id>0).select():\n\t\tfor row1 in db(db.employee_leave.id==row.id).select():\n\t\t\ttotvacleave = totvacationleave + row1.left_vacation_leave\n\t\t\tdb(db.employee_leave.id==row.id).update(taken_vacation_leave=tvl, taken_medical_leave=tml, taken_casual_leave=tcl, left_vacation_leave=totvacleave, left_medical_leave=totmedicalleave, left_casual_leave=totcasualleave)\n\t\t\tdb.commit()\n\treturn \'\'\t\n\t\n@auth.requires_permission(\'Emp\', \'auth_user\')\t\ndef emp_calendar():\n\tfor row in db(db.image.email == auth.user.email).select():\n\t\timages=row.image\n\t\t\n\tllgin=[]\n\tfor log in db(db.employee_login_detail.employee_logout_date==\'Logged in\').select():\n\t\tllgin.append(log.employee_name)\n\tblgin=set(llgin)\n\talgin=list(blgin)\n\tcaland=db().select(db.holiday_list.ALL)\r\n\treturn dict(algin=algin,images=images,rows=caland)\n\n@auth.requires_permission(\'Emp\', \'auth_user\')\t\ndef emp_calread():\n\tfor row in db(db.image.email == auth.user.email).select():\n\t\timages=row.image\n\tllgin=[]\n\tfor log in db(db.employee_login_detail.employee_logout_date==\'Logged in\').select():\n\t\tllgin.append(log.employee_name)\n\tblgin=set(llgin)\n\talgin=list(blgin)\n\trecord = db.holiday_list(request.args(0)) or redirect(URL(\'error\'))\n\tform=crud.read(db.holiday_list,record)\n\treturn dict(form=form,images=images,algin=algin)\n    \n@auth.requires_permission(\'Emp\', \'auth_user\')\t\ndef emp_apply_leave():\n\tfor row in db(db.image.email == auth.user.email).select():\n\t\timages=row.image\n\tllgin=[]\n\tfor log in db(db.employee_login_detail.employee_logout_date==\'Logged in\').select():\n\t\tllgin.append(log.employee_name)\n\tblgin=set(llgin)\n\talgin=list(blgin)\n\tfor row in db(db.auth_user.email==auth.user.email).select():\n\t\trptmgr=row.reporting_manager\n\treturn dict(algin=algin,images=images)\n\n@auth.requires_permission(\'Emp\', \'auth_user\')\t\ndef submit_emp_apply_leave():\n\tfor row in db(db.image.email == auth.user.email).select():\n\t\timages=row.image\n\tllgin=[]\n\tfor log in db(db.employee_login_detail.employee_logout_date==\'Logged in\').select():\n\t\tllgin.append(log.employee_name)\n\tblgin=set(llgin)\n\talgin=list(blgin)\n\t\t\n\timport datetime\n\tsession.fromdate=request.vars.fromleave\n\tsession.todate=request.vars.toleave\n\tfdate=datetime.date(*map(int, session.fromdate.split(\'-\')))\n\ttdate=datetime.date(*map(int, session.todate.split(\'-\')))\n\ttotday=tdate-fdate\n\tsession.day=totday.days\n\tif request.vars.apply == \'Casual Leave\':\n\t\tfor row in db(db.employee_leave.email==auth.user.email).select():\n\t\t\tif session.day <= row.left_casual_leave:\n\t\t\t\tfor row in db(db.auth_user.email==auth.user.email).select():\n\t\t\t\t\tsession.rptmgr=row.reporting_manager\n\t\t\t\t\tsession.empcode=row.employee_code\n\t\t\t\t\tsession.fname=row.first_name\n\t\t\t\tdb.apply_leave.insert(employee_code=session.empcode,email=auth.user.email,name=session.fname,leave_type=request.vars.apply,from_leave=session.fromdate,to_leave=session.todate,total_day=session.day,reason_for_leave=request.vars.reason,reporting_manager=session.rptmgr)\n\t\t\t\tdb.commit()\n\t\t\t\tleavemail()\n\t\t\telse:\n\t\t\t\tresponse.flash=\'Your Casual leave is not left\'\n\telif request.vars.apply == \'Medical Leave\':\n\t\tfor row in db(db.employee_leave.email==auth.user.email).select():\n\t\t\tif session.day <= row.left_medical_leave:\n\t\t\t\tfor row in db(db.auth_user.email==auth.user.email).select():\n\t\t\t\t\tsession.rptmgr=row.reporting_manager\n\t\t\t\t\tsession.empcode=row.employee_code\n\t\t\t\t\tsession.fname=row.first_name\n\t\t\t\tdb.apply_leave.insert(employee_code=session.empcode,email=auth.user.email,name=session.fname,leave_type=request.vars.apply,from_leave=session.fromdate,to_leave=session.todate,total_day=session.day,reason_for_leave=request.vars.reason,reporting_manager=session.rptmgr)\n\t\t\t\tdb.commit()\n\t\t\t\tleavemail()\n\t\t\telse:\n\t\t\t\tresponse.flash=\'Your Medical leave is not left\'\n\telif request.vars.apply == \'Vacation Leave\':\n\t\tfor row in db(db.employee_leave.email==auth.user.email).select():\n\t\t\tif session.day <= row.left_vacation_leave:\n\t\t\t\tfor row in db(db.auth_user.email==auth.user.email).select():\n\t\t\t\t\tsession.rptmgr=row.reporting_manager\n\t\t\t\t\tsession.empcode=row.employee_code\n\t\t\t\t\tsession.fname=row.first_name\n\t\t\t\tdb.apply_leave.insert(employee_code=session.empcode,email=auth.user.email,name=session.fname,leave_type=request.vars.apply,from_leave=session.fromdate,to_leave=session.todate,total_day=session.day,reason_for_leave=request.vars.reason,reporting_manager=session.rptmgr)\n\t\t\t\tdb.commit()\n\t\t\t\tleavemail()\n\t\t\telse:\n\t\t\t\tresponse.flash=\'Your Vacation leave is not left\'\n\telse:\n\t\tpass\t\n\treturn dict(algin=algin,images=images)\t\n\n@auth.requires_permission(\'Emp\', \'auth_user\')\t\ndef leavemail():\n    from gluon.tools import Mail\n    mail=Mail()\n    #specify server\n    \n    mail=auth.settings.mailer\n    mail.settings.server=\'smtp.gmail.com:587\'\n    mail.settings.login=\'themisdemo1@gmail.com:123456asdfg\'\n    #specify address to send as\n    mail.settings.sender=\'themisdemo1@gmail.com\'\n    #send the message                             \n    mail.send(to=[session.rptmgr],\n            subject=\'Request for Leave\',\n            message=\'<html>\'\n                        \'<body>\'\n                            \'<span style="font-family: Bodoni MT Ultra Bold;color:  #000000 ;font-size : 18pt;"><b>Themis </span></h1><span style="font-family: Bodoni MT Ultra Bold;color:#C7A317   ;font-size :18pt;"><b>Lexsol</b></span>\'\n                            \n                            \'<p>Dear &nbsp;\'+session.fname+\' applied for leave</p>\'\n                            \'<p>Emp Code &nbsp;\'+session.empcode+\' </p>\'\n                             \'<p>From Date &nbsp;\'+session.fromdate+\' </p>\'\n                              \'<p>To Date &nbsp;\'+session.todate+\' </p>\'\n                               \'<p>Total Day &nbsp;\'+str(session.day)+\' </p>\'\n                            \n                            \'<p></p>\'\n                            \'<center><p>_________________________________________________________</p><p style="color:red;font-size :5pt;">This email comes to you since your company has subcribed for LCM Plus. TO unsubcribed please contact to Themis Lexsol</p></center>\'\n                      \n                        \'</body>\'\n                    \'</html>\'\n                    \n  )\n    response.flash=\'mail send\'\n    redirect(URL(c=\'default\',f=\'emp_leavecalendar\'))\n    return \'\'\t\n\n\t\n@auth.requires_permission(\'Mgr\', \'auth_user\')\t\ndef emp_leave_stat():\n\tfor row in db(db.image.email == auth.user.email).select():\n\t\timages=row.image\n\t\t\n\tllgin=[]\n\tfor log in db(db.employee_login_detail.employee_logout_date==\'Logged in\').select():\n\t\tllgin.append(log.employee_name)\n\tblgin=set(llgin)\n\talgin=list(blgin)\n\templeave=db(db.apply_leave.reporting_manager==auth.user.email).select(db.apply_leave.ALL)\n\treturn dict(algin=algin,images=images,empleave=empleave)\n\t\n@auth.requires_permission(\'Mgr\', \'auth_user\')\t\t\ndef emp_edit_leave():\n\tfor row in db(db.image.email == auth.user.email).select():\n\t\timages=row.image\n\t\t\n\tllgin=[]\n\tfor log in db(db.employee_login_detail.employee_logout_date==\'Logged in\').select():\n\t\tllgin.append(log.employee_name)\n\tblgin=set(llgin)\n\talgin=list(blgin)\n\tfor row in db(db.apply_leave.id==request.args(0)).select():\n\t\tid=row.id\n\t\teid=row.employee_code\n\t\testat=row.status\n\t\teltype=row.leave_type\n\t\tefrom=row.from_leave\n\t\teto=row.to_leave\n\t\tereason=row.reason_for_leave\n\t\tetotday=row.total_day\n\treturn dict(algin=algin,id=id,images=images,eid=eid,estat=estat,eltype=eltype,efrom=efrom,eto=eto,ereason=ereason,etotday=etotday)\n\t\n@auth.requires_permission(\'Mgr\', \'auth_user\')\t\t\ndef emp_approve_leave():\n\tfor row in db(db.apply_leave.id==request.args(0)).select():\n\t\tsession.elmail=row.email\n\t\tsession.eempname=row.name\n\t\tsession.eefrom=row.from_leave\n\t\tsession.eeto=row.to_leave\n\t\tsession.estatus=request.vars.status\n\t\tsession.eltype=row.leave_type\n\t\tsession.etday=row.total_day\n\tif session.estatus == \'Approved\':\n\t\tif session.eltype == \'Casual Leave\':\n\t\t\tfor row in db(db.employee_leave.email==session.elmail).select():\n\t\t\t\ttotday=row.left_casual_leave - session.etday\n\t\t\tdb(db.apply_leave.id==request.args(0)).update(status=session.estatus, approved_by=\'Reporting Manager\')\n\t\t\tdb(db.employee_leave.email==session.elmail).update(taken_casual_leave=session.etday,left_casual_leave=totday)\n\t\t\tdb.commit()\n\t\t\tredirect(URL(c=\'default\', f=\'emp_leave_mail\'))\n\t\telif session.eltype == \'Medical Leave\':\n\t\t\tfor row in db(db.employee_leave.email==session.elmail).select():\n\t\t\t\ttotday=row.left_medical_leave - session.etday\n\t\t\tdb(db.apply_leave.id==request.args(0)).update(status=session.estatus, approved_by=\'Reporting Manager\')\n\t\t\tdb(db.employee_leave.email==session.elmail).update(taken_medical_leave=session.etday,left_medical_leave=totday)\n\t\t\tdb.commit()\n\t\t\tredirect(URL(c=\'default\', f=\'emp_leave_mail\'))\n\t\telif session.eltype == \'Vacation Leave\':\n\t\t\tfor row in db(db.employee_leave.email==session.elmail).select():\n\t\t\t\ttotday=row.left_vacation_leave - session.etday\n\t\t\tdb(db.apply_leave.id==request.args(0)).update(status=session.estatus, approved_by=\'Reporting Manager\')\n\t\t\tdb(db.employee_leave.email==session.elmail).update(taken_vacation_leave=session.etday,left_vacation_leave=totday)\n\t\t\tdb.commit()\n\t\t\tredirect(URL(c=\'default\', f=\'emp_leave_mail\'))\n\t\telse:\n\t\t\tpass\n\telse:\n\t\tdb(db.apply_leave.id==request.args(0)).update(status=session.estatus, approved_by=\'Reporting Manager\')\n\t\tdb.commit()\n\t\tredirect(URL(c=\'default\', f=\'emp_leave_mail\'))\n\treturn \'\'\n\t\n@auth.requires_permission(\'Mgr\', \'auth_user\')\t\ndef emp_leave_mail():\n    from gluon.tools import Mail\n    mail=Mail()\n    #specify server\n    mail=auth.settings.mailer\n    mail.settings.server=\'smtp.gmail.com:587\'\n    mail.settings.login=\'themisdemo1@gmail.com:123456asdfg\'\n    #specify address to send as\n    mail.settings.sender=\'themisdemo1@gmail.com\'\n    #send the message                             \n    mail.send(to=[session.elmail],\n            subject=\'Leave Status\',\n            message=\'<html>\'\n                        \'<body>\'\n                            \'<span style="font-family: Bodoni MT Ultra Bold;color:  #000000 ;font-size : 18pt;"><b>Themis </span></h1><span style="font-family: Bodoni MT Ultra Bold;color:#C7A317   ;font-size :18pt;"><b>Lexsol</b></span>\'\n                            \n                            \'<p>Dear &nbsp;\'+session.eempname+\'</p>\'\n                            \n                            \'<p>I just wanted to drop you a quick message to say Your leave request from \'+str(session.eefrom)+\' to \'+str(session.eeto)+\' is \'+session.estatus+\' If you need help at any time, please contact me by replying to this message. Similarly, if you ever have any questions then please do not hesitate to send me a message or email.</p>\'\n                            \'<center><p>_________________________________________________________</p><p style="color:red;font-size :5pt;">This email comes to you since you are subcribed for HRMS. TO unsubcribed please contact to Themis Lexsol</p></center>\'\n                      \n                        \'</body>\'\n                    \'</html>\'\n                    \n  )\n    redirect(URL(c=\'default\', f=\'emp_cnf_leave\'))\t\n    return \'\'\n    \n@auth.requires_permission(\'Mgr\', \'auth_user\')\t\ndef emp_cnf_leave():\n\tfor row2 in db(db.image.email == auth.user.email).select():\n\t\timages=row2.image\n\t\t\n\tllgin=[]\n\tfor log in db(db.employee_login_detail.employee_logout_date==\'Logged in\').select():\n\t\tllgin.append(log.employee_name)\n\tblgin=set(llgin)\n\talgin=list(blgin)\n\treturn dict(algin=algin,images=images,status=session.estatus,efrom=session.eefrom,eto=session.eeto,empname=session.eempname)\n\t\n@auth.requires_permission(\'Mgr\', \'auth_user\')\ndef emp_edit_leave_status():\n\tfor row2 in db(db.image.email == auth.user.email).select():\n\t\timages=row2.image\n\t\t\n\tllgin=[]\n\tfor log in db(db.employee_login_detail.employee_logout_date==\'Logged in\').select():\n\t\tllgin.append(log.employee_name)\n\tblgin=set(llgin)\n\talgin=list(blgin)\n\tltype=[\'Casual Leave\',\'Medical Leave\',\'Vacation Leave\']\n\tsession.eeleaveid=request.args(0)\n\tfor row in db(db.apply_leave.id==session.eeleaveid).select():\n\t\tecode=row.employee_code\n\t\tname=row.name\n\t\tfle=row.from_leave\n\t\ttle=row.to_leave\n\t\ttday=row.total_day\n\t\trle=row.reason_for_leave\n\t\teltype=row.leave_type\n\treturn dict(algin=algin,ltype=ltype,images=images,ecode=ecode,name=name,fle=fle,tle=tle,tday=tday,rle=rle,eltype=eltype)\n\n@auth.requires_permission(\'Mgr\', \'auth_user\')\t\ndef emp_submit_edit_leave_status():\n\tdb(db.apply_leave.id == session.eeleaveid).update(name=request.vars.name, leave_type=request.vars.ltype, from_leave=request.vars.fleave, to_leave=request.vars.tleave, total_day=request.vars.tday, reason_for_leave=request.vars.rleave)\n\tdb.commit()\n\tredirect(URL(c=\'default\',f=\'emp_leave_stat\'))\n\treturn \'\'\n\n@auth.requires_permission(\'Emp\', \'auth_user\')\ndef user_timesheet():\n\tfor row2 in db(db.image.email == auth.user.email).select():\n\t\timages=row2.image\n\t\t\n\tllgin=[]\n\tfor log in db(db.employee_login_detail.employee_logout_date==\'Logged in\').select():\n\t\tllgin.append(log.employee_name)\n\tblgin=set(llgin)\n\talgin=list(blgin)\n\treturn dict(images=images,algin=algin)\t \n\n@auth.requires_permission(\'Emp\', \'auth_user\')\t\ndef adata():\n\timport datetime\n\tdte=datetime.date.today()\n\tpro=request.vars.proname\n\tptask=request.vars.protask\n\tptime=request.vars.protime\n\tfor row in db(db.auth_user.email==auth.user.email).select():\n\t\trmgr=row.reporting_manager\n\treturn TABLE([TR("Project Name:",INPUT(_type="text",_name="proj",_value=pro,_readonly="readonly")),TR("Client Name:",INPUT(_type="text",_name="client",_value="Client",_readonly="readonly")),TR("Reporting Manager:",INPUT(_type="text",_name="rpm",_value=rmgr,_readonly="readonly")),TR("Project Task:",INPUT(_type="text",_name="protsk",_value=ptask,_readonly="readonly")),TR("Date:",INPUT(_type="text",_name="dte",_value=dte,_readonly="readonly")),TR("Task Discription:",INPUT(_type="text",_name="tskdisc",_value="")),TR("Total Time:",INPUT(_type="text",_name="tottme",_value=ptime))])\n\nresponse._vars=response._caller(admin_orz)\n'
p7
sS'snapshot'
p8
(dp9
S'exception'
p10
(dp11
S'__hash__'
p12
S"<method-wrapper '__hash__' of exceptions.AttributeError object>"
p13
sS'__setattr__'
p14
S"<method-wrapper '__setattr__' of exceptions.AttributeError object>"
p15
sS'__reduce_ex__'
p16
S'<built-in method __reduce_ex__ of exceptions.AttributeError object>'
p17
sS'__getslice__'
p18
S"<method-wrapper '__getslice__' of exceptions.AttributeError object>"
p19
sS'__getitem__'
p20
S"<method-wrapper '__getitem__' of exceptions.AttributeError object>"
p21
sS'__setstate__'
p22
S'<built-in method __setstate__ of exceptions.AttributeError object>'
p23
sS'__reduce__'
p24
S'<built-in method __reduce__ of exceptions.AttributeError object>'
p25
sS'__str__'
p26
S"<method-wrapper '__str__' of exceptions.AttributeError object>"
p27
sS'__format__'
p28
S'<built-in method __format__ of exceptions.AttributeError object>'
p29
sS'__getattribute__'
p30
S"<method-wrapper '__getattribute__' of exceptions.AttributeError object>"
p31
sS'__class__'
p32
S"<type 'exceptions.AttributeError'>"
p33
sS'__unicode__'
p34
S'<built-in method __unicode__ of exceptions.AttributeError object>'
p35
sS'__delattr__'
p36
S"<method-wrapper '__delattr__' of exceptions.AttributeError object>"
p37
sS'__subclasshook__'
p38
S'<built-in method __subclasshook__ of type object>'
p39
sS'__repr__'
p40
S"<method-wrapper '__repr__' of exceptions.AttributeError object>"
p41
sS'args'
p42
S'("\'builtin_function_or_method\' object has no attribute \'orz\'",)'
p43
sS'__dict__'
p44
S'{}'
p45
sS'__sizeof__'
p46
S'<built-in method __sizeof__ of exceptions.AttributeError object>'
p47
sS'__doc__'
p48
S"'Attribute not found.'"
p49
sS'__init__'
p50
S"<method-wrapper '__init__' of exceptions.AttributeError object>"
p51
sS'__new__'
p52
S'<built-in method __new__ of type object>'
p53
ssS'evalue'
p54
S"'builtin_function_or_method' object has no attribute 'orz'"
p55
sS'request'
p56
ccopy_reg
_reconstructor
p57
(cgluon.html
BEAUTIFY
p58
c__builtin__
object
p59
NtRp60
(dp61
S'attributes'
p62
(dp63
sS'components'
p64
(lp65
g57
(cgluon.html
TABLE
p66
g59
NtRp67
(dp68
g62
(dp69
S'level'
p70
I5
ssS'parent'
p71
Nsg64
(lp72
g57
(cgluon.html
TR
p73
g59
NtRp74
(dp75
g62
(dp76
sg71
g67
sg64
(lp77
g57
(cgluon.html
TD
p78
g59
NtRp79
(dp80
g62
(dp81
S'_style'
p82
S'font-weight:bold;vertical-align:top'
p83
ssg71
g74
sg64
(lp84
S'ajax'
p85
asbag57
(g78
g59
NtRp86
(dp87
g62
(dp88
S'_valign'
p89
S'top'
p90
ssg71
g74
sg64
(lp91
S':'
asbag57
(g78
g59
NtRp92
(dp93
g62
(dp94
sg71
g74
sg64
(lp95
g57
(g58
g59
NtRp96
(dp97
g62
(dp98
g70
I5
ssg71
g92
sg64
(lp99
S'True'
p100
asbasbasbag57
(g73
g59
NtRp101
(dp102
g62
(dp103
sg71
g67
sg64
(lp104
g57
(g78
g59
NtRp105
(dp106
g62
(dp107
g82
g83
ssg71
g101
sg64
(lp108
S'application'
p109
asbag57
(g78
g59
NtRp110
(dp111
g62
(dp112
g89
g90
ssg71
g101
sg64
(lp113
S':'
asbag57
(g78
g59
NtRp114
(dp115
g62
(dp116
sg71
g101
sg64
(lp117
g57
(g58
g59
NtRp118
(dp119
g62
(dp120
g70
I5
ssg71
g114
sg64
(lp121
S'themishrms'
p122
asbasbasbag57
(g73
g59
NtRp123
(dp124
g62
(dp125
sg71
g67
sg64
(lp126
g57
(g78
g59
NtRp127
(dp128
g62
(dp129
g82
g83
ssg71
g123
sg64
(lp130
g42
asbag57
(g78
g59
NtRp131
(dp132
g62
(dp133
g89
g90
ssg71
g123
sg64
(lp134
S':'
asbag57
(g78
g59
NtRp135
(dp136
g62
(dp137
sg71
g123
sg64
(lp138
g57
(g58
g59
NtRp139
(dp140
g62
(dp141
g70
I5
ssg71
g135
sg64
(lp142
g57
(g66
g59
NtRp143
(dp144
g62
(dp145
g70
I4
ssg71
Nsg64
(lp146
sbasbasbasbag57
(g73
g59
NtRp147
(dp148
g62
(dp149
sg71
g67
sg64
(lp150
g57
(g78
g59
NtRp151
(dp152
g62
(dp153
g82
g83
ssg71
g147
sg64
(lp154
S'body'
p155
asbag57
(g78
g59
NtRp156
(dp157
g62
(dp158
g89
g90
ssg71
g147
sg64
(lp159
S':'
asbag57
(g78
g59
NtRp160
(dp161
g62
(dp162
sg71
g147
sg64
(lp163
g57
(g58
g59
NtRp164
(dp165
g62
(dp166
g70
I5
ssg71
g160
sg64
(lp167
S"<open file '<fdopen>', mode 'w+b' at 0x8f8a700>"
p168
asbasbasbag57
(g73
g59
NtRp169
(dp170
g62
(dp171
sg71
g67
sg64
(lp172
g57
(g78
g59
NtRp173
(dp174
g62
(dp175
g82
g83
ssg71
g169
sg64
(lp176
S'client'
p177
asbag57
(g78
g59
NtRp178
(dp179
g62
(dp180
g89
g90
ssg71
g169
sg64
(lp181
S':'
asbag57
(g78
g59
NtRp182
(dp183
g62
(dp184
sg71
g169
sg64
(lp185
g57
(g58
g59
NtRp186
(dp187
g62
(dp188
g70
I5
ssg71
g182
sg64
(lp189
S'127.0.0.1'
p190
asbasbasbag57
(g73
g59
NtRp191
(dp192
g62
(dp193
sg71
g67
sg64
(lp194
g57
(g78
g59
NtRp195
(dp196
g62
(dp197
g82
g83
ssg71
g191
sg64
(lp198
S'controller'
p199
asbag57
(g78
g59
NtRp200
(dp201
g62
(dp202
g89
g90
ssg71
g191
sg64
(lp203
S':'
asbag57
(g78
g59
NtRp204
(dp205
g62
(dp206
sg71
g191
sg64
(lp207
g57
(g58
g59
NtRp208
(dp209
g62
(dp210
g70
I5
ssg71
g204
sg64
(lp211
S'default'
p212
asbasbasbag57
(g73
g59
NtRp213
(dp214
g62
(dp215
sg71
g67
sg64
(lp216
g57
(g78
g59
NtRp217
(dp218
g62
(dp219
g82
g83
ssg71
g213
sg64
(lp220
S'cookies'
p221
asbag57
(g78
g59
NtRp222
(dp223
g62
(dp224
g89
g90
ssg71
g213
sg64
(lp225
S':'
asbag57
(g78
g59
NtRp226
(dp227
g62
(dp228
sg71
g213
sg64
(lp229
g57
(g58
g59
NtRp230
(dp231
g62
(dp232
g70
I5
ssg71
g226
sg64
(lp233
g57
(g66
g59
NtRp234
(dp235
g62
(dp236
g70
I4
ssg71
Nsg64
(lp237
g57
(g73
g59
NtRp238
(dp239
g62
(dp240
sg71
g234
sg64
(lp241
g57
(g78
g59
NtRp242
(dp243
g62
(dp244
g82
g83
ssg71
g238
sg64
(lp245
S'mypanel'
p246
asbag57
(g78
g59
NtRp247
(dp248
g62
(dp249
g89
g90
ssg71
g238
sg64
(lp250
S':'
asbag57
(g78
g59
NtRp251
(dp252
g62
(dp253
sg71
g238
sg64
(lp254
g57
(g58
g59
NtRp255
(dp256
g62
(dp257
g70
I4
ssg71
g251
sg64
(lp258
g57
(g66
g59
NtRp259
(dp260
g62
(dp261
g70
I3
ssg71
Nsg64
(lp262
g57
(g73
g59
NtRp263
(dp264
g62
(dp265
sg71
g259
sg64
(lp266
g57
(g78
g59
NtRp267
(dp268
g62
(dp269
g82
g83
ssg71
g263
sg64
(lp270
S'comment'
p271
asbag57
(g78
g59
NtRp272
(dp273
g62
(dp274
g89
g90
ssg71
g263
sg64
(lp275
S':'
asbag57
(g78
g59
NtRp276
(dp277
g62
(dp278
sg71
g263
sg64
(lp279
g57
(g58
g59
NtRp280
(dp281
g62
(dp282
g70
I3
ssg71
g276
sg64
(lp283
S''
asbasbasbag57
(g73
g59
NtRp284
(dp285
g62
(dp286
sg71
g259
sg64
(lp287
g57
(g78
g59
NtRp288
(dp289
g62
(dp290
g82
g83
ssg71
g284
sg64
(lp291
S'domain'
p292
asbag57
(g78
g59
NtRp293
(dp294
g62
(dp295
g89
g90
ssg71
g284
sg64
(lp296
S':'
asbag57
(g78
g59
NtRp297
(dp298
g62
(dp299
sg71
g284
sg64
(lp300
g57
(g58
g59
NtRp301
(dp302
g62
(dp303
g70
I3
ssg71
g297
sg64
(lp304
S''
asbasbasbag57
(g73
g59
NtRp305
(dp306
g62
(dp307
sg71
g259
sg64
(lp308
g57
(g78
g59
NtRp309
(dp310
g62
(dp311
g82
g83
ssg71
g305
sg64
(lp312
S'expires'
p313
asbag57
(g78
g59
NtRp314
(dp315
g62
(dp316
g89
g90
ssg71
g305
sg64
(lp317
S':'
asbag57
(g78
g59
NtRp318
(dp319
g62
(dp320
sg71
g305
sg64
(lp321
g57
(g58
g59
NtRp322
(dp323
g62
(dp324
g70
I3
ssg71
g318
sg64
(lp325
S''
asbasbasbag57
(g73
g59
NtRp326
(dp327
g62
(dp328
sg71
g259
sg64
(lp329
g57
(g78
g59
NtRp330
(dp331
g62
(dp332
g82
g83
ssg71
g326
sg64
(lp333
S'httponly'
p334
asbag57
(g78
g59
NtRp335
(dp336
g62
(dp337
g89
g90
ssg71
g326
sg64
(lp338
S':'
asbag57
(g78
g59
NtRp339
(dp340
g62
(dp341
sg71
g326
sg64
(lp342
g57
(g58
g59
NtRp343
(dp344
g62
(dp345
g70
I3
ssg71
g339
sg64
(lp346
S''
asbasbasbag57
(g73
g59
NtRp347
(dp348
g62
(dp349
sg71
g259
sg64
(lp350
g57
(g78
g59
NtRp351
(dp352
g62
(dp353
g82
g83
ssg71
g347
sg64
(lp354
S'max-age'
p355
asbag57
(g78
g59
NtRp356
(dp357
g62
(dp358
g89
g90
ssg71
g347
sg64
(lp359
S':'
asbag57
(g78
g59
NtRp360
(dp361
g62
(dp362
sg71
g347
sg64
(lp363
g57
(g58
g59
NtRp364
(dp365
g62
(dp366
g70
I3
ssg71
g360
sg64
(lp367
S''
asbasbasbag57
(g73
g59
NtRp368
(dp369
g62
(dp370
sg71
g259
sg64
(lp371
g57
(g78
g59
NtRp372
(dp373
g62
(dp374
g82
g83
ssg71
g368
sg64
(lp375
S'path'
p376
asbag57
(g78
g59
NtRp377
(dp378
g62
(dp379
g89
g90
ssg71
g368
sg64
(lp380
S':'
asbag57
(g78
g59
NtRp381
(dp382
g62
(dp383
sg71
g368
sg64
(lp384
g57
(g58
g59
NtRp385
(dp386
g62
(dp387
g70
I3
ssg71
g381
sg64
(lp388
S''
asbasbasbag57
(g73
g59
NtRp389
(dp390
g62
(dp391
sg71
g259
sg64
(lp392
g57
(g78
g59
NtRp393
(dp394
g62
(dp395
g82
g83
ssg71
g389
sg64
(lp396
S'secure'
p397
asbag57
(g78
g59
NtRp398
(dp399
g62
(dp400
g89
g90
ssg71
g389
sg64
(lp401
S':'
asbag57
(g78
g59
NtRp402
(dp403
g62
(dp404
sg71
g389
sg64
(lp405
g57
(g58
g59
NtRp406
(dp407
g62
(dp408
g70
I3
ssg71
g402
sg64
(lp409
S''
asbasbasbag57
(g73
g59
NtRp410
(dp411
g62
(dp412
sg71
g259
sg64
(lp413
g57
(g78
g59
NtRp414
(dp415
g62
(dp416
g82
g83
ssg71
g410
sg64
(lp417
S'version'
p418
asbag57
(g78
g59
NtRp419
(dp420
g62
(dp421
g89
g90
ssg71
g410
sg64
(lp422
S':'
asbag57
(g78
g59
NtRp423
(dp424
g62
(dp425
sg71
g410
sg64
(lp426
g57
(g58
g59
NtRp427
(dp428
g62
(dp429
g70
I3
ssg71
g423
sg64
(lp430
S''
asbasbasbasbasbasbasbag57
(g73
g59
NtRp431
(dp432
g62
(dp433
sg71
g234
sg64
(lp434
g57
(g78
g59
NtRp435
(dp436
g62
(dp437
g82
g83
ssg71
g431
sg64
(lp438
S'session_id_admin'
p439
asbag57
(g78
g59
NtRp440
(dp441
g62
(dp442
g89
g90
ssg71
g431
sg64
(lp443
S':'
asbag57
(g78
g59
NtRp444
(dp445
g62
(dp446
sg71
g431
sg64
(lp447
g57
(g58
g59
NtRp448
(dp449
g62
(dp450
g70
I4
ssg71
g444
sg64
(lp451
g57
(g66
g59
NtRp452
(dp453
g62
(dp454
g70
I3
ssg71
Nsg64
(lp455
g57
(g73
g59
NtRp456
(dp457
g62
(dp458
sg71
g452
sg64
(lp459
g57
(g78
g59
NtRp460
(dp461
g62
(dp462
g82
g83
ssg71
g456
sg64
(lp463
g271
asbag57
(g78
g59
NtRp464
(dp465
g62
(dp466
g89
g90
ssg71
g456
sg64
(lp467
S':'
asbag57
(g78
g59
NtRp468
(dp469
g62
(dp470
sg71
g456
sg64
(lp471
g57
(g58
g59
NtRp472
(dp473
g62
(dp474
g70
I3
ssg71
g468
sg64
(lp475
S''
asbasbasbag57
(g73
g59
NtRp476
(dp477
g62
(dp478
sg71
g452
sg64
(lp479
g57
(g78
g59
NtRp480
(dp481
g62
(dp482
g82
g83
ssg71
g476
sg64
(lp483
g292
asbag57
(g78
g59
NtRp484
(dp485
g62
(dp486
g89
g90
ssg71
g476
sg64
(lp487
S':'
asbag57
(g78
g59
NtRp488
(dp489
g62
(dp490
sg71
g476
sg64
(lp491
g57
(g58
g59
NtRp492
(dp493
g62
(dp494
g70
I3
ssg71
g488
sg64
(lp495
S''
asbasbasbag57
(g73
g59
NtRp496
(dp497
g62
(dp498
sg71
g452
sg64
(lp499
g57
(g78
g59
NtRp500
(dp501
g62
(dp502
g82
g83
ssg71
g496
sg64
(lp503
g313
asbag57
(g78
g59
NtRp504
(dp505
g62
(dp506
g89
g90
ssg71
g496
sg64
(lp507
S':'
asbag57
(g78
g59
NtRp508
(dp509
g62
(dp510
sg71
g496
sg64
(lp511
g57
(g58
g59
NtRp512
(dp513
g62
(dp514
g70
I3
ssg71
g508
sg64
(lp515
S''
asbasbasbag57
(g73
g59
NtRp516
(dp517
g62
(dp518
sg71
g452
sg64
(lp519
g57
(g78
g59
NtRp520
(dp521
g62
(dp522
g82
g83
ssg71
g516
sg64
(lp523
g334
asbag57
(g78
g59
NtRp524
(dp525
g62
(dp526
g89
g90
ssg71
g516
sg64
(lp527
S':'
asbag57
(g78
g59
NtRp528
(dp529
g62
(dp530
sg71
g516
sg64
(lp531
g57
(g58
g59
NtRp532
(dp533
g62
(dp534
g70
I3
ssg71
g528
sg64
(lp535
S''
asbasbasbag57
(g73
g59
NtRp536
(dp537
g62
(dp538
sg71
g452
sg64
(lp539
g57
(g78
g59
NtRp540
(dp541
g62
(dp542
g82
g83
ssg71
g536
sg64
(lp543
g355
asbag57
(g78
g59
NtRp544
(dp545
g62
(dp546
g89
g90
ssg71
g536
sg64
(lp547
S':'
asbag57
(g78
g59
NtRp548
(dp549
g62
(dp550
sg71
g536
sg64
(lp551
g57
(g58
g59
NtRp552
(dp553
g62
(dp554
g70
I3
ssg71
g548
sg64
(lp555
S''
asbasbasbag57
(g73
g59
NtRp556
(dp557
g62
(dp558
sg71
g452
sg64
(lp559
g57
(g78
g59
NtRp560
(dp561
g62
(dp562
g82
g83
ssg71
g556
sg64
(lp563
g376
asbag57
(g78
g59
NtRp564
(dp565
g62
(dp566
g89
g90
ssg71
g556
sg64
(lp567
S':'
asbag57
(g78
g59
NtRp568
(dp569
g62
(dp570
sg71
g556
sg64
(lp571
g57
(g58
g59
NtRp572
(dp573
g62
(dp574
g70
I3
ssg71
g568
sg64
(lp575
S''
asbasbasbag57
(g73
g59
NtRp576
(dp577
g62
(dp578
sg71
g452
sg64
(lp579
g57
(g78
g59
NtRp580
(dp581
g62
(dp582
g82
g83
ssg71
g576
sg64
(lp583
g397
asbag57
(g78
g59
NtRp584
(dp585
g62
(dp586
g89
g90
ssg71
g576
sg64
(lp587
S':'
asbag57
(g78
g59
NtRp588
(dp589
g62
(dp590
sg71
g576
sg64
(lp591
g57
(g58
g59
NtRp592
(dp593
g62
(dp594
g70
I3
ssg71
g588
sg64
(lp595
S''
asbasbasbag57
(g73
g59
NtRp596
(dp597
g62
(dp598
sg71
g452
sg64
(lp599
g57
(g78
g59
NtRp600
(dp601
g62
(dp602
g82
g83
ssg71
g596
sg64
(lp603
g418
asbag57
(g78
g59
NtRp604
(dp605
g62
(dp606
g89
g90
ssg71
g596
sg64
(lp607
S':'
asbag57
(g78
g59
NtRp608
(dp609
g62
(dp610
sg71
g596
sg64
(lp611
g57
(g58
g59
NtRp612
(dp613
g62
(dp614
g70
I3
ssg71
g608
sg64
(lp615
S''
asbasbasbasbasbasbasbag57
(g73
g59
NtRp616
(dp617
g62
(dp618
sg71
g234
sg64
(lp619
g57
(g78
g59
NtRp620
(dp621
g62
(dp622
g82
g83
ssg71
g616
sg64
(lp623
S'session_id_themishrms'
p624
asbag57
(g78
g59
NtRp625
(dp626
g62
(dp627
g89
g90
ssg71
g616
sg64
(lp628
S':'
asbag57
(g78
g59
NtRp629
(dp630
g62
(dp631
sg71
g616
sg64
(lp632
g57
(g58
g59
NtRp633
(dp634
g62
(dp635
g70
I4
ssg71
g629
sg64
(lp636
g57
(g66
g59
NtRp637
(dp638
g62
(dp639
g70
I3
ssg71
Nsg64
(lp640
g57
(g73
g59
NtRp641
(dp642
g62
(dp643
sg71
g637
sg64
(lp644
g57
(g78
g59
NtRp645
(dp646
g62
(dp647
g82
g83
ssg71
g641
sg64
(lp648
g271
asbag57
(g78
g59
NtRp649
(dp650
g62
(dp651
g89
g90
ssg71
g641
sg64
(lp652
S':'
asbag57
(g78
g59
NtRp653
(dp654
g62
(dp655
sg71
g641
sg64
(lp656
g57
(g58
g59
NtRp657
(dp658
g62
(dp659
g70
I3
ssg71
g653
sg64
(lp660
S''
asbasbasbag57
(g73
g59
NtRp661
(dp662
g62
(dp663
sg71
g637
sg64
(lp664
g57
(g78
g59
NtRp665
(dp666
g62
(dp667
g82
g83
ssg71
g661
sg64
(lp668
g292
asbag57
(g78
g59
NtRp669
(dp670
g62
(dp671
g89
g90
ssg71
g661
sg64
(lp672
S':'
asbag57
(g78
g59
NtRp673
(dp674
g62
(dp675
sg71
g661
sg64
(lp676
g57
(g58
g59
NtRp677
(dp678
g62
(dp679
g70
I3
ssg71
g673
sg64
(lp680
S''
asbasbasbag57
(g73
g59
NtRp681
(dp682
g62
(dp683
sg71
g637
sg64
(lp684
g57
(g78
g59
NtRp685
(dp686
g62
(dp687
g82
g83
ssg71
g681
sg64
(lp688
g313
asbag57
(g78
g59
NtRp689
(dp690
g62
(dp691
g89
g90
ssg71
g681
sg64
(lp692
S':'
asbag57
(g78
g59
NtRp693
(dp694
g62
(dp695
sg71
g681
sg64
(lp696
g57
(g58
g59
NtRp697
(dp698
g62
(dp699
g70
I3
ssg71
g693
sg64
(lp700
S''
asbasbasbag57
(g73
g59
NtRp701
(dp702
g62
(dp703
sg71
g637
sg64
(lp704
g57
(g78
g59
NtRp705
(dp706
g62
(dp707
g82
g83
ssg71
g701
sg64
(lp708
g334
asbag57
(g78
g59
NtRp709
(dp710
g62
(dp711
g89
g90
ssg71
g701
sg64
(lp712
S':'
asbag57
(g78
g59
NtRp713
(dp714
g62
(dp715
sg71
g701
sg64
(lp716
g57
(g58
g59
NtRp717
(dp718
g62
(dp719
g70
I3
ssg71
g713
sg64
(lp720
S''
asbasbasbag57
(g73
g59
NtRp721
(dp722
g62
(dp723
sg71
g637
sg64
(lp724
g57
(g78
g59
NtRp725
(dp726
g62
(dp727
g82
g83
ssg71
g721
sg64
(lp728
g355
asbag57
(g78
g59
NtRp729
(dp730
g62
(dp731
g89
g90
ssg71
g721
sg64
(lp732
S':'
asbag57
(g78
g59
NtRp733
(dp734
g62
(dp735
sg71
g721
sg64
(lp736
g57
(g58
g59
NtRp737
(dp738
g62
(dp739
g70
I3
ssg71
g733
sg64
(lp740
S''
asbasbasbag57
(g73
g59
NtRp741
(dp742
g62
(dp743
sg71
g637
sg64
(lp744
g57
(g78
g59
NtRp745
(dp746
g62
(dp747
g82
g83
ssg71
g741
sg64
(lp748
g376
asbag57
(g78
g59
NtRp749
(dp750
g62
(dp751
g89
g90
ssg71
g741
sg64
(lp752
S':'
asbag57
(g78
g59
NtRp753
(dp754
g62
(dp755
sg71
g741
sg64
(lp756
g57
(g58
g59
NtRp757
(dp758
g62
(dp759
g70
I3
ssg71
g753
sg64
(lp760
S''
asbasbasbag57
(g73
g59
NtRp761
(dp762
g62
(dp763
sg71
g637
sg64
(lp764
g57
(g78
g59
NtRp765
(dp766
g62
(dp767
g82
g83
ssg71
g761
sg64
(lp768
g397
asbag57
(g78
g59
NtRp769
(dp770
g62
(dp771
g89
g90
ssg71
g761
sg64
(lp772
S':'
asbag57
(g78
g59
NtRp773
(dp774
g62
(dp775
sg71
g761
sg64
(lp776
g57
(g58
g59
NtRp777
(dp778
g62
(dp779
g70
I3
ssg71
g773
sg64
(lp780
S''
asbasbasbag57
(g73
g59
NtRp781
(dp782
g62
(dp783
sg71
g637
sg64
(lp784
g57
(g78
g59
NtRp785
(dp786
g62
(dp787
g82
g83
ssg71
g781
sg64
(lp788
g418
asbag57
(g78
g59
NtRp789
(dp790
g62
(dp791
g89
g90
ssg71
g781
sg64
(lp792
S':'
asbag57
(g78
g59
NtRp793
(dp794
g62
(dp795
sg71
g781
sg64
(lp796
g57
(g58
g59
NtRp797
(dp798
g62
(dp799
g70
I3
ssg71
g793
sg64
(lp800
S''
asbasbasbasbasbasbasbag57
(g73
g59
NtRp801
(dp802
g62
(dp803
sg71
g234
sg64
(lp804
g57
(g78
g59
NtRp805
(dp806
g62
(dp807
g82
g83
ssg71
g801
sg64
(lp808
S'session_id_welcome'
p809
asbag57
(g78
g59
NtRp810
(dp811
g62
(dp812
g89
g90
ssg71
g801
sg64
(lp813
S':'
asbag57
(g78
g59
NtRp814
(dp815
g62
(dp816
sg71
g801
sg64
(lp817
g57
(g58
g59
NtRp818
(dp819
g62
(dp820
g70
I4
ssg71
g814
sg64
(lp821
g57
(g66
g59
NtRp822
(dp823
g62
(dp824
g70
I3
ssg71
Nsg64
(lp825
g57
(g73
g59
NtRp826
(dp827
g62
(dp828
sg71
g822
sg64
(lp829
g57
(g78
g59
NtRp830
(dp831
g62
(dp832
g82
g83
ssg71
g826
sg64
(lp833
g271
asbag57
(g78
g59
NtRp834
(dp835
g62
(dp836
g89
g90
ssg71
g826
sg64
(lp837
S':'
asbag57
(g78
g59
NtRp838
(dp839
g62
(dp840
sg71
g826
sg64
(lp841
g57
(g58
g59
NtRp842
(dp843
g62
(dp844
g70
I3
ssg71
g838
sg64
(lp845
S''
asbasbasbag57
(g73
g59
NtRp846
(dp847
g62
(dp848
sg71
g822
sg64
(lp849
g57
(g78
g59
NtRp850
(dp851
g62
(dp852
g82
g83
ssg71
g846
sg64
(lp853
g292
asbag57
(g78
g59
NtRp854
(dp855
g62
(dp856
g89
g90
ssg71
g846
sg64
(lp857
S':'
asbag57
(g78
g59
NtRp858
(dp859
g62
(dp860
sg71
g846
sg64
(lp861
g57
(g58
g59
NtRp862
(dp863
g62
(dp864
g70
I3
ssg71
g858
sg64
(lp865
S''
asbasbasbag57
(g73
g59
NtRp866
(dp867
g62
(dp868
sg71
g822
sg64
(lp869
g57
(g78
g59
NtRp870
(dp871
g62
(dp872
g82
g83
ssg71
g866
sg64
(lp873
g313
asbag57
(g78
g59
NtRp874
(dp875
g62
(dp876
g89
g90
ssg71
g866
sg64
(lp877
S':'
asbag57
(g78
g59
NtRp878
(dp879
g62
(dp880
sg71
g866
sg64
(lp881
g57
(g58
g59
NtRp882
(dp883
g62
(dp884
g70
I3
ssg71
g878
sg64
(lp885
S''
asbasbasbag57
(g73
g59
NtRp886
(dp887
g62
(dp888
sg71
g822
sg64
(lp889
g57
(g78
g59
NtRp890
(dp891
g62
(dp892
g82
g83
ssg71
g886
sg64
(lp893
g334
asbag57
(g78
g59
NtRp894
(dp895
g62
(dp896
g89
g90
ssg71
g886
sg64
(lp897
S':'
asbag57
(g78
g59
NtRp898
(dp899
g62
(dp900
sg71
g886
sg64
(lp901
g57
(g58
g59
NtRp902
(dp903
g62
(dp904
g70
I3
ssg71
g898
sg64
(lp905
S''
asbasbasbag57
(g73
g59
NtRp906
(dp907
g62
(dp908
sg71
g822
sg64
(lp909
g57
(g78
g59
NtRp910
(dp911
g62
(dp912
g82
g83
ssg71
g906
sg64
(lp913
g355
asbag57
(g78
g59
NtRp914
(dp915
g62
(dp916
g89
g90
ssg71
g906
sg64
(lp917
S':'
asbag57
(g78
g59
NtRp918
(dp919
g62
(dp920
sg71
g906
sg64
(lp921
g57
(g58
g59
NtRp922
(dp923
g62
(dp924
g70
I3
ssg71
g918
sg64
(lp925
S''
asbasbasbag57
(g73
g59
NtRp926
(dp927
g62
(dp928
sg71
g822
sg64
(lp929
g57
(g78
g59
NtRp930
(dp931
g62
(dp932
g82
g83
ssg71
g926
sg64
(lp933
g376
asbag57
(g78
g59
NtRp934
(dp935
g62
(dp936
g89
g90
ssg71
g926
sg64
(lp937
S':'
asbag57
(g78
g59
NtRp938
(dp939
g62
(dp940
sg71
g926
sg64
(lp941
g57
(g58
g59
NtRp942
(dp943
g62
(dp944
g70
I3
ssg71
g938
sg64
(lp945
S''
asbasbasbag57
(g73
g59
NtRp946
(dp947
g62
(dp948
sg71
g822
sg64
(lp949
g57
(g78
g59
NtRp950
(dp951
g62
(dp952
g82
g83
ssg71
g946
sg64
(lp953
g397
asbag57
(g78
g59
NtRp954
(dp955
g62
(dp956
g89
g90
ssg71
g946
sg64
(lp957
S':'
asbag57
(g78
g59
NtRp958
(dp959
g62
(dp960
sg71
g946
sg64
(lp961
g57
(g58
g59
NtRp962
(dp963
g62
(dp964
g70
I3
ssg71
g958
sg64
(lp965
S''
asbasbasbag57
(g73
g59
NtRp966
(dp967
g62
(dp968
sg71
g822
sg64
(lp969
g57
(g78
g59
NtRp970
(dp971
g62
(dp972
g82
g83
ssg71
g966
sg64
(lp973
g418
asbag57
(g78
g59
NtRp974
(dp975
g62
(dp976
g89
g90
ssg71
g966
sg64
(lp977
S':'
asbag57
(g78
g59
NtRp978
(dp979
g62
(dp980
sg71
g966
sg64
(lp981
g57
(g58
g59
NtRp982
(dp983
g62
(dp984
g70
I3
ssg71
g978
sg64
(lp985
S''
asbasbasbasbasbasbasbag57
(g73
g59
NtRp986
(dp987
g62
(dp988
sg71
g234
sg64
(lp989
g57
(g78
g59
NtRp990
(dp991
g62
(dp992
g82
g83
ssg71
g986
sg64
(lp993
S'tls'
p994
asbag57
(g78
g59
NtRp995
(dp996
g62
(dp997
g89
g90
ssg71
g986
sg64
(lp998
S':'
asbag57
(g78
g59
NtRp999
(dp1000
g62
(dp1001
sg71
g986
sg64
(lp1002
g57
(g58
g59
NtRp1003
(dp1004
g62
(dp1005
g70
I4
ssg71
g999
sg64
(lp1006
g57
(g66
g59
NtRp1007
(dp1008
g62
(dp1009
g70
I3
ssg71
Nsg64
(lp1010
g57
(g73
g59
NtRp1011
(dp1012
g62
(dp1013
sg71
g1007
sg64
(lp1014
g57
(g78
g59
NtRp1015
(dp1016
g62
(dp1017
g82
g83
ssg71
g1011
sg64
(lp1018
g271
asbag57
(g78
g59
NtRp1019
(dp1020
g62
(dp1021
g89
g90
ssg71
g1011
sg64
(lp1022
S':'
asbag57
(g78
g59
NtRp1023
(dp1024
g62
(dp1025
sg71
g1011
sg64
(lp1026
g57
(g58
g59
NtRp1027
(dp1028
g62
(dp1029
g70
I3
ssg71
g1023
sg64
(lp1030
S''
asbasbasbag57
(g73
g59
NtRp1031
(dp1032
g62
(dp1033
sg71
g1007
sg64
(lp1034
g57
(g78
g59
NtRp1035
(dp1036
g62
(dp1037
g82
g83
ssg71
g1031
sg64
(lp1038
g292
asbag57
(g78
g59
NtRp1039
(dp1040
g62
(dp1041
g89
g90
ssg71
g1031
sg64
(lp1042
S':'
asbag57
(g78
g59
NtRp1043
(dp1044
g62
(dp1045
sg71
g1031
sg64
(lp1046
g57
(g58
g59
NtRp1047
(dp1048
g62
(dp1049
g70
I3
ssg71
g1043
sg64
(lp1050
S''
asbasbasbag57
(g73
g59
NtRp1051
(dp1052
g62
(dp1053
sg71
g1007
sg64
(lp1054
g57
(g78
g59
NtRp1055
(dp1056
g62
(dp1057
g82
g83
ssg71
g1051
sg64
(lp1058
g313
asbag57
(g78
g59
NtRp1059
(dp1060
g62
(dp1061
g89
g90
ssg71
g1051
sg64
(lp1062
S':'
asbag57
(g78
g59
NtRp1063
(dp1064
g62
(dp1065
sg71
g1051
sg64
(lp1066
g57
(g58
g59
NtRp1067
(dp1068
g62
(dp1069
g70
I3
ssg71
g1063
sg64
(lp1070
S''
asbasbasbag57
(g73
g59
NtRp1071
(dp1072
g62
(dp1073
sg71
g1007
sg64
(lp1074
g57
(g78
g59
NtRp1075
(dp1076
g62
(dp1077
g82
g83
ssg71
g1071
sg64
(lp1078
g334
asbag57
(g78
g59
NtRp1079
(dp1080
g62
(dp1081
g89
g90
ssg71
g1071
sg64
(lp1082
S':'
asbag57
(g78
g59
NtRp1083
(dp1084
g62
(dp1085
sg71
g1071
sg64
(lp1086
g57
(g58
g59
NtRp1087
(dp1088
g62
(dp1089
g70
I3
ssg71
g1083
sg64
(lp1090
S''
asbasbasbag57
(g73
g59
NtRp1091
(dp1092
g62
(dp1093
sg71
g1007
sg64
(lp1094
g57
(g78
g59
NtRp1095
(dp1096
g62
(dp1097
g82
g83
ssg71
g1091
sg64
(lp1098
g355
asbag57
(g78
g59
NtRp1099
(dp1100
g62
(dp1101
g89
g90
ssg71
g1091
sg64
(lp1102
S':'
asbag57
(g78
g59
NtRp1103
(dp1104
g62
(dp1105
sg71
g1091
sg64
(lp1106
g57
(g58
g59
NtRp1107
(dp1108
g62
(dp1109
g70
I3
ssg71
g1103
sg64
(lp1110
S''
asbasbasbag57
(g73
g59
NtRp1111
(dp1112
g62
(dp1113
sg71
g1007
sg64
(lp1114
g57
(g78
g59
NtRp1115
(dp1116
g62
(dp1117
g82
g83
ssg71
g1111
sg64
(lp1118
g376
asbag57
(g78
g59
NtRp1119
(dp1120
g62
(dp1121
g89
g90
ssg71
g1111
sg64
(lp1122
S':'
asbag57
(g78
g59
NtRp1123
(dp1124
g62
(dp1125
sg71
g1111
sg64
(lp1126
g57
(g58
g59
NtRp1127
(dp1128
g62
(dp1129
g70
I3
ssg71
g1123
sg64
(lp1130
S''
asbasbasbag57
(g73
g59
NtRp1131
(dp1132
g62
(dp1133
sg71
g1007
sg64
(lp1134
g57
(g78
g59
NtRp1135
(dp1136
g62
(dp1137
g82
g83
ssg71
g1131
sg64
(lp1138
g397
asbag57
(g78
g59
NtRp1139
(dp1140
g62
(dp1141
g89
g90
ssg71
g1131
sg64
(lp1142
S':'
asbag57
(g78
g59
NtRp1143
(dp1144
g62
(dp1145
sg71
g1131
sg64
(lp1146
g57
(g58
g59
NtRp1147
(dp1148
g62
(dp1149
g70
I3
ssg71
g1143
sg64
(lp1150
S''
asbasbasbag57
(g73
g59
NtRp1151
(dp1152
g62
(dp1153
sg71
g1007
sg64
(lp1154
g57
(g78
g59
NtRp1155
(dp1156
g62
(dp1157
g82
g83
ssg71
g1151
sg64
(lp1158
g418
asbag57
(g78
g59
NtRp1159
(dp1160
g62
(dp1161
g89
g90
ssg71
g1151
sg64
(lp1162
S':'
asbag57
(g78
g59
NtRp1163
(dp1164
g62
(dp1165
sg71
g1151
sg64
(lp1166
g57
(g58
g59
NtRp1167
(dp1168
g62
(dp1169
g70
I3
ssg71
g1163
sg64
(lp1170
S''
asbasbasbasbasbasbasbasbasbasbasbag57
(g73
g59
NtRp1171
(dp1172
g62
(dp1173
sg71
g67
sg64
(lp1174
g57
(g78
g59
NtRp1175
(dp1176
g62
(dp1177
g82
g83
ssg71
g1171
sg64
(lp1178
S'env'
p1179
asbag57
(g78
g59
NtRp1180
(dp1181
g62
(dp1182
g89
g90
ssg71
g1171
sg64
(lp1183
S':'
asbag57
(g78
g59
NtRp1184
(dp1185
g62
(dp1186
sg71
g1171
sg64
(lp1187
g57
(g58
g59
NtRp1188
(dp1189
g62
(dp1190
g70
I5
ssg71
g1184
sg64
(lp1191
g57
(g66
g59
NtRp1192
(dp1193
g62
(dp1194
g70
I4
ssg71
Nsg64
(lp1195
g57
(g73
g59
NtRp1196
(dp1197
g62
(dp1198
sg71
g1192
sg64
(lp1199
g57
(g78
g59
NtRp1200
(dp1201
g62
(dp1202
g82
g83
ssg71
g1196
sg64
(lp1203
S'app_folders'
p1204
asbag57
(g78
g59
NtRp1205
(dp1206
g62
(dp1207
g89
g90
ssg71
g1196
sg64
(lp1208
S':'
asbag57
(g78
g59
NtRp1209
(dp1210
g62
(dp1211
sg71
g1196
sg64
(lp1212
g57
(g58
g59
NtRp1213
(dp1214
g62
(dp1215
g70
I4
ssg71
g1209
sg64
(lp1216
S"set(['/home/sanjeet/Desktop/install/Development/web2py/applications/welcome/', '/home/sanjeet/Desktop/install/Development/web2py/applications/admin/', '/home/sanjeet/Desktop/install/Development/web2py/applications/themishrms/'])"
p1217
asbasbasbag57
(g73
g59
NtRp1218
(dp1219
g62
(dp1220
sg71
g1192
sg64
(lp1221
g57
(g78
g59
NtRp1222
(dp1223
g62
(dp1224
g82
g83
ssg71
g1218
sg64
(lp1225
S'applications_parent'
p1226
asbag57
(g78
g59
NtRp1227
(dp1228
g62
(dp1229
g89
g90
ssg71
g1218
sg64
(lp1230
S':'
asbag57
(g78
g59
NtRp1231
(dp1232
g62
(dp1233
sg71
g1218
sg64
(lp1234
g57
(g58
g59
NtRp1235
(dp1236
g62
(dp1237
g70
I4
ssg71
g1231
sg64
(lp1238
S'/home/sanjeet/Desktop/install/Development/web2py'
p1239
asbasbasbag57
(g73
g59
NtRp1240
(dp1241
g62
(dp1242
sg71
g1192
sg64
(lp1243
g57
(g78
g59
NtRp1244
(dp1245
g62
(dp1246
g82
g83
ssg71
g1240
sg64
(lp1247
S'cmd_args'
p1248
asbag57
(g78
g59
NtRp1249
(dp1250
g62
(dp1251
g89
g90
ssg71
g1240
sg64
(lp1252
S':'
asbag57
(g78
g59
NtRp1253
(dp1254
g62
(dp1255
sg71
g1240
sg64
(lp1256
g57
(g58
g59
NtRp1257
(dp1258
g62
(dp1259
g70
I4
ssg71
g1253
sg64
(lp1260
g57
(g66
g59
NtRp1261
(dp1262
g62
(dp1263
g70
I3
ssg71
Nsg64
(lp1264
sbasbasbasbag57
(g73
g59
NtRp1265
(dp1266
g62
(dp1267
sg71
g1192
sg64
(lp1268
g57
(g78
g59
NtRp1269
(dp1270
g62
(dp1271
g82
g83
ssg71
g1265
sg64
(lp1272
S'cmd_options'
p1273
asbag57
(g78
g59
NtRp1274
(dp1275
g62
(dp1276
g89
g90
ssg71
g1265
sg64
(lp1277
S':'
asbag57
(g78
g59
NtRp1278
(dp1279
g62
(dp1280
sg71
g1265
sg64
(lp1281
g57
(g58
g59
NtRp1282
(dp1283
g62
(dp1284
g70
I4
ssg71
g1278
sg64
(lp1285
S"<Values at 0x8d5f68c: {'verbose': False, 'ip': '127.0.0.1', 'shutdown_timeout': 5, 'taskbar': False, 'nocron': False, 'pid_filename': 'httpserver.pid', 'maxthreads': None, 'softcron': False, 'server_name': 'sanjeet-laptop', 'bpython': False, 'nogui': False, 'port': 8000, 'extcron': False, 'debuglevel': 30, 'test': None, 'folder': '/home/sanjeet/Desktop/install/Development/web2py', 'config': '', 'import_models': False, 'winservice': '', 'shell': None, 'run': '', 'log_filename': 'httpserver.log', 'args': [''], 'socket_timeout': 5, 'ssl_ca_certificate': None, 'scheduler': None, 'profiler_filename': None, 'ssl_private_key': '', 'password': 'a', 'request_queue_size': 5, 'ssl_certificate': '', 'cronjob': False, 'numthreads': None, 'quiet': False, 'interfaces': None, 'minthreads': None, 'timeout': 10, 'plain': False, 'nobanner': False}>"
p1286
asbasbasbag57
(g73
g59
NtRp1287
(dp1288
g62
(dp1289
sg71
g1192
sg64
(lp1290
g57
(g78
g59
NtRp1291
(dp1292
g62
(dp1293
g82
g83
ssg71
g1287
sg64
(lp1294
S'content_length'
p1295
asbag57
(g78
g59
NtRp1296
(dp1297
g62
(dp1298
g89
g90
ssg71
g1287
sg64
(lp1299
S':'
asbag57
(g78
g59
NtRp1300
(dp1301
g62
(dp1302
sg71
g1287
sg64
(lp1303
g57
(g58
g59
NtRp1304
(dp1305
g62
(dp1306
g70
I4
ssg71
g1300
sg64
(lp1307
S'10'
p1308
asbasbasbag57
(g73
g59
NtRp1309
(dp1310
g62
(dp1311
sg71
g1192
sg64
(lp1312
g57
(g78
g59
NtRp1313
(dp1314
g62
(dp1315
g82
g83
ssg71
g1309
sg64
(lp1316
S'content_type'
p1317
asbag57
(g78
g59
NtRp1318
(dp1319
g62
(dp1320
g89
g90
ssg71
g1309
sg64
(lp1321
S':'
asbag57
(g78
g59
NtRp1322
(dp1323
g62
(dp1324
sg71
g1309
sg64
(lp1325
g57
(g58
g59
NtRp1326
(dp1327
g62
(dp1328
g70
I4
ssg71
g1322
sg64
(lp1329
S'application/x-www-form-urlencoded'
p1330
asbasbasbag57
(g73
g59
NtRp1331
(dp1332
g62
(dp1333
sg71
g1192
sg64
(lp1334
g57
(g78
g59
NtRp1335
(dp1336
g62
(dp1337
g82
g83
ssg71
g1331
sg64
(lp1338
S'db_sessions'
p1339
asbag57
(g78
g59
NtRp1340
(dp1341
g62
(dp1342
g89
g90
ssg71
g1331
sg64
(lp1343
S':'
asbag57
(g78
g59
NtRp1344
(dp1345
g62
(dp1346
sg71
g1331
sg64
(lp1347
g57
(g58
g59
NtRp1348
(dp1349
g62
(dp1350
g70
I4
ssg71
g1344
sg64
(lp1351
S'set([])'
p1352
asbasbasbag57
(g73
g59
NtRp1353
(dp1354
g62
(dp1355
sg71
g1192
sg64
(lp1356
g57
(g78
g59
NtRp1357
(dp1358
g62
(dp1359
g82
g83
ssg71
g1353
sg64
(lp1360
S'debugging'
p1361
asbag57
(g78
g59
NtRp1362
(dp1363
g62
(dp1364
g89
g90
ssg71
g1353
sg64
(lp1365
S':'
asbag57
(g78
g59
NtRp1366
(dp1367
g62
(dp1368
sg71
g1353
sg64
(lp1369
g57
(g58
g59
NtRp1370
(dp1371
g62
(dp1372
g70
I4
ssg71
g1366
sg64
(lp1373
S'False'
p1374
asbasbasbag57
(g73
g59
NtRp1375
(dp1376
g62
(dp1377
sg71
g1192
sg64
(lp1378
g57
(g78
g59
NtRp1379
(dp1380
g62
(dp1381
g82
g83
ssg71
g1375
sg64
(lp1382
S'gluon_parent'
p1383
asbag57
(g78
g59
NtRp1384
(dp1385
g62
(dp1386
g89
g90
ssg71
g1375
sg64
(lp1387
S':'
asbag57
(g78
g59
NtRp1388
(dp1389
g62
(dp1390
sg71
g1375
sg64
(lp1391
g57
(g58
g59
NtRp1392
(dp1393
g62
(dp1394
g70
I4
ssg71
g1388
sg64
(lp1395
S'/home/sanjeet/Desktop/install/Development/web2py'
p1396
asbasbasbag57
(g73
g59
NtRp1397
(dp1398
g62
(dp1399
sg71
g1192
sg64
(lp1400
g57
(g78
g59
NtRp1401
(dp1402
g62
(dp1403
g82
g83
ssg71
g1397
sg64
(lp1404
S'http_accept'
p1405
asbag57
(g78
g59
NtRp1406
(dp1407
g62
(dp1408
g89
g90
ssg71
g1397
sg64
(lp1409
S':'
asbag57
(g78
g59
NtRp1410
(dp1411
g62
(dp1412
sg71
g1397
sg64
(lp1413
g57
(g58
g59
NtRp1414
(dp1415
g62
(dp1416
g70
I4
ssg71
g1410
sg64
(lp1417
S'*/*'
p1418
asbasbasbag57
(g73
g59
NtRp1419
(dp1420
g62
(dp1421
sg71
g1192
sg64
(lp1422
g57
(g78
g59
NtRp1423
(dp1424
g62
(dp1425
g82
g83
ssg71
g1419
sg64
(lp1426
S'http_accept_charset'
p1427
asbag57
(g78
g59
NtRp1428
(dp1429
g62
(dp1430
g89
g90
ssg71
g1419
sg64
(lp1431
S':'
asbag57
(g78
g59
NtRp1432
(dp1433
g62
(dp1434
sg71
g1419
sg64
(lp1435
g57
(g58
g59
NtRp1436
(dp1437
g62
(dp1438
g70
I4
ssg71
g1432
sg64
(lp1439
S'ISO-8859-1,utf-8;q=0.7,*;q=0.3'
p1440
asbasbasbag57
(g73
g59
NtRp1441
(dp1442
g62
(dp1443
sg71
g1192
sg64
(lp1444
g57
(g78
g59
NtRp1445
(dp1446
g62
(dp1447
g82
g83
ssg71
g1441
sg64
(lp1448
S'http_accept_encoding'
p1449
asbag57
(g78
g59
NtRp1450
(dp1451
g62
(dp1452
g89
g90
ssg71
g1441
sg64
(lp1453
S':'
asbag57
(g78
g59
NtRp1454
(dp1455
g62
(dp1456
sg71
g1441
sg64
(lp1457
g57
(g58
g59
NtRp1458
(dp1459
g62
(dp1460
g70
I4
ssg71
g1454
sg64
(lp1461
S'gzip,deflate,sdch'
p1462
asbasbasbag57
(g73
g59
NtRp1463
(dp1464
g62
(dp1465
sg71
g1192
sg64
(lp1466
g57
(g78
g59
NtRp1467
(dp1468
g62
(dp1469
g82
g83
ssg71
g1463
sg64
(lp1470
S'http_accept_language'
p1471
asbag57
(g78
g59
NtRp1472
(dp1473
g62
(dp1474
g89
g90
ssg71
g1463
sg64
(lp1475
S':'
asbag57
(g78
g59
NtRp1476
(dp1477
g62
(dp1478
sg71
g1463
sg64
(lp1479
g57
(g58
g59
NtRp1480
(dp1481
g62
(dp1482
g70
I4
ssg71
g1476
sg64
(lp1483
S'en-US,en;q=0.8'
p1484
asbasbasbag57
(g73
g59
NtRp1485
(dp1486
g62
(dp1487
sg71
g1192
sg64
(lp1488
g57
(g78
g59
NtRp1489
(dp1490
g62
(dp1491
g82
g83
ssg71
g1485
sg64
(lp1492
S'http_connection'
p1493
asbag57
(g78
g59
NtRp1494
(dp1495
g62
(dp1496
g89
g90
ssg71
g1485
sg64
(lp1497
S':'
asbag57
(g78
g59
NtRp1498
(dp1499
g62
(dp1500
sg71
g1485
sg64
(lp1501
g57
(g58
g59
NtRp1502
(dp1503
g62
(dp1504
g70
I4
ssg71
g1498
sg64
(lp1505
S'keep-alive'
p1506
asbasbasbag57
(g73
g59
NtRp1507
(dp1508
g62
(dp1509
sg71
g1192
sg64
(lp1510
g57
(g78
g59
NtRp1511
(dp1512
g62
(dp1513
g82
g83
ssg71
g1507
sg64
(lp1514
S'http_content_length'
p1515
asbag57
(g78
g59
NtRp1516
(dp1517
g62
(dp1518
g89
g90
ssg71
g1507
sg64
(lp1519
S':'
asbag57
(g78
g59
NtRp1520
(dp1521
g62
(dp1522
sg71
g1507
sg64
(lp1523
g57
(g58
g59
NtRp1524
(dp1525
g62
(dp1526
g70
I4
ssg71
g1520
sg64
(lp1527
g1308
asbasbasbag57
(g73
g59
NtRp1528
(dp1529
g62
(dp1530
sg71
g1192
sg64
(lp1531
g57
(g78
g59
NtRp1532
(dp1533
g62
(dp1534
g82
g83
ssg71
g1528
sg64
(lp1535
S'http_content_type'
p1536
asbag57
(g78
g59
NtRp1537
(dp1538
g62
(dp1539
g89
g90
ssg71
g1528
sg64
(lp1540
S':'
asbag57
(g78
g59
NtRp1541
(dp1542
g62
(dp1543
sg71
g1528
sg64
(lp1544
g57
(g58
g59
NtRp1545
(dp1546
g62
(dp1547
g70
I4
ssg71
g1541
sg64
(lp1548
g1330
asbasbasbag57
(g73
g59
NtRp1549
(dp1550
g62
(dp1551
sg71
g1192
sg64
(lp1552
g57
(g78
g59
NtRp1553
(dp1554
g62
(dp1555
g82
g83
ssg71
g1549
sg64
(lp1556
S'http_cookie'
p1557
asbag57
(g78
g59
NtRp1558
(dp1559
g62
(dp1560
g89
g90
ssg71
g1549
sg64
(lp1561
S':'
asbag57
(g78
g59
NtRp1562
(dp1563
g62
(dp1564
sg71
g1549
sg64
(lp1565
g57
(g58
g59
NtRp1566
(dp1567
g62
(dp1568
g70
I4
ssg71
g1562
sg64
(lp1569
S'session_id_welcome=127.0.0.1-e0750298-c47b-4ad3-8fa1-bd643fa5a28f; session_id_admin=127.0.0.1-75e4db98-aa79-4a05-8648-34391db54a18; mypanel=up; tls=up; session_id_themishrms=127.0.0.1-ab7548bb-7c14-4e12-bc1a-6d3bf39e3288'
p1570
asbasbasbag57
(g73
g59
NtRp1571
(dp1572
g62
(dp1573
sg71
g1192
sg64
(lp1574
g57
(g78
g59
NtRp1575
(dp1576
g62
(dp1577
g82
g83
ssg71
g1571
sg64
(lp1578
S'http_host'
p1579
asbag57
(g78
g59
NtRp1580
(dp1581
g62
(dp1582
g89
g90
ssg71
g1571
sg64
(lp1583
S':'
asbag57
(g78
g59
NtRp1584
(dp1585
g62
(dp1586
sg71
g1571
sg64
(lp1587
g57
(g58
g59
NtRp1588
(dp1589
g62
(dp1590
g70
I4
ssg71
g1584
sg64
(lp1591
S'127.0.0.1:8000'
p1592
asbasbasbag57
(g73
g59
NtRp1593
(dp1594
g62
(dp1595
sg71
g1192
sg64
(lp1596
g57
(g78
g59
NtRp1597
(dp1598
g62
(dp1599
g82
g83
ssg71
g1593
sg64
(lp1600
S'http_origin'
p1601
asbag57
(g78
g59
NtRp1602
(dp1603
g62
(dp1604
g89
g90
ssg71
g1593
sg64
(lp1605
S':'
asbag57
(g78
g59
NtRp1606
(dp1607
g62
(dp1608
sg71
g1593
sg64
(lp1609
g57
(g58
g59
NtRp1610
(dp1611
g62
(dp1612
g70
I4
ssg71
g1606
sg64
(lp1613
S'http://127.0.0.1:8000'
p1614
asbasbasbag57
(g73
g59
NtRp1615
(dp1616
g62
(dp1617
sg71
g1192
sg64
(lp1618
g57
(g78
g59
NtRp1619
(dp1620
g62
(dp1621
g82
g83
ssg71
g1615
sg64
(lp1622
S'http_referer'
p1623
asbag57
(g78
g59
NtRp1624
(dp1625
g62
(dp1626
g89
g90
ssg71
g1615
sg64
(lp1627
S':'
asbag57
(g78
g59
NtRp1628
(dp1629
g62
(dp1630
sg71
g1615
sg64
(lp1631
g57
(g58
g59
NtRp1632
(dp1633
g62
(dp1634
g70
I4
ssg71
g1628
sg64
(lp1635
S'http://127.0.0.1:8000/themishrms/default/admin_assign_project'
p1636
asbasbasbag57
(g73
g59
NtRp1637
(dp1638
g62
(dp1639
sg71
g1192
sg64
(lp1640
g57
(g78
g59
NtRp1641
(dp1642
g62
(dp1643
g82
g83
ssg71
g1637
sg64
(lp1644
S'http_user_agent'
p1645
asbag57
(g78
g59
NtRp1646
(dp1647
g62
(dp1648
g89
g90
ssg71
g1637
sg64
(lp1649
S':'
asbag57
(g78
g59
NtRp1650
(dp1651
g62
(dp1652
sg71
g1637
sg64
(lp1653
g57
(g58
g59
NtRp1654
(dp1655
g62
(dp1656
g70
I4
ssg71
g1650
sg64
(lp1657
S'Mozilla/5.0 (X11; Linux i686) AppleWebKit/535.19 (KHTML, like Gecko) Chrome/18.0.1025.168 Safari/535.19'
p1658
asbasbasbag57
(g73
g59
NtRp1659
(dp1660
g62
(dp1661
sg71
g1192
sg64
(lp1662
g57
(g78
g59
NtRp1663
(dp1664
g62
(dp1665
g82
g83
ssg71
g1659
sg64
(lp1666
S'http_x_requested_with'
p1667
asbag57
(g78
g59
NtRp1668
(dp1669
g62
(dp1670
g89
g90
ssg71
g1659
sg64
(lp1671
S':'
asbag57
(g78
g59
NtRp1672
(dp1673
g62
(dp1674
sg71
g1659
sg64
(lp1675
g57
(g58
g59
NtRp1676
(dp1677
g62
(dp1678
g70
I4
ssg71
g1672
sg64
(lp1679
S'XMLHttpRequest'
p1680
asbasbasbag57
(g73
g59
NtRp1681
(dp1682
g62
(dp1683
sg71
g1192
sg64
(lp1684
g57
(g78
g59
NtRp1685
(dp1686
g62
(dp1687
g82
g83
ssg71
g1681
sg64
(lp1688
S'is_jython'
p1689
asbag57
(g78
g59
NtRp1690
(dp1691
g62
(dp1692
g89
g90
ssg71
g1681
sg64
(lp1693
S':'
asbag57
(g78
g59
NtRp1694
(dp1695
g62
(dp1696
sg71
g1681
sg64
(lp1697
g57
(g58
g59
NtRp1698
(dp1699
g62
(dp1700
g70
I4
ssg71
g1694
sg64
(lp1701
g1374
asbasbasbag57
(g73
g59
NtRp1702
(dp1703
g62
(dp1704
sg71
g1192
sg64
(lp1705
g57
(g78
g59
NtRp1706
(dp1707
g62
(dp1708
g82
g83
ssg71
g1702
sg64
(lp1709
S'is_pypy'
p1710
asbag57
(g78
g59
NtRp1711
(dp1712
g62
(dp1713
g89
g90
ssg71
g1702
sg64
(lp1714
S':'
asbag57
(g78
g59
NtRp1715
(dp1716
g62
(dp1717
sg71
g1702
sg64
(lp1718
g57
(g58
g59
NtRp1719
(dp1720
g62
(dp1721
g70
I4
ssg71
g1715
sg64
(lp1722
g1374
asbasbasbag57
(g73
g59
NtRp1723
(dp1724
g62
(dp1725
sg71
g1192
sg64
(lp1726
g57
(g78
g59
NtRp1727
(dp1728
g62
(dp1729
g82
g83
ssg71
g1723
sg64
(lp1730
S'path_info'
p1731
asbag57
(g78
g59
NtRp1732
(dp1733
g62
(dp1734
g89
g90
ssg71
g1723
sg64
(lp1735
S':'
asbag57
(g78
g59
NtRp1736
(dp1737
g62
(dp1738
sg71
g1723
sg64
(lp1739
g57
(g58
g59
NtRp1740
(dp1741
g62
(dp1742
g70
I4
ssg71
g1736
sg64
(lp1743
S'/themishrms/default/admin_orz'
p1744
asbasbasbag57
(g73
g59
NtRp1745
(dp1746
g62
(dp1747
sg71
g1192
sg64
(lp1748
g57
(g78
g59
NtRp1749
(dp1750
g62
(dp1751
g82
g83
ssg71
g1745
sg64
(lp1752
S'query_string'
p1753
asbag57
(g78
g59
NtRp1754
(dp1755
g62
(dp1756
g89
g90
ssg71
g1745
sg64
(lp1757
S':'
asbag57
(g78
g59
NtRp1758
(dp1759
g62
(dp1760
sg71
g1745
sg64
(lp1761
g57
(g58
g59
NtRp1762
(dp1763
g62
(dp1764
g70
I4
ssg71
g1758
sg64
(lp1765
S''
asbasbasbag57
(g73
g59
NtRp1766
(dp1767
g62
(dp1768
sg71
g1192
sg64
(lp1769
g57
(g78
g59
NtRp1770
(dp1771
g62
(dp1772
g82
g83
ssg71
g1766
sg64
(lp1773
S'remote_addr'
p1774
asbag57
(g78
g59
NtRp1775
(dp1776
g62
(dp1777
g89
g90
ssg71
g1766
sg64
(lp1778
S':'
asbag57
(g78
g59
NtRp1779
(dp1780
g62
(dp1781
sg71
g1766
sg64
(lp1782
g57
(g58
g59
NtRp1783
(dp1784
g62
(dp1785
g70
I4
ssg71
g1779
sg64
(lp1786
g190
asbasbasbag57
(g73
g59
NtRp1787
(dp1788
g62
(dp1789
sg71
g1192
sg64
(lp1790
g57
(g78
g59
NtRp1791
(dp1792
g62
(dp1793
g82
g83
ssg71
g1787
sg64
(lp1794
S'remote_port'
p1795
asbag57
(g78
g59
NtRp1796
(dp1797
g62
(dp1798
g89
g90
ssg71
g1787
sg64
(lp1799
S':'
asbag57
(g78
g59
NtRp1800
(dp1801
g62
(dp1802
sg71
g1787
sg64
(lp1803
g57
(g58
g59
NtRp1804
(dp1805
g62
(dp1806
g70
I4
ssg71
g1800
sg64
(lp1807
S'39292'
p1808
asbasbasbag57
(g73
g59
NtRp1809
(dp1810
g62
(dp1811
sg71
g1192
sg64
(lp1812
g57
(g78
g59
NtRp1813
(dp1814
g62
(dp1815
g82
g83
ssg71
g1809
sg64
(lp1816
S'request_method'
p1817
asbag57
(g78
g59
NtRp1818
(dp1819
g62
(dp1820
g89
g90
ssg71
g1809
sg64
(lp1821
S':'
asbag57
(g78
g59
NtRp1822
(dp1823
g62
(dp1824
sg71
g1809
sg64
(lp1825
g57
(g58
g59
NtRp1826
(dp1827
g62
(dp1828
g70
I4
ssg71
g1822
sg64
(lp1829
S'POST'
p1830
asbasbasbag57
(g73
g59
NtRp1831
(dp1832
g62
(dp1833
sg71
g1192
sg64
(lp1834
g57
(g78
g59
NtRp1835
(dp1836
g62
(dp1837
g82
g83
ssg71
g1831
sg64
(lp1838
S'script_name'
p1839
asbag57
(g78
g59
NtRp1840
(dp1841
g62
(dp1842
g89
g90
ssg71
g1831
sg64
(lp1843
S':'
asbag57
(g78
g59
NtRp1844
(dp1845
g62
(dp1846
sg71
g1831
sg64
(lp1847
g57
(g58
g59
NtRp1848
(dp1849
g62
(dp1850
g70
I4
ssg71
g1844
sg64
(lp1851
S''
asbasbasbag57
(g73
g59
NtRp1852
(dp1853
g62
(dp1854
sg71
g1192
sg64
(lp1855
g57
(g78
g59
NtRp1856
(dp1857
g62
(dp1858
g82
g83
ssg71
g1852
sg64
(lp1859
S'server_name'
p1860
asbag57
(g78
g59
NtRp1861
(dp1862
g62
(dp1863
g89
g90
ssg71
g1852
sg64
(lp1864
S':'
asbag57
(g78
g59
NtRp1865
(dp1866
g62
(dp1867
sg71
g1852
sg64
(lp1868
g57
(g58
g59
NtRp1869
(dp1870
g62
(dp1871
g70
I4
ssg71
g1865
sg64
(lp1872
S'sanjeet-laptop'
p1873
asbasbasbag57
(g73
g59
NtRp1874
(dp1875
g62
(dp1876
sg71
g1192
sg64
(lp1877
g57
(g78
g59
NtRp1878
(dp1879
g62
(dp1880
g82
g83
ssg71
g1874
sg64
(lp1881
S'server_port'
p1882
asbag57
(g78
g59
NtRp1883
(dp1884
g62
(dp1885
g89
g90
ssg71
g1874
sg64
(lp1886
S':'
asbag57
(g78
g59
NtRp1887
(dp1888
g62
(dp1889
sg71
g1874
sg64
(lp1890
g57
(g58
g59
NtRp1891
(dp1892
g62
(dp1893
g70
I4
ssg71
g1887
sg64
(lp1894
S'8000'
p1895
asbasbasbag57
(g73
g59
NtRp1896
(dp1897
g62
(dp1898
sg71
g1192
sg64
(lp1899
g57
(g78
g59
NtRp1900
(dp1901
g62
(dp1902
g82
g83
ssg71
g1896
sg64
(lp1903
S'server_protocol'
p1904
asbag57
(g78
g59
NtRp1905
(dp1906
g62
(dp1907
g89
g90
ssg71
g1896
sg64
(lp1908
S':'
asbag57
(g78
g59
NtRp1909
(dp1910
g62
(dp1911
sg71
g1896
sg64
(lp1912
g57
(g58
g59
NtRp1913
(dp1914
g62
(dp1915
g70
I4
ssg71
g1909
sg64
(lp1916
S'HTTP/1.1'
p1917
asbasbasbag57
(g73
g59
NtRp1918
(dp1919
g62
(dp1920
sg71
g1192
sg64
(lp1921
g57
(g78
g59
NtRp1922
(dp1923
g62
(dp1924
g82
g83
ssg71
g1918
sg64
(lp1925
S'server_software'
p1926
asbag57
(g78
g59
NtRp1927
(dp1928
g62
(dp1929
g89
g90
ssg71
g1918
sg64
(lp1930
S':'
asbag57
(g78
g59
NtRp1931
(dp1932
g62
(dp1933
sg71
g1918
sg64
(lp1934
g57
(g58
g59
NtRp1935
(dp1936
g62
(dp1937
g70
I4
ssg71
g1931
sg64
(lp1938
S'Rocket 1.2.4'
p1939
asbasbasbag57
(g73
g59
NtRp1940
(dp1941
g62
(dp1942
sg71
g1192
sg64
(lp1943
g57
(g78
g59
NtRp1944
(dp1945
g62
(dp1946
g82
g83
ssg71
g1940
sg64
(lp1947
S'web2py_crontype'
p1948
asbag57
(g78
g59
NtRp1949
(dp1950
g62
(dp1951
g89
g90
ssg71
g1940
sg64
(lp1952
S':'
asbag57
(g78
g59
NtRp1953
(dp1954
g62
(dp1955
sg71
g1940
sg64
(lp1956
g57
(g58
g59
NtRp1957
(dp1958
g62
(dp1959
g70
I4
ssg71
g1953
sg64
(lp1960
S'hard'
p1961
asbasbasbag57
(g73
g59
NtRp1962
(dp1963
g62
(dp1964
sg71
g1192
sg64
(lp1965
g57
(g78
g59
NtRp1966
(dp1967
g62
(dp1968
g82
g83
ssg71
g1962
sg64
(lp1969
S'web2py_path'
p1970
asbag57
(g78
g59
NtRp1971
(dp1972
g62
(dp1973
g89
g90
ssg71
g1962
sg64
(lp1974
S':'
asbag57
(g78
g59
NtRp1975
(dp1976
g62
(dp1977
sg71
g1962
sg64
(lp1978
g57
(g58
g59
NtRp1979
(dp1980
g62
(dp1981
g70
I4
ssg71
g1975
sg64
(lp1982
g1239
asbasbasbag57
(g73
g59
NtRp1983
(dp1984
g62
(dp1985
sg71
g1192
sg64
(lp1986
g57
(g78
g59
NtRp1987
(dp1988
g62
(dp1989
g82
g83
ssg71
g1983
sg64
(lp1990
S'web2py_version'
p1991
asbag57
(g78
g59
NtRp1992
(dp1993
g62
(dp1994
g89
g90
ssg71
g1983
sg64
(lp1995
S':'
asbag57
(g78
g59
NtRp1996
(dp1997
g62
(dp1998
sg71
g1983
sg64
(lp1999
g57
(g58
g59
NtRp2000
(dp2001
g62
(dp2002
g70
I4
ssg71
g1996
sg64
(lp2003
g57
(g66
g59
NtRp2004
(dp2005
g62
(dp2006
g70
I3
ssg71
Nsg64
(lp2007
g57
(g73
g59
NtRp2008
(dp2009
g62
(dp2010
sg71
g2004
sg64
(lp2011
g57
(g78
g59
NtRp2012
(dp2013
g62
(dp2014
sg71
g2008
sg64
(lp2015
g57
(g58
g59
NtRp2016
(dp2017
g62
(dp2018
g70
I3
ssg71
g2012
sg64
(lp2019
S'1'
asbasbasbag57
(g73
g59
NtRp2020
(dp2021
g62
(dp2022
sg71
g2004
sg64
(lp2023
g57
(g78
g59
NtRp2024
(dp2025
g62
(dp2026
sg71
g2020
sg64
(lp2027
g57
(g58
g59
NtRp2028
(dp2029
g62
(dp2030
g70
I3
ssg71
g2024
sg64
(lp2031
S'99'
p2032
asbasbasbag57
(g73
g59
NtRp2033
(dp2034
g62
(dp2035
sg71
g2004
sg64
(lp2036
g57
(g78
g59
NtRp2037
(dp2038
g62
(dp2039
sg71
g2033
sg64
(lp2040
g57
(g58
g59
NtRp2041
(dp2042
g62
(dp2043
g70
I3
ssg71
g2037
sg64
(lp2044
S'7'
asbasbasbag57
(g73
g59
NtRp2045
(dp2046
g62
(dp2047
sg71
g2004
sg64
(lp2048
g57
(g78
g59
NtRp2049
(dp2050
g62
(dp2051
sg71
g2045
sg64
(lp2052
g57
(g58
g59
NtRp2053
(dp2054
g62
(dp2055
g70
I3
ssg71
g2049
sg64
(lp2056
S'datetime.datetime(2012, 3, 4, 22, 12, 8)'
p2057
asbasbasbag57
(g73
g59
NtRp2058
(dp2059
g62
(dp2060
sg71
g2004
sg64
(lp2061
g57
(g78
g59
NtRp2062
(dp2063
g62
(dp2064
sg71
g2058
sg64
(lp2065
g57
(g58
g59
NtRp2066
(dp2067
g62
(dp2068
g70
I3
ssg71
g2062
sg64
(lp2069
S'stable'
p2070
asbasbasbasbasbasbasbag57
(g73
g59
NtRp2071
(dp2072
g62
(dp2073
sg71
g1192
sg64
(lp2074
g57
(g78
g59
NtRp2075
(dp2076
g62
(dp2077
g82
g83
ssg71
g2071
sg64
(lp2078
S'wsgi_errors'
p2079
asbag57
(g78
g59
NtRp2080
(dp2081
g62
(dp2082
g89
g90
ssg71
g2071
sg64
(lp2083
S':'
asbag57
(g78
g59
NtRp2084
(dp2085
g62
(dp2086
sg71
g2071
sg64
(lp2087
g57
(g58
g59
NtRp2088
(dp2089
g62
(dp2090
g70
I4
ssg71
g2084
sg64
(lp2091
S"<open file '<stderr>', mode 'w' at 0xb77120d0>"
p2092
asbasbasbag57
(g73
g59
NtRp2093
(dp2094
g62
(dp2095
sg71
g1192
sg64
(lp2096
g57
(g78
g59
NtRp2097
(dp2098
g62
(dp2099
g82
g83
ssg71
g2093
sg64
(lp2100
S'wsgi_file_wrapper'
p2101
asbag57
(g78
g59
NtRp2102
(dp2103
g62
(dp2104
g89
g90
ssg71
g2093
sg64
(lp2105
S':'
asbag57
(g78
g59
NtRp2106
(dp2107
g62
(dp2108
sg71
g2093
sg64
(lp2109
g57
(g58
g59
NtRp2110
(dp2111
g62
(dp2112
g70
I4
ssg71
g2106
sg64
(lp2113
S'<class wsgiref.util.FileWrapper at 0x8cf5a1c>'
p2114
asbasbasbag57
(g73
g59
NtRp2115
(dp2116
g62
(dp2117
sg71
g1192
sg64
(lp2118
g57
(g78
g59
NtRp2119
(dp2120
g62
(dp2121
g82
g83
ssg71
g2115
sg64
(lp2122
S'wsgi_input'
p2123
asbag57
(g78
g59
NtRp2124
(dp2125
g62
(dp2126
g89
g90
ssg71
g2115
sg64
(lp2127
S':'
asbag57
(g78
g59
NtRp2128
(dp2129
g62
(dp2130
sg71
g2115
sg64
(lp2131
g57
(g58
g59
NtRp2132
(dp2133
g62
(dp2134
g70
I4
ssg71
g2128
sg64
(lp2135
S'<socket._fileobject object at 0x8f211ec>'
p2136
asbasbasbag57
(g73
g59
NtRp2137
(dp2138
g62
(dp2139
sg71
g1192
sg64
(lp2140
g57
(g78
g59
NtRp2141
(dp2142
g62
(dp2143
g82
g83
ssg71
g2137
sg64
(lp2144
S'wsgi_multiprocess'
p2145
asbag57
(g78
g59
NtRp2146
(dp2147
g62
(dp2148
g89
g90
ssg71
g2137
sg64
(lp2149
S':'
asbag57
(g78
g59
NtRp2150
(dp2151
g62
(dp2152
sg71
g2137
sg64
(lp2153
g57
(g58
g59
NtRp2154
(dp2155
g62
(dp2156
g70
I4
ssg71
g2150
sg64
(lp2157
g1374
asbasbasbag57
(g73
g59
NtRp2158
(dp2159
g62
(dp2160
sg71
g1192
sg64
(lp2161
g57
(g78
g59
NtRp2162
(dp2163
g62
(dp2164
g82
g83
ssg71
g2158
sg64
(lp2165
S'wsgi_multithread'
p2166
asbag57
(g78
g59
NtRp2167
(dp2168
g62
(dp2169
g89
g90
ssg71
g2158
sg64
(lp2170
S':'
asbag57
(g78
g59
NtRp2171
(dp2172
g62
(dp2173
sg71
g2158
sg64
(lp2174
g57
(g58
g59
NtRp2175
(dp2176
g62
(dp2177
g70
I4
ssg71
g2171
sg64
(lp2178
g100
asbasbasbag57
(g73
g59
NtRp2179
(dp2180
g62
(dp2181
sg71
g1192
sg64
(lp2182
g57
(g78
g59
NtRp2183
(dp2184
g62
(dp2185
g82
g83
ssg71
g2179
sg64
(lp2186
S'wsgi_run_once'
p2187
asbag57
(g78
g59
NtRp2188
(dp2189
g62
(dp2190
g89
g90
ssg71
g2179
sg64
(lp2191
S':'
asbag57
(g78
g59
NtRp2192
(dp2193
g62
(dp2194
sg71
g2179
sg64
(lp2195
g57
(g58
g59
NtRp2196
(dp2197
g62
(dp2198
g70
I4
ssg71
g2192
sg64
(lp2199
g1374
asbasbasbag57
(g73
g59
NtRp2200
(dp2201
g62
(dp2202
sg71
g1192
sg64
(lp2203
g57
(g78
g59
NtRp2204
(dp2205
g62
(dp2206
g82
g83
ssg71
g2200
sg64
(lp2207
S'wsgi_url_scheme'
p2208
asbag57
(g78
g59
NtRp2209
(dp2210
g62
(dp2211
g89
g90
ssg71
g2200
sg64
(lp2212
S':'
asbag57
(g78
g59
NtRp2213
(dp2214
g62
(dp2215
sg71
g2200
sg64
(lp2216
g57
(g58
g59
NtRp2217
(dp2218
g62
(dp2219
g70
I4
ssg71
g2213
sg64
(lp2220
S'http'
p2221
asbasbasbag57
(g73
g59
NtRp2222
(dp2223
g62
(dp2224
sg71
g1192
sg64
(lp2225
g57
(g78
g59
NtRp2226
(dp2227
g62
(dp2228
g82
g83
ssg71
g2222
sg64
(lp2229
S'wsgi_version'
p2230
asbag57
(g78
g59
NtRp2231
(dp2232
g62
(dp2233
g89
g90
ssg71
g2222
sg64
(lp2234
S':'
asbag57
(g78
g59
NtRp2235
(dp2236
g62
(dp2237
sg71
g2222
sg64
(lp2238
g57
(g58
g59
NtRp2239
(dp2240
g62
(dp2241
g70
I4
ssg71
g2235
sg64
(lp2242
g57
(g66
g59
NtRp2243
(dp2244
g62
(dp2245
g70
I3
ssg71
Nsg64
(lp2246
g57
(g73
g59
NtRp2247
(dp2248
g62
(dp2249
sg71
g2243
sg64
(lp2250
g57
(g78
g59
NtRp2251
(dp2252
g62
(dp2253
sg71
g2247
sg64
(lp2254
g57
(g58
g59
NtRp2255
(dp2256
g62
(dp2257
g70
I3
ssg71
g2251
sg64
(lp2258
S'1'
asbasbasbag57
(g73
g59
NtRp2259
(dp2260
g62
(dp2261
sg71
g2243
sg64
(lp2262
g57
(g78
g59
NtRp2263
(dp2264
g62
(dp2265
sg71
g2259
sg64
(lp2266
g57
(g58
g59
NtRp2267
(dp2268
g62
(dp2269
g70
I3
ssg71
g2263
sg64
(lp2270
S'0'
asbasbasbasbasbasbasbasbasbasbasbag57
(g73
g59
NtRp2271
(dp2272
g62
(dp2273
sg71
g67
sg64
(lp2274
g57
(g78
g59
NtRp2275
(dp2276
g62
(dp2277
g82
g83
ssg71
g2271
sg64
(lp2278
S'extension'
p2279
asbag57
(g78
g59
NtRp2280
(dp2281
g62
(dp2282
g89
g90
ssg71
g2271
sg64
(lp2283
S':'
asbag57
(g78
g59
NtRp2284
(dp2285
g62
(dp2286
sg71
g2271
sg64
(lp2287
g57
(g58
g59
NtRp2288
(dp2289
g62
(dp2290
g70
I5
ssg71
g2284
sg64
(lp2291
S'html'
p2292
asbasbasbag57
(g73
g59
NtRp2293
(dp2294
g62
(dp2295
sg71
g67
sg64
(lp2296
g57
(g78
g59
NtRp2297
(dp2298
g62
(dp2299
g82
g83
ssg71
g2293
sg64
(lp2300
S'folder'
p2301
asbag57
(g78
g59
NtRp2302
(dp2303
g62
(dp2304
g89
g90
ssg71
g2293
sg64
(lp2305
S':'
asbag57
(g78
g59
NtRp2306
(dp2307
g62
(dp2308
sg71
g2293
sg64
(lp2309
g57
(g58
g59
NtRp2310
(dp2311
g62
(dp2312
g70
I5
ssg71
g2306
sg64
(lp2313
S'/home/sanjeet/Desktop/install/Development/web2py/applications/themishrms/'
p2314
asbasbasbag57
(g73
g59
NtRp2315
(dp2316
g62
(dp2317
sg71
g67
sg64
(lp2318
g57
(g78
g59
NtRp2319
(dp2320
g62
(dp2321
g82
g83
ssg71
g2315
sg64
(lp2322
S'function'
p2323
asbag57
(g78
g59
NtRp2324
(dp2325
g62
(dp2326
g89
g90
ssg71
g2315
sg64
(lp2327
S':'
asbag57
(g78
g59
NtRp2328
(dp2329
g62
(dp2330
sg71
g2315
sg64
(lp2331
g57
(g58
g59
NtRp2332
(dp2333
g62
(dp2334
g70
I5
ssg71
g2328
sg64
(lp2335
S'admin_orz'
p2336
asbasbasbag57
(g73
g59
NtRp2337
(dp2338
g62
(dp2339
sg71
g67
sg64
(lp2340
g57
(g78
g59
NtRp2341
(dp2342
g62
(dp2343
g82
g83
ssg71
g2337
sg64
(lp2344
S'get_vars'
p2345
asbag57
(g78
g59
NtRp2346
(dp2347
g62
(dp2348
g89
g90
ssg71
g2337
sg64
(lp2349
S':'
asbag57
(g78
g59
NtRp2350
(dp2351
g62
(dp2352
sg71
g2337
sg64
(lp2353
g57
(g58
g59
NtRp2354
(dp2355
g62
(dp2356
g70
I5
ssg71
g2350
sg64
(lp2357
g57
(g66
g59
NtRp2358
(dp2359
g62
(dp2360
g70
I4
ssg71
Nsg64
(lp2361
sbasbasbasbag57
(g73
g59
NtRp2362
(dp2363
g62
(dp2364
sg71
g67
sg64
(lp2365
g57
(g78
g59
NtRp2366
(dp2367
g62
(dp2368
g82
g83
ssg71
g2362
sg64
(lp2369
S'global_settings'
p2370
asbag57
(g78
g59
NtRp2371
(dp2372
g62
(dp2373
g89
g90
ssg71
g2362
sg64
(lp2374
S':'
asbag57
(g78
g59
NtRp2375
(dp2376
g62
(dp2377
sg71
g2362
sg64
(lp2378
g57
(g58
g59
NtRp2379
(dp2380
g62
(dp2381
g70
I5
ssg71
g2375
sg64
(lp2382
g57
(g66
g59
NtRp2383
(dp2384
g62
(dp2385
g70
I4
ssg71
Nsg64
(lp2386
g57
(g73
g59
NtRp2387
(dp2388
g62
(dp2389
sg71
g2383
sg64
(lp2390
g57
(g78
g59
NtRp2391
(dp2392
g62
(dp2393
g82
g83
ssg71
g2387
sg64
(lp2394
g1204
asbag57
(g78
g59
NtRp2395
(dp2396
g62
(dp2397
g89
g90
ssg71
g2387
sg64
(lp2398
S':'
asbag57
(g78
g59
NtRp2399
(dp2400
g62
(dp2401
sg71
g2387
sg64
(lp2402
g57
(g58
g59
NtRp2403
(dp2404
g62
(dp2405
g70
I4
ssg71
g2399
sg64
(lp2406
S"set(['/home/sanjeet/Desktop/install/Development/web2py/applications/welcome/', '/home/sanjeet/Desktop/install/Development/web2py/applications/admin/', '/home/sanjeet/Desktop/install/Development/web2py/applications/themishrms/'])"
p2407
asbasbasbag57
(g73
g59
NtRp2408
(dp2409
g62
(dp2410
sg71
g2383
sg64
(lp2411
g57
(g78
g59
NtRp2412
(dp2413
g62
(dp2414
g82
g83
ssg71
g2408
sg64
(lp2415
g1226
asbag57
(g78
g59
NtRp2416
(dp2417
g62
(dp2418
g89
g90
ssg71
g2408
sg64
(lp2419
S':'
asbag57
(g78
g59
NtRp2420
(dp2421
g62
(dp2422
sg71
g2408
sg64
(lp2423
g57
(g58
g59
NtRp2424
(dp2425
g62
(dp2426
g70
I4
ssg71
g2420
sg64
(lp2427
g1239
asbasbasbag57
(g73
g59
NtRp2428
(dp2429
g62
(dp2430
sg71
g2383
sg64
(lp2431
g57
(g78
g59
NtRp2432
(dp2433
g62
(dp2434
g82
g83
ssg71
g2428
sg64
(lp2435
g1248
asbag57
(g78
g59
NtRp2436
(dp2437
g62
(dp2438
g89
g90
ssg71
g2428
sg64
(lp2439
S':'
asbag57
(g78
g59
NtRp2440
(dp2441
g62
(dp2442
sg71
g2428
sg64
(lp2443
g57
(g58
g59
NtRp2444
(dp2445
g62
(dp2446
g70
I4
ssg71
g2440
sg64
(lp2447
g57
(g66
g59
NtRp2448
(dp2449
g62
(dp2450
g70
I3
ssg71
Nsg64
(lp2451
sbasbasbasbag57
(g73
g59
NtRp2452
(dp2453
g62
(dp2454
sg71
g2383
sg64
(lp2455
g57
(g78
g59
NtRp2456
(dp2457
g62
(dp2458
g82
g83
ssg71
g2452
sg64
(lp2459
g1273
asbag57
(g78
g59
NtRp2460
(dp2461
g62
(dp2462
g89
g90
ssg71
g2452
sg64
(lp2463
S':'
asbag57
(g78
g59
NtRp2464
(dp2465
g62
(dp2466
sg71
g2452
sg64
(lp2467
g57
(g58
g59
NtRp2468
(dp2469
g62
(dp2470
g70
I4
ssg71
g2464
sg64
(lp2471
S"<Values at 0x8d5f68c: {'verbose': False, 'ip': '127.0.0.1', 'shutdown_timeout': 5, 'taskbar': False, 'nocron': False, 'pid_filename': 'httpserver.pid', 'maxthreads': None, 'softcron': False, 'server_name': 'sanjeet-laptop', 'bpython': False, 'nogui': False, 'port': 8000, 'extcron': False, 'debuglevel': 30, 'test': None, 'folder': '/home/sanjeet/Desktop/install/Development/web2py', 'config': '', 'import_models': False, 'winservice': '', 'shell': None, 'run': '', 'log_filename': 'httpserver.log', 'args': [''], 'socket_timeout': 5, 'ssl_ca_certificate': None, 'scheduler': None, 'profiler_filename': None, 'ssl_private_key': '', 'password': 'a', 'request_queue_size': 5, 'ssl_certificate': '', 'cronjob': False, 'numthreads': None, 'quiet': False, 'interfaces': None, 'minthreads': None, 'timeout': 10, 'plain': False, 'nobanner': False}>"
p2472
asbasbasbag57
(g73
g59
NtRp2473
(dp2474
g62
(dp2475
sg71
g2383
sg64
(lp2476
g57
(g78
g59
NtRp2477
(dp2478
g62
(dp2479
g82
g83
ssg71
g2473
sg64
(lp2480
g1339
asbag57
(g78
g59
NtRp2481
(dp2482
g62
(dp2483
g89
g90
ssg71
g2473
sg64
(lp2484
S':'
asbag57
(g78
g59
NtRp2485
(dp2486
g62
(dp2487
sg71
g2473
sg64
(lp2488
g57
(g58
g59
NtRp2489
(dp2490
g62
(dp2491
g70
I4
ssg71
g2485
sg64
(lp2492
S'set([])'
p2493
asbasbasbag57
(g73
g59
NtRp2494
(dp2495
g62
(dp2496
sg71
g2383
sg64
(lp2497
g57
(g78
g59
NtRp2498
(dp2499
g62
(dp2500
g82
g83
ssg71
g2494
sg64
(lp2501
g1361
asbag57
(g78
g59
NtRp2502
(dp2503
g62
(dp2504
g89
g90
ssg71
g2494
sg64
(lp2505
S':'
asbag57
(g78
g59
NtRp2506
(dp2507
g62
(dp2508
sg71
g2494
sg64
(lp2509
g57
(g58
g59
NtRp2510
(dp2511
g62
(dp2512
g70
I4
ssg71
g2506
sg64
(lp2513
g1374
asbasbasbag57
(g73
g59
NtRp2514
(dp2515
g62
(dp2516
sg71
g2383
sg64
(lp2517
g57
(g78
g59
NtRp2518
(dp2519
g62
(dp2520
g82
g83
ssg71
g2514
sg64
(lp2521
g1383
asbag57
(g78
g59
NtRp2522
(dp2523
g62
(dp2524
g89
g90
ssg71
g2514
sg64
(lp2525
S':'
asbag57
(g78
g59
NtRp2526
(dp2527
g62
(dp2528
sg71
g2514
sg64
(lp2529
g57
(g58
g59
NtRp2530
(dp2531
g62
(dp2532
g70
I4
ssg71
g2526
sg64
(lp2533
g1396
asbasbasbag57
(g73
g59
NtRp2534
(dp2535
g62
(dp2536
sg71
g2383
sg64
(lp2537
g57
(g78
g59
NtRp2538
(dp2539
g62
(dp2540
g82
g83
ssg71
g2534
sg64
(lp2541
g1689
asbag57
(g78
g59
NtRp2542
(dp2543
g62
(dp2544
g89
g90
ssg71
g2534
sg64
(lp2545
S':'
asbag57
(g78
g59
NtRp2546
(dp2547
g62
(dp2548
sg71
g2534
sg64
(lp2549
g57
(g58
g59
NtRp2550
(dp2551
g62
(dp2552
g70
I4
ssg71
g2546
sg64
(lp2553
g1374
asbasbasbag57
(g73
g59
NtRp2554
(dp2555
g62
(dp2556
sg71
g2383
sg64
(lp2557
g57
(g78
g59
NtRp2558
(dp2559
g62
(dp2560
g82
g83
ssg71
g2554
sg64
(lp2561
g1710
asbag57
(g78
g59
NtRp2562
(dp2563
g62
(dp2564
g89
g90
ssg71
g2554
sg64
(lp2565
S':'
asbag57
(g78
g59
NtRp2566
(dp2567
g62
(dp2568
sg71
g2554
sg64
(lp2569
g57
(g58
g59
NtRp2570
(dp2571
g62
(dp2572
g70
I4
ssg71
g2566
sg64
(lp2573
g1374
asbasbasbag57
(g73
g59
NtRp2574
(dp2575
g62
(dp2576
sg71
g2383
sg64
(lp2577
g57
(g78
g59
NtRp2578
(dp2579
g62
(dp2580
g82
g83
ssg71
g2574
sg64
(lp2581
g1948
asbag57
(g78
g59
NtRp2582
(dp2583
g62
(dp2584
g89
g90
ssg71
g2574
sg64
(lp2585
S':'
asbag57
(g78
g59
NtRp2586
(dp2587
g62
(dp2588
sg71
g2574
sg64
(lp2589
g57
(g58
g59
NtRp2590
(dp2591
g62
(dp2592
g70
I4
ssg71
g2586
sg64
(lp2593
g1961
asbasbasbag57
(g73
g59
NtRp2594
(dp2595
g62
(dp2596
sg71
g2383
sg64
(lp2597
g57
(g78
g59
NtRp2598
(dp2599
g62
(dp2600
g82
g83
ssg71
g2594
sg64
(lp2601
g1991
asbag57
(g78
g59
NtRp2602
(dp2603
g62
(dp2604
g89
g90
ssg71
g2594
sg64
(lp2605
S':'
asbag57
(g78
g59
NtRp2606
(dp2607
g62
(dp2608
sg71
g2594
sg64
(lp2609
g57
(g58
g59
NtRp2610
(dp2611
g62
(dp2612
g70
I4
ssg71
g2606
sg64
(lp2613
g57
(g66
g59
NtRp2614
(dp2615
g62
(dp2616
g70
I3
ssg71
Nsg64
(lp2617
g57
(g73
g59
NtRp2618
(dp2619
g62
(dp2620
sg71
g2614
sg64
(lp2621
g57
(g78
g59
NtRp2622
(dp2623
g62
(dp2624
sg71
g2618
sg64
(lp2625
g57
(g58
g59
NtRp2626
(dp2627
g62
(dp2628
g70
I3
ssg71
g2622
sg64
(lp2629
S'1'
asbasbasbag57
(g73
g59
NtRp2630
(dp2631
g62
(dp2632
sg71
g2614
sg64
(lp2633
g57
(g78
g59
NtRp2634
(dp2635
g62
(dp2636
sg71
g2630
sg64
(lp2637
g57
(g58
g59
NtRp2638
(dp2639
g62
(dp2640
g70
I3
ssg71
g2634
sg64
(lp2641
S'99'
p2642
asbasbasbag57
(g73
g59
NtRp2643
(dp2644
g62
(dp2645
sg71
g2614
sg64
(lp2646
g57
(g78
g59
NtRp2647
(dp2648
g62
(dp2649
sg71
g2643
sg64
(lp2650
g57
(g58
g59
NtRp2651
(dp2652
g62
(dp2653
g70
I3
ssg71
g2647
sg64
(lp2654
S'7'
asbasbasbag57
(g73
g59
NtRp2655
(dp2656
g62
(dp2657
sg71
g2614
sg64
(lp2658
g57
(g78
g59
NtRp2659
(dp2660
g62
(dp2661
sg71
g2655
sg64
(lp2662
g57
(g58
g59
NtRp2663
(dp2664
g62
(dp2665
g70
I3
ssg71
g2659
sg64
(lp2666
S'datetime.datetime(2012, 3, 4, 22, 12, 8)'
p2667
asbasbasbag57
(g73
g59
NtRp2668
(dp2669
g62
(dp2670
sg71
g2614
sg64
(lp2671
g57
(g78
g59
NtRp2672
(dp2673
g62
(dp2674
sg71
g2668
sg64
(lp2675
g57
(g58
g59
NtRp2676
(dp2677
g62
(dp2678
g70
I3
ssg71
g2672
sg64
(lp2679
g2070
asbasbasbasbasbasbasbasbasbasbasbag57
(g73
g59
NtRp2680
(dp2681
g62
(dp2682
sg71
g67
sg64
(lp2683
g57
(g78
g59
NtRp2684
(dp2685
g62
(dp2686
g82
g83
ssg71
g2680
sg64
(lp2687
S'is_https'
p2688
asbag57
(g78
g59
NtRp2689
(dp2690
g62
(dp2691
g89
g90
ssg71
g2680
sg64
(lp2692
S':'
asbag57
(g78
g59
NtRp2693
(dp2694
g62
(dp2695
sg71
g2680
sg64
(lp2696
g57
(g58
g59
NtRp2697
(dp2698
g62
(dp2699
g70
I5
ssg71
g2693
sg64
(lp2700
g1374
asbasbasbag57
(g73
g59
NtRp2701
(dp2702
g62
(dp2703
sg71
g67
sg64
(lp2704
g57
(g78
g59
NtRp2705
(dp2706
g62
(dp2707
g82
g83
ssg71
g2701
sg64
(lp2708
S'is_local'
p2709
asbag57
(g78
g59
NtRp2710
(dp2711
g62
(dp2712
g89
g90
ssg71
g2701
sg64
(lp2713
S':'
asbag57
(g78
g59
NtRp2714
(dp2715
g62
(dp2716
sg71
g2701
sg64
(lp2717
g57
(g58
g59
NtRp2718
(dp2719
g62
(dp2720
g70
I5
ssg71
g2714
sg64
(lp2721
g100
asbasbasbag57
(g73
g59
NtRp2722
(dp2723
g62
(dp2724
sg71
g67
sg64
(lp2725
g57
(g78
g59
NtRp2726
(dp2727
g62
(dp2728
g82
g83
ssg71
g2722
sg64
(lp2729
S'is_restful'
p2730
asbag57
(g78
g59
NtRp2731
(dp2732
g62
(dp2733
g89
g90
ssg71
g2722
sg64
(lp2734
S':'
asbag57
(g78
g59
NtRp2735
(dp2736
g62
(dp2737
sg71
g2722
sg64
(lp2738
g57
(g58
g59
NtRp2739
(dp2740
g62
(dp2741
g70
I5
ssg71
g2735
sg64
(lp2742
g1374
asbasbasbag57
(g73
g59
NtRp2743
(dp2744
g62
(dp2745
sg71
g67
sg64
(lp2746
g57
(g78
g59
NtRp2747
(dp2748
g62
(dp2749
g82
g83
ssg71
g2743
sg64
(lp2750
S'now'
p2751
asbag57
(g78
g59
NtRp2752
(dp2753
g62
(dp2754
g89
g90
ssg71
g2743
sg64
(lp2755
S':'
asbag57
(g78
g59
NtRp2756
(dp2757
g62
(dp2758
sg71
g2743
sg64
(lp2759
g57
(g58
g59
NtRp2760
(dp2761
g62
(dp2762
g70
I5
ssg71
g2756
sg64
(lp2763
S'datetime.datetime(2012, 5, 5, 23, 35, 29, 208170)'
p2764
asbasbasbag57
(g73
g59
NtRp2765
(dp2766
g62
(dp2767
sg71
g67
sg64
(lp2768
g57
(g78
g59
NtRp2769
(dp2770
g62
(dp2771
g82
g83
ssg71
g2765
sg64
(lp2772
S'post_vars'
p2773
asbag57
(g78
g59
NtRp2774
(dp2775
g62
(dp2776
g89
g90
ssg71
g2765
sg64
(lp2777
S':'
asbag57
(g78
g59
NtRp2778
(dp2779
g62
(dp2780
sg71
g2765
sg64
(lp2781
g57
(g58
g59
NtRp2782
(dp2783
g62
(dp2784
g70
I5
ssg71
g2778
sg64
(lp2785
g57
(g66
g59
NtRp2786
(dp2787
g62
(dp2788
g70
I4
ssg71
Nsg64
(lp2789
g57
(g73
g59
NtRp2790
(dp2791
g62
(dp2792
sg71
g2786
sg64
(lp2793
g57
(g78
g59
NtRp2794
(dp2795
g62
(dp2796
g82
g83
ssg71
g2790
sg64
(lp2797
S'dp'
p2798
asbag57
(g78
g59
NtRp2799
(dp2800
g62
(dp2801
g89
g90
ssg71
g2790
sg64
(lp2802
S':'
asbag57
(g78
g59
NtRp2803
(dp2804
g62
(dp2805
sg71
g2790
sg64
(lp2806
g57
(g58
g59
NtRp2807
(dp2808
g62
(dp2809
g70
I4
ssg71
g2803
sg64
(lp2810
S'1'
asbasbasbag57
(g73
g59
NtRp2811
(dp2812
g62
(dp2813
sg71
g2786
sg64
(lp2814
g57
(g78
g59
NtRp2815
(dp2816
g62
(dp2817
g82
g83
ssg71
g2811
sg64
(lp2818
S'orz'
p2819
asbag57
(g78
g59
NtRp2820
(dp2821
g62
(dp2822
g89
g90
ssg71
g2811
sg64
(lp2823
S':'
asbag57
(g78
g59
NtRp2824
(dp2825
g62
(dp2826
sg71
g2811
sg64
(lp2827
g57
(g58
g59
NtRp2828
(dp2829
g62
(dp2830
g70
I4
ssg71
g2824
sg64
(lp2831
S'1'
asbasbasbasbasbasbasbag57
(g73
g59
NtRp2832
(dp2833
g62
(dp2834
sg71
g67
sg64
(lp2835
g57
(g78
g59
NtRp2836
(dp2837
g62
(dp2838
g82
g83
ssg71
g2832
sg64
(lp2839
S'url'
p2840
asbag57
(g78
g59
NtRp2841
(dp2842
g62
(dp2843
g89
g90
ssg71
g2832
sg64
(lp2844
S':'
asbag57
(g78
g59
NtRp2845
(dp2846
g62
(dp2847
sg71
g2832
sg64
(lp2848
g57
(g58
g59
NtRp2849
(dp2850
g62
(dp2851
g70
I5
ssg71
g2845
sg64
(lp2852
S'/themishrms/default/admin_orz'
p2853
asbasbasbag57
(g73
g59
NtRp2854
(dp2855
g62
(dp2856
sg71
g67
sg64
(lp2857
g57
(g78
g59
NtRp2858
(dp2859
g62
(dp2860
g82
g83
ssg71
g2854
sg64
(lp2861
S'utcnow'
p2862
asbag57
(g78
g59
NtRp2863
(dp2864
g62
(dp2865
g89
g90
ssg71
g2854
sg64
(lp2866
S':'
asbag57
(g78
g59
NtRp2867
(dp2868
g62
(dp2869
sg71
g2854
sg64
(lp2870
g57
(g58
g59
NtRp2871
(dp2872
g62
(dp2873
g70
I5
ssg71
g2867
sg64
(lp2874
S'datetime.datetime(2012, 5, 5, 18, 5, 29, 208194)'
p2875
asbasbasbag57
(g73
g59
NtRp2876
(dp2877
g62
(dp2878
sg71
g67
sg64
(lp2879
g57
(g78
g59
NtRp2880
(dp2881
g62
(dp2882
g82
g83
ssg71
g2876
sg64
(lp2883
S'uuid'
p2884
asbag57
(g78
g59
NtRp2885
(dp2886
g62
(dp2887
g89
g90
ssg71
g2876
sg64
(lp2888
S':'
asbag57
(g78
g59
NtRp2889
(dp2890
g62
(dp2891
sg71
g2876
sg64
(lp2892
g57
(g58
g59
NtRp2893
(dp2894
g62
(dp2895
g70
I5
ssg71
g2889
sg64
(lp2896
S'themishrms/127.0.0.1.2012-05-05.23-35-29.4117a3e3-24e8-489e-bb73-27001510addc'
p2897
asbasbasbag57
(g73
g59
NtRp2898
(dp2899
g62
(dp2900
sg71
g67
sg64
(lp2901
g57
(g78
g59
NtRp2902
(dp2903
g62
(dp2904
g82
g83
ssg71
g2898
sg64
(lp2905
S'vars'
p2906
asbag57
(g78
g59
NtRp2907
(dp2908
g62
(dp2909
g89
g90
ssg71
g2898
sg64
(lp2910
S':'
asbag57
(g78
g59
NtRp2911
(dp2912
g62
(dp2913
sg71
g2898
sg64
(lp2914
g57
(g58
g59
NtRp2915
(dp2916
g62
(dp2917
g70
I5
ssg71
g2911
sg64
(lp2918
g57
(g66
g59
NtRp2919
(dp2920
g62
(dp2921
g70
I4
ssg71
Nsg64
(lp2922
g57
(g73
g59
NtRp2923
(dp2924
g62
(dp2925
sg71
g2919
sg64
(lp2926
g57
(g78
g59
NtRp2927
(dp2928
g62
(dp2929
g82
g83
ssg71
g2923
sg64
(lp2930
g2798
asbag57
(g78
g59
NtRp2931
(dp2932
g62
(dp2933
g89
g90
ssg71
g2923
sg64
(lp2934
S':'
asbag57
(g78
g59
NtRp2935
(dp2936
g62
(dp2937
sg71
g2923
sg64
(lp2938
g57
(g58
g59
NtRp2939
(dp2940
g62
(dp2941
g70
I4
ssg71
g2935
sg64
(lp2942
S'1'
asbasbasbag57
(g73
g59
NtRp2943
(dp2944
g62
(dp2945
sg71
g2919
sg64
(lp2946
g57
(g78
g59
NtRp2947
(dp2948
g62
(dp2949
g82
g83
ssg71
g2943
sg64
(lp2950
g2819
asbag57
(g78
g59
NtRp2951
(dp2952
g62
(dp2953
g89
g90
ssg71
g2943
sg64
(lp2954
S':'
asbag57
(g78
g59
NtRp2955
(dp2956
g62
(dp2957
sg71
g2943
sg64
(lp2958
g57
(g58
g59
NtRp2959
(dp2960
g62
(dp2961
g70
I4
ssg71
g2955
sg64
(lp2962
S'1'
asbasbasbasbasbasbasbag57
(g73
g59
NtRp2963
(dp2964
g62
(dp2965
sg71
g67
sg64
(lp2966
g57
(g78
g59
NtRp2967
(dp2968
g62
(dp2969
g82
g83
ssg71
g2963
sg64
(lp2970
S'wsgi'
p2971
asbag57
(g78
g59
NtRp2972
(dp2973
g62
(dp2974
g89
g90
ssg71
g2963
sg64
(lp2975
S':'
asbag57
(g78
g59
NtRp2976
(dp2977
g62
(dp2978
sg71
g2963
sg64
(lp2979
g57
(g58
g59
NtRp2980
(dp2981
g62
(dp2982
g70
I5
ssg71
g2976
sg64
(lp2983
g57
(g66
g59
NtRp2984
(dp2985
g62
(dp2986
g70
I4
ssg71
Nsg64
(lp2987
g57
(g73
g59
NtRp2988
(dp2989
g62
(dp2990
sg71
g2984
sg64
(lp2991
g57
(g78
g59
NtRp2992
(dp2993
g62
(dp2994
g82
g83
ssg71
g2988
sg64
(lp2995
S'environ'
p2996
asbag57
(g78
g59
NtRp2997
(dp2998
g62
(dp2999
g89
g90
ssg71
g2988
sg64
(lp3000
S':'
asbag57
(g78
g59
NtRp3001
(dp3002
g62
(dp3003
sg71
g2988
sg64
(lp3004
g57
(g58
g59
NtRp3005
(dp3006
g62
(dp3007
g70
I4
ssg71
g3001
sg64
(lp3008
g57
(g66
g59
NtRp3009
(dp3010
g62
(dp3011
g70
I3
ssg71
Nsg64
(lp3012
g57
(g73
g59
NtRp3013
(dp3014
g62
(dp3015
sg71
g3009
sg64
(lp3016
g57
(g78
g59
NtRp3017
(dp3018
g62
(dp3019
g82
g83
ssg71
g3013
sg64
(lp3020
S'CONTENT_LENGTH'
p3021
asbag57
(g78
g59
NtRp3022
(dp3023
g62
(dp3024
g89
g90
ssg71
g3013
sg64
(lp3025
S':'
asbag57
(g78
g59
NtRp3026
(dp3027
g62
(dp3028
sg71
g3013
sg64
(lp3029
g57
(g58
g59
NtRp3030
(dp3031
g62
(dp3032
g70
I3
ssg71
g3026
sg64
(lp3033
g1308
asbasbasbag57
(g73
g59
NtRp3034
(dp3035
g62
(dp3036
sg71
g3009
sg64
(lp3037
g57
(g78
g59
NtRp3038
(dp3039
g62
(dp3040
g82
g83
ssg71
g3034
sg64
(lp3041
S'CONTENT_TYPE'
p3042
asbag57
(g78
g59
NtRp3043
(dp3044
g62
(dp3045
g89
g90
ssg71
g3034
sg64
(lp3046
S':'
asbag57
(g78
g59
NtRp3047
(dp3048
g62
(dp3049
sg71
g3034
sg64
(lp3050
g57
(g58
g59
NtRp3051
(dp3052
g62
(dp3053
g70
I3
ssg71
g3047
sg64
(lp3054
g1330
asbasbasbag57
(g73
g59
NtRp3055
(dp3056
g62
(dp3057
sg71
g3009
sg64
(lp3058
g57
(g78
g59
NtRp3059
(dp3060
g62
(dp3061
g82
g83
ssg71
g3055
sg64
(lp3062
S'HTTP_ACCEPT'
p3063
asbag57
(g78
g59
NtRp3064
(dp3065
g62
(dp3066
g89
g90
ssg71
g3055
sg64
(lp3067
S':'
asbag57
(g78
g59
NtRp3068
(dp3069
g62
(dp3070
sg71
g3055
sg64
(lp3071
g57
(g58
g59
NtRp3072
(dp3073
g62
(dp3074
g70
I3
ssg71
g3068
sg64
(lp3075
g1418
asbasbasbag57
(g73
g59
NtRp3076
(dp3077
g62
(dp3078
sg71
g3009
sg64
(lp3079
g57
(g78
g59
NtRp3080
(dp3081
g62
(dp3082
g82
g83
ssg71
g3076
sg64
(lp3083
S'HTTP_ACCEPT_CHARSET'
p3084
asbag57
(g78
g59
NtRp3085
(dp3086
g62
(dp3087
g89
g90
ssg71
g3076
sg64
(lp3088
S':'
asbag57
(g78
g59
NtRp3089
(dp3090
g62
(dp3091
sg71
g3076
sg64
(lp3092
g57
(g58
g59
NtRp3093
(dp3094
g62
(dp3095
g70
I3
ssg71
g3089
sg64
(lp3096
g1440
asbasbasbag57
(g73
g59
NtRp3097
(dp3098
g62
(dp3099
sg71
g3009
sg64
(lp3100
g57
(g78
g59
NtRp3101
(dp3102
g62
(dp3103
g82
g83
ssg71
g3097
sg64
(lp3104
S'HTTP_ACCEPT_ENCODING'
p3105
asbag57
(g78
g59
NtRp3106
(dp3107
g62
(dp3108
g89
g90
ssg71
g3097
sg64
(lp3109
S':'
asbag57
(g78
g59
NtRp3110
(dp3111
g62
(dp3112
sg71
g3097
sg64
(lp3113
g57
(g58
g59
NtRp3114
(dp3115
g62
(dp3116
g70
I3
ssg71
g3110
sg64
(lp3117
g1462
asbasbasbag57
(g73
g59
NtRp3118
(dp3119
g62
(dp3120
sg71
g3009
sg64
(lp3121
g57
(g78
g59
NtRp3122
(dp3123
g62
(dp3124
g82
g83
ssg71
g3118
sg64
(lp3125
S'HTTP_ACCEPT_LANGUAGE'
p3126
asbag57
(g78
g59
NtRp3127
(dp3128
g62
(dp3129
g89
g90
ssg71
g3118
sg64
(lp3130
S':'
asbag57
(g78
g59
NtRp3131
(dp3132
g62
(dp3133
sg71
g3118
sg64
(lp3134
g57
(g58
g59
NtRp3135
(dp3136
g62
(dp3137
g70
I3
ssg71
g3131
sg64
(lp3138
g1484
asbasbasbag57
(g73
g59
NtRp3139
(dp3140
g62
(dp3141
sg71
g3009
sg64
(lp3142
g57
(g78
g59
NtRp3143
(dp3144
g62
(dp3145
g82
g83
ssg71
g3139
sg64
(lp3146
S'HTTP_CONNECTION'
p3147
asbag57
(g78
g59
NtRp3148
(dp3149
g62
(dp3150
g89
g90
ssg71
g3139
sg64
(lp3151
S':'
asbag57
(g78
g59
NtRp3152
(dp3153
g62
(dp3154
sg71
g3139
sg64
(lp3155
g57
(g58
g59
NtRp3156
(dp3157
g62
(dp3158
g70
I3
ssg71
g3152
sg64
(lp3159
g1506
asbasbasbag57
(g73
g59
NtRp3160
(dp3161
g62
(dp3162
sg71
g3009
sg64
(lp3163
g57
(g78
g59
NtRp3164
(dp3165
g62
(dp3166
g82
g83
ssg71
g3160
sg64
(lp3167
S'HTTP_CONTENT_LENGTH'
p3168
asbag57
(g78
g59
NtRp3169
(dp3170
g62
(dp3171
g89
g90
ssg71
g3160
sg64
(lp3172
S':'
asbag57
(g78
g59
NtRp3173
(dp3174
g62
(dp3175
sg71
g3160
sg64
(lp3176
g57
(g58
g59
NtRp3177
(dp3178
g62
(dp3179
g70
I3
ssg71
g3173
sg64
(lp3180
g1308
asbasbasbag57
(g73
g59
NtRp3181
(dp3182
g62
(dp3183
sg71
g3009
sg64
(lp3184
g57
(g78
g59
NtRp3185
(dp3186
g62
(dp3187
g82
g83
ssg71
g3181
sg64
(lp3188
S'HTTP_CONTENT_TYPE'
p3189
asbag57
(g78
g59
NtRp3190
(dp3191
g62
(dp3192
g89
g90
ssg71
g3181
sg64
(lp3193
S':'
asbag57
(g78
g59
NtRp3194
(dp3195
g62
(dp3196
sg71
g3181
sg64
(lp3197
g57
(g58
g59
NtRp3198
(dp3199
g62
(dp3200
g70
I3
ssg71
g3194
sg64
(lp3201
g1330
asbasbasbag57
(g73
g59
NtRp3202
(dp3203
g62
(dp3204
sg71
g3009
sg64
(lp3205
g57
(g78
g59
NtRp3206
(dp3207
g62
(dp3208
g82
g83
ssg71
g3202
sg64
(lp3209
S'HTTP_COOKIE'
p3210
asbag57
(g78
g59
NtRp3211
(dp3212
g62
(dp3213
g89
g90
ssg71
g3202
sg64
(lp3214
S':'
asbag57
(g78
g59
NtRp3215
(dp3216
g62
(dp3217
sg71
g3202
sg64
(lp3218
g57
(g58
g59
NtRp3219
(dp3220
g62
(dp3221
g70
I3
ssg71
g3215
sg64
(lp3222
g1570
asbasbasbag57
(g73
g59
NtRp3223
(dp3224
g62
(dp3225
sg71
g3009
sg64
(lp3226
g57
(g78
g59
NtRp3227
(dp3228
g62
(dp3229
g82
g83
ssg71
g3223
sg64
(lp3230
S'HTTP_HOST'
p3231
asbag57
(g78
g59
NtRp3232
(dp3233
g62
(dp3234
g89
g90
ssg71
g3223
sg64
(lp3235
S':'
asbag57
(g78
g59
NtRp3236
(dp3237
g62
(dp3238
sg71
g3223
sg64
(lp3239
g57
(g58
g59
NtRp3240
(dp3241
g62
(dp3242
g70
I3
ssg71
g3236
sg64
(lp3243
g1592
asbasbasbag57
(g73
g59
NtRp3244
(dp3245
g62
(dp3246
sg71
g3009
sg64
(lp3247
g57
(g78
g59
NtRp3248
(dp3249
g62
(dp3250
g82
g83
ssg71
g3244
sg64
(lp3251
S'HTTP_ORIGIN'
p3252
asbag57
(g78
g59
NtRp3253
(dp3254
g62
(dp3255
g89
g90
ssg71
g3244
sg64
(lp3256
S':'
asbag57
(g78
g59
NtRp3257
(dp3258
g62
(dp3259
sg71
g3244
sg64
(lp3260
g57
(g58
g59
NtRp3261
(dp3262
g62
(dp3263
g70
I3
ssg71
g3257
sg64
(lp3264
g1614
asbasbasbag57
(g73
g59
NtRp3265
(dp3266
g62
(dp3267
sg71
g3009
sg64
(lp3268
g57
(g78
g59
NtRp3269
(dp3270
g62
(dp3271
g82
g83
ssg71
g3265
sg64
(lp3272
S'HTTP_REFERER'
p3273
asbag57
(g78
g59
NtRp3274
(dp3275
g62
(dp3276
g89
g90
ssg71
g3265
sg64
(lp3277
S':'
asbag57
(g78
g59
NtRp3278
(dp3279
g62
(dp3280
sg71
g3265
sg64
(lp3281
g57
(g58
g59
NtRp3282
(dp3283
g62
(dp3284
g70
I3
ssg71
g3278
sg64
(lp3285
g1636
asbasbasbag57
(g73
g59
NtRp3286
(dp3287
g62
(dp3288
sg71
g3009
sg64
(lp3289
g57
(g78
g59
NtRp3290
(dp3291
g62
(dp3292
g82
g83
ssg71
g3286
sg64
(lp3293
S'HTTP_USER_AGENT'
p3294
asbag57
(g78
g59
NtRp3295
(dp3296
g62
(dp3297
g89
g90
ssg71
g3286
sg64
(lp3298
S':'
asbag57
(g78
g59
NtRp3299
(dp3300
g62
(dp3301
sg71
g3286
sg64
(lp3302
g57
(g58
g59
NtRp3303
(dp3304
g62
(dp3305
g70
I3
ssg71
g3299
sg64
(lp3306
g1658
asbasbasbag57
(g73
g59
NtRp3307
(dp3308
g62
(dp3309
sg71
g3009
sg64
(lp3310
g57
(g78
g59
NtRp3311
(dp3312
g62
(dp3313
g82
g83
ssg71
g3307
sg64
(lp3314
S'HTTP_X_REQUESTED_WITH'
p3315
asbag57
(g78
g59
NtRp3316
(dp3317
g62
(dp3318
g89
g90
ssg71
g3307
sg64
(lp3319
S':'
asbag57
(g78
g59
NtRp3320
(dp3321
g62
(dp3322
sg71
g3307
sg64
(lp3323
g57
(g58
g59
NtRp3324
(dp3325
g62
(dp3326
g70
I3
ssg71
g3320
sg64
(lp3327
g1680
asbasbasbag57
(g73
g59
NtRp3328
(dp3329
g62
(dp3330
sg71
g3009
sg64
(lp3331
g57
(g78
g59
NtRp3332
(dp3333
g62
(dp3334
g82
g83
ssg71
g3328
sg64
(lp3335
S'PATH_INFO'
p3336
asbag57
(g78
g59
NtRp3337
(dp3338
g62
(dp3339
g89
g90
ssg71
g3328
sg64
(lp3340
S':'
asbag57
(g78
g59
NtRp3341
(dp3342
g62
(dp3343
sg71
g3328
sg64
(lp3344
g57
(g58
g59
NtRp3345
(dp3346
g62
(dp3347
g70
I3
ssg71
g3341
sg64
(lp3348
g1744
asbasbasbag57
(g73
g59
NtRp3349
(dp3350
g62
(dp3351
sg71
g3009
sg64
(lp3352
g57
(g78
g59
NtRp3353
(dp3354
g62
(dp3355
g82
g83
ssg71
g3349
sg64
(lp3356
S'QUERY_STRING'
p3357
asbag57
(g78
g59
NtRp3358
(dp3359
g62
(dp3360
g89
g90
ssg71
g3349
sg64
(lp3361
S':'
asbag57
(g78
g59
NtRp3362
(dp3363
g62
(dp3364
sg71
g3349
sg64
(lp3365
g57
(g58
g59
NtRp3366
(dp3367
g62
(dp3368
g70
I3
ssg71
g3362
sg64
(lp3369
S''
asbasbasbag57
(g73
g59
NtRp3370
(dp3371
g62
(dp3372
sg71
g3009
sg64
(lp3373
g57
(g78
g59
NtRp3374
(dp3375
g62
(dp3376
g82
g83
ssg71
g3370
sg64
(lp3377
S'REMOTE_ADDR'
p3378
asbag57
(g78
g59
NtRp3379
(dp3380
g62
(dp3381
g89
g90
ssg71
g3370
sg64
(lp3382
S':'
asbag57
(g78
g59
NtRp3383
(dp3384
g62
(dp3385
sg71
g3370
sg64
(lp3386
g57
(g58
g59
NtRp3387
(dp3388
g62
(dp3389
g70
I3
ssg71
g3383
sg64
(lp3390
g190
asbasbasbag57
(g73
g59
NtRp3391
(dp3392
g62
(dp3393
sg71
g3009
sg64
(lp3394
g57
(g78
g59
NtRp3395
(dp3396
g62
(dp3397
g82
g83
ssg71
g3391
sg64
(lp3398
S'REMOTE_PORT'
p3399
asbag57
(g78
g59
NtRp3400
(dp3401
g62
(dp3402
g89
g90
ssg71
g3391
sg64
(lp3403
S':'
asbag57
(g78
g59
NtRp3404
(dp3405
g62
(dp3406
sg71
g3391
sg64
(lp3407
g57
(g58
g59
NtRp3408
(dp3409
g62
(dp3410
g70
I3
ssg71
g3404
sg64
(lp3411
g1808
asbasbasbag57
(g73
g59
NtRp3412
(dp3413
g62
(dp3414
sg71
g3009
sg64
(lp3415
g57
(g78
g59
NtRp3416
(dp3417
g62
(dp3418
g82
g83
ssg71
g3412
sg64
(lp3419
S'REQUEST_METHOD'
p3420
asbag57
(g78
g59
NtRp3421
(dp3422
g62
(dp3423
g89
g90
ssg71
g3412
sg64
(lp3424
S':'
asbag57
(g78
g59
NtRp3425
(dp3426
g62
(dp3427
sg71
g3412
sg64
(lp3428
g57
(g58
g59
NtRp3429
(dp3430
g62
(dp3431
g70
I3
ssg71
g3425
sg64
(lp3432
g1830
asbasbasbag57
(g73
g59
NtRp3433
(dp3434
g62
(dp3435
sg71
g3009
sg64
(lp3436
g57
(g78
g59
NtRp3437
(dp3438
g62
(dp3439
g82
g83
ssg71
g3433
sg64
(lp3440
S'SCRIPT_NAME'
p3441
asbag57
(g78
g59
NtRp3442
(dp3443
g62
(dp3444
g89
g90
ssg71
g3433
sg64
(lp3445
S':'
asbag57
(g78
g59
NtRp3446
(dp3447
g62
(dp3448
sg71
g3433
sg64
(lp3449
g57
(g58
g59
NtRp3450
(dp3451
g62
(dp3452
g70
I3
ssg71
g3446
sg64
(lp3453
S''
asbasbasbag57
(g73
g59
NtRp3454
(dp3455
g62
(dp3456
sg71
g3009
sg64
(lp3457
g57
(g78
g59
NtRp3458
(dp3459
g62
(dp3460
g82
g83
ssg71
g3454
sg64
(lp3461
S'SERVER_NAME'
p3462
asbag57
(g78
g59
NtRp3463
(dp3464
g62
(dp3465
g89
g90
ssg71
g3454
sg64
(lp3466
S':'
asbag57
(g78
g59
NtRp3467
(dp3468
g62
(dp3469
sg71
g3454
sg64
(lp3470
g57
(g58
g59
NtRp3471
(dp3472
g62
(dp3473
g70
I3
ssg71
g3467
sg64
(lp3474
g1873
asbasbasbag57
(g73
g59
NtRp3475
(dp3476
g62
(dp3477
sg71
g3009
sg64
(lp3478
g57
(g78
g59
NtRp3479
(dp3480
g62
(dp3481
g82
g83
ssg71
g3475
sg64
(lp3482
S'SERVER_PORT'
p3483
asbag57
(g78
g59
NtRp3484
(dp3485
g62
(dp3486
g89
g90
ssg71
g3475
sg64
(lp3487
S':'
asbag57
(g78
g59
NtRp3488
(dp3489
g62
(dp3490
sg71
g3475
sg64
(lp3491
g57
(g58
g59
NtRp3492
(dp3493
g62
(dp3494
g70
I3
ssg71
g3488
sg64
(lp3495
g1895
asbasbasbag57
(g73
g59
NtRp3496
(dp3497
g62
(dp3498
sg71
g3009
sg64
(lp3499
g57
(g78
g59
NtRp3500
(dp3501
g62
(dp3502
g82
g83
ssg71
g3496
sg64
(lp3503
S'SERVER_PROTOCOL'
p3504
asbag57
(g78
g59
NtRp3505
(dp3506
g62
(dp3507
g89
g90
ssg71
g3496
sg64
(lp3508
S':'
asbag57
(g78
g59
NtRp3509
(dp3510
g62
(dp3511
sg71
g3496
sg64
(lp3512
g57
(g58
g59
NtRp3513
(dp3514
g62
(dp3515
g70
I3
ssg71
g3509
sg64
(lp3516
g1917
asbasbasbag57
(g73
g59
NtRp3517
(dp3518
g62
(dp3519
sg71
g3009
sg64
(lp3520
g57
(g78
g59
NtRp3521
(dp3522
g62
(dp3523
g82
g83
ssg71
g3517
sg64
(lp3524
S'SERVER_SOFTWARE'
p3525
asbag57
(g78
g59
NtRp3526
(dp3527
g62
(dp3528
g89
g90
ssg71
g3517
sg64
(lp3529
S':'
asbag57
(g78
g59
NtRp3530
(dp3531
g62
(dp3532
sg71
g3517
sg64
(lp3533
g57
(g58
g59
NtRp3534
(dp3535
g62
(dp3536
g70
I3
ssg71
g3530
sg64
(lp3537
g1939
asbasbasbag57
(g73
g59
NtRp3538
(dp3539
g62
(dp3540
sg71
g3009
sg64
(lp3541
g57
(g78
g59
NtRp3542
(dp3543
g62
(dp3544
g82
g83
ssg71
g3538
sg64
(lp3545
S'wsgi.errors'
p3546
asbag57
(g78
g59
NtRp3547
(dp3548
g62
(dp3549
g89
g90
ssg71
g3538
sg64
(lp3550
S':'
asbag57
(g78
g59
NtRp3551
(dp3552
g62
(dp3553
sg71
g3538
sg64
(lp3554
g57
(g58
g59
NtRp3555
(dp3556
g62
(dp3557
g70
I3
ssg71
g3551
sg64
(lp3558
S"<open file '<stderr>', mode 'w' at 0xb77120d0>"
p3559
asbasbasbag57
(g73
g59
NtRp3560
(dp3561
g62
(dp3562
sg71
g3009
sg64
(lp3563
g57
(g78
g59
NtRp3564
(dp3565
g62
(dp3566
g82
g83
ssg71
g3560
sg64
(lp3567
S'wsgi.file_wrapper'
p3568
asbag57
(g78
g59
NtRp3569
(dp3570
g62
(dp3571
g89
g90
ssg71
g3560
sg64
(lp3572
S':'
asbag57
(g78
g59
NtRp3573
(dp3574
g62
(dp3575
sg71
g3560
sg64
(lp3576
g57
(g58
g59
NtRp3577
(dp3578
g62
(dp3579
g70
I3
ssg71
g3573
sg64
(lp3580
S'<class wsgiref.util.FileWrapper at 0x8cf5a1c>'
p3581
asbasbasbag57
(g73
g59
NtRp3582
(dp3583
g62
(dp3584
sg71
g3009
sg64
(lp3585
g57
(g78
g59
NtRp3586
(dp3587
g62
(dp3588
g82
g83
ssg71
g3582
sg64
(lp3589
S'wsgi.input'
p3590
asbag57
(g78
g59
NtRp3591
(dp3592
g62
(dp3593
g89
g90
ssg71
g3582
sg64
(lp3594
S':'
asbag57
(g78
g59
NtRp3595
(dp3596
g62
(dp3597
sg71
g3582
sg64
(lp3598
g57
(g58
g59
NtRp3599
(dp3600
g62
(dp3601
g70
I3
ssg71
g3595
sg64
(lp3602
S"<open file '<fdopen>', mode 'w+b' at 0x8f8a700>"
p3603
asbasbasbag57
(g73
g59
NtRp3604
(dp3605
g62
(dp3606
sg71
g3009
sg64
(lp3607
g57
(g78
g59
NtRp3608
(dp3609
g62
(dp3610
g82
g83
ssg71
g3604
sg64
(lp3611
S'wsgi.multiprocess'
p3612
asbag57
(g78
g59
NtRp3613
(dp3614
g62
(dp3615
g89
g90
ssg71
g3604
sg64
(lp3616
S':'
asbag57
(g78
g59
NtRp3617
(dp3618
g62
(dp3619
sg71
g3604
sg64
(lp3620
g57
(g58
g59
NtRp3621
(dp3622
g62
(dp3623
g70
I3
ssg71
g3617
sg64
(lp3624
g1374
asbasbasbag57
(g73
g59
NtRp3625
(dp3626
g62
(dp3627
sg71
g3009
sg64
(lp3628
g57
(g78
g59
NtRp3629
(dp3630
g62
(dp3631
g82
g83
ssg71
g3625
sg64
(lp3632
S'wsgi.multithread'
p3633
asbag57
(g78
g59
NtRp3634
(dp3635
g62
(dp3636
g89
g90
ssg71
g3625
sg64
(lp3637
S':'
asbag57
(g78
g59
NtRp3638
(dp3639
g62
(dp3640
sg71
g3625
sg64
(lp3641
g57
(g58
g59
NtRp3642
(dp3643
g62
(dp3644
g70
I3
ssg71
g3638
sg64
(lp3645
g100
asbasbasbag57
(g73
g59
NtRp3646
(dp3647
g62
(dp3648
sg71
g3009
sg64
(lp3649
g57
(g78
g59
NtRp3650
(dp3651
g62
(dp3652
g82
g83
ssg71
g3646
sg64
(lp3653
S'wsgi.run_once'
p3654
asbag57
(g78
g59
NtRp3655
(dp3656
g62
(dp3657
g89
g90
ssg71
g3646
sg64
(lp3658
S':'
asbag57
(g78
g59
NtRp3659
(dp3660
g62
(dp3661
sg71
g3646
sg64
(lp3662
g57
(g58
g59
NtRp3663
(dp3664
g62
(dp3665
g70
I3
ssg71
g3659
sg64
(lp3666
g1374
asbasbasbag57
(g73
g59
NtRp3667
(dp3668
g62
(dp3669
sg71
g3009
sg64
(lp3670
g57
(g78
g59
NtRp3671
(dp3672
g62
(dp3673
g82
g83
ssg71
g3667
sg64
(lp3674
S'wsgi.url_scheme'
p3675
asbag57
(g78
g59
NtRp3676
(dp3677
g62
(dp3678
g89
g90
ssg71
g3667
sg64
(lp3679
S':'
asbag57
(g78
g59
NtRp3680
(dp3681
g62
(dp3682
sg71
g3667
sg64
(lp3683
g57
(g58
g59
NtRp3684
(dp3685
g62
(dp3686
g70
I3
ssg71
g3680
sg64
(lp3687
g2221
asbasbasbag57
(g73
g59
NtRp3688
(dp3689
g62
(dp3690
sg71
g3009
sg64
(lp3691
g57
(g78
g59
NtRp3692
(dp3693
g62
(dp3694
g82
g83
ssg71
g3688
sg64
(lp3695
S'wsgi.version'
p3696
asbag57
(g78
g59
NtRp3697
(dp3698
g62
(dp3699
g89
g90
ssg71
g3688
sg64
(lp3700
S':'
asbag57
(g78
g59
NtRp3701
(dp3702
g62
(dp3703
sg71
g3688
sg64
(lp3704
g57
(g58
g59
NtRp3705
(dp3706
g62
(dp3707
g70
I3
ssg71
g3701
sg64
(lp3708
S'1'
asbasbasbasbasbasbasbasbasbasbasbasbasbsS'frames'
p3709
(lp3710
(dp3711
S'file'
p3712
S'/home/sanjeet/Desktop/install/Development/web2py/gluon/restricted.py'
p3713
sS'dump'
p3714
(dp3715
S'environment'
p3716
S"{'A': <class 'gluon.html.A'>, 'Auth': <class 'gluon.tools.Auth'>, 'B': <class 'gluon.html.B'>, 'BEAUTIFY': <class 'gluon.html.BEAUTIFY'>, 'BODY': <class 'gluon.html.BODY'>, 'BR': <class 'gluon.html.BR'>, 'BUTTON': <class 'gluon.html.BUTTON'>, 'CAT': <class 'gluon.html.CAT'>, 'CENTER': <class 'gluon.html.CENTER'>, 'CLEANUP': <class 'gluon.validators.CLEANUP'>, ...}"
p3717
sS'ccode'
p3718
S'<code object <module> at 0x9a84ec0, file "/home/...ions/themishrms/controllers/default.py", line 12>'
p3719
ssS'lnum'
p3720
I205
sS'lines'
p3721
(dp3722
I200
S'    try:'
p3723
sI201
S'        if type(code) == types.CodeType:'
p3724
sI202
S'            ccode = code'
p3725
sI203
S'        else:'
p3726
sI204
S'            ccode = compile2(code,layer)'
p3727
sI205
S'        exec ccode in environment'
p3728
sI206
S'    except HTTP:'
p3729
sI207
S'        raise'
p3730
sI208
S'    except RestrictedError:'
p3731
sI209
S'        # do not encapsulate (obfuscate) the original RestrictedError'
p3732
ssS'call'
p3733
S"(code='# -*- coding: utf-8 -*-\\n# this file is released ...))])\\n\\nresponse._vars=response._caller(admin_orz)\\n', environment={'A': <class 'gluon.html.A'>, 'Auth': <class 'gluon.tools.Auth'>, 'B': <class 'gluon.html.B'>, 'BEAUTIFY': <class 'gluon.html.BEAUTIFY'>, 'BODY': <class 'gluon.html.BODY'>, 'BR': <class 'gluon.html.BR'>, 'BUTTON': <class 'gluon.html.BUTTON'>, 'CAT': <class 'gluon.html.CAT'>, 'CENTER': <class 'gluon.html.CENTER'>, 'CLEANUP': <class 'gluon.validators.CLEANUP'>, ...}, layer='/home/sanjeet/Desktop/install/Development/web2py/applications/themishrms/controllers/default.py')"
p3734
sS'func'
p3735
S'restricted'
p3736
sa(dp3737
g3712
S'/home/sanjeet/Desktop/install/Development/web2py/applications/themishrms/controllers/default.py'
p3738
sg3714
(dp3739
sg3720
I1374
sg3721
(dp3740
I1363
S"@auth.requires_permission('Emp', 'auth_user')"
p3741
sI1364
S'def adata():'
p3742
sI1365
S'\timport datetime'
p3743
sI1366
S'\tdte=datetime.date.today()'
p3744
sI1367
S'\tpro=request.vars.proname'
p3745
sI1368
S'\tptask=request.vars.protask'
p3746
sI1369
S'\tptime=request.vars.protime'
p3747
sI1370
S'\tfor row in db(db.auth_user.email==auth.user.email).select():'
p3748
sI1371
S'\t\trmgr=row.reporting_manager'
p3749
sI1372
S'\treturn TABLE([TR("Project Name:",INPUT(_type="text",_name="proj",_value=pro,_readonly="readonly")),TR("Client Name:",INPUT(_type="text",_name="client",_value="Client",_readonly="readonly")),TR("Reporting Manager:",INPUT(_type="text",_name="rpm",_value=rmgr,_readonly="readonly")),TR("Project Task:",INPUT(_type="text",_name="protsk",_value=ptask,_readonly="readonly")),TR("Date:",INPUT(_type="text",_name="dte",_value=dte,_readonly="readonly")),TR("Task Discription:",INPUT(_type="text",_name="tskdisc",_value="")),TR("Total Time:",INPUT(_type="text",_name="tottme",_value=ptime))])'
p3750
ssg3733
S'()'
p3751
sg3735
S'<module>'
p3752
sa(dp3753
g3712
S'/home/sanjeet/Desktop/install/Development/web2py/gluon/globals.py'
p3754
sg3714
(dp3755
S'self'
p3756
S'undefined'
p3757
sS'f'
S'<function admin_orz>'
p3758
ssg3720
I173
sg3721
(dp3759
I168
S'        self.menu = []             # used by the default view layout'
p3760
sI169
S'        self.files = []            # used by web2py_ajax.html'
p3761
sI170
S'        self.generic_patterns = [] # patterns to allow generic views'
p3762
sI171
S"        self.delimiters = ('{{','}}')"
p3763
sI172
S'        self._vars = None'
p3764
sI173
S'        self._caller = lambda f: f()'
p3765
sI174
S'        self._view_environment = None'
p3766
sI175
S'        self._custom_commit = None'
p3767
sI176
S'        self._custom_rollback = None'
p3768
sI177
S''
ssg3733
S'(f=<function admin_orz>)'
p3769
sg3735
S'<lambda>'
p3770
sa(dp3771
g3712
S'/home/sanjeet/Desktop/install/Development/web2py/gluon/tools.py'
p3772
sg3714
(dp3773
S'action'
p3774
S'<function admin_orz>'
p3775
sS'a'
S'()'
p3776
sS'b'
g45
ssg3720
I2575
sg3721
(dp3777
I2570
S'                    flag = condition'
p3778
sI2571
S'                if not flag:'
p3779
sI2572
S'                    current.session.flash = self.messages.access_denied'
p3780
sI2573
S'                    return call_or_redirect('
p3781
sI2574
S'                        self.settings.on_failed_authorization)'
p3782
sI2575
S'                return action(*a, **b)'
p3783
sI2576
S'            f.__doc__ = action.__doc__'
p3784
sI2577
S'            f.__name__ = action.__name__'
p3785
sI2578
S'            f.__dict__.update(action.__dict__)'
p3786
sI2579
S'            return f'
p3787
ssg3733
S'(*a=(), **b={})'
p3788
sg3735
S'f'
sa(dp3789
g3712
S'/home/sanjeet/Desktop/install/Development/web2py/applications/themishrms/controllers/default.py'
p3790
sg3714
(dp3791
S'global request'
p3792
S"<Storage {'body': <open file '<fdopen>', mode 'w... 'post_vars': <Storage {'orz': '1', 'dp': '1'}>}>"
p3793
sS'builtinvars'
p3794
S'<built-in function vars>'
p3795
sS'db.auth_user.organization_name'
p3796
S'<gluon.dal.Field object>'
p3797
sS'db.auth_user'
p3798
S"<Table {'employee_status': <gluon.dal.Field obje...ion_key': <gluon.dal.Field object at 0x9a20e4c>}>"
p3799
sS'vars.orz'
p3800
g3757
sS'global db'
p3801
S"<DAL {'auth_event': <Table {'origin': <gluon.dal...9d174ac>, '_singular': 'Add new organization'}>}>"
p3802
sS'request.vars'
p3803
S"<Storage {'orz': '1', 'dp': '1'}>"
p3804
sS'request.vars.dp'
p3805
S"'1'"
p3806
sS'db.auth_user.department'
p3807
S'<gluon.dal.Field object>'
p3808
sS'row'
p3809
g3757
ssg3720
I773
sg3721
(dp3810
I768
S'\t#for row in db(db.add_new_organization.id == request,vars.orz).select():'
p3811
sI769
S'\t\t#organization=row.organization_name'
p3812
sI770
S'\t#for row1 in db(db.add_new_department.id == request.vars.dp).select():'
p3813
sI771
S'\t\t#department=row1.department'
p3814
sI772
S'\tusr=[]'
p3815
sI773
S'\tfor row in db((db.auth_user.department == request.vars.dp) & (db.auth_user.organization_name == request,vars.orz)).select():'
p3816
sI774
S'\t\tusr.append(row.email)'
p3817
sI775
S'\treturn SELECT(_id="usr",_name="usr",*[OPTION((emp), _value=str (emp)) for emp in usr])'
p3818
sI776
S''
sI777
S"@auth.requires_permission('CRUD', 'auth_user')"
p3819
ssg3733
S'()'
p3820
sg3735
S'admin_orz'
p3821
sasS'pyver'
p3822
S'Python 2.6.5: /usr/bin/python'
p3823
sS'session'
p3824
g57
(g58
g59
NtRp3825
(dp3826
g62
(dp3827
sg64
(lp3828
g57
(g66
g59
NtRp3829
(dp3830
g62
(dp3831
g70
I5
ssg71
Nsg64
(lp3832
g57
(g73
g59
NtRp3833
(dp3834
g62
(dp3835
sg71
g3829
sg64
(lp3836
g57
(g78
g59
NtRp3837
(dp3838
g62
(dp3839
g82
g83
ssg71
g3833
sg64
(lp3840
S'auth'
p3841
asbag57
(g78
g59
NtRp3842
(dp3843
g62
(dp3844
g89
g90
ssg71
g3833
sg64
(lp3845
S':'
asbag57
(g78
g59
NtRp3846
(dp3847
g62
(dp3848
sg71
g3833
sg64
(lp3849
g57
(g58
g59
NtRp3850
(dp3851
g62
(dp3852
g70
I5
ssg71
g3846
sg64
(lp3853
g57
(g66
g59
NtRp3854
(dp3855
g62
(dp3856
g70
I4
ssg71
Nsg64
(lp3857
g57
(g73
g59
NtRp3858
(dp3859
g62
(dp3860
sg71
g3854
sg64
(lp3861
g57
(g78
g59
NtRp3862
(dp3863
g62
(dp3864
g82
g83
ssg71
g3858
sg64
(lp3865
S'expiration'
p3866
asbag57
(g78
g59
NtRp3867
(dp3868
g62
(dp3869
g89
g90
ssg71
g3858
sg64
(lp3870
S':'
asbag57
(g78
g59
NtRp3871
(dp3872
g62
(dp3873
sg71
g3858
sg64
(lp3874
g57
(g58
g59
NtRp3875
(dp3876
g62
(dp3877
g70
I4
ssg71
g3871
sg64
(lp3878
S'3600'
p3879
asbasbasbag57
(g73
g59
NtRp3880
(dp3881
g62
(dp3882
sg71
g3854
sg64
(lp3883
g57
(g78
g59
NtRp3884
(dp3885
g62
(dp3886
g82
g83
ssg71
g3880
sg64
(lp3887
S'hmac_key'
p3888
asbag57
(g78
g59
NtRp3889
(dp3890
g62
(dp3891
g89
g90
ssg71
g3880
sg64
(lp3892
S':'
asbag57
(g78
g59
NtRp3893
(dp3894
g62
(dp3895
sg71
g3880
sg64
(lp3896
g57
(g58
g59
NtRp3897
(dp3898
g62
(dp3899
g70
I4
ssg71
g3893
sg64
(lp3900
S'412d7da1-8c1d-446a-9dc9-e2e7f7509c6f'
p3901
asbasbasbag57
(g73
g59
NtRp3902
(dp3903
g62
(dp3904
sg71
g3854
sg64
(lp3905
g57
(g78
g59
NtRp3906
(dp3907
g62
(dp3908
g82
g83
ssg71
g3902
sg64
(lp3909
S'last_visit'
p3910
asbag57
(g78
g59
NtRp3911
(dp3912
g62
(dp3913
g89
g90
ssg71
g3902
sg64
(lp3914
S':'
asbag57
(g78
g59
NtRp3915
(dp3916
g62
(dp3917
sg71
g3902
sg64
(lp3918
g57
(g58
g59
NtRp3919
(dp3920
g62
(dp3921
g70
I4
ssg71
g3915
sg64
(lp3922
S'datetime.datetime(2012, 5, 5, 23, 33, 30, 228628)'
p3923
asbasbasbag57
(g73
g59
NtRp3924
(dp3925
g62
(dp3926
sg71
g3854
sg64
(lp3927
g57
(g78
g59
NtRp3928
(dp3929
g62
(dp3930
g82
g83
ssg71
g3924
sg64
(lp3931
S'remember'
p3932
asbag57
(g78
g59
NtRp3933
(dp3934
g62
(dp3935
g89
g90
ssg71
g3924
sg64
(lp3936
S':'
asbag57
(g78
g59
NtRp3937
(dp3938
g62
(dp3939
sg71
g3924
sg64
(lp3940
g57
(g58
g59
NtRp3941
(dp3942
g62
(dp3943
g70
I4
ssg71
g3937
sg64
(lp3944
g1374
asbasbasbag57
(g73
g59
NtRp3945
(dp3946
g62
(dp3947
sg71
g3854
sg64
(lp3948
g57
(g78
g59
NtRp3949
(dp3950
g62
(dp3951
g82
g83
ssg71
g3945
sg64
(lp3952
S'user'
p3953
asbag57
(g78
g59
NtRp3954
(dp3955
g62
(dp3956
g89
g90
ssg71
g3945
sg64
(lp3957
S':'
asbag57
(g78
g59
NtRp3958
(dp3959
g62
(dp3960
sg71
g3945
sg64
(lp3961
g57
(g58
g59
NtRp3962
(dp3963
g62
(dp3964
g70
I4
ssg71
g3958
sg64
(lp3965
g57
(g66
g59
NtRp3966
(dp3967
g62
(dp3968
g70
I3
ssg71
Nsg64
(lp3969
g57
(g73
g59
NtRp3970
(dp3971
g62
(dp3972
sg71
g3966
sg64
(lp3973
g57
(g78
g59
NtRp3974
(dp3975
g62
(dp3976
g82
g83
ssg71
g3970
sg64
(lp3977
S'date_of_exit'
p3978
asbag57
(g78
g59
NtRp3979
(dp3980
g62
(dp3981
g89
g90
ssg71
g3970
sg64
(lp3982
S':'
asbag57
(g78
g59
NtRp3983
(dp3984
g62
(dp3985
sg71
g3970
sg64
(lp3986
g57
(g58
g59
NtRp3987
(dp3988
g62
(dp3989
g70
I3
ssg71
g3983
sg64
(lp3990
S'None'
p3991
asbasbasbag57
(g73
g59
NtRp3992
(dp3993
g62
(dp3994
sg71
g3966
sg64
(lp3995
g57
(g78
g59
NtRp3996
(dp3997
g62
(dp3998
g82
g83
ssg71
g3992
sg64
(lp3999
S'date_of_joining'
p4000
asbag57
(g78
g59
NtRp4001
(dp4002
g62
(dp4003
g89
g90
ssg71
g3992
sg64
(lp4004
S':'
asbag57
(g78
g59
NtRp4005
(dp4006
g62
(dp4007
sg71
g3992
sg64
(lp4008
g57
(g58
g59
NtRp4009
(dp4010
g62
(dp4011
g70
I3
ssg71
g4005
sg64
(lp4012
S'None'
p4013
asbasbasbag57
(g73
g59
NtRp4014
(dp4015
g62
(dp4016
sg71
g3966
sg64
(lp4017
g57
(g78
g59
NtRp4018
(dp4019
g62
(dp4020
g82
g83
ssg71
g4014
sg64
(lp4021
S'department'
p4022
asbag57
(g78
g59
NtRp4023
(dp4024
g62
(dp4025
g89
g90
ssg71
g4014
sg64
(lp4026
S':'
asbag57
(g78
g59
NtRp4027
(dp4028
g62
(dp4029
sg71
g4014
sg64
(lp4030
g57
(g58
g59
NtRp4031
(dp4032
g62
(dp4033
g70
I3
ssg71
g4027
sg64
(lp4034
S'None'
p4035
asbasbasbag57
(g73
g59
NtRp4036
(dp4037
g62
(dp4038
sg71
g3966
sg64
(lp4039
g57
(g78
g59
NtRp4040
(dp4041
g62
(dp4042
g82
g83
ssg71
g4036
sg64
(lp4043
S'designation'
p4044
asbag57
(g78
g59
NtRp4045
(dp4046
g62
(dp4047
g89
g90
ssg71
g4036
sg64
(lp4048
S':'
asbag57
(g78
g59
NtRp4049
(dp4050
g62
(dp4051
sg71
g4036
sg64
(lp4052
g57
(g58
g59
NtRp4053
(dp4054
g62
(dp4055
g70
I3
ssg71
g4049
sg64
(lp4056
S'None'
p4057
asbasbasbag57
(g73
g59
NtRp4058
(dp4059
g62
(dp4060
sg71
g3966
sg64
(lp4061
g57
(g78
g59
NtRp4062
(dp4063
g62
(dp4064
g82
g83
ssg71
g4058
sg64
(lp4065
S'email'
p4066
asbag57
(g78
g59
NtRp4067
(dp4068
g62
(dp4069
g89
g90
ssg71
g4058
sg64
(lp4070
S':'
asbag57
(g78
g59
NtRp4071
(dp4072
g62
(dp4073
sg71
g4058
sg64
(lp4074
g57
(g58
g59
NtRp4075
(dp4076
g62
(dp4077
g70
I3
ssg71
g4071
sg64
(lp4078
S'admin@themislexsol.com'
p4079
asbasbasbag57
(g73
g59
NtRp4080
(dp4081
g62
(dp4082
sg71
g3966
sg64
(lp4083
g57
(g78
g59
NtRp4084
(dp4085
g62
(dp4086
g82
g83
ssg71
g4080
sg64
(lp4087
S'employee_code'
p4088
asbag57
(g78
g59
NtRp4089
(dp4090
g62
(dp4091
g89
g90
ssg71
g4080
sg64
(lp4092
S':'
asbag57
(g78
g59
NtRp4093
(dp4094
g62
(dp4095
sg71
g4080
sg64
(lp4096
g57
(g58
g59
NtRp4097
(dp4098
g62
(dp4099
g70
I3
ssg71
g4093
sg64
(lp4100
S'None'
p4101
asbasbasbag57
(g73
g59
NtRp4102
(dp4103
g62
(dp4104
sg71
g3966
sg64
(lp4105
g57
(g78
g59
NtRp4106
(dp4107
g62
(dp4108
g82
g83
ssg71
g4102
sg64
(lp4109
S'employee_status'
p4110
asbag57
(g78
g59
NtRp4111
(dp4112
g62
(dp4113
g89
g90
ssg71
g4102
sg64
(lp4114
S':'
asbag57
(g78
g59
NtRp4115
(dp4116
g62
(dp4117
sg71
g4102
sg64
(lp4118
g57
(g58
g59
NtRp4119
(dp4120
g62
(dp4121
g70
I3
ssg71
g4115
sg64
(lp4122
S'None'
p4123
asbasbasbag57
(g73
g59
NtRp4124
(dp4125
g62
(dp4126
sg71
g3966
sg64
(lp4127
g57
(g78
g59
NtRp4128
(dp4129
g62
(dp4130
g82
g83
ssg71
g4124
sg64
(lp4131
S'exit_remark'
p4132
asbag57
(g78
g59
NtRp4133
(dp4134
g62
(dp4135
g89
g90
ssg71
g4124
sg64
(lp4136
S':'
asbag57
(g78
g59
NtRp4137
(dp4138
g62
(dp4139
sg71
g4124
sg64
(lp4140
g57
(g58
g59
NtRp4141
(dp4142
g62
(dp4143
g70
I3
ssg71
g4137
sg64
(lp4144
S'None'
p4145
asbasbasbag57
(g73
g59
NtRp4146
(dp4147
g62
(dp4148
sg71
g3966
sg64
(lp4149
g57
(g78
g59
NtRp4150
(dp4151
g62
(dp4152
g82
g83
ssg71
g4146
sg64
(lp4153
S'first_name'
p4154
asbag57
(g78
g59
NtRp4155
(dp4156
g62
(dp4157
g89
g90
ssg71
g4146
sg64
(lp4158
S':'
asbag57
(g78
g59
NtRp4159
(dp4160
g62
(dp4161
sg71
g4146
sg64
(lp4162
g57
(g58
g59
NtRp4163
(dp4164
g62
(dp4165
g70
I3
ssg71
g4159
sg64
(lp4166
S''
asbasbasbag57
(g73
g59
NtRp4167
(dp4168
g62
(dp4169
sg71
g3966
sg64
(lp4170
g57
(g78
g59
NtRp4171
(dp4172
g62
(dp4173
g82
g83
ssg71
g4167
sg64
(lp4174
S'id'
p4175
asbag57
(g78
g59
NtRp4176
(dp4177
g62
(dp4178
g89
g90
ssg71
g4167
sg64
(lp4179
S':'
asbag57
(g78
g59
NtRp4180
(dp4181
g62
(dp4182
sg71
g4167
sg64
(lp4183
g57
(g58
g59
NtRp4184
(dp4185
g62
(dp4186
g70
I3
ssg71
g4180
sg64
(lp4187
S'1'
asbasbasbag57
(g73
g59
NtRp4188
(dp4189
g62
(dp4190
sg71
g3966
sg64
(lp4191
g57
(g78
g59
NtRp4192
(dp4193
g62
(dp4194
g82
g83
ssg71
g4188
sg64
(lp4195
S'last_name'
p4196
asbag57
(g78
g59
NtRp4197
(dp4198
g62
(dp4199
g89
g90
ssg71
g4188
sg64
(lp4200
S':'
asbag57
(g78
g59
NtRp4201
(dp4202
g62
(dp4203
sg71
g4188
sg64
(lp4204
g57
(g58
g59
NtRp4205
(dp4206
g62
(dp4207
g70
I3
ssg71
g4201
sg64
(lp4208
S''
asbasbasbag57
(g73
g59
NtRp4209
(dp4210
g62
(dp4211
sg71
g3966
sg64
(lp4212
g57
(g78
g59
NtRp4213
(dp4214
g62
(dp4215
g82
g83
ssg71
g4209
sg64
(lp4216
S'location'
p4217
asbag57
(g78
g59
NtRp4218
(dp4219
g62
(dp4220
g89
g90
ssg71
g4209
sg64
(lp4221
S':'
asbag57
(g78
g59
NtRp4222
(dp4223
g62
(dp4224
sg71
g4209
sg64
(lp4225
g57
(g58
g59
NtRp4226
(dp4227
g62
(dp4228
g70
I3
ssg71
g4222
sg64
(lp4229
S'None'
p4230
asbasbasbag57
(g73
g59
NtRp4231
(dp4232
g62
(dp4233
sg71
g3966
sg64
(lp4234
g57
(g78
g59
NtRp4235
(dp4236
g62
(dp4237
g82
g83
ssg71
g4231
sg64
(lp4238
S'organization_name'
p4239
asbag57
(g78
g59
NtRp4240
(dp4241
g62
(dp4242
g89
g90
ssg71
g4231
sg64
(lp4243
S':'
asbag57
(g78
g59
NtRp4244
(dp4245
g62
(dp4246
sg71
g4231
sg64
(lp4247
g57
(g58
g59
NtRp4248
(dp4249
g62
(dp4250
g70
I3
ssg71
g4244
sg64
(lp4251
S'None'
p4252
asbasbasbag57
(g73
g59
NtRp4253
(dp4254
g62
(dp4255
sg71
g3966
sg64
(lp4256
g57
(g78
g59
NtRp4257
(dp4258
g62
(dp4259
g82
g83
ssg71
g4253
sg64
(lp4260
S'password'
p4261
asbag57
(g78
g59
NtRp4262
(dp4263
g62
(dp4264
g89
g90
ssg71
g4253
sg64
(lp4265
S':'
asbag57
(g78
g59
NtRp4266
(dp4267
g62
(dp4268
sg71
g4253
sg64
(lp4269
g57
(g58
g59
NtRp4270
(dp4271
g62
(dp4272
g70
I3
ssg71
g4266
sg64
(lp4273
S'd9112a75303bdd71a94bf896ec050b70'
p4274
asbasbasbag57
(g73
g59
NtRp4275
(dp4276
g62
(dp4277
sg71
g3966
sg64
(lp4278
g57
(g78
g59
NtRp4279
(dp4280
g62
(dp4281
g82
g83
ssg71
g4275
sg64
(lp4282
S'personal_email'
p4283
asbag57
(g78
g59
NtRp4284
(dp4285
g62
(dp4286
g89
g90
ssg71
g4275
sg64
(lp4287
S':'
asbag57
(g78
g59
NtRp4288
(dp4289
g62
(dp4290
sg71
g4275
sg64
(lp4291
g57
(g58
g59
NtRp4292
(dp4293
g62
(dp4294
g70
I3
ssg71
g4288
sg64
(lp4295
S'None'
p4296
asbasbasbag57
(g73
g59
NtRp4297
(dp4298
g62
(dp4299
sg71
g3966
sg64
(lp4300
g57
(g78
g59
NtRp4301
(dp4302
g62
(dp4303
g82
g83
ssg71
g4297
sg64
(lp4304
S'registration_id'
p4305
asbag57
(g78
g59
NtRp4306
(dp4307
g62
(dp4308
g89
g90
ssg71
g4297
sg64
(lp4309
S':'
asbag57
(g78
g59
NtRp4310
(dp4311
g62
(dp4312
sg71
g4297
sg64
(lp4313
g57
(g58
g59
NtRp4314
(dp4315
g62
(dp4316
g70
I3
ssg71
g4310
sg64
(lp4317
S''
asbasbasbag57
(g73
g59
NtRp4318
(dp4319
g62
(dp4320
sg71
g3966
sg64
(lp4321
g57
(g78
g59
NtRp4322
(dp4323
g62
(dp4324
g82
g83
ssg71
g4318
sg64
(lp4325
S'registration_key'
p4326
asbag57
(g78
g59
NtRp4327
(dp4328
g62
(dp4329
g89
g90
ssg71
g4318
sg64
(lp4330
S':'
asbag57
(g78
g59
NtRp4331
(dp4332
g62
(dp4333
sg71
g4318
sg64
(lp4334
g57
(g58
g59
NtRp4335
(dp4336
g62
(dp4337
g70
I3
ssg71
g4331
sg64
(lp4338
S''
asbasbasbag57
(g73
g59
NtRp4339
(dp4340
g62
(dp4341
sg71
g3966
sg64
(lp4342
g57
(g78
g59
NtRp4343
(dp4344
g62
(dp4345
g82
g83
ssg71
g4339
sg64
(lp4346
S'reporting_manager'
p4347
asbag57
(g78
g59
NtRp4348
(dp4349
g62
(dp4350
g89
g90
ssg71
g4339
sg64
(lp4351
S':'
asbag57
(g78
g59
NtRp4352
(dp4353
g62
(dp4354
sg71
g4339
sg64
(lp4355
g57
(g58
g59
NtRp4356
(dp4357
g62
(dp4358
g70
I3
ssg71
g4352
sg64
(lp4359
S'None'
p4360
asbasbasbag57
(g73
g59
NtRp4361
(dp4362
g62
(dp4363
sg71
g3966
sg64
(lp4364
g57
(g78
g59
NtRp4365
(dp4366
g62
(dp4367
g82
g83
ssg71
g4361
sg64
(lp4368
S'reset_password_key'
p4369
asbag57
(g78
g59
NtRp4370
(dp4371
g62
(dp4372
g89
g90
ssg71
g4361
sg64
(lp4373
S':'
asbag57
(g78
g59
NtRp4374
(dp4375
g62
(dp4376
sg71
g4361
sg64
(lp4377
g57
(g58
g59
NtRp4378
(dp4379
g62
(dp4380
g70
I3
ssg71
g4374
sg64
(lp4381
S''
asbasbasbasbasbasbasbag57
(g73
g59
NtRp4382
(dp4383
g62
(dp4384
sg71
g3854
sg64
(lp4385
g57
(g78
g59
NtRp4386
(dp4387
g62
(dp4388
g82
g83
ssg71
g4382
sg64
(lp4389
S'user_groups'
p4390
asbag57
(g78
g59
NtRp4391
(dp4392
g62
(dp4393
g89
g90
ssg71
g4382
sg64
(lp4394
S':'
asbag57
(g78
g59
NtRp4395
(dp4396
g62
(dp4397
sg71
g4382
sg64
(lp4398
g57
(g58
g59
NtRp4399
(dp4400
g62
(dp4401
g70
I4
ssg71
g4395
sg64
(lp4402
g57
(g66
g59
NtRp4403
(dp4404
g62
(dp4405
g70
I3
ssg71
Nsg64
(lp4406
g57
(g73
g59
NtRp4407
(dp4408
g62
(dp4409
sg71
g4403
sg64
(lp4410
g57
(g78
g59
NtRp4411
(dp4412
g62
(dp4413
g82
g83
ssg71
g4407
sg64
(lp4414
S'1'
asbag57
(g78
g59
NtRp4415
(dp4416
g62
(dp4417
g89
g90
ssg71
g4407
sg64
(lp4418
S':'
asbag57
(g78
g59
NtRp4419
(dp4420
g62
(dp4421
sg71
g4407
sg64
(lp4422
g57
(g58
g59
NtRp4423
(dp4424
g62
(dp4425
g70
I3
ssg71
g4419
sg64
(lp4426
S'Admin'
p4427
asbasbasbag57
(g73
g59
NtRp4428
(dp4429
g62
(dp4430
sg71
g4403
sg64
(lp4431
g57
(g78
g59
NtRp4432
(dp4433
g62
(dp4434
g82
g83
ssg71
g4428
sg64
(lp4435
S'3'
asbag57
(g78
g59
NtRp4436
(dp4437
g62
(dp4438
g89
g90
ssg71
g4428
sg64
(lp4439
S':'
asbag57
(g78
g59
NtRp4440
(dp4441
g62
(dp4442
sg71
g4428
sg64
(lp4443
g57
(g58
g59
NtRp4444
(dp4445
g62
(dp4446
g70
I3
ssg71
g4440
sg64
(lp4447
S'Mgr'
p4448
asbasbasbasbasbasbasbasbasbasbasbag57
(g73
g59
NtRp4449
(dp4450
g62
(dp4451
sg71
g3829
sg64
(lp4452
g57
(g78
g59
NtRp4453
(dp4454
g62
(dp4455
g82
g83
ssg71
g4449
sg64
(lp4456
S'cutime'
p4457
asbag57
(g78
g59
NtRp4458
(dp4459
g62
(dp4460
g89
g90
ssg71
g4449
sg64
(lp4461
S':'
asbag57
(g78
g59
NtRp4462
(dp4463
g62
(dp4464
sg71
g4449
sg64
(lp4465
g57
(g58
g59
NtRp4466
(dp4467
g62
(dp4468
g70
I5
ssg71
g4462
sg64
(lp4469
S'23:23:35'
p4470
asbasbasbag57
(g73
g59
NtRp4471
(dp4472
g62
(dp4473
sg71
g3829
sg64
(lp4474
g57
(g78
g59
NtRp4475
(dp4476
g62
(dp4477
g82
g83
ssg71
g4471
sg64
(lp4478
S'fname'
p4479
asbag57
(g78
g59
NtRp4480
(dp4481
g62
(dp4482
g89
g90
ssg71
g4471
sg64
(lp4483
S':'
asbag57
(g78
g59
NtRp4484
(dp4485
g62
(dp4486
sg71
g4471
sg64
(lp4487
g57
(g58
g59
NtRp4488
(dp4489
g62
(dp4490
g70
I5
ssg71
g4484
sg64
(lp4491
S'Sanjeet'
p4492
asbasbasbag57
(g73
g59
NtRp4493
(dp4494
g62
(dp4495
sg71
g3829
sg64
(lp4496
g57
(g78
g59
NtRp4497
(dp4498
g62
(dp4499
g82
g83
ssg71
g4493
sg64
(lp4500
S'mail'
p4501
asbag57
(g78
g59
NtRp4502
(dp4503
g62
(dp4504
g89
g90
ssg71
g4493
sg64
(lp4505
S':'
asbag57
(g78
g59
NtRp4506
(dp4507
g62
(dp4508
sg71
g4493
sg64
(lp4509
g57
(g58
g59
NtRp4510
(dp4511
g62
(dp4512
g70
I5
ssg71
g4506
sg64
(lp4513
S'sanjeet.tls@gmail.com'
p4514
asbasbasbag57
(g73
g59
NtRp4515
(dp4516
g62
(dp4517
sg71
g3829
sg64
(lp4518
g57
(g78
g59
NtRp4519
(dp4520
g62
(dp4521
g82
g83
ssg71
g4515
sg64
(lp4522
S'mgr'
p4523
asbag57
(g78
g59
NtRp4524
(dp4525
g62
(dp4526
g89
g90
ssg71
g4515
sg64
(lp4527
S':'
asbag57
(g78
g59
NtRp4528
(dp4529
g62
(dp4530
sg71
g4515
sg64
(lp4531
g57
(g58
g59
NtRp4532
(dp4533
g62
(dp4534
g70
I5
ssg71
g4528
sg64
(lp4535
S'admin@themislexsol.com'
p4536
asbasbasbag57
(g73
g59
NtRp4537
(dp4538
g62
(dp4539
sg71
g3829
sg64
(lp4540
g57
(g78
g59
NtRp4541
(dp4542
g62
(dp4543
g82
g83
ssg71
g4537
sg64
(lp4544
S'pmail'
p4545
asbag57
(g78
g59
NtRp4546
(dp4547
g62
(dp4548
g89
g90
ssg71
g4537
sg64
(lp4549
S':'
asbag57
(g78
g59
NtRp4550
(dp4551
g62
(dp4552
sg71
g4537
sg64
(lp4553
g57
(g58
g59
NtRp4554
(dp4555
g62
(dp4556
g70
I5
ssg71
g4550
sg64
(lp4557
S'sanjeet.tls@gmail.com'
p4558
asbasbasbag57
(g73
g59
NtRp4559
(dp4560
g62
(dp4561
sg71
g3829
sg64
(lp4562
g57
(g78
g59
NtRp4563
(dp4564
g62
(dp4565
g82
g83
ssg71
g4559
sg64
(lp4566
S'starttime'
p4567
asbag57
(g78
g59
NtRp4568
(dp4569
g62
(dp4570
g89
g90
ssg71
g4559
sg64
(lp4571
S':'
asbag57
(g78
g59
NtRp4572
(dp4573
g62
(dp4574
sg71
g4559
sg64
(lp4575
g57
(g58
g59
NtRp4576
(dp4577
g62
(dp4578
g70
I5
ssg71
g4572
sg64
(lp4579
S'datetime.datetime(2012, 5, 5, 23, 23, 53, 378751)'
p4580
asbasbasbag57
(g73
g59
NtRp4581
(dp4582
g62
(dp4583
sg71
g3829
sg64
(lp4584
g57
(g78
g59
NtRp4585
(dp4586
g62
(dp4587
g82
g83
ssg71
g4581
sg64
(lp4588
S'time'
p4589
asbag57
(g78
g59
NtRp4590
(dp4591
g62
(dp4592
g89
g90
ssg71
g4581
sg64
(lp4593
S':'
asbag57
(g78
g59
NtRp4594
(dp4595
g62
(dp4596
sg71
g4581
sg64
(lp4597
g57
(g58
g59
NtRp4598
(dp4599
g62
(dp4600
g70
I5
ssg71
g4594
sg64
(lp4601
S'23:23:53'
p4602
asbasbasbasbasbsS'etype'
p4603
S"<type 'exceptions.AttributeError'>"
p4604
sS'date'
p4605
S'Sat May  5 23:35:29 2012'
p4606
sS'response'
p4607
g57
(g58
g59
NtRp4608
(dp4609
g62
(dp4610
sg64
(lp4611
g57
(g66
g59
NtRp4612
(dp4613
g62
(dp4614
g70
I5
ssg71
Nsg64
(lp4615
g57
(g73
g59
NtRp4616
(dp4617
g62
(dp4618
sg71
g4612
sg64
(lp4619
g57
(g78
g59
NtRp4620
(dp4621
g62
(dp4622
g82
g83
ssg71
g4616
sg64
(lp4623
S'atlsmenu'
p4624
asbag57
(g78
g59
NtRp4625
(dp4626
g62
(dp4627
g89
g90
ssg71
g4616
sg64
(lp4628
S':'
asbag57
(g78
g59
NtRp4629
(dp4630
g62
(dp4631
sg71
g4616
sg64
(lp4632
g57
(g58
g59
NtRp4633
(dp4634
g62
(dp4635
g70
I5
ssg71
g4629
sg64
(lp4636
g57
(g66
g59
NtRp4637
(dp4638
g62
(dp4639
g70
I4
ssg71
Nsg64
(lp4640
g57
(g73
g59
NtRp4641
(dp4642
g62
(dp4643
sg71
g4637
sg64
(lp4644
g57
(g78
g59
NtRp4645
(dp4646
g62
(dp4647
sg71
g4641
sg64
(lp4648
g57
(g58
g59
NtRp4649
(dp4650
g62
(dp4651
g70
I4
ssg71
g4645
sg64
(lp4652
g57
(g66
g59
NtRp4653
(dp4654
g62
(dp4655
g70
I3
ssg71
Nsg64
(lp4656
g57
(g73
g59
NtRp4657
(dp4658
g62
(dp4659
sg71
g4653
sg64
(lp4660
g57
(g78
g59
NtRp4661
(dp4662
g62
(dp4663
sg71
g4657
sg64
(lp4664
g57
(g58
g59
NtRp4665
(dp4666
g62
(dp4667
g70
I3
ssg71
g4661
sg64
(lp4668
cgluon.languages
lazyT_unpickle
p4669
(S's\x07\x00\x00\x00Website'
tRp4670
asbasbasbag57
(g73
g59
NtRp4671
(dp4672
g62
(dp4673
sg71
g4653
sg64
(lp4674
g57
(g78
g59
NtRp4675
(dp4676
g62
(dp4677
sg71
g4671
sg64
(lp4678
g57
(g58
g59
NtRp4679
(dp4680
g62
(dp4681
g70
I3
ssg71
g4675
sg64
(lp4682
g1374
asbasbasbag57
(g73
g59
NtRp4683
(dp4684
g62
(dp4685
sg71
g4653
sg64
(lp4686
g57
(g78
g59
NtRp4687
(dp4688
g62
(dp4689
sg71
g4683
sg64
(lp4690
g57
(g58
g59
NtRp4691
(dp4692
g62
(dp4693
g70
I3
ssg71
g4687
sg64
(lp4694
S'/themishrms/default/index'
p4695
asbasbasbag57
(g73
g59
NtRp4696
(dp4697
g62
(dp4698
sg71
g4653
sg64
(lp4699
g57
(g78
g59
NtRp4700
(dp4701
g62
(dp4702
sg71
g4696
sg64
(lp4703
g57
(g58
g59
NtRp4704
(dp4705
g62
(dp4706
g70
I3
ssg71
g4700
sg64
(lp4707
g57
(g66
g59
NtRp4708
(dp4709
g62
(dp4710
g70
I2
ssg71
Nsg64
(lp4711
sbasbasbasbasbasbasbasbag57
(g73
g59
NtRp4712
(dp4713
g62
(dp4714
sg71
g4637
sg64
(lp4715
g57
(g78
g59
NtRp4716
(dp4717
g62
(dp4718
sg71
g4712
sg64
(lp4719
g57
(g58
g59
NtRp4720
(dp4721
g62
(dp4722
g70
I4
ssg71
g4716
sg64
(lp4723
g57
(g66
g59
NtRp4724
(dp4725
g62
(dp4726
g70
I3
ssg71
Nsg64
(lp4727
g57
(g73
g59
NtRp4728
(dp4729
g62
(dp4730
sg71
g4724
sg64
(lp4731
g57
(g78
g59
NtRp4732
(dp4733
g62
(dp4734
sg71
g4728
sg64
(lp4735
g57
(g58
g59
NtRp4736
(dp4737
g62
(dp4738
g70
I3
ssg71
g4732
sg64
(lp4739
g4669
(S's\x07\x00\x00\x00Webmail'
tRp4740
asbasbasbag57
(g73
g59
NtRp4741
(dp4742
g62
(dp4743
sg71
g4724
sg64
(lp4744
g57
(g78
g59
NtRp4745
(dp4746
g62
(dp4747
sg71
g4741
sg64
(lp4748
g57
(g58
g59
NtRp4749
(dp4750
g62
(dp4751
g70
I3
ssg71
g4745
sg64
(lp4752
g1374
asbasbasbag57
(g73
g59
NtRp4753
(dp4754
g62
(dp4755
sg71
g4724
sg64
(lp4756
g57
(g78
g59
NtRp4757
(dp4758
g62
(dp4759
sg71
g4753
sg64
(lp4760
g57
(g58
g59
NtRp4761
(dp4762
g62
(dp4763
g70
I3
ssg71
g4757
sg64
(lp4764
S'/themishrms/default/#'
p4765
asbasbasbag57
(g73
g59
NtRp4766
(dp4767
g62
(dp4768
sg71
g4724
sg64
(lp4769
g57
(g78
g59
NtRp4770
(dp4771
g62
(dp4772
sg71
g4766
sg64
(lp4773
g57
(g58
g59
NtRp4774
(dp4775
g62
(dp4776
g70
I3
ssg71
g4770
sg64
(lp4777
g57
(g66
g59
NtRp4778
(dp4779
g62
(dp4780
g70
I2
ssg71
Nsg64
(lp4781
sbasbasbasbasbasbasbasbag57
(g73
g59
NtRp4782
(dp4783
g62
(dp4784
sg71
g4637
sg64
(lp4785
g57
(g78
g59
NtRp4786
(dp4787
g62
(dp4788
sg71
g4782
sg64
(lp4789
g57
(g58
g59
NtRp4790
(dp4791
g62
(dp4792
g70
I4
ssg71
g4786
sg64
(lp4793
g57
(g66
g59
NtRp4794
(dp4795
g62
(dp4796
g70
I3
ssg71
Nsg64
(lp4797
g57
(g73
g59
NtRp4798
(dp4799
g62
(dp4800
sg71
g4794
sg64
(lp4801
g57
(g78
g59
NtRp4802
(dp4803
g62
(dp4804
sg71
g4798
sg64
(lp4805
g57
(g58
g59
NtRp4806
(dp4807
g62
(dp4808
g70
I3
ssg71
g4802
sg64
(lp4809
g4669
(S's\r\x00\x00\x00Themis Portal'
tRp4810
asbasbasbag57
(g73
g59
NtRp4811
(dp4812
g62
(dp4813
sg71
g4794
sg64
(lp4814
g57
(g78
g59
NtRp4815
(dp4816
g62
(dp4817
sg71
g4811
sg64
(lp4818
g57
(g58
g59
NtRp4819
(dp4820
g62
(dp4821
g70
I3
ssg71
g4815
sg64
(lp4822
g1374
asbasbasbag57
(g73
g59
NtRp4823
(dp4824
g62
(dp4825
sg71
g4794
sg64
(lp4826
g57
(g78
g59
NtRp4827
(dp4828
g62
(dp4829
sg71
g4823
sg64
(lp4830
g57
(g58
g59
NtRp4831
(dp4832
g62
(dp4833
g70
I3
ssg71
g4827
sg64
(lp4834
S'/themishrms/default/#'
p4835
asbasbasbag57
(g73
g59
NtRp4836
(dp4837
g62
(dp4838
sg71
g4794
sg64
(lp4839
g57
(g78
g59
NtRp4840
(dp4841
g62
(dp4842
sg71
g4836
sg64
(lp4843
g57
(g58
g59
NtRp4844
(dp4845
g62
(dp4846
g70
I3
ssg71
g4840
sg64
(lp4847
g57
(g66
g59
NtRp4848
(dp4849
g62
(dp4850
g70
I2
ssg71
Nsg64
(lp4851
sbasbasbasbasbasbasbasbag57
(g73
g59
NtRp4852
(dp4853
g62
(dp4854
sg71
g4637
sg64
(lp4855
g57
(g78
g59
NtRp4856
(dp4857
g62
(dp4858
sg71
g4852
sg64
(lp4859
g57
(g58
g59
NtRp4860
(dp4861
g62
(dp4862
g70
I4
ssg71
g4856
sg64
(lp4863
g57
(g66
g59
NtRp4864
(dp4865
g62
(dp4866
g70
I3
ssg71
Nsg64
(lp4867
g57
(g73
g59
NtRp4868
(dp4869
g62
(dp4870
sg71
g4864
sg64
(lp4871
g57
(g78
g59
NtRp4872
(dp4873
g62
(dp4874
sg71
g4868
sg64
(lp4875
g57
(g58
g59
NtRp4876
(dp4877
g62
(dp4878
g70
I3
ssg71
g4872
sg64
(lp4879
g4669
(S's\x0f\x00\x00\x00Themis Policies'
tRp4880
asbasbasbag57
(g73
g59
NtRp4881
(dp4882
g62
(dp4883
sg71
g4864
sg64
(lp4884
g57
(g78
g59
NtRp4885
(dp4886
g62
(dp4887
sg71
g4881
sg64
(lp4888
g57
(g58
g59
NtRp4889
(dp4890
g62
(dp4891
g70
I3
ssg71
g4885
sg64
(lp4892
g1374
asbasbasbag57
(g73
g59
NtRp4893
(dp4894
g62
(dp4895
sg71
g4864
sg64
(lp4896
g57
(g78
g59
NtRp4897
(dp4898
g62
(dp4899
sg71
g4893
sg64
(lp4900
g57
(g58
g59
NtRp4901
(dp4902
g62
(dp4903
g70
I3
ssg71
g4897
sg64
(lp4904
S'/themishrms/default/add_project'
p4905
asbasbasbag57
(g73
g59
NtRp4906
(dp4907
g62
(dp4908
sg71
g4864
sg64
(lp4909
g57
(g78
g59
NtRp4910
(dp4911
g62
(dp4912
sg71
g4906
sg64
(lp4913
g57
(g58
g59
NtRp4914
(dp4915
g62
(dp4916
g70
I3
ssg71
g4910
sg64
(lp4917
g57
(g66
g59
NtRp4918
(dp4919
g62
(dp4920
g70
I2
ssg71
Nsg64
(lp4921
sbasbasbasbasbasbasbasbag57
(g73
g59
NtRp4922
(dp4923
g62
(dp4924
sg71
g4637
sg64
(lp4925
g57
(g78
g59
NtRp4926
(dp4927
g62
(dp4928
sg71
g4922
sg64
(lp4929
g57
(g58
g59
NtRp4930
(dp4931
g62
(dp4932
g70
I4
ssg71
g4926
sg64
(lp4933
g57
(g66
g59
NtRp4934
(dp4935
g62
(dp4936
g70
I3
ssg71
Nsg64
(lp4937
g57
(g73
g59
NtRp4938
(dp4939
g62
(dp4940
sg71
g4934
sg64
(lp4941
g57
(g78
g59
NtRp4942
(dp4943
g62
(dp4944
sg71
g4938
sg64
(lp4945
g57
(g58
g59
NtRp4946
(dp4947
g62
(dp4948
g70
I3
ssg71
g4942
sg64
(lp4949
g4669
(S's\x0f\x00\x00\x00Contact Details'
tRp4950
asbasbasbag57
(g73
g59
NtRp4951
(dp4952
g62
(dp4953
sg71
g4934
sg64
(lp4954
g57
(g78
g59
NtRp4955
(dp4956
g62
(dp4957
sg71
g4951
sg64
(lp4958
g57
(g58
g59
NtRp4959
(dp4960
g62
(dp4961
g70
I3
ssg71
g4955
sg64
(lp4962
g1374
asbasbasbag57
(g73
g59
NtRp4963
(dp4964
g62
(dp4965
sg71
g4934
sg64
(lp4966
g57
(g78
g59
NtRp4967
(dp4968
g62
(dp4969
sg71
g4963
sg64
(lp4970
g57
(g58
g59
NtRp4971
(dp4972
g62
(dp4973
g70
I3
ssg71
g4967
sg64
(lp4974
S'/themishrms/default/admin_contact_detail'
p4975
asbasbasbag57
(g73
g59
NtRp4976
(dp4977
g62
(dp4978
sg71
g4934
sg64
(lp4979
g57
(g78
g59
NtRp4980
(dp4981
g62
(dp4982
sg71
g4976
sg64
(lp4983
g57
(g58
g59
NtRp4984
(dp4985
g62
(dp4986
g70
I3
ssg71
g4980
sg64
(lp4987
g57
(g66
g59
NtRp4988
(dp4989
g62
(dp4990
g70
I2
ssg71
Nsg64
(lp4991
sbasbasbasbasbasbasbasbasbasbasbasbag57
(g73
g59
NtRp4992
(dp4993
g62
(dp4994
sg71
g4612
sg64
(lp4995
g57
(g78
g59
NtRp4996
(dp4997
g62
(dp4998
g82
g83
ssg71
g4992
sg64
(lp4999
g155
asbag57
(g78
g59
NtRp5000
(dp5001
g62
(dp5002
g89
g90
ssg71
g4992
sg64
(lp5003
S':'
asbag57
(g78
g59
NtRp5004
(dp5005
g62
(dp5006
sg71
g4992
sg64
(lp5007
g57
(g58
g59
NtRp5008
(dp5009
g62
(dp5010
g70
I5
ssg71
g5004
sg64
(lp5011
S'<cStringIO.StringO object at 0x92564e0>'
p5012
asbasbasbag57
(g73
g59
NtRp5013
(dp5014
g62
(dp5015
sg71
g4612
sg64
(lp5016
g57
(g78
g59
NtRp5017
(dp5018
g62
(dp5019
g82
g83
ssg71
g5013
sg64
(lp5020
g221
asbag57
(g78
g59
NtRp5021
(dp5022
g62
(dp5023
g89
g90
ssg71
g5013
sg64
(lp5024
S':'
asbag57
(g78
g59
NtRp5025
(dp5026
g62
(dp5027
sg71
g5013
sg64
(lp5028
g57
(g58
g59
NtRp5029
(dp5030
g62
(dp5031
g70
I5
ssg71
g5025
sg64
(lp5032
g57
(g66
g59
NtRp5033
(dp5034
g62
(dp5035
g70
I4
ssg71
Nsg64
(lp5036
g57
(g73
g59
NtRp5037
(dp5038
g62
(dp5039
sg71
g5033
sg64
(lp5040
g57
(g78
g59
NtRp5041
(dp5042
g62
(dp5043
g82
g83
ssg71
g5037
sg64
(lp5044
S'session_id_themishrms'
p5045
asbag57
(g78
g59
NtRp5046
(dp5047
g62
(dp5048
g89
g90
ssg71
g5037
sg64
(lp5049
S':'
asbag57
(g78
g59
NtRp5050
(dp5051
g62
(dp5052
sg71
g5037
sg64
(lp5053
g57
(g58
g59
NtRp5054
(dp5055
g62
(dp5056
g70
I4
ssg71
g5050
sg64
(lp5057
g57
(g66
g59
NtRp5058
(dp5059
g62
(dp5060
g70
I3
ssg71
Nsg64
(lp5061
g57
(g73
g59
NtRp5062
(dp5063
g62
(dp5064
sg71
g5058
sg64
(lp5065
g57
(g78
g59
NtRp5066
(dp5067
g62
(dp5068
g82
g83
ssg71
g5062
sg64
(lp5069
g271
asbag57
(g78
g59
NtRp5070
(dp5071
g62
(dp5072
g89
g90
ssg71
g5062
sg64
(lp5073
S':'
asbag57
(g78
g59
NtRp5074
(dp5075
g62
(dp5076
sg71
g5062
sg64
(lp5077
g57
(g58
g59
NtRp5078
(dp5079
g62
(dp5080
g70
I3
ssg71
g5074
sg64
(lp5081
S''
asbasbasbag57
(g73
g59
NtRp5082
(dp5083
g62
(dp5084
sg71
g5058
sg64
(lp5085
g57
(g78
g59
NtRp5086
(dp5087
g62
(dp5088
g82
g83
ssg71
g5082
sg64
(lp5089
g292
asbag57
(g78
g59
NtRp5090
(dp5091
g62
(dp5092
g89
g90
ssg71
g5082
sg64
(lp5093
S':'
asbag57
(g78
g59
NtRp5094
(dp5095
g62
(dp5096
sg71
g5082
sg64
(lp5097
g57
(g58
g59
NtRp5098
(dp5099
g62
(dp5100
g70
I3
ssg71
g5094
sg64
(lp5101
S''
asbasbasbag57
(g73
g59
NtRp5102
(dp5103
g62
(dp5104
sg71
g5058
sg64
(lp5105
g57
(g78
g59
NtRp5106
(dp5107
g62
(dp5108
g82
g83
ssg71
g5102
sg64
(lp5109
g313
asbag57
(g78
g59
NtRp5110
(dp5111
g62
(dp5112
g89
g90
ssg71
g5102
sg64
(lp5113
S':'
asbag57
(g78
g59
NtRp5114
(dp5115
g62
(dp5116
sg71
g5102
sg64
(lp5117
g57
(g58
g59
NtRp5118
(dp5119
g62
(dp5120
g70
I3
ssg71
g5114
sg64
(lp5121
S''
asbasbasbag57
(g73
g59
NtRp5122
(dp5123
g62
(dp5124
sg71
g5058
sg64
(lp5125
g57
(g78
g59
NtRp5126
(dp5127
g62
(dp5128
g82
g83
ssg71
g5122
sg64
(lp5129
g334
asbag57
(g78
g59
NtRp5130
(dp5131
g62
(dp5132
g89
g90
ssg71
g5122
sg64
(lp5133
S':'
asbag57
(g78
g59
NtRp5134
(dp5135
g62
(dp5136
sg71
g5122
sg64
(lp5137
g57
(g58
g59
NtRp5138
(dp5139
g62
(dp5140
g70
I3
ssg71
g5134
sg64
(lp5141
S''
asbasbasbag57
(g73
g59
NtRp5142
(dp5143
g62
(dp5144
sg71
g5058
sg64
(lp5145
g57
(g78
g59
NtRp5146
(dp5147
g62
(dp5148
g82
g83
ssg71
g5142
sg64
(lp5149
g355
asbag57
(g78
g59
NtRp5150
(dp5151
g62
(dp5152
g89
g90
ssg71
g5142
sg64
(lp5153
S':'
asbag57
(g78
g59
NtRp5154
(dp5155
g62
(dp5156
sg71
g5142
sg64
(lp5157
g57
(g58
g59
NtRp5158
(dp5159
g62
(dp5160
g70
I3
ssg71
g5154
sg64
(lp5161
S''
asbasbasbag57
(g73
g59
NtRp5162
(dp5163
g62
(dp5164
sg71
g5058
sg64
(lp5165
g57
(g78
g59
NtRp5166
(dp5167
g62
(dp5168
g82
g83
ssg71
g5162
sg64
(lp5169
g376
asbag57
(g78
g59
NtRp5170
(dp5171
g62
(dp5172
g89
g90
ssg71
g5162
sg64
(lp5173
S':'
asbag57
(g78
g59
NtRp5174
(dp5175
g62
(dp5176
sg71
g5162
sg64
(lp5177
g57
(g58
g59
NtRp5178
(dp5179
g62
(dp5180
g70
I3
ssg71
g5174
sg64
(lp5181
S'/'
asbasbasbag57
(g73
g59
NtRp5182
(dp5183
g62
(dp5184
sg71
g5058
sg64
(lp5185
g57
(g78
g59
NtRp5186
(dp5187
g62
(dp5188
g82
g83
ssg71
g5182
sg64
(lp5189
g397
asbag57
(g78
g59
NtRp5190
(dp5191
g62
(dp5192
g89
g90
ssg71
g5182
sg64
(lp5193
S':'
asbag57
(g78
g59
NtRp5194
(dp5195
g62
(dp5196
sg71
g5182
sg64
(lp5197
g57
(g58
g59
NtRp5198
(dp5199
g62
(dp5200
g70
I3
ssg71
g5194
sg64
(lp5201
S''
asbasbasbag57
(g73
g59
NtRp5202
(dp5203
g62
(dp5204
sg71
g5058
sg64
(lp5205
g57
(g78
g59
NtRp5206
(dp5207
g62
(dp5208
g82
g83
ssg71
g5202
sg64
(lp5209
g418
asbag57
(g78
g59
NtRp5210
(dp5211
g62
(dp5212
g89
g90
ssg71
g5202
sg64
(lp5213
S':'
asbag57
(g78
g59
NtRp5214
(dp5215
g62
(dp5216
sg71
g5202
sg64
(lp5217
g57
(g58
g59
NtRp5218
(dp5219
g62
(dp5220
g70
I3
ssg71
g5214
sg64
(lp5221
S''
asbasbasbasbasbasbasbasbasbasbasbag57
(g73
g59
NtRp5222
(dp5223
g62
(dp5224
sg71
g4612
sg64
(lp5225
g57
(g78
g59
NtRp5226
(dp5227
g62
(dp5228
g82
g83
ssg71
g5222
sg64
(lp5229
S'delimiters'
p5230
asbag57
(g78
g59
NtRp5231
(dp5232
g62
(dp5233
g89
g90
ssg71
g5222
sg64
(lp5234
S':'
asbag57
(g78
g59
NtRp5235
(dp5236
g62
(dp5237
sg71
g5222
sg64
(lp5238
g57
(g58
g59
NtRp5239
(dp5240
g62
(dp5241
g70
I5
ssg71
g5235
sg64
(lp5242
g57
(g66
g59
NtRp5243
(dp5244
g62
(dp5245
g70
I4
ssg71
Nsg64
(lp5246
g57
(g73
g59
NtRp5247
(dp5248
g62
(dp5249
sg71
g5243
sg64
(lp5250
g57
(g78
g59
NtRp5251
(dp5252
g62
(dp5253
sg71
g5247
sg64
(lp5254
g57
(g58
g59
NtRp5255
(dp5256
g62
(dp5257
g70
I4
ssg71
g5251
sg64
(lp5258
S'{{'
p5259
asbasbasbag57
(g73
g59
NtRp5260
(dp5261
g62
(dp5262
sg71
g5243
sg64
(lp5263
g57
(g78
g59
NtRp5264
(dp5265
g62
(dp5266
sg71
g5260
sg64
(lp5267
g57
(g58
g59
NtRp5268
(dp5269
g62
(dp5270
g70
I4
ssg71
g5264
sg64
(lp5271
S'}}'
p5272
asbasbasbasbasbasbasbag57
(g73
g59
NtRp5273
(dp5274
g62
(dp5275
sg71
g4612
sg64
(lp5276
g57
(g78
g59
NtRp5277
(dp5278
g62
(dp5279
g82
g83
ssg71
g5273
sg64
(lp5280
S'files'
p5281
asbag57
(g78
g59
NtRp5282
(dp5283
g62
(dp5284
g89
g90
ssg71
g5273
sg64
(lp5285
S':'
asbag57
(g78
g59
NtRp5286
(dp5287
g62
(dp5288
sg71
g5273
sg64
(lp5289
g57
(g58
g59
NtRp5290
(dp5291
g62
(dp5292
g70
I5
ssg71
g5286
sg64
(lp5293
g57
(g66
g59
NtRp5294
(dp5295
g62
(dp5296
g70
I4
ssg71
Nsg64
(lp5297
sbasbasbasbag57
(g73
g59
NtRp5298
(dp5299
g62
(dp5300
sg71
g4612
sg64
(lp5301
g57
(g78
g59
NtRp5302
(dp5303
g62
(dp5304
g82
g83
ssg71
g5298
sg64
(lp5305
S'flash'
p5306
asbag57
(g78
g59
NtRp5307
(dp5308
g62
(dp5309
g89
g90
ssg71
g5298
sg64
(lp5310
S':'
asbag57
(g78
g59
NtRp5311
(dp5312
g62
(dp5313
sg71
g5298
sg64
(lp5314
g57
(g58
g59
NtRp5315
(dp5316
g62
(dp5317
g70
I5
ssg71
g5311
sg64
(lp5318
S''
asbasbasbag57
(g73
g59
NtRp5319
(dp5320
g62
(dp5321
sg71
g4612
sg64
(lp5322
g57
(g78
g59
NtRp5323
(dp5324
g62
(dp5325
g82
g83
ssg71
g5319
sg64
(lp5326
S'generic_patterns'
p5327
asbag57
(g78
g59
NtRp5328
(dp5329
g62
(dp5330
g89
g90
ssg71
g5319
sg64
(lp5331
S':'
asbag57
(g78
g59
NtRp5332
(dp5333
g62
(dp5334
sg71
g5319
sg64
(lp5335
g57
(g58
g59
NtRp5336
(dp5337
g62
(dp5338
g70
I5
ssg71
g5332
sg64
(lp5339
g57
(g66
g59
NtRp5340
(dp5341
g62
(dp5342
g70
I4
ssg71
Nsg64
(lp5343
g57
(g73
g59
NtRp5344
(dp5345
g62
(dp5346
sg71
g5340
sg64
(lp5347
g57
(g78
g59
NtRp5348
(dp5349
g62
(dp5350
sg71
g5344
sg64
(lp5351
g57
(g58
g59
NtRp5352
(dp5353
g62
(dp5354
g70
I4
ssg71
g5348
sg64
(lp5355
S'*'
asbasbasbasbasbasbasbag57
(g73
g59
NtRp5356
(dp5357
g62
(dp5358
sg71
g4612
sg64
(lp5359
g57
(g78
g59
NtRp5360
(dp5361
g62
(dp5362
g82
g83
ssg71
g5356
sg64
(lp5363
S'headers'
p5364
asbag57
(g78
g59
NtRp5365
(dp5366
g62
(dp5367
g89
g90
ssg71
g5356
sg64
(lp5368
S':'
asbag57
(g78
g59
NtRp5369
(dp5370
g62
(dp5371
sg71
g5356
sg64
(lp5372
g57
(g58
g59
NtRp5373
(dp5374
g62
(dp5375
g70
I5
ssg71
g5369
sg64
(lp5376
g57
(g66
g59
NtRp5377
(dp5378
g62
(dp5379
g70
I4
ssg71
Nsg64
(lp5380
g57
(g73
g59
NtRp5381
(dp5382
g62
(dp5383
sg71
g5377
sg64
(lp5384
g57
(g78
g59
NtRp5385
(dp5386
g62
(dp5387
g82
g83
ssg71
g5381
sg64
(lp5388
S'Cache-Control'
p5389
asbag57
(g78
g59
NtRp5390
(dp5391
g62
(dp5392
g89
g90
ssg71
g5381
sg64
(lp5393
S':'
asbag57
(g78
g59
NtRp5394
(dp5395
g62
(dp5396
sg71
g5381
sg64
(lp5397
g57
(g58
g59
NtRp5398
(dp5399
g62
(dp5400
g70
I4
ssg71
g5394
sg64
(lp5401
S'no-store, no-cache, must-revalidate, post-check=0, pre-check=0'
p5402
asbasbasbag57
(g73
g59
NtRp5403
(dp5404
g62
(dp5405
sg71
g5377
sg64
(lp5406
g57
(g78
g59
NtRp5407
(dp5408
g62
(dp5409
g82
g83
ssg71
g5403
sg64
(lp5410
S'Content-Type'
p5411
asbag57
(g78
g59
NtRp5412
(dp5413
g62
(dp5414
g89
g90
ssg71
g5403
sg64
(lp5415
S':'
asbag57
(g78
g59
NtRp5416
(dp5417
g62
(dp5418
sg71
g5403
sg64
(lp5419
g57
(g58
g59
NtRp5420
(dp5421
g62
(dp5422
g70
I4
ssg71
g5416
sg64
(lp5423
S'text/html; charset=utf-8'
p5424
asbasbasbag57
(g73
g59
NtRp5425
(dp5426
g62
(dp5427
sg71
g5377
sg64
(lp5428
g57
(g78
g59
NtRp5429
(dp5430
g62
(dp5431
g82
g83
ssg71
g5425
sg64
(lp5432
S'Expires'
p5433
asbag57
(g78
g59
NtRp5434
(dp5435
g62
(dp5436
g89
g90
ssg71
g5425
sg64
(lp5437
S':'
asbag57
(g78
g59
NtRp5438
(dp5439
g62
(dp5440
sg71
g5425
sg64
(lp5441
g57
(g58
g59
NtRp5442
(dp5443
g62
(dp5444
g70
I4
ssg71
g5438
sg64
(lp5445
S'Sat, 05 May 2012 18:05:29 GMT'
p5446
asbasbasbag57
(g73
g59
NtRp5447
(dp5448
g62
(dp5449
sg71
g5377
sg64
(lp5450
g57
(g78
g59
NtRp5451
(dp5452
g62
(dp5453
g82
g83
ssg71
g5447
sg64
(lp5454
S'Pragma'
p5455
asbag57
(g78
g59
NtRp5456
(dp5457
g62
(dp5458
g89
g90
ssg71
g5447
sg64
(lp5459
S':'
asbag57
(g78
g59
NtRp5460
(dp5461
g62
(dp5462
sg71
g5447
sg64
(lp5463
g57
(g58
g59
NtRp5464
(dp5465
g62
(dp5466
g70
I4
ssg71
g5460
sg64
(lp5467
S'no-cache'
p5468
asbasbasbag57
(g73
g59
NtRp5469
(dp5470
g62
(dp5471
sg71
g5377
sg64
(lp5472
g57
(g78
g59
NtRp5473
(dp5474
g62
(dp5475
g82
g83
ssg71
g5469
sg64
(lp5476
S'X-Powered-By'
p5477
asbag57
(g78
g59
NtRp5478
(dp5479
g62
(dp5480
g89
g90
ssg71
g5469
sg64
(lp5481
S':'
asbag57
(g78
g59
NtRp5482
(dp5483
g62
(dp5484
sg71
g5469
sg64
(lp5485
g57
(g58
g59
NtRp5486
(dp5487
g62
(dp5488
g70
I4
ssg71
g5482
sg64
(lp5489
S'web2py'
p5490
asbasbasbasbasbasbasbag57
(g73
g59
NtRp5491
(dp5492
g62
(dp5493
sg71
g4612
sg64
(lp5494
g57
(g78
g59
NtRp5495
(dp5496
g62
(dp5497
g82
g83
ssg71
g5491
sg64
(lp5498
S'menu'
p5499
asbag57
(g78
g59
NtRp5500
(dp5501
g62
(dp5502
g89
g90
ssg71
g5491
sg64
(lp5503
S':'
asbag57
(g78
g59
NtRp5504
(dp5505
g62
(dp5506
sg71
g5491
sg64
(lp5507
g57
(g58
g59
NtRp5508
(dp5509
g62
(dp5510
g70
I5
ssg71
g5504
sg64
(lp5511
g57
(g66
g59
NtRp5512
(dp5513
g62
(dp5514
g70
I4
ssg71
Nsg64
(lp5515
g57
(g73
g59
NtRp5516
(dp5517
g62
(dp5518
sg71
g5512
sg64
(lp5519
g57
(g78
g59
NtRp5520
(dp5521
g62
(dp5522
sg71
g5516
sg64
(lp5523
g57
(g58
g59
NtRp5524
(dp5525
g62
(dp5526
g70
I4
ssg71
g5520
sg64
(lp5527
g57
(g66
g59
NtRp5528
(dp5529
g62
(dp5530
g70
I3
ssg71
Nsg64
(lp5531
g57
(g73
g59
NtRp5532
(dp5533
g62
(dp5534
sg71
g5528
sg64
(lp5535
g57
(g78
g59
NtRp5536
(dp5537
g62
(dp5538
sg71
g5532
sg64
(lp5539
g57
(g58
g59
NtRp5540
(dp5541
g62
(dp5542
g70
I3
ssg71
g5536
sg64
(lp5543
g4669
(S's\x04\x00\x00\x00HOME'
tRp5544
asbasbasbag57
(g73
g59
NtRp5545
(dp5546
g62
(dp5547
sg71
g5528
sg64
(lp5548
g57
(g78
g59
NtRp5549
(dp5550
g62
(dp5551
sg71
g5545
sg64
(lp5552
g57
(g58
g59
NtRp5553
(dp5554
g62
(dp5555
g70
I3
ssg71
g5549
sg64
(lp5556
g1374
asbasbasbag57
(g73
g59
NtRp5557
(dp5558
g62
(dp5559
sg71
g5528
sg64
(lp5560
g57
(g78
g59
NtRp5561
(dp5562
g62
(dp5563
sg71
g5557
sg64
(lp5564
g57
(g58
g59
NtRp5565
(dp5566
g62
(dp5567
g70
I3
ssg71
g5561
sg64
(lp5568
S'/themishrms/default/index'
p5569
asbasbasbag57
(g73
g59
NtRp5570
(dp5571
g62
(dp5572
sg71
g5528
sg64
(lp5573
g57
(g78
g59
NtRp5574
(dp5575
g62
(dp5576
sg71
g5570
sg64
(lp5577
g57
(g58
g59
NtRp5578
(dp5579
g62
(dp5580
g70
I3
ssg71
g5574
sg64
(lp5581
g57
(g66
g59
NtRp5582
(dp5583
g62
(dp5584
g70
I2
ssg71
Nsg64
(lp5585
sbasbasbasbasbasbasbasbag57
(g73
g59
NtRp5586
(dp5587
g62
(dp5588
sg71
g5512
sg64
(lp5589
g57
(g78
g59
NtRp5590
(dp5591
g62
(dp5592
sg71
g5586
sg64
(lp5593
g57
(g58
g59
NtRp5594
(dp5595
g62
(dp5596
g70
I4
ssg71
g5590
sg64
(lp5597
g57
(g66
g59
NtRp5598
(dp5599
g62
(dp5600
g70
I3
ssg71
Nsg64
(lp5601
g57
(g73
g59
NtRp5602
(dp5603
g62
(dp5604
sg71
g5598
sg64
(lp5605
g57
(g78
g59
NtRp5606
(dp5607
g62
(dp5608
sg71
g5602
sg64
(lp5609
g57
(g58
g59
NtRp5610
(dp5611
g62
(dp5612
g70
I3
ssg71
g5606
sg64
(lp5613
g4669
(S's\t\x00\x00\x00ABOUT US '
tRp5614
asbasbasbag57
(g73
g59
NtRp5615
(dp5616
g62
(dp5617
sg71
g5598
sg64
(lp5618
g57
(g78
g59
NtRp5619
(dp5620
g62
(dp5621
sg71
g5615
sg64
(lp5622
g57
(g58
g59
NtRp5623
(dp5624
g62
(dp5625
g70
I3
ssg71
g5619
sg64
(lp5626
g1374
asbasbasbag57
(g73
g59
NtRp5627
(dp5628
g62
(dp5629
sg71
g5598
sg64
(lp5630
g57
(g78
g59
NtRp5631
(dp5632
g62
(dp5633
sg71
g5627
sg64
(lp5634
g57
(g58
g59
NtRp5635
(dp5636
g62
(dp5637
g70
I3
ssg71
g5631
sg64
(lp5638
S'/themishrms/default/tlsabout'
p5639
asbasbasbag57
(g73
g59
NtRp5640
(dp5641
g62
(dp5642
sg71
g5598
sg64
(lp5643
g57
(g78
g59
NtRp5644
(dp5645
g62
(dp5646
sg71
g5640
sg64
(lp5647
g57
(g58
g59
NtRp5648
(dp5649
g62
(dp5650
g70
I3
ssg71
g5644
sg64
(lp5651
g57
(g66
g59
NtRp5652
(dp5653
g62
(dp5654
g70
I2
ssg71
Nsg64
(lp5655
sbasbasbasbasbasbasbasbag57
(g73
g59
NtRp5656
(dp5657
g62
(dp5658
sg71
g5512
sg64
(lp5659
g57
(g78
g59
NtRp5660
(dp5661
g62
(dp5662
sg71
g5656
sg64
(lp5663
g57
(g58
g59
NtRp5664
(dp5665
g62
(dp5666
g70
I4
ssg71
g5660
sg64
(lp5667
g57
(g66
g59
NtRp5668
(dp5669
g62
(dp5670
g70
I3
ssg71
Nsg64
(lp5671
g57
(g73
g59
NtRp5672
(dp5673
g62
(dp5674
sg71
g5668
sg64
(lp5675
g57
(g78
g59
NtRp5676
(dp5677
g62
(dp5678
sg71
g5672
sg64
(lp5679
g57
(g58
g59
NtRp5680
(dp5681
g62
(dp5682
g70
I3
ssg71
g5676
sg64
(lp5683
g4669
(S's\x0f\x00\x00\x00OUR EXPERTISE  '
tRp5684
asbasbasbag57
(g73
g59
NtRp5685
(dp5686
g62
(dp5687
sg71
g5668
sg64
(lp5688
g57
(g78
g59
NtRp5689
(dp5690
g62
(dp5691
sg71
g5685
sg64
(lp5692
g57
(g58
g59
NtRp5693
(dp5694
g62
(dp5695
g70
I3
ssg71
g5689
sg64
(lp5696
g1374
asbasbasbag57
(g73
g59
NtRp5697
(dp5698
g62
(dp5699
sg71
g5668
sg64
(lp5700
g57
(g78
g59
NtRp5701
(dp5702
g62
(dp5703
sg71
g5697
sg64
(lp5704
g57
(g58
g59
NtRp5705
(dp5706
g62
(dp5707
g70
I3
ssg71
g5701
sg64
(lp5708
S'/themishrms/default/tlsservice'
p5709
asbasbasbag57
(g73
g59
NtRp5710
(dp5711
g62
(dp5712
sg71
g5668
sg64
(lp5713
g57
(g78
g59
NtRp5714
(dp5715
g62
(dp5716
sg71
g5710
sg64
(lp5717
g57
(g58
g59
NtRp5718
(dp5719
g62
(dp5720
g70
I3
ssg71
g5714
sg64
(lp5721
g57
(g66
g59
NtRp5722
(dp5723
g62
(dp5724
g70
I2
ssg71
Nsg64
(lp5725
sbasbasbasbasbasbasbasbag57
(g73
g59
NtRp5726
(dp5727
g62
(dp5728
sg71
g5512
sg64
(lp5729
g57
(g78
g59
NtRp5730
(dp5731
g62
(dp5732
sg71
g5726
sg64
(lp5733
g57
(g58
g59
NtRp5734
(dp5735
g62
(dp5736
g70
I4
ssg71
g5730
sg64
(lp5737
g57
(g66
g59
NtRp5738
(dp5739
g62
(dp5740
g70
I3
ssg71
Nsg64
(lp5741
g57
(g73
g59
NtRp5742
(dp5743
g62
(dp5744
sg71
g5738
sg64
(lp5745
g57
(g78
g59
NtRp5746
(dp5747
g62
(dp5748
sg71
g5742
sg64
(lp5749
g57
(g58
g59
NtRp5750
(dp5751
g62
(dp5752
g70
I3
ssg71
g5746
sg64
(lp5753
g4669
(S's\x08\x00\x00\x00OUR TEAM'
tRp5754
asbasbasbag57
(g73
g59
NtRp5755
(dp5756
g62
(dp5757
sg71
g5738
sg64
(lp5758
g57
(g78
g59
NtRp5759
(dp5760
g62
(dp5761
sg71
g5755
sg64
(lp5762
g57
(g58
g59
NtRp5763
(dp5764
g62
(dp5765
g70
I3
ssg71
g5759
sg64
(lp5766
g1374
asbasbasbag57
(g73
g59
NtRp5767
(dp5768
g62
(dp5769
sg71
g5738
sg64
(lp5770
g57
(g78
g59
NtRp5771
(dp5772
g62
(dp5773
sg71
g5767
sg64
(lp5774
g57
(g58
g59
NtRp5775
(dp5776
g62
(dp5777
g70
I3
ssg71
g5771
sg64
(lp5778
S'/themishrms/default/tlsoteam'
p5779
asbasbasbag57
(g73
g59
NtRp5780
(dp5781
g62
(dp5782
sg71
g5738
sg64
(lp5783
g57
(g78
g59
NtRp5784
(dp5785
g62
(dp5786
sg71
g5780
sg64
(lp5787
g57
(g58
g59
NtRp5788
(dp5789
g62
(dp5790
g70
I3
ssg71
g5784
sg64
(lp5791
g57
(g66
g59
NtRp5792
(dp5793
g62
(dp5794
g70
I2
ssg71
Nsg64
(lp5795
sbasbasbasbasbasbasbasbag57
(g73
g59
NtRp5796
(dp5797
g62
(dp5798
sg71
g5512
sg64
(lp5799
g57
(g78
g59
NtRp5800
(dp5801
g62
(dp5802
sg71
g5796
sg64
(lp5803
g57
(g58
g59
NtRp5804
(dp5805
g62
(dp5806
g70
I4
ssg71
g5800
sg64
(lp5807
g57
(g66
g59
NtRp5808
(dp5809
g62
(dp5810
g70
I3
ssg71
Nsg64
(lp5811
g57
(g73
g59
NtRp5812
(dp5813
g62
(dp5814
sg71
g5808
sg64
(lp5815
g57
(g78
g59
NtRp5816
(dp5817
g62
(dp5818
sg71
g5812
sg64
(lp5819
g57
(g58
g59
NtRp5820
(dp5821
g62
(dp5822
g70
I3
ssg71
g5816
sg64
(lp5823
g4669
(S's\n\x00\x00\x00OPERATIONS'
tRp5824
asbasbasbag57
(g73
g59
NtRp5825
(dp5826
g62
(dp5827
sg71
g5808
sg64
(lp5828
g57
(g78
g59
NtRp5829
(dp5830
g62
(dp5831
sg71
g5825
sg64
(lp5832
g57
(g58
g59
NtRp5833
(dp5834
g62
(dp5835
g70
I3
ssg71
g5829
sg64
(lp5836
g1374
asbasbasbag57
(g73
g59
NtRp5837
(dp5838
g62
(dp5839
sg71
g5808
sg64
(lp5840
g57
(g78
g59
NtRp5841
(dp5842
g62
(dp5843
sg71
g5837
sg64
(lp5844
g57
(g58
g59
NtRp5845
(dp5846
g62
(dp5847
g70
I3
ssg71
g5841
sg64
(lp5848
S'/themishrms/default/tlsoo'
p5849
asbasbasbag57
(g73
g59
NtRp5850
(dp5851
g62
(dp5852
sg71
g5808
sg64
(lp5853
g57
(g78
g59
NtRp5854
(dp5855
g62
(dp5856
sg71
g5850
sg64
(lp5857
g57
(g58
g59
NtRp5858
(dp5859
g62
(dp5860
g70
I3
ssg71
g5854
sg64
(lp5861
g57
(g66
g59
NtRp5862
(dp5863
g62
(dp5864
g70
I2
ssg71
Nsg64
(lp5865
sbasbasbasbasbasbasbasbag57
(g73
g59
NtRp5866
(dp5867
g62
(dp5868
sg71
g5512
sg64
(lp5869
g57
(g78
g59
NtRp5870
(dp5871
g62
(dp5872
sg71
g5866
sg64
(lp5873
g57
(g58
g59
NtRp5874
(dp5875
g62
(dp5876
g70
I4
ssg71
g5870
sg64
(lp5877
g57
(g66
g59
NtRp5878
(dp5879
g62
(dp5880
g70
I3
ssg71
Nsg64
(lp5881
g57
(g73
g59
NtRp5882
(dp5883
g62
(dp5884
sg71
g5878
sg64
(lp5885
g57
(g78
g59
NtRp5886
(dp5887
g62
(dp5888
sg71
g5882
sg64
(lp5889
g57
(g58
g59
NtRp5890
(dp5891
g62
(dp5892
g70
I3
ssg71
g5886
sg64
(lp5893
g4669
(S's\x07\x00\x00\x00JOIN US'
tRp5894
asbasbasbag57
(g73
g59
NtRp5895
(dp5896
g62
(dp5897
sg71
g5878
sg64
(lp5898
g57
(g78
g59
NtRp5899
(dp5900
g62
(dp5901
sg71
g5895
sg64
(lp5902
g57
(g58
g59
NtRp5903
(dp5904
g62
(dp5905
g70
I3
ssg71
g5899
sg64
(lp5906
g1374
asbasbasbag57
(g73
g59
NtRp5907
(dp5908
g62
(dp5909
sg71
g5878
sg64
(lp5910
g57
(g78
g59
NtRp5911
(dp5912
g62
(dp5913
sg71
g5907
sg64
(lp5914
g57
(g58
g59
NtRp5915
(dp5916
g62
(dp5917
g70
I3
ssg71
g5911
sg64
(lp5918
S'/themishrms/default/tlscareer'
p5919
asbasbasbag57
(g73
g59
NtRp5920
(dp5921
g62
(dp5922
sg71
g5878
sg64
(lp5923
g57
(g78
g59
NtRp5924
(dp5925
g62
(dp5926
sg71
g5920
sg64
(lp5927
g57
(g58
g59
NtRp5928
(dp5929
g62
(dp5930
g70
I3
ssg71
g5924
sg64
(lp5931
g57
(g66
g59
NtRp5932
(dp5933
g62
(dp5934
g70
I2
ssg71
Nsg64
(lp5935
sbasbasbasbasbasbasbasbag57
(g73
g59
NtRp5936
(dp5937
g62
(dp5938
sg71
g5512
sg64
(lp5939
g57
(g78
g59
NtRp5940
(dp5941
g62
(dp5942
sg71
g5936
sg64
(lp5943
g57
(g58
g59
NtRp5944
(dp5945
g62
(dp5946
g70
I4
ssg71
g5940
sg64
(lp5947
g57
(g66
g59
NtRp5948
(dp5949
g62
(dp5950
g70
I3
ssg71
Nsg64
(lp5951
g57
(g73
g59
NtRp5952
(dp5953
g62
(dp5954
sg71
g5948
sg64
(lp5955
g57
(g78
g59
NtRp5956
(dp5957
g62
(dp5958
sg71
g5952
sg64
(lp5959
g57
(g58
g59
NtRp5960
(dp5961
g62
(dp5962
g70
I3
ssg71
g5956
sg64
(lp5963
g4669
(S's\n\x00\x00\x00CONTACT US'
tRp5964
asbasbasbag57
(g73
g59
NtRp5965
(dp5966
g62
(dp5967
sg71
g5948
sg64
(lp5968
g57
(g78
g59
NtRp5969
(dp5970
g62
(dp5971
sg71
g5965
sg64
(lp5972
g57
(g58
g59
NtRp5973
(dp5974
g62
(dp5975
g70
I3
ssg71
g5969
sg64
(lp5976
g1374
asbasbasbag57
(g73
g59
NtRp5977
(dp5978
g62
(dp5979
sg71
g5948
sg64
(lp5980
g57
(g78
g59
NtRp5981
(dp5982
g62
(dp5983
sg71
g5977
sg64
(lp5984
g57
(g58
g59
NtRp5985
(dp5986
g62
(dp5987
g70
I3
ssg71
g5981
sg64
(lp5988
S'/themishrms/default/tlscontact'
p5989
asbasbasbag57
(g73
g59
NtRp5990
(dp5991
g62
(dp5992
sg71
g5948
sg64
(lp5993
g57
(g78
g59
NtRp5994
(dp5995
g62
(dp5996
sg71
g5990
sg64
(lp5997
g57
(g58
g59
NtRp5998
(dp5999
g62
(dp6000
g70
I3
ssg71
g5994
sg64
(lp6001
g57
(g66
g59
NtRp6002
(dp6003
g62
(dp6004
g70
I2
ssg71
Nsg64
(lp6005
sbasbasbasbasbasbasbasbasbasbasbasbag57
(g73
g59
NtRp6006
(dp6007
g62
(dp6008
sg71
g4612
sg64
(lp6009
g57
(g78
g59
NtRp6010
(dp6011
g62
(dp6012
g82
g83
ssg71
g6006
sg64
(lp6013
S'meta'
p6014
asbag57
(g78
g59
NtRp6015
(dp6016
g62
(dp6017
g89
g90
ssg71
g6006
sg64
(lp6018
S':'
asbag57
(g78
g59
NtRp6019
(dp6020
g62
(dp6021
sg71
g6006
sg64
(lp6022
g57
(g58
g59
NtRp6023
(dp6024
g62
(dp6025
g70
I5
ssg71
g6019
sg64
(lp6026
g57
(g66
g59
NtRp6027
(dp6028
g62
(dp6029
g70
I4
ssg71
Nsg64
(lp6030
g57
(g73
g59
NtRp6031
(dp6032
g62
(dp6033
sg71
g6027
sg64
(lp6034
g57
(g78
g59
NtRp6035
(dp6036
g62
(dp6037
g82
g83
ssg71
g6031
sg64
(lp6038
S'author'
p6039
asbag57
(g78
g59
NtRp6040
(dp6041
g62
(dp6042
g89
g90
ssg71
g6031
sg64
(lp6043
S':'
asbag57
(g78
g59
NtRp6044
(dp6045
g62
(dp6046
sg71
g6031
sg64
(lp6047
g57
(g58
g59
NtRp6048
(dp6049
g62
(dp6050
g70
I4
ssg71
g6044
sg64
(lp6051
S'Your Name <you@example.com>'
p6052
asbasbasbag57
(g73
g59
NtRp6053
(dp6054
g62
(dp6055
sg71
g6027
sg64
(lp6056
g57
(g78
g59
NtRp6057
(dp6058
g62
(dp6059
g82
g83
ssg71
g6053
sg64
(lp6060
S'copyright'
p6061
asbag57
(g78
g59
NtRp6062
(dp6063
g62
(dp6064
g89
g90
ssg71
g6053
sg64
(lp6065
S':'
asbag57
(g78
g59
NtRp6066
(dp6067
g62
(dp6068
sg71
g6053
sg64
(lp6069
g57
(g58
g59
NtRp6070
(dp6071
g62
(dp6072
g70
I4
ssg71
g6066
sg64
(lp6073
S'Copyright 2011'
p6074
asbasbasbag57
(g73
g59
NtRp6075
(dp6076
g62
(dp6077
sg71
g6027
sg64
(lp6078
g57
(g78
g59
NtRp6079
(dp6080
g62
(dp6081
g82
g83
ssg71
g6075
sg64
(lp6082
S'description'
p6083
asbag57
(g78
g59
NtRp6084
(dp6085
g62
(dp6086
g89
g90
ssg71
g6075
sg64
(lp6087
S':'
asbag57
(g78
g59
NtRp6088
(dp6089
g62
(dp6090
sg71
g6075
sg64
(lp6091
g57
(g58
g59
NtRp6092
(dp6093
g62
(dp6094
g70
I4
ssg71
g6088
sg64
(lp6095
S'a cool new app'
p6096
asbasbasbag57
(g73
g59
NtRp6097
(dp6098
g62
(dp6099
sg71
g6027
sg64
(lp6100
g57
(g78
g59
NtRp6101
(dp6102
g62
(dp6103
g82
g83
ssg71
g6097
sg64
(lp6104
S'generator'
p6105
asbag57
(g78
g59
NtRp6106
(dp6107
g62
(dp6108
g89
g90
ssg71
g6097
sg64
(lp6109
S':'
asbag57
(g78
g59
NtRp6110
(dp6111
g62
(dp6112
sg71
g6097
sg64
(lp6113
g57
(g58
g59
NtRp6114
(dp6115
g62
(dp6116
g70
I4
ssg71
g6110
sg64
(lp6117
S'Web2py Web Framework'
p6118
asbasbasbag57
(g73
g59
NtRp6119
(dp6120
g62
(dp6121
sg71
g6027
sg64
(lp6122
g57
(g78
g59
NtRp6123
(dp6124
g62
(dp6125
g82
g83
ssg71
g6119
sg64
(lp6126
S'keywords'
p6127
asbag57
(g78
g59
NtRp6128
(dp6129
g62
(dp6130
g89
g90
ssg71
g6119
sg64
(lp6131
S':'
asbag57
(g78
g59
NtRp6132
(dp6133
g62
(dp6134
sg71
g6119
sg64
(lp6135
g57
(g58
g59
NtRp6136
(dp6137
g62
(dp6138
g70
I4
ssg71
g6132
sg64
(lp6139
S'web2py, python, framework'
p6140
asbasbasbasbasbasbasbag57
(g73
g59
NtRp6141
(dp6142
g62
(dp6143
sg71
g4612
sg64
(lp6144
g57
(g78
g59
NtRp6145
(dp6146
g62
(dp6147
g82
g83
ssg71
g6141
sg64
(lp6148
S'postprocessing'
p6149
asbag57
(g78
g59
NtRp6150
(dp6151
g62
(dp6152
g89
g90
ssg71
g6141
sg64
(lp6153
S':'
asbag57
(g78
g59
NtRp6154
(dp6155
g62
(dp6156
sg71
g6141
sg64
(lp6157
g57
(g58
g59
NtRp6158
(dp6159
g62
(dp6160
g70
I5
ssg71
g6154
sg64
(lp6161
g57
(g66
g59
NtRp6162
(dp6163
g62
(dp6164
g70
I4
ssg71
Nsg64
(lp6165
sbasbasbasbag57
(g73
g59
NtRp6166
(dp6167
g62
(dp6168
sg71
g4612
sg64
(lp6169
g57
(g78
g59
NtRp6170
(dp6171
g62
(dp6172
g82
g83
ssg71
g6166
sg64
(lp6173
S'session_file'
p6174
asbag57
(g78
g59
NtRp6175
(dp6176
g62
(dp6177
g89
g90
ssg71
g6166
sg64
(lp6178
S':'
asbag57
(g78
g59
NtRp6179
(dp6180
g62
(dp6181
sg71
g6166
sg64
(lp6182
g57
(g58
g59
NtRp6183
(dp6184
g62
(dp6185
g70
I5
ssg71
g6179
sg64
(lp6186
S"<open file '/home/sanjeet/Desktop/install/Development/web2py/applications/themishrms/sessions/127.0.0.1-ab7548bb-7c14-4e12-bc1a-6d3bf39e3288', mode 'rb+' at 0x90d4808>"
p6187
asbasbasbag57
(g73
g59
NtRp6188
(dp6189
g62
(dp6190
sg71
g4612
sg64
(lp6191
g57
(g78
g59
NtRp6192
(dp6193
g62
(dp6194
g82
g83
ssg71
g6188
sg64
(lp6195
S'session_filename'
p6196
asbag57
(g78
g59
NtRp6197
(dp6198
g62
(dp6199
g89
g90
ssg71
g6188
sg64
(lp6200
S':'
asbag57
(g78
g59
NtRp6201
(dp6202
g62
(dp6203
sg71
g6188
sg64
(lp6204
g57
(g58
g59
NtRp6205
(dp6206
g62
(dp6207
g70
I5
ssg71
g6201
sg64
(lp6208
S'/home/sanjeet/Desktop/install/Development/web2py/applications/themishrms/sessions/127.0.0.1-ab7548bb-7c14-4e12-bc1a-6d3bf39e3288'
p6209
asbasbasbag57
(g73
g59
NtRp6210
(dp6211
g62
(dp6212
sg71
g4612
sg64
(lp6213
g57
(g78
g59
NtRp6214
(dp6215
g62
(dp6216
g82
g83
ssg71
g6210
sg64
(lp6217
S'session_id'
p6218
asbag57
(g78
g59
NtRp6219
(dp6220
g62
(dp6221
g89
g90
ssg71
g6210
sg64
(lp6222
S':'
asbag57
(g78
g59
NtRp6223
(dp6224
g62
(dp6225
sg71
g6210
sg64
(lp6226
g57
(g58
g59
NtRp6227
(dp6228
g62
(dp6229
g70
I5
ssg71
g6223
sg64
(lp6230
S'127.0.0.1-ab7548bb-7c14-4e12-bc1a-6d3bf39e3288'
p6231
asbasbasbag57
(g73
g59
NtRp6232
(dp6233
g62
(dp6234
sg71
g4612
sg64
(lp6235
g57
(g78
g59
NtRp6236
(dp6237
g62
(dp6238
g82
g83
ssg71
g6232
sg64
(lp6239
S'session_id_name'
p6240
asbag57
(g78
g59
NtRp6241
(dp6242
g62
(dp6243
g89
g90
ssg71
g6232
sg64
(lp6244
S':'
asbag57
(g78
g59
NtRp6245
(dp6246
g62
(dp6247
sg71
g6232
sg64
(lp6248
g57
(g58
g59
NtRp6249
(dp6250
g62
(dp6251
g70
I5
ssg71
g6245
sg64
(lp6252
g5045
asbasbasbag57
(g73
g59
NtRp6253
(dp6254
g62
(dp6255
sg71
g4612
sg64
(lp6256
g57
(g78
g59
NtRp6257
(dp6258
g62
(dp6259
g82
g83
ssg71
g6253
sg64
(lp6260
S'session_locked'
p6261
asbag57
(g78
g59
NtRp6262
(dp6263
g62
(dp6264
g89
g90
ssg71
g6253
sg64
(lp6265
S':'
asbag57
(g78
g59
NtRp6266
(dp6267
g62
(dp6268
sg71
g6253
sg64
(lp6269
g57
(g58
g59
NtRp6270
(dp6271
g62
(dp6272
g70
I5
ssg71
g6266
sg64
(lp6273
g100
asbasbasbag57
(g73
g59
NtRp6274
(dp6275
g62
(dp6276
sg71
g4612
sg64
(lp6277
g57
(g78
g59
NtRp6278
(dp6279
g62
(dp6280
g82
g83
ssg71
g6274
sg64
(lp6281
S'session_new'
p6282
asbag57
(g78
g59
NtRp6283
(dp6284
g62
(dp6285
g89
g90
ssg71
g6274
sg64
(lp6286
S':'
asbag57
(g78
g59
NtRp6287
(dp6288
g62
(dp6289
sg71
g6274
sg64
(lp6290
g57
(g58
g59
NtRp6291
(dp6292
g62
(dp6293
g70
I5
ssg71
g6287
sg64
(lp6294
g1374
asbasbasbag57
(g73
g59
NtRp6295
(dp6296
g62
(dp6297
sg71
g4612
sg64
(lp6298
g57
(g78
g59
NtRp6299
(dp6300
g62
(dp6301
g82
g83
ssg71
g6295
sg64
(lp6302
S'status'
p6303
asbag57
(g78
g59
NtRp6304
(dp6305
g62
(dp6306
g89
g90
ssg71
g6295
sg64
(lp6307
S':'
asbag57
(g78
g59
NtRp6308
(dp6309
g62
(dp6310
sg71
g6295
sg64
(lp6311
g57
(g58
g59
NtRp6312
(dp6313
g62
(dp6314
g70
I5
ssg71
g6308
sg64
(lp6315
S'200'
p6316
asbasbasbag57
(g73
g59
NtRp6317
(dp6318
g62
(dp6319
sg71
g4612
sg64
(lp6320
g57
(g78
g59
NtRp6321
(dp6322
g62
(dp6323
g82
g83
ssg71
g6317
sg64
(lp6324
S'subtitle'
p6325
asbag57
(g78
g59
NtRp6326
(dp6327
g62
(dp6328
g89
g90
ssg71
g6317
sg64
(lp6329
S':'
asbag57
(g78
g59
NtRp6330
(dp6331
g62
(dp6332
sg71
g6317
sg64
(lp6333
g57
(g58
g59
NtRp6334
(dp6335
g62
(dp6336
g70
I5
ssg71
g6330
sg64
(lp6337
g4669
(S's\r\x00\x00\x00customize me!'
tRp6338
asbasbasbag57
(g73
g59
NtRp6339
(dp6340
g62
(dp6341
sg71
g4612
sg64
(lp6342
g57
(g78
g59
NtRp6343
(dp6344
g62
(dp6345
g82
g83
ssg71
g6339
sg64
(lp6346
S'title'
p6347
asbag57
(g78
g59
NtRp6348
(dp6349
g62
(dp6350
g89
g90
ssg71
g6339
sg64
(lp6351
S':'
asbag57
(g78
g59
NtRp6352
(dp6353
g62
(dp6354
sg71
g6339
sg64
(lp6355
g57
(g58
g59
NtRp6356
(dp6357
g62
(dp6358
g70
I5
ssg71
g6352
sg64
(lp6359
S'Themishrms'
p6360
asbasbasbag57
(g73
g59
NtRp6361
(dp6362
g62
(dp6363
sg71
g4612
sg64
(lp6364
g57
(g78
g59
NtRp6365
(dp6366
g62
(dp6367
g82
g83
ssg71
g6361
sg64
(lp6368
S'tlsmenu'
p6369
asbag57
(g78
g59
NtRp6370
(dp6371
g62
(dp6372
g89
g90
ssg71
g6361
sg64
(lp6373
S':'
asbag57
(g78
g59
NtRp6374
(dp6375
g62
(dp6376
sg71
g6361
sg64
(lp6377
g57
(g58
g59
NtRp6378
(dp6379
g62
(dp6380
g70
I5
ssg71
g6374
sg64
(lp6381
g57
(g66
g59
NtRp6382
(dp6383
g62
(dp6384
g70
I4
ssg71
Nsg64
(lp6385
g57
(g73
g59
NtRp6386
(dp6387
g62
(dp6388
sg71
g6382
sg64
(lp6389
g57
(g78
g59
NtRp6390
(dp6391
g62
(dp6392
sg71
g6386
sg64
(lp6393
g57
(g58
g59
NtRp6394
(dp6395
g62
(dp6396
g70
I4
ssg71
g6390
sg64
(lp6397
g57
(g66
g59
NtRp6398
(dp6399
g62
(dp6400
g70
I3
ssg71
Nsg64
(lp6401
g57
(g73
g59
NtRp6402
(dp6403
g62
(dp6404
sg71
g6398
sg64
(lp6405
g57
(g78
g59
NtRp6406
(dp6407
g62
(dp6408
sg71
g6402
sg64
(lp6409
g57
(g58
g59
NtRp6410
(dp6411
g62
(dp6412
g70
I3
ssg71
g6406
sg64
(lp6413
g4669
(S's\x07\x00\x00\x00Website'
tRp6414
asbasbasbag57
(g73
g59
NtRp6415
(dp6416
g62
(dp6417
sg71
g6398
sg64
(lp6418
g57
(g78
g59
NtRp6419
(dp6420
g62
(dp6421
sg71
g6415
sg64
(lp6422
g57
(g58
g59
NtRp6423
(dp6424
g62
(dp6425
g70
I3
ssg71
g6419
sg64
(lp6426
g1374
asbasbasbag57
(g73
g59
NtRp6427
(dp6428
g62
(dp6429
sg71
g6398
sg64
(lp6430
g57
(g78
g59
NtRp6431
(dp6432
g62
(dp6433
sg71
g6427
sg64
(lp6434
g57
(g58
g59
NtRp6435
(dp6436
g62
(dp6437
g70
I3
ssg71
g6431
sg64
(lp6438
S'/themishrms/default/index'
p6439
asbasbasbag57
(g73
g59
NtRp6440
(dp6441
g62
(dp6442
sg71
g6398
sg64
(lp6443
g57
(g78
g59
NtRp6444
(dp6445
g62
(dp6446
sg71
g6440
sg64
(lp6447
g57
(g58
g59
NtRp6448
(dp6449
g62
(dp6450
g70
I3
ssg71
g6444
sg64
(lp6451
g57
(g66
g59
NtRp6452
(dp6453
g62
(dp6454
g70
I2
ssg71
Nsg64
(lp6455
sbasbasbasbasbasbasbasbag57
(g73
g59
NtRp6456
(dp6457
g62
(dp6458
sg71
g6382
sg64
(lp6459
g57
(g78
g59
NtRp6460
(dp6461
g62
(dp6462
sg71
g6456
sg64
(lp6463
g57
(g58
g59
NtRp6464
(dp6465
g62
(dp6466
g70
I4
ssg71
g6460
sg64
(lp6467
g57
(g66
g59
NtRp6468
(dp6469
g62
(dp6470
g70
I3
ssg71
Nsg64
(lp6471
g57
(g73
g59
NtRp6472
(dp6473
g62
(dp6474
sg71
g6468
sg64
(lp6475
g57
(g78
g59
NtRp6476
(dp6477
g62
(dp6478
sg71
g6472
sg64
(lp6479
g57
(g58
g59
NtRp6480
(dp6481
g62
(dp6482
g70
I3
ssg71
g6476
sg64
(lp6483
g4669
(S's\x07\x00\x00\x00WebMail'
tRp6484
asbasbasbag57
(g73
g59
NtRp6485
(dp6486
g62
(dp6487
sg71
g6468
sg64
(lp6488
g57
(g78
g59
NtRp6489
(dp6490
g62
(dp6491
sg71
g6485
sg64
(lp6492
g57
(g58
g59
NtRp6493
(dp6494
g62
(dp6495
g70
I3
ssg71
g6489
sg64
(lp6496
g1374
asbasbasbag57
(g73
g59
NtRp6497
(dp6498
g62
(dp6499
sg71
g6468
sg64
(lp6500
g57
(g78
g59
NtRp6501
(dp6502
g62
(dp6503
sg71
g6497
sg64
(lp6504
g57
(g58
g59
NtRp6505
(dp6506
g62
(dp6507
g70
I3
ssg71
g6501
sg64
(lp6508
S'/themishrms/default/webmail'
p6509
asbasbasbag57
(g73
g59
NtRp6510
(dp6511
g62
(dp6512
sg71
g6468
sg64
(lp6513
g57
(g78
g59
NtRp6514
(dp6515
g62
(dp6516
sg71
g6510
sg64
(lp6517
g57
(g58
g59
NtRp6518
(dp6519
g62
(dp6520
g70
I3
ssg71
g6514
sg64
(lp6521
g57
(g66
g59
NtRp6522
(dp6523
g62
(dp6524
g70
I2
ssg71
Nsg64
(lp6525
sbasbasbasbasbasbasbasbag57
(g73
g59
NtRp6526
(dp6527
g62
(dp6528
sg71
g6382
sg64
(lp6529
g57
(g78
g59
NtRp6530
(dp6531
g62
(dp6532
sg71
g6526
sg64
(lp6533
g57
(g58
g59
NtRp6534
(dp6535
g62
(dp6536
g70
I4
ssg71
g6530
sg64
(lp6537
g57
(g66
g59
NtRp6538
(dp6539
g62
(dp6540
g70
I3
ssg71
Nsg64
(lp6541
g57
(g73
g59
NtRp6542
(dp6543
g62
(dp6544
sg71
g6538
sg64
(lp6545
g57
(g78
g59
NtRp6546
(dp6547
g62
(dp6548
sg71
g6542
sg64
(lp6549
g57
(g58
g59
NtRp6550
(dp6551
g62
(dp6552
g70
I3
ssg71
g6546
sg64
(lp6553
g4669
(S's\r\x00\x00\x00Themis Portal'
tRp6554
asbasbasbag57
(g73
g59
NtRp6555
(dp6556
g62
(dp6557
sg71
g6538
sg64
(lp6558
g57
(g78
g59
NtRp6559
(dp6560
g62
(dp6561
sg71
g6555
sg64
(lp6562
g57
(g58
g59
NtRp6563
(dp6564
g62
(dp6565
g70
I3
ssg71
g6559
sg64
(lp6566
g1374
asbasbasbag57
(g73
g59
NtRp6567
(dp6568
g62
(dp6569
sg71
g6538
sg64
(lp6570
g57
(g78
g59
NtRp6571
(dp6572
g62
(dp6573
sg71
g6567
sg64
(lp6574
g57
(g58
g59
NtRp6575
(dp6576
g62
(dp6577
g70
I3
ssg71
g6571
sg64
(lp6578
S'/themishrms/default/portal'
p6579
asbasbasbag57
(g73
g59
NtRp6580
(dp6581
g62
(dp6582
sg71
g6538
sg64
(lp6583
g57
(g78
g59
NtRp6584
(dp6585
g62
(dp6586
sg71
g6580
sg64
(lp6587
g57
(g58
g59
NtRp6588
(dp6589
g62
(dp6590
g70
I3
ssg71
g6584
sg64
(lp6591
g57
(g66
g59
NtRp6592
(dp6593
g62
(dp6594
g70
I2
ssg71
Nsg64
(lp6595
sbasbasbasbasbasbasbasbag57
(g73
g59
NtRp6596
(dp6597
g62
(dp6598
sg71
g6382
sg64
(lp6599
g57
(g78
g59
NtRp6600
(dp6601
g62
(dp6602
sg71
g6596
sg64
(lp6603
g57
(g58
g59
NtRp6604
(dp6605
g62
(dp6606
g70
I4
ssg71
g6600
sg64
(lp6607
g57
(g66
g59
NtRp6608
(dp6609
g62
(dp6610
g70
I3
ssg71
Nsg64
(lp6611
g57
(g73
g59
NtRp6612
(dp6613
g62
(dp6614
sg71
g6608
sg64
(lp6615
g57
(g78
g59
NtRp6616
(dp6617
g62
(dp6618
sg71
g6612
sg64
(lp6619
g57
(g58
g59
NtRp6620
(dp6621
g62
(dp6622
g70
I3
ssg71
g6616
sg64
(lp6623
g4669
(S's\x0f\x00\x00\x00Themis Policies'
tRp6624
asbasbasbag57
(g73
g59
NtRp6625
(dp6626
g62
(dp6627
sg71
g6608
sg64
(lp6628
g57
(g78
g59
NtRp6629
(dp6630
g62
(dp6631
sg71
g6625
sg64
(lp6632
g57
(g58
g59
NtRp6633
(dp6634
g62
(dp6635
g70
I3
ssg71
g6629
sg64
(lp6636
g1374
asbasbasbag57
(g73
g59
NtRp6637
(dp6638
g62
(dp6639
sg71
g6608
sg64
(lp6640
g57
(g78
g59
NtRp6641
(dp6642
g62
(dp6643
sg71
g6637
sg64
(lp6644
g57
(g58
g59
NtRp6645
(dp6646
g62
(dp6647
g70
I3
ssg71
g6641
sg64
(lp6648
S'/themishrms/default/ourtrem'
p6649
asbasbasbag57
(g73
g59
NtRp6650
(dp6651
g62
(dp6652
sg71
g6608
sg64
(lp6653
g57
(g78
g59
NtRp6654
(dp6655
g62
(dp6656
sg71
g6650
sg64
(lp6657
g57
(g58
g59
NtRp6658
(dp6659
g62
(dp6660
g70
I3
ssg71
g6654
sg64
(lp6661
g57
(g66
g59
NtRp6662
(dp6663
g62
(dp6664
g70
I2
ssg71
Nsg64
(lp6665
sbasbasbasbasbasbasbasbag57
(g73
g59
NtRp6666
(dp6667
g62
(dp6668
sg71
g6382
sg64
(lp6669
g57
(g78
g59
NtRp6670
(dp6671
g62
(dp6672
sg71
g6666
sg64
(lp6673
g57
(g58
g59
NtRp6674
(dp6675
g62
(dp6676
g70
I4
ssg71
g6670
sg64
(lp6677
g57
(g66
g59
NtRp6678
(dp6679
g62
(dp6680
g70
I3
ssg71
Nsg64
(lp6681
g57
(g73
g59
NtRp6682
(dp6683
g62
(dp6684
sg71
g6678
sg64
(lp6685
g57
(g78
g59
NtRp6686
(dp6687
g62
(dp6688
sg71
g6682
sg64
(lp6689
g57
(g58
g59
NtRp6690
(dp6691
g62
(dp6692
g70
I3
ssg71
g6686
sg64
(lp6693
g4669
(S's\x0f\x00\x00\x00Contact Details'
tRp6694
asbasbasbag57
(g73
g59
NtRp6695
(dp6696
g62
(dp6697
sg71
g6678
sg64
(lp6698
g57
(g78
g59
NtRp6699
(dp6700
g62
(dp6701
sg71
g6695
sg64
(lp6702
g57
(g58
g59
NtRp6703
(dp6704
g62
(dp6705
g70
I3
ssg71
g6699
sg64
(lp6706
g1374
asbasbasbag57
(g73
g59
NtRp6707
(dp6708
g62
(dp6709
sg71
g6678
sg64
(lp6710
g57
(g78
g59
NtRp6711
(dp6712
g62
(dp6713
sg71
g6707
sg64
(lp6714
g57
(g58
g59
NtRp6715
(dp6716
g62
(dp6717
g70
I3
ssg71
g6711
sg64
(lp6718
S'/themishrms/default/emp_contact_detail'
p6719
asbasbasbag57
(g73
g59
NtRp6720
(dp6721
g62
(dp6722
sg71
g6678
sg64
(lp6723
g57
(g78
g59
NtRp6724
(dp6725
g62
(dp6726
sg71
g6720
sg64
(lp6727
g57
(g58
g59
NtRp6728
(dp6729
g62
(dp6730
g70
I3
ssg71
g6724
sg64
(lp6731
g57
(g66
g59
NtRp6732
(dp6733
g62
(dp6734
g70
I2
ssg71
Nsg64
(lp6735
sbasbasbasbasbasbasbasbasbasbasbasbag57
(g73
g59
NtRp6736
(dp6737
g62
(dp6738
sg71
g4612
sg64
(lp6739
g57
(g78
g59
NtRp6740
(dp6741
g62
(dp6742
g82
g83
ssg71
g6736
sg64
(lp6743
g2884
asbag57
(g78
g59
NtRp6744
(dp6745
g62
(dp6746
g89
g90
ssg71
g6736
sg64
(lp6747
S':'
asbag57
(g78
g59
NtRp6748
(dp6749
g62
(dp6750
sg71
g6736
sg64
(lp6751
g57
(g58
g59
NtRp6752
(dp6753
g62
(dp6754
g70
I5
ssg71
g6748
sg64
(lp6755
g2897
asbasbasbag57
(g73
g59
NtRp6756
(dp6757
g62
(dp6758
sg71
g4612
sg64
(lp6759
g57
(g78
g59
NtRp6760
(dp6761
g62
(dp6762
g82
g83
ssg71
g6756
sg64
(lp6763
S'view'
p6764
asbag57
(g78
g59
NtRp6765
(dp6766
g62
(dp6767
g89
g90
ssg71
g6756
sg64
(lp6768
S':'
asbag57
(g78
g59
NtRp6769
(dp6770
g62
(dp6771
sg71
g6756
sg64
(lp6772
g57
(g58
g59
NtRp6773
(dp6774
g62
(dp6775
g70
I5
ssg71
g6769
sg64
(lp6776
S'default/admin_orz.html'
p6777
asbasbasbasbasbsS'locals'
p6778
(dp6779
S'usr'
p6780
S'[]'
p6781
sssS'traceback'
p6782
S'Traceback (most recent call last):\n  File "/home/sanjeet/Desktop/install/Development/web2py/gluon/restricted.py", line 205, in restricted\n    exec ccode in environment\n  File "/home/sanjeet/Desktop/install/Development/web2py/applications/themishrms/controllers/default.py", line 1374, in <module>\n  File "/home/sanjeet/Desktop/install/Development/web2py/gluon/globals.py", line 173, in <lambda>\n    self._caller = lambda f: f()\n  File "/home/sanjeet/Desktop/install/Development/web2py/gluon/tools.py", line 2575, in f\n    return action(*a, **b)\n  File "/home/sanjeet/Desktop/install/Development/web2py/applications/themishrms/controllers/default.py", line 773, in admin_orz\n    for row in db((db.auth_user.department == request.vars.dp) & (db.auth_user.organization_name == request,vars.orz)).select():\nAttributeError: \'builtin_function_or_method\' object has no attribute \'orz\'\n'
p6783
s.