(dp1
S'output'
p2
S"<type 'exceptions.NameError'> name 'images' is not defined"
p3
sS'layer'
p4
S'/home/tls-sanjeet/Desktop/HRMS/web2py/applications/themishrms/views/default/emp_apply_leave.html'
p5
sS'code'
p6
S'left_sidebar_enabled,right_sidebar_enabled=True,True\nresponse.write(\'\\n\', escape=False)\nresponse.write(\'<!DOCTYPE html>\\n<!-- paulirish.com/2008/conditional-stylesheets-vs-css-hacks-answer-neither/ -->\\n<!--[if lt IE 7]><html class="ie ie6 ie-lte9 ie-lte8 ie-lte7 no-js" lang="\', escape=False)\nresponse.write(T.accepted_language or \'en\')\nresponse.write(\'"> <![endif]-->\\n<!--[if IE 7]><html class="ie ie7 ie-lte9 ie-lte8 ie-lte7 no-js" lang="\', escape=False)\nresponse.write(T.accepted_language or \'en\')\nresponse.write(\'"> <![endif]-->\\n<!--[if IE 8]><html class="ie ie8 ie-lte9 ie-lte8 no-js" lang="\', escape=False)\nresponse.write(T.accepted_language or \'en\')\nresponse.write(\'"> <![endif]-->\\n<!--[if IE 9]><html class="ie9 ie-lte9 no-js" lang="\', escape=False)\nresponse.write(T.accepted_language or \'en\')\nresponse.write(\'"> <![endif]-->\\n<!--[if (gt IE 9)|!(IE)]><!--> <html class="no-js" lang="\', escape=False)\nresponse.write(T.accepted_language or \'en\')\nresponse.write(\'"> <!--<![endif]-->\\n<head>\\n  <meta charset="utf-8" />\\n  <!-- www.phpied.com/conditional-comments-block-downloads/ -->\\n  <!-- Always force latest IE rendering engine\\n\\t   (even in intranet) & Chrome Frame\\n\\t   Remove this if you use the .htaccess -->\\n  <!--[if IE]>\\n    <meta http-equiv="X-UA-Compatible" content="IE=edge\', escape=False)\nresponse.write(not request.is_local and \',chrome=1\' or \'\')\nresponse.write(\'">\\n  <![endif]-->\\n  \\n  <title>\', escape=False)\nresponse.write(response.title or request.application)\nresponse.write(\'</title>\\n  \\n  <!-- http://dev.w3.org/html5/markup/meta.name.html -->\\n  <meta name="application-name" content="\', escape=False)\nresponse.write(request.application)\nresponse.write(\'" />\\n  \\n  <!-- Speaking of Google, don\\\'t forget to set your site up:\\n\\t   http://google.com/webmasters -->\\n  <meta name="google-site-verification" content="" />\\n\\n  <!--  Mobile Viewport Fix\\n\\t  j.mp/mobileviewport & davidbcalhoun.com/2010/viewport-metatag\\n\\t  device-width: Occupy full width of the screen in its current orientation\\n\\t  initial-scale = 1.0 retains dimensions instead of zooming out if page height > device height\\n\\t  user-scalable = yes allows the user to zoom in -->\\n  <meta name="viewport" content="width=device-width, initial-scale=1.0, user-scalable=yes">\\n  \\n  <!-- Place favicon.ico and apple-touch-icon.png in the root of your domain and delete these references -->\\n  <link rel="shortcut icon" href="\', escape=False)\nresponse.write(URL(\'static\',\'favicon.ico\'))\nresponse.write(\'" type="image/x-icon">\\n  <link rel="apple-touch-icon" href="\', escape=False)\nresponse.write(URL(\'static\',\'favicon.png\'))\nresponse.write(\'">\\n\\n  <!-- All JavaScript at the bottom, except for Modernizr which enables \\n\\t   HTML5 elements & feature detects -->\\n  <script src="\', escape=False)\nresponse.write(URL(\'static\',\'js/modernizr.custom.js\'))\nresponse.write(\'"></script>  \\n\\n  <!-- include stylesheets -->\\n  \', escape=False)\nresponse.files.append(URL(\'static\',\'css/skeleton.css\'))\nresponse.files.append(URL(\'static\',\'css/web2py.css\'))\nresponse.files.append(URL(\'static\',\'css/superfish.css\'))\nresponse.files.append(URL(\'static\',\'css/dock.css\'))\nresponse.files.append(URL(\'static\',\'css/layout2.css\'))\nresponse.files.append(URL(\'static\',\'js/superfish.js\'))\nresponse.files.append(URL(\'static\',\'js/jquery.jqDock.min.js\'))\nresponse.files.append(URL(\'static\',\'js/jquery.js\'))\nresponse.files.append(URL(\'static\',\'js/jquery.validate.js\'))\nresponse.files.append(URL(\'static\',\'js/ui.core.js\'))\nresponse.files.append(URL(\'static\',\'js/ui.draggable.js\'))\nresponse.files.append(URL(\'static\',\'js/ui.resizable.js\'))\nresponse.files.append(URL(\'static\',\'js/fullcalendar.min.js\'))\nresponse.files.append(URL(\'static\',\'css/fullcalendar.css\'))\nresponse.write(\'\\n  \\n  \', escape=False)\nresponse.write(\'<script type="text/javascript"><!--\\n    // These variables are used by the web2py_ajax_init function in web2py_ajax.js (which is loaded below).\\n    var w2p_ajax_confirm_message = "\', escape=False)\nresponse.write(T(\'Are you sure you want to delete this object?\'))\nresponse.write(\'";\\n    var w2p_ajax_date_format = "\', escape=False)\nresponse.write(T(\'%Y-%m-%d\'))\nresponse.write(\'";\\n    var w2p_ajax_datetime_format = "\', escape=False)\nresponse.write(T(\'%Y-%m-%d %H:%M:%S\'))\nresponse.write(\'";\\n    //--></script>\\n\', escape=False)\nresponse.files.insert(0,URL(\'static\',\'js/jquery.js\'))\nresponse.files.insert(1,URL(\'static\',\'css/calendar.css\'))\nresponse.files.insert(2,URL(\'static\',\'js/calendar.js\'))\nresponse.files.insert(3,URL(\'static\',\'js/web2py.js\'))\nresponse.include_meta()\nresponse.include_files()\nresponse.write(\'\\n\', escape=False)\nresponse.write(\'\\n\\n  <script type="text/javascript">\\n    jQuery(function(){ jQuery(\\\'ul.sf-menu\\\').supersubs({minWidth:12,maxWidth:30,extraWidth:3}).superfish(); });\\n  </script>\\n\\n  \', escape=False)\n# using sidebars need to know what sidebar you want to use\nleft_sidebar_enabled = globals().get(\'left_sidebar_enabled\',False)\nright_sidebar_enabled = globals().get(\'right_sidebar_enabled\',False)\nmiddle_columns = {0:\'sixteen\',1:\'twelve\',2:\'eight\'}[\n(left_sidebar_enabled and 1 or 0)+(right_sidebar_enabled and 1 or 0)]\nresponse.write(\'\\n\\n  <!-- uncomment here to load jquery-ui\\n  <link rel="stylesheet" href="http://ajax.googleapis.com/ajax/libs/jqueryui/1.8.16/themes/base/jquery-ui.css" type="text/css" media="all" />\\n  <script src="http://ajax.googleapis.com/ajax/libs/jqueryui/1.8.16/jquery-ui.min.js" type="text/javascript"></script>\\n  uncomment to load jquery-ui //-->\\n  \\t<script type="text/javascript">\\n\\t\\t$(function(){\\n\\t\\t\\tvar jqDockOpts = {align: \\\'left\\\', duration: 200, labels: \\\'tc\\\', size: 48, distance: 85};\\n\\t\\t\\t$(\\\'#jqDock\\\').jqDock(jqDockOpts);\\n\\t\\t});\\n\\t</script>  \\n  <style type="text/css">\\n#navigation {font-size:1.0em; width:150px;}\\n#navigation ul {margin:0px; padding:0px;}\\n#navigation li {list-style: none;}\\n\\nul.top-level li {\\n border-bottom: #fff solid;\\n border-width: 1px;\\n}\\n#navigation a {\\n color:#D7A95A;\\n cursor: pointer;\\n display:block;\\n height:25px;\\n line-height: 25px;\\n text-indent: 10px;                   \\n text-decoration:none;\\n width:100%;\\n}\\n#navigation a:hover{\\n text-decoration:underline;\\n color: #CE8417;\\n}\\n#navigation li:hover {\\n background:#fff;\\n position: relative;\\n}\\nul.sub-level {\\n    display: none;\\n}\\n\\nli:hover .sub-level {\\n    background: #5B5125;\\n    border-width: 1px;\\n    display: block;\\n    position: absolute;\\n    left: 75px;\\n    top: 5px;\\n}\\nul.sub-level li {\\n    border: none;\\n    float:left;\\n    width:150px;\\n}\\n</style>\\n  \\n</head>\\n<body>\\n  <div class="wrapper"><!-- for sticky footer -->\\n  \\n    <div class="topbar">\\n      <div class="container">    \\n        <div class="sixteen columns">\\n          <div id="navbar">\', escape=False)\nresponse.write(\'auth\' in globals() and auth.navbar(separators=(\' \',\' | \',\'\')))\nresponse.write(\'</div>\\n          \', escape=False)\nis_mobile=request.user_agent().is_mobile\nresponse.write(\'\\n\\t\\t<div id="nav"><div id="menu">\', escape=False)\nresponse.write(MENU(response.tlsmenu, _class=\'mobile-menu\' if is_mobile else \'sf-menu\',mobile=is_mobile))\nresponse.write(\'</div>\\n\\t\\t</div>\\n        </div>\\n      </div>\\n    </div><!-- topbar -->   \\n    <div class="flash">\', escape=False)\nresponse.write(response.flash or \'\')\nresponse.write(\'</div>\\n    <div class="header">\\n    <div class="container">\\n\\t<div id="logo"></div>\\n               \\n        <div class="sixteen columns">\\n\\t\\t  <div id="projtstatus">\\n\\t\\t  Project Status\\n\\t\\t  </div>\\n        </div>\\n        <div class="sixteen columns">\\n        </div>\\n      </div>\\n    </div>\\n    <div class="main">\\n      <div class="container">                 \\n        \', escape=False)\nif left_sidebar_enabled:\n    response.write(\'\\n        <div class="four columns left-sidebar">\\n          \', escape=False)\n    response.write(\'\\n\\t\\t\\t\\t<div id="esidebar">\\n\\t\\t\\t\\t\\t<a href="\', escape=False)\n    response.write(URL(\'default\',\'employee\'))\n    response.write(\'">Dashboard</a>\\n\\t\\t\\t\\t\\t<div id="photo"><img width="100px" src="\', escape=False)\n    response.write(URL(\'download\', args=images))\n    response.write(\'" />\\n\\t\\t\\t\\t\\t<div style="margin-top:-5px;">\', escape=False)\n    response.write(A(T(\'Update Image\'),_href=URL(\'emp_update_image\')))\n    response.write(\'</div>\\n\\t\\t\\t\\t</div>\\n\\t\\t\\t\\t<br>\\n\\t\\t\\t\\t<div id="navigation">\\n   \\t\\t\\t\\t <ul class="top-level">\\n        \\t\\t\\t\\t<li><a href="\', escape=False)\n    response.write(URL(\'default\',\'emp_myprofile\'))\n    response.write(\'">My Profile</a></li>\\n        \\t\\t\\t\\t<li><a href="\', escape=False)\n    response.write(URL(\'default\',\'emp_leavecalendar\'))\n    response.write(\'">Calendar</a>\\n        \\t\\t\\t\\t\\t<ul class="sub-level">\\n                \\t\\t\\t\\t<li><a href="\', escape=False)\n    response.write(URL(\'default\',\'emp_leavecalendar\'))\n    response.write(\'">Leave Calendar</a></li>\\n\\t\\t  \\t\\t\\t\\t\\t\\t\\t<li><a href="\', escape=False)\n    response.write(URL(\'default\',\'emp_calendar\'))\n    response.write(\'">Holiday Calendar</a></li>\\n            \\t\\t\\t </ul>\\n            \\t   </li>\\n\\t\\t  \\t\\t\\t\\t<li><a href="\', escape=False)\n    response.write(URL(\'default\',\'emp_company\'))\n    response.write(\'">Company</a></li>\\n\\t\\t  \\t\\t\\t\\t<li><a href="\', escape=False)\n    response.write(URL(\'default\',\'emp_organization\'))\n    response.write(\'">Organization</a></li>\\n\\t\\t  \\t\\t\\t\\t<li><a href="\', escape=False)\n    response.write(URL(\'default\',\'emp_mydoc\'))\n    response.write(\'">My Documents</a></li>\\n\\t\\t  \\t\\t\\t\\t<li><a href="\', escape=False)\n    response.write(URL(\'default\',\'emp_compliance\'))\n    response.write(\'">Compliance</a></li>\\n\\t\\t  \\t\\t\\t\\t<li><a href="\', escape=False)\n    response.write(URL(\'default\',\'emp_all\'))\n    response.write(\'">All</a></li>     \\n\\t\\t  \\t\\t\\t\\t\', escape=False)\n    if auth.has_permission(\'Mgr\',\'auth_user\'):\n        response.write(\' \\n\\t\\t  \\t\\t\\t\\t<li><a href="\', escape=False)\n        response.write(URL(\'default\',\'emp_leave_stat\'))\n        response.write(\'">All</a></li>\\n\\t\\t  \\t\\t\\t\\t\', escape=False)\n        pass\n    response.write(\'\\n    \\t\\t\\t\\t</ul>\\n\\t\\t\\t\\t</div>\\n\\t\\t\\t\\t</div>          \\n          \', escape=False)\n    response.write(\'\\n        </div>\\n        \', escape=False)\n    pass\nresponse.write(\'       \\n         <div class="\', escape=False)\nresponse.write(middle_columns)\nresponse.write(\' columns center">\\n          \', escape=False)\nresponse.write(\'\\n          \', escape=False)\nresponse.write(\'\\n\\n<script> \\n$(document).ready(function()\\n\\t{ \\t\\n\\t\\n\\t$("#theform").validate({\\n\\terrorClass: "my-error-class",\\n\\tvalidClass: "my-valid-class",   \\n    rules: {\\n    \\tapply: {\\n    \\t\\trequired: true\\n    \\t}\\n\\t\\t,fromleave: {\\n\\t\\t\\trequired: true\\n\\t\\t}\\n\\t\\t,toleave:{\\n\\t\\t\\trequired: true\\n\\t\\t}\\n\\t\\t,reason:{\\n\\t\\t\\trequired: true\\n\\t\\t}\\n\\t\\t\\n\\t\\t\\n    },\\n    messages: {\\n    \\t apply: "Please select the Leave type"\\n\\t\\t,fromleave: "Please select the Date "\\n\\t\\t,toleave: "Please enter the Employee code"\\n\\t\\t,reason:"Please enter the reason"\\n\\t\\t\\n\\t }\\n    });\\t\\n\\t\\t\\n\\t}); \\n\\t\\n</script>\\n\\n<div id="contdoc">\\n<h4>Apply for Leave</h4>\\n</div>\\n<div id="econtent">\\n<div class="panel">\\n<br><br>\\n<center>\\n\\t<form name="theform" id="theform" method="post" action="emp_apply_leave">\\n\\t\\tSelect Leave Type:<select name="apply" id="apply">\\n\\t\\t<option value="">Select Organization</option>\\n  \\t\\t\\t<option value="Casual Leave">Casual Leave</option>  \\n  \\t\\t\\t<option value ="Medical Leave">Medical Leave</option> \\n  \\t\\t\\t<option value="Vacation Leave">Vacation Leave</option> \\n\\t</select> <br><br> \\n\\tForm Leave: <input type="text" class="date" name="fromleave" value=""/>&nbsp;\\n\\tTo Leave: <input type="text" class="date" name="toleave" value=""/><br><br>\\n\\tReason of Leave    : <input type="text" name="reason" value=""/><br><br>\\n\\t<center><p><input class="submit" type="submit" name="submit" value="Submit" /></p>\\n\\t</form>\\n</center>\\n</div> \\n</div>\\n\', escape=False)\nresponse.write(\'\\n          \', escape=False)\nresponse.write(\'\\n        </div>        \\n        \', escape=False)\nif right_sidebar_enabled:\n    response.write(\'\\n        <div class="four columns">\\n          \', escape=False)\n    response.write(\'\\n          <div id="psidebar">\\n\\t  \\t\\t\\t<div id="dockContainer">\\n\\t \\t\\t\\t\\t<h2>Themis Product</h2>\\t\\t\\t\\n\\t\\t\\t\\t\\t\\t<br>\\n\\t\\t\\t\\t\\t<ul id="jqDock">\\n\\t\\t\\t\\t\\t\\t<li><a class="dockItem" href="index.html"><img style="margin:0px auto;" src="\', escape=False)\n    response.write(URL(\'static\',\'images/home-sm.png\'))\n    response.write(\'" alt="ThemisLCM"/></a></li>\\n\\t\\t\\t\\t\\t\\t<li><a class="dockItem" href="index.html"><img src="\', escape=False)\n    response.write(URL(\'static\',\'images/email-sm.png\'))\n    response.write(\'" alt="ThemisPortfolio"/></a></li>\\n\\t\\t\\t\\t\\t</ul>\\n\\t\\t\\t\\t</div>\\n\\t\\t\\t</div>\\n          \', escape=False)\n    response.write(\'\\n        </div>    \\n        \', escape=False)\n    pass\nresponse.write(\'      \\n      </div><!-- container -->\\n    </div><!-- main -->    \\n    <div class="push"></div>\\n  </div><!-- wrapper -->\\n  <div class="footer">\\n    <div class="container">    \\n        \', escape=False)\nresponse.write(\' <!-- this is default footer -->\\n          <div class="copyright">\', escape=False)\nresponse.write(T(\'Copyright Themis Lexsol Private LTD\'))\nresponse.write(\' &#169; 2012</div>\\n          <div style="float: right;">\\n            <a href="http://www.web2py.com/">\\n            <img style="padding-bottom: 0;" src="\', escape=False)\nresponse.write(URL(\'static\',\'images/poweredby.png\'))\nresponse.write(\'"/>\\n            </a>\\n          </div>\\n        \', escape=False)\nresponse.write(\'\\t\\n    </div><!-- container -->\\n  </div><!-- footer -->\\n  \\n  <!--[if lt IE 7 ]>\\n\\t<script src="\', escape=False)\nresponse.write(URL(\'static\',\'js/dd_belatedpng.js\'))\nresponse.write(\'"></script>\\n\\t<script> DD_belatedPNG.fix(\\\'img, .png_bg\\\'); //fix any <img> or .png_bg background-images </script>\\n\\t<![endif]-->\\n  \', escape=False)\nif response.google_analytics_id:\n    response.write(\'<script type="text/javascript"> var _gaq = _gaq || []; _gaq.push([\\\'_setAccount\\\', \\\'\', escape=False)\n    response.write(response.google_analytics_id)\n    response.write("\']); _gaq.push([\'_trackPageview\']); (function() { var ga = document.createElement(\'script\'); ga.type = \'text/javascript\'; ga.async = true; ga.src = (\'https:\' == document.location.protocol ? \'https://ssl\' : \'http://www\') + \'.google-analytics.com/ga.js\'; var s = document.getElementsByTagName(\'script\')[0]; s.parentNode.insertBefore(ga, s); })(); </script> ", escape=False)\n    pass\nresponse.write(\'\\n</body>\\n</html>\\n\', escape=False)'
p7
sS'snapshot'
p8
(dp9
S'exception'
p10
(dp11
S'__hash__'
p12
S"<method-wrapper '__hash__' of exceptions.NameError object>"
p13
sS'__setattr__'
p14
S"<method-wrapper '__setattr__' of exceptions.NameError object>"
p15
sS'__reduce_ex__'
p16
S'<built-in method __reduce_ex__ of exceptions.NameError object>'
p17
sS'__getslice__'
p18
S"<method-wrapper '__getslice__' of exceptions.NameError object>"
p19
sS'__getitem__'
p20
S"<method-wrapper '__getitem__' of exceptions.NameError object>"
p21
sS'__setstate__'
p22
S'<built-in method __setstate__ of exceptions.NameError object>'
p23
sS'__reduce__'
p24
S'<built-in method __reduce__ of exceptions.NameError object>'
p25
sS'__str__'
p26
S"<method-wrapper '__str__' of exceptions.NameError object>"
p27
sS'__format__'
p28
S'<built-in method __format__ of exceptions.NameError object>'
p29
sS'__getattribute__'
p30
S"<method-wrapper '__getattribute__' of exceptions.NameError object>"
p31
sS'__class__'
p32
S"<type 'exceptions.NameError'>"
p33
sS'__unicode__'
p34
S'<built-in method __unicode__ of exceptions.NameError object>'
p35
sS'__delattr__'
p36
S"<method-wrapper '__delattr__' of exceptions.NameError object>"
p37
sS'__subclasshook__'
p38
S'<built-in method __subclasshook__ of type object>'
p39
sS'__repr__'
p40
S"<method-wrapper '__repr__' of exceptions.NameError object>"
p41
sS'args'
p42
S'("name \'images\' is not defined",)'
p43
sS'__dict__'
p44
S'{}'
p45
sS'__sizeof__'
p46
S'<built-in method __sizeof__ of exceptions.NameError object>'
p47
sS'__doc__'
p48
S"'Name not found globally.'"
p49
sS'__init__'
p50
S"<method-wrapper '__init__' of exceptions.NameError object>"
p51
sS'__new__'
p52
S'<built-in method __new__ of type object>'
p53
ssS'evalue'
p54
S"name 'images' is not defined"
p55
sS'request'
p56
ccopy_reg
_reconstructor
p57
(cgluon.html
BEAUTIFY
p58
c__builtin__
object
p59
NtRp60
(dp61
S'attributes'
p62
(dp63
sS'components'
p64
(lp65
g57
(cgluon.html
TABLE
p66
g59
NtRp67
(dp68
g62
(dp69
S'level'
p70
I5
ssS'parent'
p71
Nsg64
(lp72
g57
(cgluon.html
TR
p73
g59
NtRp74
(dp75
g62
(dp76
sg71
g67
sg64
(lp77
g57
(cgluon.html
TD
p78
g59
NtRp79
(dp80
g62
(dp81
S'_style'
p82
S'font-weight:bold;vertical-align:top'
p83
ssg71
g74
sg64
(lp84
S'ajax'
p85
asbag57
(g78
g59
NtRp86
(dp87
g62
(dp88
S'_valign'
p89
S'top'
p90
ssg71
g74
sg64
(lp91
S':'
asbag57
(g78
g59
NtRp92
(dp93
g62
(dp94
sg71
g74
sg64
(lp95
g57
(g58
g59
NtRp96
(dp97
g62
(dp98
g70
I5
ssg71
g92
sg64
(lp99
S'False'
p100
asbasbasbag57
(g73
g59
NtRp101
(dp102
g62
(dp103
sg71
g67
sg64
(lp104
g57
(g78
g59
NtRp105
(dp106
g62
(dp107
g82
g83
ssg71
g101
sg64
(lp108
S'application'
p109
asbag57
(g78
g59
NtRp110
(dp111
g62
(dp112
g89
g90
ssg71
g101
sg64
(lp113
S':'
asbag57
(g78
g59
NtRp114
(dp115
g62
(dp116
sg71
g101
sg64
(lp117
g57
(g58
g59
NtRp118
(dp119
g62
(dp120
g70
I5
ssg71
g114
sg64
(lp121
S'themishrms'
p122
asbasbasbag57
(g73
g59
NtRp123
(dp124
g62
(dp125
sg71
g67
sg64
(lp126
g57
(g78
g59
NtRp127
(dp128
g62
(dp129
g82
g83
ssg71
g123
sg64
(lp130
g42
asbag57
(g78
g59
NtRp131
(dp132
g62
(dp133
g89
g90
ssg71
g123
sg64
(lp134
S':'
asbag57
(g78
g59
NtRp135
(dp136
g62
(dp137
sg71
g123
sg64
(lp138
g57
(g58
g59
NtRp139
(dp140
g62
(dp141
g70
I5
ssg71
g135
sg64
(lp142
g57
(g66
g59
NtRp143
(dp144
g62
(dp145
g70
I4
ssg71
Nsg64
(lp146
sbasbasbasbag57
(g73
g59
NtRp147
(dp148
g62
(dp149
sg71
g67
sg64
(lp150
g57
(g78
g59
NtRp151
(dp152
g62
(dp153
g82
g83
ssg71
g147
sg64
(lp154
S'body'
p155
asbag57
(g78
g59
NtRp156
(dp157
g62
(dp158
g89
g90
ssg71
g147
sg64
(lp159
S':'
asbag57
(g78
g59
NtRp160
(dp161
g62
(dp162
sg71
g147
sg64
(lp163
g57
(g58
g59
NtRp164
(dp165
g62
(dp166
g70
I5
ssg71
g160
sg64
(lp167
S"<open file '<fdopen>', mode 'w+b' at 0xa02be38>"
p168
asbasbasbag57
(g73
g59
NtRp169
(dp170
g62
(dp171
sg71
g67
sg64
(lp172
g57
(g78
g59
NtRp173
(dp174
g62
(dp175
g82
g83
ssg71
g169
sg64
(lp176
S'client'
p177
asbag57
(g78
g59
NtRp178
(dp179
g62
(dp180
g89
g90
ssg71
g169
sg64
(lp181
S':'
asbag57
(g78
g59
NtRp182
(dp183
g62
(dp184
sg71
g169
sg64
(lp185
g57
(g58
g59
NtRp186
(dp187
g62
(dp188
g70
I5
ssg71
g182
sg64
(lp189
S'127.0.0.1'
p190
asbasbasbag57
(g73
g59
NtRp191
(dp192
g62
(dp193
sg71
g67
sg64
(lp194
g57
(g78
g59
NtRp195
(dp196
g62
(dp197
g82
g83
ssg71
g191
sg64
(lp198
S'controller'
p199
asbag57
(g78
g59
NtRp200
(dp201
g62
(dp202
g89
g90
ssg71
g191
sg64
(lp203
S':'
asbag57
(g78
g59
NtRp204
(dp205
g62
(dp206
sg71
g191
sg64
(lp207
g57
(g58
g59
NtRp208
(dp209
g62
(dp210
g70
I5
ssg71
g204
sg64
(lp211
S'default'
p212
asbasbasbag57
(g73
g59
NtRp213
(dp214
g62
(dp215
sg71
g67
sg64
(lp216
g57
(g78
g59
NtRp217
(dp218
g62
(dp219
g82
g83
ssg71
g213
sg64
(lp220
S'cookies'
p221
asbag57
(g78
g59
NtRp222
(dp223
g62
(dp224
g89
g90
ssg71
g213
sg64
(lp225
S':'
asbag57
(g78
g59
NtRp226
(dp227
g62
(dp228
sg71
g213
sg64
(lp229
g57
(g58
g59
NtRp230
(dp231
g62
(dp232
g70
I5
ssg71
g226
sg64
(lp233
g57
(g66
g59
NtRp234
(dp235
g62
(dp236
g70
I4
ssg71
Nsg64
(lp237
g57
(g73
g59
NtRp238
(dp239
g62
(dp240
sg71
g234
sg64
(lp241
g57
(g78
g59
NtRp242
(dp243
g62
(dp244
g82
g83
ssg71
g238
sg64
(lp245
S'mypanel'
p246
asbag57
(g78
g59
NtRp247
(dp248
g62
(dp249
g89
g90
ssg71
g238
sg64
(lp250
S':'
asbag57
(g78
g59
NtRp251
(dp252
g62
(dp253
sg71
g238
sg64
(lp254
g57
(g58
g59
NtRp255
(dp256
g62
(dp257
g70
I4
ssg71
g251
sg64
(lp258
g57
(g66
g59
NtRp259
(dp260
g62
(dp261
g70
I3
ssg71
Nsg64
(lp262
g57
(g73
g59
NtRp263
(dp264
g62
(dp265
sg71
g259
sg64
(lp266
g57
(g78
g59
NtRp267
(dp268
g62
(dp269
g82
g83
ssg71
g263
sg64
(lp270
S'comment'
p271
asbag57
(g78
g59
NtRp272
(dp273
g62
(dp274
g89
g90
ssg71
g263
sg64
(lp275
S':'
asbag57
(g78
g59
NtRp276
(dp277
g62
(dp278
sg71
g263
sg64
(lp279
g57
(g58
g59
NtRp280
(dp281
g62
(dp282
g70
I3
ssg71
g276
sg64
(lp283
S''
asbasbasbag57
(g73
g59
NtRp284
(dp285
g62
(dp286
sg71
g259
sg64
(lp287
g57
(g78
g59
NtRp288
(dp289
g62
(dp290
g82
g83
ssg71
g284
sg64
(lp291
S'domain'
p292
asbag57
(g78
g59
NtRp293
(dp294
g62
(dp295
g89
g90
ssg71
g284
sg64
(lp296
S':'
asbag57
(g78
g59
NtRp297
(dp298
g62
(dp299
sg71
g284
sg64
(lp300
g57
(g58
g59
NtRp301
(dp302
g62
(dp303
g70
I3
ssg71
g297
sg64
(lp304
S''
asbasbasbag57
(g73
g59
NtRp305
(dp306
g62
(dp307
sg71
g259
sg64
(lp308
g57
(g78
g59
NtRp309
(dp310
g62
(dp311
g82
g83
ssg71
g305
sg64
(lp312
S'expires'
p313
asbag57
(g78
g59
NtRp314
(dp315
g62
(dp316
g89
g90
ssg71
g305
sg64
(lp317
S':'
asbag57
(g78
g59
NtRp318
(dp319
g62
(dp320
sg71
g305
sg64
(lp321
g57
(g58
g59
NtRp322
(dp323
g62
(dp324
g70
I3
ssg71
g318
sg64
(lp325
S''
asbasbasbag57
(g73
g59
NtRp326
(dp327
g62
(dp328
sg71
g259
sg64
(lp329
g57
(g78
g59
NtRp330
(dp331
g62
(dp332
g82
g83
ssg71
g326
sg64
(lp333
S'httponly'
p334
asbag57
(g78
g59
NtRp335
(dp336
g62
(dp337
g89
g90
ssg71
g326
sg64
(lp338
S':'
asbag57
(g78
g59
NtRp339
(dp340
g62
(dp341
sg71
g326
sg64
(lp342
g57
(g58
g59
NtRp343
(dp344
g62
(dp345
g70
I3
ssg71
g339
sg64
(lp346
S''
asbasbasbag57
(g73
g59
NtRp347
(dp348
g62
(dp349
sg71
g259
sg64
(lp350
g57
(g78
g59
NtRp351
(dp352
g62
(dp353
g82
g83
ssg71
g347
sg64
(lp354
S'max-age'
p355
asbag57
(g78
g59
NtRp356
(dp357
g62
(dp358
g89
g90
ssg71
g347
sg64
(lp359
S':'
asbag57
(g78
g59
NtRp360
(dp361
g62
(dp362
sg71
g347
sg64
(lp363
g57
(g58
g59
NtRp364
(dp365
g62
(dp366
g70
I3
ssg71
g360
sg64
(lp367
S''
asbasbasbag57
(g73
g59
NtRp368
(dp369
g62
(dp370
sg71
g259
sg64
(lp371
g57
(g78
g59
NtRp372
(dp373
g62
(dp374
g82
g83
ssg71
g368
sg64
(lp375
S'path'
p376
asbag57
(g78
g59
NtRp377
(dp378
g62
(dp379
g89
g90
ssg71
g368
sg64
(lp380
S':'
asbag57
(g78
g59
NtRp381
(dp382
g62
(dp383
sg71
g368
sg64
(lp384
g57
(g58
g59
NtRp385
(dp386
g62
(dp387
g70
I3
ssg71
g381
sg64
(lp388
S''
asbasbasbag57
(g73
g59
NtRp389
(dp390
g62
(dp391
sg71
g259
sg64
(lp392
g57
(g78
g59
NtRp393
(dp394
g62
(dp395
g82
g83
ssg71
g389
sg64
(lp396
S'secure'
p397
asbag57
(g78
g59
NtRp398
(dp399
g62
(dp400
g89
g90
ssg71
g389
sg64
(lp401
S':'
asbag57
(g78
g59
NtRp402
(dp403
g62
(dp404
sg71
g389
sg64
(lp405
g57
(g58
g59
NtRp406
(dp407
g62
(dp408
g70
I3
ssg71
g402
sg64
(lp409
S''
asbasbasbag57
(g73
g59
NtRp410
(dp411
g62
(dp412
sg71
g259
sg64
(lp413
g57
(g78
g59
NtRp414
(dp415
g62
(dp416
g82
g83
ssg71
g410
sg64
(lp417
S'version'
p418
asbag57
(g78
g59
NtRp419
(dp420
g62
(dp421
g89
g90
ssg71
g410
sg64
(lp422
S':'
asbag57
(g78
g59
NtRp423
(dp424
g62
(dp425
sg71
g410
sg64
(lp426
g57
(g58
g59
NtRp427
(dp428
g62
(dp429
g70
I3
ssg71
g423
sg64
(lp430
S''
asbasbasbasbasbasbasbag57
(g73
g59
NtRp431
(dp432
g62
(dp433
sg71
g234
sg64
(lp434
g57
(g78
g59
NtRp435
(dp436
g62
(dp437
g82
g83
ssg71
g431
sg64
(lp438
S'session_id_admin'
p439
asbag57
(g78
g59
NtRp440
(dp441
g62
(dp442
g89
g90
ssg71
g431
sg64
(lp443
S':'
asbag57
(g78
g59
NtRp444
(dp445
g62
(dp446
sg71
g431
sg64
(lp447
g57
(g58
g59
NtRp448
(dp449
g62
(dp450
g70
I4
ssg71
g444
sg64
(lp451
g57
(g66
g59
NtRp452
(dp453
g62
(dp454
g70
I3
ssg71
Nsg64
(lp455
g57
(g73
g59
NtRp456
(dp457
g62
(dp458
sg71
g452
sg64
(lp459
g57
(g78
g59
NtRp460
(dp461
g62
(dp462
g82
g83
ssg71
g456
sg64
(lp463
g271
asbag57
(g78
g59
NtRp464
(dp465
g62
(dp466
g89
g90
ssg71
g456
sg64
(lp467
S':'
asbag57
(g78
g59
NtRp468
(dp469
g62
(dp470
sg71
g456
sg64
(lp471
g57
(g58
g59
NtRp472
(dp473
g62
(dp474
g70
I3
ssg71
g468
sg64
(lp475
S''
asbasbasbag57
(g73
g59
NtRp476
(dp477
g62
(dp478
sg71
g452
sg64
(lp479
g57
(g78
g59
NtRp480
(dp481
g62
(dp482
g82
g83
ssg71
g476
sg64
(lp483
g292
asbag57
(g78
g59
NtRp484
(dp485
g62
(dp486
g89
g90
ssg71
g476
sg64
(lp487
S':'
asbag57
(g78
g59
NtRp488
(dp489
g62
(dp490
sg71
g476
sg64
(lp491
g57
(g58
g59
NtRp492
(dp493
g62
(dp494
g70
I3
ssg71
g488
sg64
(lp495
S''
asbasbasbag57
(g73
g59
NtRp496
(dp497
g62
(dp498
sg71
g452
sg64
(lp499
g57
(g78
g59
NtRp500
(dp501
g62
(dp502
g82
g83
ssg71
g496
sg64
(lp503
g313
asbag57
(g78
g59
NtRp504
(dp505
g62
(dp506
g89
g90
ssg71
g496
sg64
(lp507
S':'
asbag57
(g78
g59
NtRp508
(dp509
g62
(dp510
sg71
g496
sg64
(lp511
g57
(g58
g59
NtRp512
(dp513
g62
(dp514
g70
I3
ssg71
g508
sg64
(lp515
S''
asbasbasbag57
(g73
g59
NtRp516
(dp517
g62
(dp518
sg71
g452
sg64
(lp519
g57
(g78
g59
NtRp520
(dp521
g62
(dp522
g82
g83
ssg71
g516
sg64
(lp523
g334
asbag57
(g78
g59
NtRp524
(dp525
g62
(dp526
g89
g90
ssg71
g516
sg64
(lp527
S':'
asbag57
(g78
g59
NtRp528
(dp529
g62
(dp530
sg71
g516
sg64
(lp531
g57
(g58
g59
NtRp532
(dp533
g62
(dp534
g70
I3
ssg71
g528
sg64
(lp535
S''
asbasbasbag57
(g73
g59
NtRp536
(dp537
g62
(dp538
sg71
g452
sg64
(lp539
g57
(g78
g59
NtRp540
(dp541
g62
(dp542
g82
g83
ssg71
g536
sg64
(lp543
g355
asbag57
(g78
g59
NtRp544
(dp545
g62
(dp546
g89
g90
ssg71
g536
sg64
(lp547
S':'
asbag57
(g78
g59
NtRp548
(dp549
g62
(dp550
sg71
g536
sg64
(lp551
g57
(g58
g59
NtRp552
(dp553
g62
(dp554
g70
I3
ssg71
g548
sg64
(lp555
S''
asbasbasbag57
(g73
g59
NtRp556
(dp557
g62
(dp558
sg71
g452
sg64
(lp559
g57
(g78
g59
NtRp560
(dp561
g62
(dp562
g82
g83
ssg71
g556
sg64
(lp563
g376
asbag57
(g78
g59
NtRp564
(dp565
g62
(dp566
g89
g90
ssg71
g556
sg64
(lp567
S':'
asbag57
(g78
g59
NtRp568
(dp569
g62
(dp570
sg71
g556
sg64
(lp571
g57
(g58
g59
NtRp572
(dp573
g62
(dp574
g70
I3
ssg71
g568
sg64
(lp575
S''
asbasbasbag57
(g73
g59
NtRp576
(dp577
g62
(dp578
sg71
g452
sg64
(lp579
g57
(g78
g59
NtRp580
(dp581
g62
(dp582
g82
g83
ssg71
g576
sg64
(lp583
g397
asbag57
(g78
g59
NtRp584
(dp585
g62
(dp586
g89
g90
ssg71
g576
sg64
(lp587
S':'
asbag57
(g78
g59
NtRp588
(dp589
g62
(dp590
sg71
g576
sg64
(lp591
g57
(g58
g59
NtRp592
(dp593
g62
(dp594
g70
I3
ssg71
g588
sg64
(lp595
S''
asbasbasbag57
(g73
g59
NtRp596
(dp597
g62
(dp598
sg71
g452
sg64
(lp599
g57
(g78
g59
NtRp600
(dp601
g62
(dp602
g82
g83
ssg71
g596
sg64
(lp603
g418
asbag57
(g78
g59
NtRp604
(dp605
g62
(dp606
g89
g90
ssg71
g596
sg64
(lp607
S':'
asbag57
(g78
g59
NtRp608
(dp609
g62
(dp610
sg71
g596
sg64
(lp611
g57
(g58
g59
NtRp612
(dp613
g62
(dp614
g70
I3
ssg71
g608
sg64
(lp615
S''
asbasbasbasbasbasbasbag57
(g73
g59
NtRp616
(dp617
g62
(dp618
sg71
g234
sg64
(lp619
g57
(g78
g59
NtRp620
(dp621
g62
(dp622
g82
g83
ssg71
g616
sg64
(lp623
S'session_id_themishrms'
p624
asbag57
(g78
g59
NtRp625
(dp626
g62
(dp627
g89
g90
ssg71
g616
sg64
(lp628
S':'
asbag57
(g78
g59
NtRp629
(dp630
g62
(dp631
sg71
g616
sg64
(lp632
g57
(g58
g59
NtRp633
(dp634
g62
(dp635
g70
I4
ssg71
g629
sg64
(lp636
g57
(g66
g59
NtRp637
(dp638
g62
(dp639
g70
I3
ssg71
Nsg64
(lp640
g57
(g73
g59
NtRp641
(dp642
g62
(dp643
sg71
g637
sg64
(lp644
g57
(g78
g59
NtRp645
(dp646
g62
(dp647
g82
g83
ssg71
g641
sg64
(lp648
g271
asbag57
(g78
g59
NtRp649
(dp650
g62
(dp651
g89
g90
ssg71
g641
sg64
(lp652
S':'
asbag57
(g78
g59
NtRp653
(dp654
g62
(dp655
sg71
g641
sg64
(lp656
g57
(g58
g59
NtRp657
(dp658
g62
(dp659
g70
I3
ssg71
g653
sg64
(lp660
S''
asbasbasbag57
(g73
g59
NtRp661
(dp662
g62
(dp663
sg71
g637
sg64
(lp664
g57
(g78
g59
NtRp665
(dp666
g62
(dp667
g82
g83
ssg71
g661
sg64
(lp668
g292
asbag57
(g78
g59
NtRp669
(dp670
g62
(dp671
g89
g90
ssg71
g661
sg64
(lp672
S':'
asbag57
(g78
g59
NtRp673
(dp674
g62
(dp675
sg71
g661
sg64
(lp676
g57
(g58
g59
NtRp677
(dp678
g62
(dp679
g70
I3
ssg71
g673
sg64
(lp680
S''
asbasbasbag57
(g73
g59
NtRp681
(dp682
g62
(dp683
sg71
g637
sg64
(lp684
g57
(g78
g59
NtRp685
(dp686
g62
(dp687
g82
g83
ssg71
g681
sg64
(lp688
g313
asbag57
(g78
g59
NtRp689
(dp690
g62
(dp691
g89
g90
ssg71
g681
sg64
(lp692
S':'
asbag57
(g78
g59
NtRp693
(dp694
g62
(dp695
sg71
g681
sg64
(lp696
g57
(g58
g59
NtRp697
(dp698
g62
(dp699
g70
I3
ssg71
g693
sg64
(lp700
S''
asbasbasbag57
(g73
g59
NtRp701
(dp702
g62
(dp703
sg71
g637
sg64
(lp704
g57
(g78
g59
NtRp705
(dp706
g62
(dp707
g82
g83
ssg71
g701
sg64
(lp708
g334
asbag57
(g78
g59
NtRp709
(dp710
g62
(dp711
g89
g90
ssg71
g701
sg64
(lp712
S':'
asbag57
(g78
g59
NtRp713
(dp714
g62
(dp715
sg71
g701
sg64
(lp716
g57
(g58
g59
NtRp717
(dp718
g62
(dp719
g70
I3
ssg71
g713
sg64
(lp720
S''
asbasbasbag57
(g73
g59
NtRp721
(dp722
g62
(dp723
sg71
g637
sg64
(lp724
g57
(g78
g59
NtRp725
(dp726
g62
(dp727
g82
g83
ssg71
g721
sg64
(lp728
g355
asbag57
(g78
g59
NtRp729
(dp730
g62
(dp731
g89
g90
ssg71
g721
sg64
(lp732
S':'
asbag57
(g78
g59
NtRp733
(dp734
g62
(dp735
sg71
g721
sg64
(lp736
g57
(g58
g59
NtRp737
(dp738
g62
(dp739
g70
I3
ssg71
g733
sg64
(lp740
S''
asbasbasbag57
(g73
g59
NtRp741
(dp742
g62
(dp743
sg71
g637
sg64
(lp744
g57
(g78
g59
NtRp745
(dp746
g62
(dp747
g82
g83
ssg71
g741
sg64
(lp748
g376
asbag57
(g78
g59
NtRp749
(dp750
g62
(dp751
g89
g90
ssg71
g741
sg64
(lp752
S':'
asbag57
(g78
g59
NtRp753
(dp754
g62
(dp755
sg71
g741
sg64
(lp756
g57
(g58
g59
NtRp757
(dp758
g62
(dp759
g70
I3
ssg71
g753
sg64
(lp760
S''
asbasbasbag57
(g73
g59
NtRp761
(dp762
g62
(dp763
sg71
g637
sg64
(lp764
g57
(g78
g59
NtRp765
(dp766
g62
(dp767
g82
g83
ssg71
g761
sg64
(lp768
g397
asbag57
(g78
g59
NtRp769
(dp770
g62
(dp771
g89
g90
ssg71
g761
sg64
(lp772
S':'
asbag57
(g78
g59
NtRp773
(dp774
g62
(dp775
sg71
g761
sg64
(lp776
g57
(g58
g59
NtRp777
(dp778
g62
(dp779
g70
I3
ssg71
g773
sg64
(lp780
S''
asbasbasbag57
(g73
g59
NtRp781
(dp782
g62
(dp783
sg71
g637
sg64
(lp784
g57
(g78
g59
NtRp785
(dp786
g62
(dp787
g82
g83
ssg71
g781
sg64
(lp788
g418
asbag57
(g78
g59
NtRp789
(dp790
g62
(dp791
g89
g90
ssg71
g781
sg64
(lp792
S':'
asbag57
(g78
g59
NtRp793
(dp794
g62
(dp795
sg71
g781
sg64
(lp796
g57
(g58
g59
NtRp797
(dp798
g62
(dp799
g70
I3
ssg71
g793
sg64
(lp800
S''
asbasbasbasbasbasbasbag57
(g73
g59
NtRp801
(dp802
g62
(dp803
sg71
g234
sg64
(lp804
g57
(g78
g59
NtRp805
(dp806
g62
(dp807
g82
g83
ssg71
g801
sg64
(lp808
S'session_id_welcome'
p809
asbag57
(g78
g59
NtRp810
(dp811
g62
(dp812
g89
g90
ssg71
g801
sg64
(lp813
S':'
asbag57
(g78
g59
NtRp814
(dp815
g62
(dp816
sg71
g801
sg64
(lp817
g57
(g58
g59
NtRp818
(dp819
g62
(dp820
g70
I4
ssg71
g814
sg64
(lp821
g57
(g66
g59
NtRp822
(dp823
g62
(dp824
g70
I3
ssg71
Nsg64
(lp825
g57
(g73
g59
NtRp826
(dp827
g62
(dp828
sg71
g822
sg64
(lp829
g57
(g78
g59
NtRp830
(dp831
g62
(dp832
g82
g83
ssg71
g826
sg64
(lp833
g271
asbag57
(g78
g59
NtRp834
(dp835
g62
(dp836
g89
g90
ssg71
g826
sg64
(lp837
S':'
asbag57
(g78
g59
NtRp838
(dp839
g62
(dp840
sg71
g826
sg64
(lp841
g57
(g58
g59
NtRp842
(dp843
g62
(dp844
g70
I3
ssg71
g838
sg64
(lp845
S''
asbasbasbag57
(g73
g59
NtRp846
(dp847
g62
(dp848
sg71
g822
sg64
(lp849
g57
(g78
g59
NtRp850
(dp851
g62
(dp852
g82
g83
ssg71
g846
sg64
(lp853
g292
asbag57
(g78
g59
NtRp854
(dp855
g62
(dp856
g89
g90
ssg71
g846
sg64
(lp857
S':'
asbag57
(g78
g59
NtRp858
(dp859
g62
(dp860
sg71
g846
sg64
(lp861
g57
(g58
g59
NtRp862
(dp863
g62
(dp864
g70
I3
ssg71
g858
sg64
(lp865
S''
asbasbasbag57
(g73
g59
NtRp866
(dp867
g62
(dp868
sg71
g822
sg64
(lp869
g57
(g78
g59
NtRp870
(dp871
g62
(dp872
g82
g83
ssg71
g866
sg64
(lp873
g313
asbag57
(g78
g59
NtRp874
(dp875
g62
(dp876
g89
g90
ssg71
g866
sg64
(lp877
S':'
asbag57
(g78
g59
NtRp878
(dp879
g62
(dp880
sg71
g866
sg64
(lp881
g57
(g58
g59
NtRp882
(dp883
g62
(dp884
g70
I3
ssg71
g878
sg64
(lp885
S''
asbasbasbag57
(g73
g59
NtRp886
(dp887
g62
(dp888
sg71
g822
sg64
(lp889
g57
(g78
g59
NtRp890
(dp891
g62
(dp892
g82
g83
ssg71
g886
sg64
(lp893
g334
asbag57
(g78
g59
NtRp894
(dp895
g62
(dp896
g89
g90
ssg71
g886
sg64
(lp897
S':'
asbag57
(g78
g59
NtRp898
(dp899
g62
(dp900
sg71
g886
sg64
(lp901
g57
(g58
g59
NtRp902
(dp903
g62
(dp904
g70
I3
ssg71
g898
sg64
(lp905
S''
asbasbasbag57
(g73
g59
NtRp906
(dp907
g62
(dp908
sg71
g822
sg64
(lp909
g57
(g78
g59
NtRp910
(dp911
g62
(dp912
g82
g83
ssg71
g906
sg64
(lp913
g355
asbag57
(g78
g59
NtRp914
(dp915
g62
(dp916
g89
g90
ssg71
g906
sg64
(lp917
S':'
asbag57
(g78
g59
NtRp918
(dp919
g62
(dp920
sg71
g906
sg64
(lp921
g57
(g58
g59
NtRp922
(dp923
g62
(dp924
g70
I3
ssg71
g918
sg64
(lp925
S''
asbasbasbag57
(g73
g59
NtRp926
(dp927
g62
(dp928
sg71
g822
sg64
(lp929
g57
(g78
g59
NtRp930
(dp931
g62
(dp932
g82
g83
ssg71
g926
sg64
(lp933
g376
asbag57
(g78
g59
NtRp934
(dp935
g62
(dp936
g89
g90
ssg71
g926
sg64
(lp937
S':'
asbag57
(g78
g59
NtRp938
(dp939
g62
(dp940
sg71
g926
sg64
(lp941
g57
(g58
g59
NtRp942
(dp943
g62
(dp944
g70
I3
ssg71
g938
sg64
(lp945
S''
asbasbasbag57
(g73
g59
NtRp946
(dp947
g62
(dp948
sg71
g822
sg64
(lp949
g57
(g78
g59
NtRp950
(dp951
g62
(dp952
g82
g83
ssg71
g946
sg64
(lp953
g397
asbag57
(g78
g59
NtRp954
(dp955
g62
(dp956
g89
g90
ssg71
g946
sg64
(lp957
S':'
asbag57
(g78
g59
NtRp958
(dp959
g62
(dp960
sg71
g946
sg64
(lp961
g57
(g58
g59
NtRp962
(dp963
g62
(dp964
g70
I3
ssg71
g958
sg64
(lp965
S''
asbasbasbag57
(g73
g59
NtRp966
(dp967
g62
(dp968
sg71
g822
sg64
(lp969
g57
(g78
g59
NtRp970
(dp971
g62
(dp972
g82
g83
ssg71
g966
sg64
(lp973
g418
asbag57
(g78
g59
NtRp974
(dp975
g62
(dp976
g89
g90
ssg71
g966
sg64
(lp977
S':'
asbag57
(g78
g59
NtRp978
(dp979
g62
(dp980
sg71
g966
sg64
(lp981
g57
(g58
g59
NtRp982
(dp983
g62
(dp984
g70
I3
ssg71
g978
sg64
(lp985
S''
asbasbasbasbasbasbasbag57
(g73
g59
NtRp986
(dp987
g62
(dp988
sg71
g234
sg64
(lp989
g57
(g78
g59
NtRp990
(dp991
g62
(dp992
g82
g83
ssg71
g986
sg64
(lp993
S'tls'
p994
asbag57
(g78
g59
NtRp995
(dp996
g62
(dp997
g89
g90
ssg71
g986
sg64
(lp998
S':'
asbag57
(g78
g59
NtRp999
(dp1000
g62
(dp1001
sg71
g986
sg64
(lp1002
g57
(g58
g59
NtRp1003
(dp1004
g62
(dp1005
g70
I4
ssg71
g999
sg64
(lp1006
g57
(g66
g59
NtRp1007
(dp1008
g62
(dp1009
g70
I3
ssg71
Nsg64
(lp1010
g57
(g73
g59
NtRp1011
(dp1012
g62
(dp1013
sg71
g1007
sg64
(lp1014
g57
(g78
g59
NtRp1015
(dp1016
g62
(dp1017
g82
g83
ssg71
g1011
sg64
(lp1018
g271
asbag57
(g78
g59
NtRp1019
(dp1020
g62
(dp1021
g89
g90
ssg71
g1011
sg64
(lp1022
S':'
asbag57
(g78
g59
NtRp1023
(dp1024
g62
(dp1025
sg71
g1011
sg64
(lp1026
g57
(g58
g59
NtRp1027
(dp1028
g62
(dp1029
g70
I3
ssg71
g1023
sg64
(lp1030
S''
asbasbasbag57
(g73
g59
NtRp1031
(dp1032
g62
(dp1033
sg71
g1007
sg64
(lp1034
g57
(g78
g59
NtRp1035
(dp1036
g62
(dp1037
g82
g83
ssg71
g1031
sg64
(lp1038
g292
asbag57
(g78
g59
NtRp1039
(dp1040
g62
(dp1041
g89
g90
ssg71
g1031
sg64
(lp1042
S':'
asbag57
(g78
g59
NtRp1043
(dp1044
g62
(dp1045
sg71
g1031
sg64
(lp1046
g57
(g58
g59
NtRp1047
(dp1048
g62
(dp1049
g70
I3
ssg71
g1043
sg64
(lp1050
S''
asbasbasbag57
(g73
g59
NtRp1051
(dp1052
g62
(dp1053
sg71
g1007
sg64
(lp1054
g57
(g78
g59
NtRp1055
(dp1056
g62
(dp1057
g82
g83
ssg71
g1051
sg64
(lp1058
g313
asbag57
(g78
g59
NtRp1059
(dp1060
g62
(dp1061
g89
g90
ssg71
g1051
sg64
(lp1062
S':'
asbag57
(g78
g59
NtRp1063
(dp1064
g62
(dp1065
sg71
g1051
sg64
(lp1066
g57
(g58
g59
NtRp1067
(dp1068
g62
(dp1069
g70
I3
ssg71
g1063
sg64
(lp1070
S''
asbasbasbag57
(g73
g59
NtRp1071
(dp1072
g62
(dp1073
sg71
g1007
sg64
(lp1074
g57
(g78
g59
NtRp1075
(dp1076
g62
(dp1077
g82
g83
ssg71
g1071
sg64
(lp1078
g334
asbag57
(g78
g59
NtRp1079
(dp1080
g62
(dp1081
g89
g90
ssg71
g1071
sg64
(lp1082
S':'
asbag57
(g78
g59
NtRp1083
(dp1084
g62
(dp1085
sg71
g1071
sg64
(lp1086
g57
(g58
g59
NtRp1087
(dp1088
g62
(dp1089
g70
I3
ssg71
g1083
sg64
(lp1090
S''
asbasbasbag57
(g73
g59
NtRp1091
(dp1092
g62
(dp1093
sg71
g1007
sg64
(lp1094
g57
(g78
g59
NtRp1095
(dp1096
g62
(dp1097
g82
g83
ssg71
g1091
sg64
(lp1098
g355
asbag57
(g78
g59
NtRp1099
(dp1100
g62
(dp1101
g89
g90
ssg71
g1091
sg64
(lp1102
S':'
asbag57
(g78
g59
NtRp1103
(dp1104
g62
(dp1105
sg71
g1091
sg64
(lp1106
g57
(g58
g59
NtRp1107
(dp1108
g62
(dp1109
g70
I3
ssg71
g1103
sg64
(lp1110
S''
asbasbasbag57
(g73
g59
NtRp1111
(dp1112
g62
(dp1113
sg71
g1007
sg64
(lp1114
g57
(g78
g59
NtRp1115
(dp1116
g62
(dp1117
g82
g83
ssg71
g1111
sg64
(lp1118
g376
asbag57
(g78
g59
NtRp1119
(dp1120
g62
(dp1121
g89
g90
ssg71
g1111
sg64
(lp1122
S':'
asbag57
(g78
g59
NtRp1123
(dp1124
g62
(dp1125
sg71
g1111
sg64
(lp1126
g57
(g58
g59
NtRp1127
(dp1128
g62
(dp1129
g70
I3
ssg71
g1123
sg64
(lp1130
S''
asbasbasbag57
(g73
g59
NtRp1131
(dp1132
g62
(dp1133
sg71
g1007
sg64
(lp1134
g57
(g78
g59
NtRp1135
(dp1136
g62
(dp1137
g82
g83
ssg71
g1131
sg64
(lp1138
g397
asbag57
(g78
g59
NtRp1139
(dp1140
g62
(dp1141
g89
g90
ssg71
g1131
sg64
(lp1142
S':'
asbag57
(g78
g59
NtRp1143
(dp1144
g62
(dp1145
sg71
g1131
sg64
(lp1146
g57
(g58
g59
NtRp1147
(dp1148
g62
(dp1149
g70
I3
ssg71
g1143
sg64
(lp1150
S''
asbasbasbag57
(g73
g59
NtRp1151
(dp1152
g62
(dp1153
sg71
g1007
sg64
(lp1154
g57
(g78
g59
NtRp1155
(dp1156
g62
(dp1157
g82
g83
ssg71
g1151
sg64
(lp1158
g418
asbag57
(g78
g59
NtRp1159
(dp1160
g62
(dp1161
g89
g90
ssg71
g1151
sg64
(lp1162
S':'
asbag57
(g78
g59
NtRp1163
(dp1164
g62
(dp1165
sg71
g1151
sg64
(lp1166
g57
(g58
g59
NtRp1167
(dp1168
g62
(dp1169
g70
I3
ssg71
g1163
sg64
(lp1170
S''
asbasbasbasbasbasbasbasbasbasbasbag57
(g73
g59
NtRp1171
(dp1172
g62
(dp1173
sg71
g67
sg64
(lp1174
g57
(g78
g59
NtRp1175
(dp1176
g62
(dp1177
g82
g83
ssg71
g1171
sg64
(lp1178
S'env'
p1179
asbag57
(g78
g59
NtRp1180
(dp1181
g62
(dp1182
g89
g90
ssg71
g1171
sg64
(lp1183
S':'
asbag57
(g78
g59
NtRp1184
(dp1185
g62
(dp1186
sg71
g1171
sg64
(lp1187
g57
(g58
g59
NtRp1188
(dp1189
g62
(dp1190
g70
I5
ssg71
g1184
sg64
(lp1191
g57
(g66
g59
NtRp1192
(dp1193
g62
(dp1194
g70
I4
ssg71
Nsg64
(lp1195
g57
(g73
g59
NtRp1196
(dp1197
g62
(dp1198
sg71
g1192
sg64
(lp1199
g57
(g78
g59
NtRp1200
(dp1201
g62
(dp1202
g82
g83
ssg71
g1196
sg64
(lp1203
S'app_folders'
p1204
asbag57
(g78
g59
NtRp1205
(dp1206
g62
(dp1207
g89
g90
ssg71
g1196
sg64
(lp1208
S':'
asbag57
(g78
g59
NtRp1209
(dp1210
g62
(dp1211
sg71
g1196
sg64
(lp1212
g57
(g58
g59
NtRp1213
(dp1214
g62
(dp1215
g70
I4
ssg71
g1209
sg64
(lp1216
S"set(['/home/tls-sanjeet/Desktop/HRMS/web2py/applications/themishrms/', '/home/tls-sanjeet/Desktop/HRMS/web2py/applications/welcome/', '/home/tls-sanjeet/Desktop/HRMS/web2py/applications/admin/'])"
p1217
asbasbasbag57
(g73
g59
NtRp1218
(dp1219
g62
(dp1220
sg71
g1192
sg64
(lp1221
g57
(g78
g59
NtRp1222
(dp1223
g62
(dp1224
g82
g83
ssg71
g1218
sg64
(lp1225
S'applications_parent'
p1226
asbag57
(g78
g59
NtRp1227
(dp1228
g62
(dp1229
g89
g90
ssg71
g1218
sg64
(lp1230
S':'
asbag57
(g78
g59
NtRp1231
(dp1232
g62
(dp1233
sg71
g1218
sg64
(lp1234
g57
(g58
g59
NtRp1235
(dp1236
g62
(dp1237
g70
I4
ssg71
g1231
sg64
(lp1238
S'/home/tls-sanjeet/Desktop/HRMS/web2py'
p1239
asbasbasbag57
(g73
g59
NtRp1240
(dp1241
g62
(dp1242
sg71
g1192
sg64
(lp1243
g57
(g78
g59
NtRp1244
(dp1245
g62
(dp1246
g82
g83
ssg71
g1240
sg64
(lp1247
S'cmd_args'
p1248
asbag57
(g78
g59
NtRp1249
(dp1250
g62
(dp1251
g89
g90
ssg71
g1240
sg64
(lp1252
S':'
asbag57
(g78
g59
NtRp1253
(dp1254
g62
(dp1255
sg71
g1240
sg64
(lp1256
g57
(g58
g59
NtRp1257
(dp1258
g62
(dp1259
g70
I4
ssg71
g1253
sg64
(lp1260
g57
(g66
g59
NtRp1261
(dp1262
g62
(dp1263
g70
I3
ssg71
Nsg64
(lp1264
sbasbasbasbag57
(g73
g59
NtRp1265
(dp1266
g62
(dp1267
sg71
g1192
sg64
(lp1268
g57
(g78
g59
NtRp1269
(dp1270
g62
(dp1271
g82
g83
ssg71
g1265
sg64
(lp1272
S'cmd_options'
p1273
asbag57
(g78
g59
NtRp1274
(dp1275
g62
(dp1276
g89
g90
ssg71
g1265
sg64
(lp1277
S':'
asbag57
(g78
g59
NtRp1278
(dp1279
g62
(dp1280
sg71
g1265
sg64
(lp1281
g57
(g58
g59
NtRp1282
(dp1283
g62
(dp1284
g70
I4
ssg71
g1278
sg64
(lp1285
S"<Values at 0x933f5cc: {'verbose': False, 'ip': '127.0.0.1', 'shutdown_timeout': 5, 'taskbar': False, 'nocron': False, 'pid_filename': 'httpserver.pid', 'maxthreads': None, 'softcron': False, 'server_name': 'sanjeet-desktop', 'bpython': False, 'nogui': False, 'port': 8000, 'extcron': False, 'debuglevel': 30, 'test': None, 'folder': '/home/tls-sanjeet/Desktop/HRMS/web2py', 'config': '', 'import_models': False, 'winservice': '', 'shell': None, 'run': '', 'log_filename': 'httpserver.log', 'args': [''], 'socket_timeout': 5, 'ssl_ca_certificate': None, 'scheduler': None, 'profiler_filename': None, 'ssl_private_key': '', 'password': 'a', 'request_queue_size': 5, 'ssl_certificate': '', 'cronjob': False, 'numthreads': None, 'quiet': False, 'interfaces': None, 'minthreads': None, 'timeout': 10, 'plain': False, 'nobanner': False}>"
p1286
asbasbasbag57
(g73
g59
NtRp1287
(dp1288
g62
(dp1289
sg71
g1192
sg64
(lp1290
g57
(g78
g59
NtRp1291
(dp1292
g62
(dp1293
g82
g83
ssg71
g1287
sg64
(lp1294
S'content_length'
p1295
asbag57
(g78
g59
NtRp1296
(dp1297
g62
(dp1298
g89
g90
ssg71
g1287
sg64
(lp1299
S':'
asbag57
(g78
g59
NtRp1300
(dp1301
g62
(dp1302
sg71
g1287
sg64
(lp1303
g57
(g58
g59
NtRp1304
(dp1305
g62
(dp1306
g70
I4
ssg71
g1300
sg64
(lp1307
S'88'
p1308
asbasbasbag57
(g73
g59
NtRp1309
(dp1310
g62
(dp1311
sg71
g1192
sg64
(lp1312
g57
(g78
g59
NtRp1313
(dp1314
g62
(dp1315
g82
g83
ssg71
g1309
sg64
(lp1316
S'content_type'
p1317
asbag57
(g78
g59
NtRp1318
(dp1319
g62
(dp1320
g89
g90
ssg71
g1309
sg64
(lp1321
S':'
asbag57
(g78
g59
NtRp1322
(dp1323
g62
(dp1324
sg71
g1309
sg64
(lp1325
g57
(g58
g59
NtRp1326
(dp1327
g62
(dp1328
g70
I4
ssg71
g1322
sg64
(lp1329
S'application/x-www-form-urlencoded'
p1330
asbasbasbag57
(g73
g59
NtRp1331
(dp1332
g62
(dp1333
sg71
g1192
sg64
(lp1334
g57
(g78
g59
NtRp1335
(dp1336
g62
(dp1337
g82
g83
ssg71
g1331
sg64
(lp1338
S'db_sessions'
p1339
asbag57
(g78
g59
NtRp1340
(dp1341
g62
(dp1342
g89
g90
ssg71
g1331
sg64
(lp1343
S':'
asbag57
(g78
g59
NtRp1344
(dp1345
g62
(dp1346
sg71
g1331
sg64
(lp1347
g57
(g58
g59
NtRp1348
(dp1349
g62
(dp1350
g70
I4
ssg71
g1344
sg64
(lp1351
S'set([])'
p1352
asbasbasbag57
(g73
g59
NtRp1353
(dp1354
g62
(dp1355
sg71
g1192
sg64
(lp1356
g57
(g78
g59
NtRp1357
(dp1358
g62
(dp1359
g82
g83
ssg71
g1353
sg64
(lp1360
S'debugging'
p1361
asbag57
(g78
g59
NtRp1362
(dp1363
g62
(dp1364
g89
g90
ssg71
g1353
sg64
(lp1365
S':'
asbag57
(g78
g59
NtRp1366
(dp1367
g62
(dp1368
sg71
g1353
sg64
(lp1369
g57
(g58
g59
NtRp1370
(dp1371
g62
(dp1372
g70
I4
ssg71
g1366
sg64
(lp1373
g100
asbasbasbag57
(g73
g59
NtRp1374
(dp1375
g62
(dp1376
sg71
g1192
sg64
(lp1377
g57
(g78
g59
NtRp1378
(dp1379
g62
(dp1380
g82
g83
ssg71
g1374
sg64
(lp1381
S'gluon_parent'
p1382
asbag57
(g78
g59
NtRp1383
(dp1384
g62
(dp1385
g89
g90
ssg71
g1374
sg64
(lp1386
S':'
asbag57
(g78
g59
NtRp1387
(dp1388
g62
(dp1389
sg71
g1374
sg64
(lp1390
g57
(g58
g59
NtRp1391
(dp1392
g62
(dp1393
g70
I4
ssg71
g1387
sg64
(lp1394
S'/home/tls-sanjeet/Desktop/HRMS/web2py'
p1395
asbasbasbag57
(g73
g59
NtRp1396
(dp1397
g62
(dp1398
sg71
g1192
sg64
(lp1399
g57
(g78
g59
NtRp1400
(dp1401
g62
(dp1402
g82
g83
ssg71
g1396
sg64
(lp1403
S'http_accept'
p1404
asbag57
(g78
g59
NtRp1405
(dp1406
g62
(dp1407
g89
g90
ssg71
g1396
sg64
(lp1408
S':'
asbag57
(g78
g59
NtRp1409
(dp1410
g62
(dp1411
sg71
g1396
sg64
(lp1412
g57
(g58
g59
NtRp1413
(dp1414
g62
(dp1415
g70
I4
ssg71
g1409
sg64
(lp1416
S'text/html,application/xhtml+xml,application/xml;q=0.9,*/*;q=0.8'
p1417
asbasbasbag57
(g73
g59
NtRp1418
(dp1419
g62
(dp1420
sg71
g1192
sg64
(lp1421
g57
(g78
g59
NtRp1422
(dp1423
g62
(dp1424
g82
g83
ssg71
g1418
sg64
(lp1425
S'http_accept_charset'
p1426
asbag57
(g78
g59
NtRp1427
(dp1428
g62
(dp1429
g89
g90
ssg71
g1418
sg64
(lp1430
S':'
asbag57
(g78
g59
NtRp1431
(dp1432
g62
(dp1433
sg71
g1418
sg64
(lp1434
g57
(g58
g59
NtRp1435
(dp1436
g62
(dp1437
g70
I4
ssg71
g1431
sg64
(lp1438
S'ISO-8859-1,utf-8;q=0.7,*;q=0.3'
p1439
asbasbasbag57
(g73
g59
NtRp1440
(dp1441
g62
(dp1442
sg71
g1192
sg64
(lp1443
g57
(g78
g59
NtRp1444
(dp1445
g62
(dp1446
g82
g83
ssg71
g1440
sg64
(lp1447
S'http_accept_encoding'
p1448
asbag57
(g78
g59
NtRp1449
(dp1450
g62
(dp1451
g89
g90
ssg71
g1440
sg64
(lp1452
S':'
asbag57
(g78
g59
NtRp1453
(dp1454
g62
(dp1455
sg71
g1440
sg64
(lp1456
g57
(g58
g59
NtRp1457
(dp1458
g62
(dp1459
g70
I4
ssg71
g1453
sg64
(lp1460
S'gzip,deflate,sdch'
p1461
asbasbasbag57
(g73
g59
NtRp1462
(dp1463
g62
(dp1464
sg71
g1192
sg64
(lp1465
g57
(g78
g59
NtRp1466
(dp1467
g62
(dp1468
g82
g83
ssg71
g1462
sg64
(lp1469
S'http_accept_language'
p1470
asbag57
(g78
g59
NtRp1471
(dp1472
g62
(dp1473
g89
g90
ssg71
g1462
sg64
(lp1474
S':'
asbag57
(g78
g59
NtRp1475
(dp1476
g62
(dp1477
sg71
g1462
sg64
(lp1478
g57
(g58
g59
NtRp1479
(dp1480
g62
(dp1481
g70
I4
ssg71
g1475
sg64
(lp1482
S'en-US,en;q=0.8'
p1483
asbasbasbag57
(g73
g59
NtRp1484
(dp1485
g62
(dp1486
sg71
g1192
sg64
(lp1487
g57
(g78
g59
NtRp1488
(dp1489
g62
(dp1490
g82
g83
ssg71
g1484
sg64
(lp1491
S'http_cache_control'
p1492
asbag57
(g78
g59
NtRp1493
(dp1494
g62
(dp1495
g89
g90
ssg71
g1484
sg64
(lp1496
S':'
asbag57
(g78
g59
NtRp1497
(dp1498
g62
(dp1499
sg71
g1484
sg64
(lp1500
g57
(g58
g59
NtRp1501
(dp1502
g62
(dp1503
g70
I4
ssg71
g1497
sg64
(lp1504
S'max-age=0'
p1505
asbasbasbag57
(g73
g59
NtRp1506
(dp1507
g62
(dp1508
sg71
g1192
sg64
(lp1509
g57
(g78
g59
NtRp1510
(dp1511
g62
(dp1512
g82
g83
ssg71
g1506
sg64
(lp1513
S'http_connection'
p1514
asbag57
(g78
g59
NtRp1515
(dp1516
g62
(dp1517
g89
g90
ssg71
g1506
sg64
(lp1518
S':'
asbag57
(g78
g59
NtRp1519
(dp1520
g62
(dp1521
sg71
g1506
sg64
(lp1522
g57
(g58
g59
NtRp1523
(dp1524
g62
(dp1525
g70
I4
ssg71
g1519
sg64
(lp1526
S'keep-alive'
p1527
asbasbasbag57
(g73
g59
NtRp1528
(dp1529
g62
(dp1530
sg71
g1192
sg64
(lp1531
g57
(g78
g59
NtRp1532
(dp1533
g62
(dp1534
g82
g83
ssg71
g1528
sg64
(lp1535
S'http_content_length'
p1536
asbag57
(g78
g59
NtRp1537
(dp1538
g62
(dp1539
g89
g90
ssg71
g1528
sg64
(lp1540
S':'
asbag57
(g78
g59
NtRp1541
(dp1542
g62
(dp1543
sg71
g1528
sg64
(lp1544
g57
(g58
g59
NtRp1545
(dp1546
g62
(dp1547
g70
I4
ssg71
g1541
sg64
(lp1548
g1308
asbasbasbag57
(g73
g59
NtRp1549
(dp1550
g62
(dp1551
sg71
g1192
sg64
(lp1552
g57
(g78
g59
NtRp1553
(dp1554
g62
(dp1555
g82
g83
ssg71
g1549
sg64
(lp1556
S'http_content_type'
p1557
asbag57
(g78
g59
NtRp1558
(dp1559
g62
(dp1560
g89
g90
ssg71
g1549
sg64
(lp1561
S':'
asbag57
(g78
g59
NtRp1562
(dp1563
g62
(dp1564
sg71
g1549
sg64
(lp1565
g57
(g58
g59
NtRp1566
(dp1567
g62
(dp1568
g70
I4
ssg71
g1562
sg64
(lp1569
g1330
asbasbasbag57
(g73
g59
NtRp1570
(dp1571
g62
(dp1572
sg71
g1192
sg64
(lp1573
g57
(g78
g59
NtRp1574
(dp1575
g62
(dp1576
g82
g83
ssg71
g1570
sg64
(lp1577
S'http_cookie'
p1578
asbag57
(g78
g59
NtRp1579
(dp1580
g62
(dp1581
g89
g90
ssg71
g1570
sg64
(lp1582
S':'
asbag57
(g78
g59
NtRp1583
(dp1584
g62
(dp1585
sg71
g1570
sg64
(lp1586
g57
(g58
g59
NtRp1587
(dp1588
g62
(dp1589
g70
I4
ssg71
g1583
sg64
(lp1590
S'session_id_welcome=127.0.0.1-b3bf87d3-0dab-4799-b1ad-d313a4be3f78; session_id_themishrms=127.0.0.1-242e7abf-396d-48e9-918e-1c534375193b; mypanel=up; tls=up; session_id_admin=127.0.0.1-78804ccc-e1ec-43c0-afee-38528a7830db'
p1591
asbasbasbag57
(g73
g59
NtRp1592
(dp1593
g62
(dp1594
sg71
g1192
sg64
(lp1595
g57
(g78
g59
NtRp1596
(dp1597
g62
(dp1598
g82
g83
ssg71
g1592
sg64
(lp1599
S'http_host'
p1600
asbag57
(g78
g59
NtRp1601
(dp1602
g62
(dp1603
g89
g90
ssg71
g1592
sg64
(lp1604
S':'
asbag57
(g78
g59
NtRp1605
(dp1606
g62
(dp1607
sg71
g1592
sg64
(lp1608
g57
(g58
g59
NtRp1609
(dp1610
g62
(dp1611
g70
I4
ssg71
g1605
sg64
(lp1612
S'127.0.0.1:8000'
p1613
asbasbasbag57
(g73
g59
NtRp1614
(dp1615
g62
(dp1616
sg71
g1192
sg64
(lp1617
g57
(g78
g59
NtRp1618
(dp1619
g62
(dp1620
g82
g83
ssg71
g1614
sg64
(lp1621
S'http_origin'
p1622
asbag57
(g78
g59
NtRp1623
(dp1624
g62
(dp1625
g89
g90
ssg71
g1614
sg64
(lp1626
S':'
asbag57
(g78
g59
NtRp1627
(dp1628
g62
(dp1629
sg71
g1614
sg64
(lp1630
g57
(g58
g59
NtRp1631
(dp1632
g62
(dp1633
g70
I4
ssg71
g1627
sg64
(lp1634
S'http://127.0.0.1:8000'
p1635
asbasbasbag57
(g73
g59
NtRp1636
(dp1637
g62
(dp1638
sg71
g1192
sg64
(lp1639
g57
(g78
g59
NtRp1640
(dp1641
g62
(dp1642
g82
g83
ssg71
g1636
sg64
(lp1643
S'http_referer'
p1644
asbag57
(g78
g59
NtRp1645
(dp1646
g62
(dp1647
g89
g90
ssg71
g1636
sg64
(lp1648
S':'
asbag57
(g78
g59
NtRp1649
(dp1650
g62
(dp1651
sg71
g1636
sg64
(lp1652
g57
(g58
g59
NtRp1653
(dp1654
g62
(dp1655
g70
I4
ssg71
g1649
sg64
(lp1656
S'http://127.0.0.1:8000/themishrms/default/emp_apply_leave'
p1657
asbasbasbag57
(g73
g59
NtRp1658
(dp1659
g62
(dp1660
sg71
g1192
sg64
(lp1661
g57
(g78
g59
NtRp1662
(dp1663
g62
(dp1664
g82
g83
ssg71
g1658
sg64
(lp1665
S'http_user_agent'
p1666
asbag57
(g78
g59
NtRp1667
(dp1668
g62
(dp1669
g89
g90
ssg71
g1658
sg64
(lp1670
S':'
asbag57
(g78
g59
NtRp1671
(dp1672
g62
(dp1673
sg71
g1658
sg64
(lp1674
g57
(g58
g59
NtRp1675
(dp1676
g62
(dp1677
g70
I4
ssg71
g1671
sg64
(lp1678
S'Mozilla/5.0 (X11; Linux i686) AppleWebKit/535.19 (KHTML, like Gecko) Chrome/18.0.1025.162 Safari/535.19'
p1679
asbasbasbag57
(g73
g59
NtRp1680
(dp1681
g62
(dp1682
sg71
g1192
sg64
(lp1683
g57
(g78
g59
NtRp1684
(dp1685
g62
(dp1686
g82
g83
ssg71
g1680
sg64
(lp1687
S'is_jython'
p1688
asbag57
(g78
g59
NtRp1689
(dp1690
g62
(dp1691
g89
g90
ssg71
g1680
sg64
(lp1692
S':'
asbag57
(g78
g59
NtRp1693
(dp1694
g62
(dp1695
sg71
g1680
sg64
(lp1696
g57
(g58
g59
NtRp1697
(dp1698
g62
(dp1699
g70
I4
ssg71
g1693
sg64
(lp1700
g100
asbasbasbag57
(g73
g59
NtRp1701
(dp1702
g62
(dp1703
sg71
g1192
sg64
(lp1704
g57
(g78
g59
NtRp1705
(dp1706
g62
(dp1707
g82
g83
ssg71
g1701
sg64
(lp1708
S'is_pypy'
p1709
asbag57
(g78
g59
NtRp1710
(dp1711
g62
(dp1712
g89
g90
ssg71
g1701
sg64
(lp1713
S':'
asbag57
(g78
g59
NtRp1714
(dp1715
g62
(dp1716
sg71
g1701
sg64
(lp1717
g57
(g58
g59
NtRp1718
(dp1719
g62
(dp1720
g70
I4
ssg71
g1714
sg64
(lp1721
g100
asbasbasbag57
(g73
g59
NtRp1722
(dp1723
g62
(dp1724
sg71
g1192
sg64
(lp1725
g57
(g78
g59
NtRp1726
(dp1727
g62
(dp1728
g82
g83
ssg71
g1722
sg64
(lp1729
S'path_info'
p1730
asbag57
(g78
g59
NtRp1731
(dp1732
g62
(dp1733
g89
g90
ssg71
g1722
sg64
(lp1734
S':'
asbag57
(g78
g59
NtRp1735
(dp1736
g62
(dp1737
sg71
g1722
sg64
(lp1738
g57
(g58
g59
NtRp1739
(dp1740
g62
(dp1741
g70
I4
ssg71
g1735
sg64
(lp1742
S'/themishrms/default/emp_apply_leave'
p1743
asbasbasbag57
(g73
g59
NtRp1744
(dp1745
g62
(dp1746
sg71
g1192
sg64
(lp1747
g57
(g78
g59
NtRp1748
(dp1749
g62
(dp1750
g82
g83
ssg71
g1744
sg64
(lp1751
S'query_string'
p1752
asbag57
(g78
g59
NtRp1753
(dp1754
g62
(dp1755
g89
g90
ssg71
g1744
sg64
(lp1756
S':'
asbag57
(g78
g59
NtRp1757
(dp1758
g62
(dp1759
sg71
g1744
sg64
(lp1760
g57
(g58
g59
NtRp1761
(dp1762
g62
(dp1763
g70
I4
ssg71
g1757
sg64
(lp1764
S''
asbasbasbag57
(g73
g59
NtRp1765
(dp1766
g62
(dp1767
sg71
g1192
sg64
(lp1768
g57
(g78
g59
NtRp1769
(dp1770
g62
(dp1771
g82
g83
ssg71
g1765
sg64
(lp1772
S'remote_addr'
p1773
asbag57
(g78
g59
NtRp1774
(dp1775
g62
(dp1776
g89
g90
ssg71
g1765
sg64
(lp1777
S':'
asbag57
(g78
g59
NtRp1778
(dp1779
g62
(dp1780
sg71
g1765
sg64
(lp1781
g57
(g58
g59
NtRp1782
(dp1783
g62
(dp1784
g70
I4
ssg71
g1778
sg64
(lp1785
g190
asbasbasbag57
(g73
g59
NtRp1786
(dp1787
g62
(dp1788
sg71
g1192
sg64
(lp1789
g57
(g78
g59
NtRp1790
(dp1791
g62
(dp1792
g82
g83
ssg71
g1786
sg64
(lp1793
S'remote_port'
p1794
asbag57
(g78
g59
NtRp1795
(dp1796
g62
(dp1797
g89
g90
ssg71
g1786
sg64
(lp1798
S':'
asbag57
(g78
g59
NtRp1799
(dp1800
g62
(dp1801
sg71
g1786
sg64
(lp1802
g57
(g58
g59
NtRp1803
(dp1804
g62
(dp1805
g70
I4
ssg71
g1799
sg64
(lp1806
S'52168'
p1807
asbasbasbag57
(g73
g59
NtRp1808
(dp1809
g62
(dp1810
sg71
g1192
sg64
(lp1811
g57
(g78
g59
NtRp1812
(dp1813
g62
(dp1814
g82
g83
ssg71
g1808
sg64
(lp1815
S'request_method'
p1816
asbag57
(g78
g59
NtRp1817
(dp1818
g62
(dp1819
g89
g90
ssg71
g1808
sg64
(lp1820
S':'
asbag57
(g78
g59
NtRp1821
(dp1822
g62
(dp1823
sg71
g1808
sg64
(lp1824
g57
(g58
g59
NtRp1825
(dp1826
g62
(dp1827
g70
I4
ssg71
g1821
sg64
(lp1828
S'POST'
p1829
asbasbasbag57
(g73
g59
NtRp1830
(dp1831
g62
(dp1832
sg71
g1192
sg64
(lp1833
g57
(g78
g59
NtRp1834
(dp1835
g62
(dp1836
g82
g83
ssg71
g1830
sg64
(lp1837
S'script_name'
p1838
asbag57
(g78
g59
NtRp1839
(dp1840
g62
(dp1841
g89
g90
ssg71
g1830
sg64
(lp1842
S':'
asbag57
(g78
g59
NtRp1843
(dp1844
g62
(dp1845
sg71
g1830
sg64
(lp1846
g57
(g58
g59
NtRp1847
(dp1848
g62
(dp1849
g70
I4
ssg71
g1843
sg64
(lp1850
S''
asbasbasbag57
(g73
g59
NtRp1851
(dp1852
g62
(dp1853
sg71
g1192
sg64
(lp1854
g57
(g78
g59
NtRp1855
(dp1856
g62
(dp1857
g82
g83
ssg71
g1851
sg64
(lp1858
S'server_name'
p1859
asbag57
(g78
g59
NtRp1860
(dp1861
g62
(dp1862
g89
g90
ssg71
g1851
sg64
(lp1863
S':'
asbag57
(g78
g59
NtRp1864
(dp1865
g62
(dp1866
sg71
g1851
sg64
(lp1867
g57
(g58
g59
NtRp1868
(dp1869
g62
(dp1870
g70
I4
ssg71
g1864
sg64
(lp1871
S'sanjeet-desktop'
p1872
asbasbasbag57
(g73
g59
NtRp1873
(dp1874
g62
(dp1875
sg71
g1192
sg64
(lp1876
g57
(g78
g59
NtRp1877
(dp1878
g62
(dp1879
g82
g83
ssg71
g1873
sg64
(lp1880
S'server_port'
p1881
asbag57
(g78
g59
NtRp1882
(dp1883
g62
(dp1884
g89
g90
ssg71
g1873
sg64
(lp1885
S':'
asbag57
(g78
g59
NtRp1886
(dp1887
g62
(dp1888
sg71
g1873
sg64
(lp1889
g57
(g58
g59
NtRp1890
(dp1891
g62
(dp1892
g70
I4
ssg71
g1886
sg64
(lp1893
S'8000'
p1894
asbasbasbag57
(g73
g59
NtRp1895
(dp1896
g62
(dp1897
sg71
g1192
sg64
(lp1898
g57
(g78
g59
NtRp1899
(dp1900
g62
(dp1901
g82
g83
ssg71
g1895
sg64
(lp1902
S'server_protocol'
p1903
asbag57
(g78
g59
NtRp1904
(dp1905
g62
(dp1906
g89
g90
ssg71
g1895
sg64
(lp1907
S':'
asbag57
(g78
g59
NtRp1908
(dp1909
g62
(dp1910
sg71
g1895
sg64
(lp1911
g57
(g58
g59
NtRp1912
(dp1913
g62
(dp1914
g70
I4
ssg71
g1908
sg64
(lp1915
S'HTTP/1.1'
p1916
asbasbasbag57
(g73
g59
NtRp1917
(dp1918
g62
(dp1919
sg71
g1192
sg64
(lp1920
g57
(g78
g59
NtRp1921
(dp1922
g62
(dp1923
g82
g83
ssg71
g1917
sg64
(lp1924
S'server_software'
p1925
asbag57
(g78
g59
NtRp1926
(dp1927
g62
(dp1928
g89
g90
ssg71
g1917
sg64
(lp1929
S':'
asbag57
(g78
g59
NtRp1930
(dp1931
g62
(dp1932
sg71
g1917
sg64
(lp1933
g57
(g58
g59
NtRp1934
(dp1935
g62
(dp1936
g70
I4
ssg71
g1930
sg64
(lp1937
S'Rocket 1.2.4'
p1938
asbasbasbag57
(g73
g59
NtRp1939
(dp1940
g62
(dp1941
sg71
g1192
sg64
(lp1942
g57
(g78
g59
NtRp1943
(dp1944
g62
(dp1945
g82
g83
ssg71
g1939
sg64
(lp1946
S'web2py_crontype'
p1947
asbag57
(g78
g59
NtRp1948
(dp1949
g62
(dp1950
g89
g90
ssg71
g1939
sg64
(lp1951
S':'
asbag57
(g78
g59
NtRp1952
(dp1953
g62
(dp1954
sg71
g1939
sg64
(lp1955
g57
(g58
g59
NtRp1956
(dp1957
g62
(dp1958
g70
I4
ssg71
g1952
sg64
(lp1959
S'hard'
p1960
asbasbasbag57
(g73
g59
NtRp1961
(dp1962
g62
(dp1963
sg71
g1192
sg64
(lp1964
g57
(g78
g59
NtRp1965
(dp1966
g62
(dp1967
g82
g83
ssg71
g1961
sg64
(lp1968
S'web2py_path'
p1969
asbag57
(g78
g59
NtRp1970
(dp1971
g62
(dp1972
g89
g90
ssg71
g1961
sg64
(lp1973
S':'
asbag57
(g78
g59
NtRp1974
(dp1975
g62
(dp1976
sg71
g1961
sg64
(lp1977
g57
(g58
g59
NtRp1978
(dp1979
g62
(dp1980
g70
I4
ssg71
g1974
sg64
(lp1981
g1239
asbasbasbag57
(g73
g59
NtRp1982
(dp1983
g62
(dp1984
sg71
g1192
sg64
(lp1985
g57
(g78
g59
NtRp1986
(dp1987
g62
(dp1988
g82
g83
ssg71
g1982
sg64
(lp1989
S'web2py_version'
p1990
asbag57
(g78
g59
NtRp1991
(dp1992
g62
(dp1993
g89
g90
ssg71
g1982
sg64
(lp1994
S':'
asbag57
(g78
g59
NtRp1995
(dp1996
g62
(dp1997
sg71
g1982
sg64
(lp1998
g57
(g58
g59
NtRp1999
(dp2000
g62
(dp2001
g70
I4
ssg71
g1995
sg64
(lp2002
g57
(g66
g59
NtRp2003
(dp2004
g62
(dp2005
g70
I3
ssg71
Nsg64
(lp2006
g57
(g73
g59
NtRp2007
(dp2008
g62
(dp2009
sg71
g2003
sg64
(lp2010
g57
(g78
g59
NtRp2011
(dp2012
g62
(dp2013
sg71
g2007
sg64
(lp2014
g57
(g58
g59
NtRp2015
(dp2016
g62
(dp2017
g70
I3
ssg71
g2011
sg64
(lp2018
S'1'
asbasbasbag57
(g73
g59
NtRp2019
(dp2020
g62
(dp2021
sg71
g2003
sg64
(lp2022
g57
(g78
g59
NtRp2023
(dp2024
g62
(dp2025
sg71
g2019
sg64
(lp2026
g57
(g58
g59
NtRp2027
(dp2028
g62
(dp2029
g70
I3
ssg71
g2023
sg64
(lp2030
S'99'
p2031
asbasbasbag57
(g73
g59
NtRp2032
(dp2033
g62
(dp2034
sg71
g2003
sg64
(lp2035
g57
(g78
g59
NtRp2036
(dp2037
g62
(dp2038
sg71
g2032
sg64
(lp2039
g57
(g58
g59
NtRp2040
(dp2041
g62
(dp2042
g70
I3
ssg71
g2036
sg64
(lp2043
S'7'
asbasbasbag57
(g73
g59
NtRp2044
(dp2045
g62
(dp2046
sg71
g2003
sg64
(lp2047
g57
(g78
g59
NtRp2048
(dp2049
g62
(dp2050
sg71
g2044
sg64
(lp2051
g57
(g58
g59
NtRp2052
(dp2053
g62
(dp2054
g70
I3
ssg71
g2048
sg64
(lp2055
S'datetime.datetime(2012, 3, 4, 22, 12, 8)'
p2056
asbasbasbag57
(g73
g59
NtRp2057
(dp2058
g62
(dp2059
sg71
g2003
sg64
(lp2060
g57
(g78
g59
NtRp2061
(dp2062
g62
(dp2063
sg71
g2057
sg64
(lp2064
g57
(g58
g59
NtRp2065
(dp2066
g62
(dp2067
g70
I3
ssg71
g2061
sg64
(lp2068
S'stable'
p2069
asbasbasbasbasbasbasbag57
(g73
g59
NtRp2070
(dp2071
g62
(dp2072
sg71
g1192
sg64
(lp2073
g57
(g78
g59
NtRp2074
(dp2075
g62
(dp2076
g82
g83
ssg71
g2070
sg64
(lp2077
S'wsgi_errors'
p2078
asbag57
(g78
g59
NtRp2079
(dp2080
g62
(dp2081
g89
g90
ssg71
g2070
sg64
(lp2082
S':'
asbag57
(g78
g59
NtRp2083
(dp2084
g62
(dp2085
sg71
g2070
sg64
(lp2086
g57
(g58
g59
NtRp2087
(dp2088
g62
(dp2089
g70
I4
ssg71
g2083
sg64
(lp2090
S"<open file '<stderr>', mode 'w' at 0xb73830d0>"
p2091
asbasbasbag57
(g73
g59
NtRp2092
(dp2093
g62
(dp2094
sg71
g1192
sg64
(lp2095
g57
(g78
g59
NtRp2096
(dp2097
g62
(dp2098
g82
g83
ssg71
g2092
sg64
(lp2099
S'wsgi_file_wrapper'
p2100
asbag57
(g78
g59
NtRp2101
(dp2102
g62
(dp2103
g89
g90
ssg71
g2092
sg64
(lp2104
S':'
asbag57
(g78
g59
NtRp2105
(dp2106
g62
(dp2107
sg71
g2092
sg64
(lp2108
g57
(g58
g59
NtRp2109
(dp2110
g62
(dp2111
g70
I4
ssg71
g2105
sg64
(lp2112
S'<class wsgiref.util.FileWrapper at 0x92dfaac>'
p2113
asbasbasbag57
(g73
g59
NtRp2114
(dp2115
g62
(dp2116
sg71
g1192
sg64
(lp2117
g57
(g78
g59
NtRp2118
(dp2119
g62
(dp2120
g82
g83
ssg71
g2114
sg64
(lp2121
S'wsgi_input'
p2122
asbag57
(g78
g59
NtRp2123
(dp2124
g62
(dp2125
g89
g90
ssg71
g2114
sg64
(lp2126
S':'
asbag57
(g78
g59
NtRp2127
(dp2128
g62
(dp2129
sg71
g2114
sg64
(lp2130
g57
(g58
g59
NtRp2131
(dp2132
g62
(dp2133
g70
I4
ssg71
g2127
sg64
(lp2134
S'<socket._fileobject object at 0x94ff72c>'
p2135
asbasbasbag57
(g73
g59
NtRp2136
(dp2137
g62
(dp2138
sg71
g1192
sg64
(lp2139
g57
(g78
g59
NtRp2140
(dp2141
g62
(dp2142
g82
g83
ssg71
g2136
sg64
(lp2143
S'wsgi_multiprocess'
p2144
asbag57
(g78
g59
NtRp2145
(dp2146
g62
(dp2147
g89
g90
ssg71
g2136
sg64
(lp2148
S':'
asbag57
(g78
g59
NtRp2149
(dp2150
g62
(dp2151
sg71
g2136
sg64
(lp2152
g57
(g58
g59
NtRp2153
(dp2154
g62
(dp2155
g70
I4
ssg71
g2149
sg64
(lp2156
g100
asbasbasbag57
(g73
g59
NtRp2157
(dp2158
g62
(dp2159
sg71
g1192
sg64
(lp2160
g57
(g78
g59
NtRp2161
(dp2162
g62
(dp2163
g82
g83
ssg71
g2157
sg64
(lp2164
S'wsgi_multithread'
p2165
asbag57
(g78
g59
NtRp2166
(dp2167
g62
(dp2168
g89
g90
ssg71
g2157
sg64
(lp2169
S':'
asbag57
(g78
g59
NtRp2170
(dp2171
g62
(dp2172
sg71
g2157
sg64
(lp2173
g57
(g58
g59
NtRp2174
(dp2175
g62
(dp2176
g70
I4
ssg71
g2170
sg64
(lp2177
S'True'
p2178
asbasbasbag57
(g73
g59
NtRp2179
(dp2180
g62
(dp2181
sg71
g1192
sg64
(lp2182
g57
(g78
g59
NtRp2183
(dp2184
g62
(dp2185
g82
g83
ssg71
g2179
sg64
(lp2186
S'wsgi_run_once'
p2187
asbag57
(g78
g59
NtRp2188
(dp2189
g62
(dp2190
g89
g90
ssg71
g2179
sg64
(lp2191
S':'
asbag57
(g78
g59
NtRp2192
(dp2193
g62
(dp2194
sg71
g2179
sg64
(lp2195
g57
(g58
g59
NtRp2196
(dp2197
g62
(dp2198
g70
I4
ssg71
g2192
sg64
(lp2199
g100
asbasbasbag57
(g73
g59
NtRp2200
(dp2201
g62
(dp2202
sg71
g1192
sg64
(lp2203
g57
(g78
g59
NtRp2204
(dp2205
g62
(dp2206
g82
g83
ssg71
g2200
sg64
(lp2207
S'wsgi_url_scheme'
p2208
asbag57
(g78
g59
NtRp2209
(dp2210
g62
(dp2211
g89
g90
ssg71
g2200
sg64
(lp2212
S':'
asbag57
(g78
g59
NtRp2213
(dp2214
g62
(dp2215
sg71
g2200
sg64
(lp2216
g57
(g58
g59
NtRp2217
(dp2218
g62
(dp2219
g70
I4
ssg71
g2213
sg64
(lp2220
S'http'
p2221
asbasbasbag57
(g73
g59
NtRp2222
(dp2223
g62
(dp2224
sg71
g1192
sg64
(lp2225
g57
(g78
g59
NtRp2226
(dp2227
g62
(dp2228
g82
g83
ssg71
g2222
sg64
(lp2229
S'wsgi_version'
p2230
asbag57
(g78
g59
NtRp2231
(dp2232
g62
(dp2233
g89
g90
ssg71
g2222
sg64
(lp2234
S':'
asbag57
(g78
g59
NtRp2235
(dp2236
g62
(dp2237
sg71
g2222
sg64
(lp2238
g57
(g58
g59
NtRp2239
(dp2240
g62
(dp2241
g70
I4
ssg71
g2235
sg64
(lp2242
g57
(g66
g59
NtRp2243
(dp2244
g62
(dp2245
g70
I3
ssg71
Nsg64
(lp2246
g57
(g73
g59
NtRp2247
(dp2248
g62
(dp2249
sg71
g2243
sg64
(lp2250
g57
(g78
g59
NtRp2251
(dp2252
g62
(dp2253
sg71
g2247
sg64
(lp2254
g57
(g58
g59
NtRp2255
(dp2256
g62
(dp2257
g70
I3
ssg71
g2251
sg64
(lp2258
S'1'
asbasbasbag57
(g73
g59
NtRp2259
(dp2260
g62
(dp2261
sg71
g2243
sg64
(lp2262
g57
(g78
g59
NtRp2263
(dp2264
g62
(dp2265
sg71
g2259
sg64
(lp2266
g57
(g58
g59
NtRp2267
(dp2268
g62
(dp2269
g70
I3
ssg71
g2263
sg64
(lp2270
S'0'
asbasbasbasbasbasbasbasbasbasbasbag57
(g73
g59
NtRp2271
(dp2272
g62
(dp2273
sg71
g67
sg64
(lp2274
g57
(g78
g59
NtRp2275
(dp2276
g62
(dp2277
g82
g83
ssg71
g2271
sg64
(lp2278
S'extension'
p2279
asbag57
(g78
g59
NtRp2280
(dp2281
g62
(dp2282
g89
g90
ssg71
g2271
sg64
(lp2283
S':'
asbag57
(g78
g59
NtRp2284
(dp2285
g62
(dp2286
sg71
g2271
sg64
(lp2287
g57
(g58
g59
NtRp2288
(dp2289
g62
(dp2290
g70
I5
ssg71
g2284
sg64
(lp2291
S'html'
p2292
asbasbasbag57
(g73
g59
NtRp2293
(dp2294
g62
(dp2295
sg71
g67
sg64
(lp2296
g57
(g78
g59
NtRp2297
(dp2298
g62
(dp2299
g82
g83
ssg71
g2293
sg64
(lp2300
S'folder'
p2301
asbag57
(g78
g59
NtRp2302
(dp2303
g62
(dp2304
g89
g90
ssg71
g2293
sg64
(lp2305
S':'
asbag57
(g78
g59
NtRp2306
(dp2307
g62
(dp2308
sg71
g2293
sg64
(lp2309
g57
(g58
g59
NtRp2310
(dp2311
g62
(dp2312
g70
I5
ssg71
g2306
sg64
(lp2313
S'/home/tls-sanjeet/Desktop/HRMS/web2py/applications/themishrms/'
p2314
asbasbasbag57
(g73
g59
NtRp2315
(dp2316
g62
(dp2317
sg71
g67
sg64
(lp2318
g57
(g78
g59
NtRp2319
(dp2320
g62
(dp2321
g82
g83
ssg71
g2315
sg64
(lp2322
S'function'
p2323
asbag57
(g78
g59
NtRp2324
(dp2325
g62
(dp2326
g89
g90
ssg71
g2315
sg64
(lp2327
S':'
asbag57
(g78
g59
NtRp2328
(dp2329
g62
(dp2330
sg71
g2315
sg64
(lp2331
g57
(g58
g59
NtRp2332
(dp2333
g62
(dp2334
g70
I5
ssg71
g2328
sg64
(lp2335
S'emp_apply_leave'
p2336
asbasbasbag57
(g73
g59
NtRp2337
(dp2338
g62
(dp2339
sg71
g67
sg64
(lp2340
g57
(g78
g59
NtRp2341
(dp2342
g62
(dp2343
g82
g83
ssg71
g2337
sg64
(lp2344
S'get_vars'
p2345
asbag57
(g78
g59
NtRp2346
(dp2347
g62
(dp2348
g89
g90
ssg71
g2337
sg64
(lp2349
S':'
asbag57
(g78
g59
NtRp2350
(dp2351
g62
(dp2352
sg71
g2337
sg64
(lp2353
g57
(g58
g59
NtRp2354
(dp2355
g62
(dp2356
g70
I5
ssg71
g2350
sg64
(lp2357
g57
(g66
g59
NtRp2358
(dp2359
g62
(dp2360
g70
I4
ssg71
Nsg64
(lp2361
sbasbasbasbag57
(g73
g59
NtRp2362
(dp2363
g62
(dp2364
sg71
g67
sg64
(lp2365
g57
(g78
g59
NtRp2366
(dp2367
g62
(dp2368
g82
g83
ssg71
g2362
sg64
(lp2369
S'global_settings'
p2370
asbag57
(g78
g59
NtRp2371
(dp2372
g62
(dp2373
g89
g90
ssg71
g2362
sg64
(lp2374
S':'
asbag57
(g78
g59
NtRp2375
(dp2376
g62
(dp2377
sg71
g2362
sg64
(lp2378
g57
(g58
g59
NtRp2379
(dp2380
g62
(dp2381
g70
I5
ssg71
g2375
sg64
(lp2382
g57
(g66
g59
NtRp2383
(dp2384
g62
(dp2385
g70
I4
ssg71
Nsg64
(lp2386
g57
(g73
g59
NtRp2387
(dp2388
g62
(dp2389
sg71
g2383
sg64
(lp2390
g57
(g78
g59
NtRp2391
(dp2392
g62
(dp2393
g82
g83
ssg71
g2387
sg64
(lp2394
g1204
asbag57
(g78
g59
NtRp2395
(dp2396
g62
(dp2397
g89
g90
ssg71
g2387
sg64
(lp2398
S':'
asbag57
(g78
g59
NtRp2399
(dp2400
g62
(dp2401
sg71
g2387
sg64
(lp2402
g57
(g58
g59
NtRp2403
(dp2404
g62
(dp2405
g70
I4
ssg71
g2399
sg64
(lp2406
S"set(['/home/tls-sanjeet/Desktop/HRMS/web2py/applications/themishrms/', '/home/tls-sanjeet/Desktop/HRMS/web2py/applications/welcome/', '/home/tls-sanjeet/Desktop/HRMS/web2py/applications/admin/'])"
p2407
asbasbasbag57
(g73
g59
NtRp2408
(dp2409
g62
(dp2410
sg71
g2383
sg64
(lp2411
g57
(g78
g59
NtRp2412
(dp2413
g62
(dp2414
g82
g83
ssg71
g2408
sg64
(lp2415
g1226
asbag57
(g78
g59
NtRp2416
(dp2417
g62
(dp2418
g89
g90
ssg71
g2408
sg64
(lp2419
S':'
asbag57
(g78
g59
NtRp2420
(dp2421
g62
(dp2422
sg71
g2408
sg64
(lp2423
g57
(g58
g59
NtRp2424
(dp2425
g62
(dp2426
g70
I4
ssg71
g2420
sg64
(lp2427
g1239
asbasbasbag57
(g73
g59
NtRp2428
(dp2429
g62
(dp2430
sg71
g2383
sg64
(lp2431
g57
(g78
g59
NtRp2432
(dp2433
g62
(dp2434
g82
g83
ssg71
g2428
sg64
(lp2435
g1248
asbag57
(g78
g59
NtRp2436
(dp2437
g62
(dp2438
g89
g90
ssg71
g2428
sg64
(lp2439
S':'
asbag57
(g78
g59
NtRp2440
(dp2441
g62
(dp2442
sg71
g2428
sg64
(lp2443
g57
(g58
g59
NtRp2444
(dp2445
g62
(dp2446
g70
I4
ssg71
g2440
sg64
(lp2447
g57
(g66
g59
NtRp2448
(dp2449
g62
(dp2450
g70
I3
ssg71
Nsg64
(lp2451
sbasbasbasbag57
(g73
g59
NtRp2452
(dp2453
g62
(dp2454
sg71
g2383
sg64
(lp2455
g57
(g78
g59
NtRp2456
(dp2457
g62
(dp2458
g82
g83
ssg71
g2452
sg64
(lp2459
g1273
asbag57
(g78
g59
NtRp2460
(dp2461
g62
(dp2462
g89
g90
ssg71
g2452
sg64
(lp2463
S':'
asbag57
(g78
g59
NtRp2464
(dp2465
g62
(dp2466
sg71
g2452
sg64
(lp2467
g57
(g58
g59
NtRp2468
(dp2469
g62
(dp2470
g70
I4
ssg71
g2464
sg64
(lp2471
S"<Values at 0x933f5cc: {'verbose': False, 'ip': '127.0.0.1', 'shutdown_timeout': 5, 'taskbar': False, 'nocron': False, 'pid_filename': 'httpserver.pid', 'maxthreads': None, 'softcron': False, 'server_name': 'sanjeet-desktop', 'bpython': False, 'nogui': False, 'port': 8000, 'extcron': False, 'debuglevel': 30, 'test': None, 'folder': '/home/tls-sanjeet/Desktop/HRMS/web2py', 'config': '', 'import_models': False, 'winservice': '', 'shell': None, 'run': '', 'log_filename': 'httpserver.log', 'args': [''], 'socket_timeout': 5, 'ssl_ca_certificate': None, 'scheduler': None, 'profiler_filename': None, 'ssl_private_key': '', 'password': 'a', 'request_queue_size': 5, 'ssl_certificate': '', 'cronjob': False, 'numthreads': None, 'quiet': False, 'interfaces': None, 'minthreads': None, 'timeout': 10, 'plain': False, 'nobanner': False}>"
p2472
asbasbasbag57
(g73
g59
NtRp2473
(dp2474
g62
(dp2475
sg71
g2383
sg64
(lp2476
g57
(g78
g59
NtRp2477
(dp2478
g62
(dp2479
g82
g83
ssg71
g2473
sg64
(lp2480
g1339
asbag57
(g78
g59
NtRp2481
(dp2482
g62
(dp2483
g89
g90
ssg71
g2473
sg64
(lp2484
S':'
asbag57
(g78
g59
NtRp2485
(dp2486
g62
(dp2487
sg71
g2473
sg64
(lp2488
g57
(g58
g59
NtRp2489
(dp2490
g62
(dp2491
g70
I4
ssg71
g2485
sg64
(lp2492
S'set([])'
p2493
asbasbasbag57
(g73
g59
NtRp2494
(dp2495
g62
(dp2496
sg71
g2383
sg64
(lp2497
g57
(g78
g59
NtRp2498
(dp2499
g62
(dp2500
g82
g83
ssg71
g2494
sg64
(lp2501
g1361
asbag57
(g78
g59
NtRp2502
(dp2503
g62
(dp2504
g89
g90
ssg71
g2494
sg64
(lp2505
S':'
asbag57
(g78
g59
NtRp2506
(dp2507
g62
(dp2508
sg71
g2494
sg64
(lp2509
g57
(g58
g59
NtRp2510
(dp2511
g62
(dp2512
g70
I4
ssg71
g2506
sg64
(lp2513
g100
asbasbasbag57
(g73
g59
NtRp2514
(dp2515
g62
(dp2516
sg71
g2383
sg64
(lp2517
g57
(g78
g59
NtRp2518
(dp2519
g62
(dp2520
g82
g83
ssg71
g2514
sg64
(lp2521
g1382
asbag57
(g78
g59
NtRp2522
(dp2523
g62
(dp2524
g89
g90
ssg71
g2514
sg64
(lp2525
S':'
asbag57
(g78
g59
NtRp2526
(dp2527
g62
(dp2528
sg71
g2514
sg64
(lp2529
g57
(g58
g59
NtRp2530
(dp2531
g62
(dp2532
g70
I4
ssg71
g2526
sg64
(lp2533
g1395
asbasbasbag57
(g73
g59
NtRp2534
(dp2535
g62
(dp2536
sg71
g2383
sg64
(lp2537
g57
(g78
g59
NtRp2538
(dp2539
g62
(dp2540
g82
g83
ssg71
g2534
sg64
(lp2541
g1688
asbag57
(g78
g59
NtRp2542
(dp2543
g62
(dp2544
g89
g90
ssg71
g2534
sg64
(lp2545
S':'
asbag57
(g78
g59
NtRp2546
(dp2547
g62
(dp2548
sg71
g2534
sg64
(lp2549
g57
(g58
g59
NtRp2550
(dp2551
g62
(dp2552
g70
I4
ssg71
g2546
sg64
(lp2553
g100
asbasbasbag57
(g73
g59
NtRp2554
(dp2555
g62
(dp2556
sg71
g2383
sg64
(lp2557
g57
(g78
g59
NtRp2558
(dp2559
g62
(dp2560
g82
g83
ssg71
g2554
sg64
(lp2561
g1709
asbag57
(g78
g59
NtRp2562
(dp2563
g62
(dp2564
g89
g90
ssg71
g2554
sg64
(lp2565
S':'
asbag57
(g78
g59
NtRp2566
(dp2567
g62
(dp2568
sg71
g2554
sg64
(lp2569
g57
(g58
g59
NtRp2570
(dp2571
g62
(dp2572
g70
I4
ssg71
g2566
sg64
(lp2573
g100
asbasbasbag57
(g73
g59
NtRp2574
(dp2575
g62
(dp2576
sg71
g2383
sg64
(lp2577
g57
(g78
g59
NtRp2578
(dp2579
g62
(dp2580
g82
g83
ssg71
g2574
sg64
(lp2581
g1947
asbag57
(g78
g59
NtRp2582
(dp2583
g62
(dp2584
g89
g90
ssg71
g2574
sg64
(lp2585
S':'
asbag57
(g78
g59
NtRp2586
(dp2587
g62
(dp2588
sg71
g2574
sg64
(lp2589
g57
(g58
g59
NtRp2590
(dp2591
g62
(dp2592
g70
I4
ssg71
g2586
sg64
(lp2593
g1960
asbasbasbag57
(g73
g59
NtRp2594
(dp2595
g62
(dp2596
sg71
g2383
sg64
(lp2597
g57
(g78
g59
NtRp2598
(dp2599
g62
(dp2600
g82
g83
ssg71
g2594
sg64
(lp2601
g1990
asbag57
(g78
g59
NtRp2602
(dp2603
g62
(dp2604
g89
g90
ssg71
g2594
sg64
(lp2605
S':'
asbag57
(g78
g59
NtRp2606
(dp2607
g62
(dp2608
sg71
g2594
sg64
(lp2609
g57
(g58
g59
NtRp2610
(dp2611
g62
(dp2612
g70
I4
ssg71
g2606
sg64
(lp2613
g57
(g66
g59
NtRp2614
(dp2615
g62
(dp2616
g70
I3
ssg71
Nsg64
(lp2617
g57
(g73
g59
NtRp2618
(dp2619
g62
(dp2620
sg71
g2614
sg64
(lp2621
g57
(g78
g59
NtRp2622
(dp2623
g62
(dp2624
sg71
g2618
sg64
(lp2625
g57
(g58
g59
NtRp2626
(dp2627
g62
(dp2628
g70
I3
ssg71
g2622
sg64
(lp2629
S'1'
asbasbasbag57
(g73
g59
NtRp2630
(dp2631
g62
(dp2632
sg71
g2614
sg64
(lp2633
g57
(g78
g59
NtRp2634
(dp2635
g62
(dp2636
sg71
g2630
sg64
(lp2637
g57
(g58
g59
NtRp2638
(dp2639
g62
(dp2640
g70
I3
ssg71
g2634
sg64
(lp2641
S'99'
p2642
asbasbasbag57
(g73
g59
NtRp2643
(dp2644
g62
(dp2645
sg71
g2614
sg64
(lp2646
g57
(g78
g59
NtRp2647
(dp2648
g62
(dp2649
sg71
g2643
sg64
(lp2650
g57
(g58
g59
NtRp2651
(dp2652
g62
(dp2653
g70
I3
ssg71
g2647
sg64
(lp2654
S'7'
asbasbasbag57
(g73
g59
NtRp2655
(dp2656
g62
(dp2657
sg71
g2614
sg64
(lp2658
g57
(g78
g59
NtRp2659
(dp2660
g62
(dp2661
sg71
g2655
sg64
(lp2662
g57
(g58
g59
NtRp2663
(dp2664
g62
(dp2665
g70
I3
ssg71
g2659
sg64
(lp2666
S'datetime.datetime(2012, 3, 4, 22, 12, 8)'
p2667
asbasbasbag57
(g73
g59
NtRp2668
(dp2669
g62
(dp2670
sg71
g2614
sg64
(lp2671
g57
(g78
g59
NtRp2672
(dp2673
g62
(dp2674
sg71
g2668
sg64
(lp2675
g57
(g58
g59
NtRp2676
(dp2677
g62
(dp2678
g70
I3
ssg71
g2672
sg64
(lp2679
g2069
asbasbasbasbasbasbasbasbasbasbasbag57
(g73
g59
NtRp2680
(dp2681
g62
(dp2682
sg71
g67
sg64
(lp2683
g57
(g78
g59
NtRp2684
(dp2685
g62
(dp2686
g82
g83
ssg71
g2680
sg64
(lp2687
S'is_https'
p2688
asbag57
(g78
g59
NtRp2689
(dp2690
g62
(dp2691
g89
g90
ssg71
g2680
sg64
(lp2692
S':'
asbag57
(g78
g59
NtRp2693
(dp2694
g62
(dp2695
sg71
g2680
sg64
(lp2696
g57
(g58
g59
NtRp2697
(dp2698
g62
(dp2699
g70
I5
ssg71
g2693
sg64
(lp2700
g100
asbasbasbag57
(g73
g59
NtRp2701
(dp2702
g62
(dp2703
sg71
g67
sg64
(lp2704
g57
(g78
g59
NtRp2705
(dp2706
g62
(dp2707
g82
g83
ssg71
g2701
sg64
(lp2708
S'is_local'
p2709
asbag57
(g78
g59
NtRp2710
(dp2711
g62
(dp2712
g89
g90
ssg71
g2701
sg64
(lp2713
S':'
asbag57
(g78
g59
NtRp2714
(dp2715
g62
(dp2716
sg71
g2701
sg64
(lp2717
g57
(g58
g59
NtRp2718
(dp2719
g62
(dp2720
g70
I5
ssg71
g2714
sg64
(lp2721
g2178
asbasbasbag57
(g73
g59
NtRp2722
(dp2723
g62
(dp2724
sg71
g67
sg64
(lp2725
g57
(g78
g59
NtRp2726
(dp2727
g62
(dp2728
g82
g83
ssg71
g2722
sg64
(lp2729
S'is_restful'
p2730
asbag57
(g78
g59
NtRp2731
(dp2732
g62
(dp2733
g89
g90
ssg71
g2722
sg64
(lp2734
S':'
asbag57
(g78
g59
NtRp2735
(dp2736
g62
(dp2737
sg71
g2722
sg64
(lp2738
g57
(g58
g59
NtRp2739
(dp2740
g62
(dp2741
g70
I5
ssg71
g2735
sg64
(lp2742
g100
asbasbasbag57
(g73
g59
NtRp2743
(dp2744
g62
(dp2745
sg71
g67
sg64
(lp2746
g57
(g78
g59
NtRp2747
(dp2748
g62
(dp2749
g82
g83
ssg71
g2743
sg64
(lp2750
S'now'
p2751
asbag57
(g78
g59
NtRp2752
(dp2753
g62
(dp2754
g89
g90
ssg71
g2743
sg64
(lp2755
S':'
asbag57
(g78
g59
NtRp2756
(dp2757
g62
(dp2758
sg71
g2743
sg64
(lp2759
g57
(g58
g59
NtRp2760
(dp2761
g62
(dp2762
g70
I5
ssg71
g2756
sg64
(lp2763
S'datetime.datetime(2012, 4, 26, 12, 55, 5, 637931)'
p2764
asbasbasbag57
(g73
g59
NtRp2765
(dp2766
g62
(dp2767
sg71
g67
sg64
(lp2768
g57
(g78
g59
NtRp2769
(dp2770
g62
(dp2771
g82
g83
ssg71
g2765
sg64
(lp2772
S'post_vars'
p2773
asbag57
(g78
g59
NtRp2774
(dp2775
g62
(dp2776
g89
g90
ssg71
g2765
sg64
(lp2777
S':'
asbag57
(g78
g59
NtRp2778
(dp2779
g62
(dp2780
sg71
g2765
sg64
(lp2781
g57
(g58
g59
NtRp2782
(dp2783
g62
(dp2784
g70
I5
ssg71
g2778
sg64
(lp2785
g57
(g66
g59
NtRp2786
(dp2787
g62
(dp2788
g70
I4
ssg71
Nsg64
(lp2789
g57
(g73
g59
NtRp2790
(dp2791
g62
(dp2792
sg71
g2786
sg64
(lp2793
g57
(g78
g59
NtRp2794
(dp2795
g62
(dp2796
g82
g83
ssg71
g2790
sg64
(lp2797
S'apply'
p2798
asbag57
(g78
g59
NtRp2799
(dp2800
g62
(dp2801
g89
g90
ssg71
g2790
sg64
(lp2802
S':'
asbag57
(g78
g59
NtRp2803
(dp2804
g62
(dp2805
sg71
g2790
sg64
(lp2806
g57
(g58
g59
NtRp2807
(dp2808
g62
(dp2809
g70
I4
ssg71
g2803
sg64
(lp2810
S'Casual Leave'
p2811
asbasbasbag57
(g73
g59
NtRp2812
(dp2813
g62
(dp2814
sg71
g2786
sg64
(lp2815
g57
(g78
g59
NtRp2816
(dp2817
g62
(dp2818
g82
g83
ssg71
g2812
sg64
(lp2819
S'fromleave'
p2820
asbag57
(g78
g59
NtRp2821
(dp2822
g62
(dp2823
g89
g90
ssg71
g2812
sg64
(lp2824
S':'
asbag57
(g78
g59
NtRp2825
(dp2826
g62
(dp2827
sg71
g2812
sg64
(lp2828
g57
(g58
g59
NtRp2829
(dp2830
g62
(dp2831
g70
I4
ssg71
g2825
sg64
(lp2832
g57
(g66
g59
NtRp2833
(dp2834
g62
(dp2835
g70
I3
ssg71
Nsg64
(lp2836
g57
(g73
g59
NtRp2837
(dp2838
g62
(dp2839
sg71
g2833
sg64
(lp2840
g57
(g78
g59
NtRp2841
(dp2842
g62
(dp2843
sg71
g2837
sg64
(lp2844
g57
(g58
g59
NtRp2845
(dp2846
g62
(dp2847
g70
I3
ssg71
g2841
sg64
(lp2848
S'2012-04-26'
p2849
asbasbasbag57
(g73
g59
NtRp2850
(dp2851
g62
(dp2852
sg71
g2833
sg64
(lp2853
g57
(g78
g59
NtRp2854
(dp2855
g62
(dp2856
sg71
g2850
sg64
(lp2857
g57
(g58
g59
NtRp2858
(dp2859
g62
(dp2860
g70
I3
ssg71
g2854
sg64
(lp2861
S'2012-04-30'
p2862
asbasbasbasbasbasbasbag57
(g73
g59
NtRp2863
(dp2864
g62
(dp2865
sg71
g2786
sg64
(lp2866
g57
(g78
g59
NtRp2867
(dp2868
g62
(dp2869
g82
g83
ssg71
g2863
sg64
(lp2870
S'reason'
p2871
asbag57
(g78
g59
NtRp2872
(dp2873
g62
(dp2874
g89
g90
ssg71
g2863
sg64
(lp2875
S':'
asbag57
(g78
g59
NtRp2876
(dp2877
g62
(dp2878
sg71
g2863
sg64
(lp2879
g57
(g58
g59
NtRp2880
(dp2881
g62
(dp2882
g70
I4
ssg71
g2876
sg64
(lp2883
S'werwer'
p2884
asbasbasbag57
(g73
g59
NtRp2885
(dp2886
g62
(dp2887
sg71
g2786
sg64
(lp2888
g57
(g78
g59
NtRp2889
(dp2890
g62
(dp2891
g82
g83
ssg71
g2885
sg64
(lp2892
S'submit'
p2893
asbag57
(g78
g59
NtRp2894
(dp2895
g62
(dp2896
g89
g90
ssg71
g2885
sg64
(lp2897
S':'
asbag57
(g78
g59
NtRp2898
(dp2899
g62
(dp2900
sg71
g2885
sg64
(lp2901
g57
(g58
g59
NtRp2902
(dp2903
g62
(dp2904
g70
I4
ssg71
g2898
sg64
(lp2905
S'Submit'
p2906
asbasbasbasbasbasbasbag57
(g73
g59
NtRp2907
(dp2908
g62
(dp2909
sg71
g67
sg64
(lp2910
g57
(g78
g59
NtRp2911
(dp2912
g62
(dp2913
g82
g83
ssg71
g2907
sg64
(lp2914
S'url'
p2915
asbag57
(g78
g59
NtRp2916
(dp2917
g62
(dp2918
g89
g90
ssg71
g2907
sg64
(lp2919
S':'
asbag57
(g78
g59
NtRp2920
(dp2921
g62
(dp2922
sg71
g2907
sg64
(lp2923
g57
(g58
g59
NtRp2924
(dp2925
g62
(dp2926
g70
I5
ssg71
g2920
sg64
(lp2927
S'/themishrms/default/emp_apply_leave'
p2928
asbasbasbag57
(g73
g59
NtRp2929
(dp2930
g62
(dp2931
sg71
g67
sg64
(lp2932
g57
(g78
g59
NtRp2933
(dp2934
g62
(dp2935
g82
g83
ssg71
g2929
sg64
(lp2936
S'utcnow'
p2937
asbag57
(g78
g59
NtRp2938
(dp2939
g62
(dp2940
g89
g90
ssg71
g2929
sg64
(lp2941
S':'
asbag57
(g78
g59
NtRp2942
(dp2943
g62
(dp2944
sg71
g2929
sg64
(lp2945
g57
(g58
g59
NtRp2946
(dp2947
g62
(dp2948
g70
I5
ssg71
g2942
sg64
(lp2949
S'datetime.datetime(2012, 4, 26, 7, 25, 5, 637956)'
p2950
asbasbasbag57
(g73
g59
NtRp2951
(dp2952
g62
(dp2953
sg71
g67
sg64
(lp2954
g57
(g78
g59
NtRp2955
(dp2956
g62
(dp2957
g82
g83
ssg71
g2951
sg64
(lp2958
S'uuid'
p2959
asbag57
(g78
g59
NtRp2960
(dp2961
g62
(dp2962
g89
g90
ssg71
g2951
sg64
(lp2963
S':'
asbag57
(g78
g59
NtRp2964
(dp2965
g62
(dp2966
sg71
g2951
sg64
(lp2967
g57
(g58
g59
NtRp2968
(dp2969
g62
(dp2970
g70
I5
ssg71
g2964
sg64
(lp2971
S'themishrms/127.0.0.1.2012-04-26.12-55-05.c67d134d-b806-496e-9b7a-85ae758493a5'
p2972
asbasbasbag57
(g73
g59
NtRp2973
(dp2974
g62
(dp2975
sg71
g67
sg64
(lp2976
g57
(g78
g59
NtRp2977
(dp2978
g62
(dp2979
g82
g83
ssg71
g2973
sg64
(lp2980
S'vars'
p2981
asbag57
(g78
g59
NtRp2982
(dp2983
g62
(dp2984
g89
g90
ssg71
g2973
sg64
(lp2985
S':'
asbag57
(g78
g59
NtRp2986
(dp2987
g62
(dp2988
sg71
g2973
sg64
(lp2989
g57
(g58
g59
NtRp2990
(dp2991
g62
(dp2992
g70
I5
ssg71
g2986
sg64
(lp2993
g57
(g66
g59
NtRp2994
(dp2995
g62
(dp2996
g70
I4
ssg71
Nsg64
(lp2997
g57
(g73
g59
NtRp2998
(dp2999
g62
(dp3000
sg71
g2994
sg64
(lp3001
g57
(g78
g59
NtRp3002
(dp3003
g62
(dp3004
g82
g83
ssg71
g2998
sg64
(lp3005
g2798
asbag57
(g78
g59
NtRp3006
(dp3007
g62
(dp3008
g89
g90
ssg71
g2998
sg64
(lp3009
S':'
asbag57
(g78
g59
NtRp3010
(dp3011
g62
(dp3012
sg71
g2998
sg64
(lp3013
g57
(g58
g59
NtRp3014
(dp3015
g62
(dp3016
g70
I4
ssg71
g3010
sg64
(lp3017
g2811
asbasbasbag57
(g73
g59
NtRp3018
(dp3019
g62
(dp3020
sg71
g2994
sg64
(lp3021
g57
(g78
g59
NtRp3022
(dp3023
g62
(dp3024
g82
g83
ssg71
g3018
sg64
(lp3025
g2820
asbag57
(g78
g59
NtRp3026
(dp3027
g62
(dp3028
g89
g90
ssg71
g3018
sg64
(lp3029
S':'
asbag57
(g78
g59
NtRp3030
(dp3031
g62
(dp3032
sg71
g3018
sg64
(lp3033
g57
(g58
g59
NtRp3034
(dp3035
g62
(dp3036
g70
I4
ssg71
g3030
sg64
(lp3037
g57
(g66
g59
NtRp3038
(dp3039
g62
(dp3040
g70
I3
ssg71
Nsg64
(lp3041
g57
(g73
g59
NtRp3042
(dp3043
g62
(dp3044
sg71
g3038
sg64
(lp3045
g57
(g78
g59
NtRp3046
(dp3047
g62
(dp3048
sg71
g3042
sg64
(lp3049
g57
(g58
g59
NtRp3050
(dp3051
g62
(dp3052
g70
I3
ssg71
g3046
sg64
(lp3053
g2849
asbasbasbag57
(g73
g59
NtRp3054
(dp3055
g62
(dp3056
sg71
g3038
sg64
(lp3057
g57
(g78
g59
NtRp3058
(dp3059
g62
(dp3060
sg71
g3054
sg64
(lp3061
g57
(g58
g59
NtRp3062
(dp3063
g62
(dp3064
g70
I3
ssg71
g3058
sg64
(lp3065
g2862
asbasbasbasbasbasbasbag57
(g73
g59
NtRp3066
(dp3067
g62
(dp3068
sg71
g2994
sg64
(lp3069
g57
(g78
g59
NtRp3070
(dp3071
g62
(dp3072
g82
g83
ssg71
g3066
sg64
(lp3073
g2871
asbag57
(g78
g59
NtRp3074
(dp3075
g62
(dp3076
g89
g90
ssg71
g3066
sg64
(lp3077
S':'
asbag57
(g78
g59
NtRp3078
(dp3079
g62
(dp3080
sg71
g3066
sg64
(lp3081
g57
(g58
g59
NtRp3082
(dp3083
g62
(dp3084
g70
I4
ssg71
g3078
sg64
(lp3085
g2884
asbasbasbag57
(g73
g59
NtRp3086
(dp3087
g62
(dp3088
sg71
g2994
sg64
(lp3089
g57
(g78
g59
NtRp3090
(dp3091
g62
(dp3092
g82
g83
ssg71
g3086
sg64
(lp3093
g2893
asbag57
(g78
g59
NtRp3094
(dp3095
g62
(dp3096
g89
g90
ssg71
g3086
sg64
(lp3097
S':'
asbag57
(g78
g59
NtRp3098
(dp3099
g62
(dp3100
sg71
g3086
sg64
(lp3101
g57
(g58
g59
NtRp3102
(dp3103
g62
(dp3104
g70
I4
ssg71
g3098
sg64
(lp3105
g2906
asbasbasbasbasbasbasbag57
(g73
g59
NtRp3106
(dp3107
g62
(dp3108
sg71
g67
sg64
(lp3109
g57
(g78
g59
NtRp3110
(dp3111
g62
(dp3112
g82
g83
ssg71
g3106
sg64
(lp3113
S'wsgi'
p3114
asbag57
(g78
g59
NtRp3115
(dp3116
g62
(dp3117
g89
g90
ssg71
g3106
sg64
(lp3118
S':'
asbag57
(g78
g59
NtRp3119
(dp3120
g62
(dp3121
sg71
g3106
sg64
(lp3122
g57
(g58
g59
NtRp3123
(dp3124
g62
(dp3125
g70
I5
ssg71
g3119
sg64
(lp3126
g57
(g66
g59
NtRp3127
(dp3128
g62
(dp3129
g70
I4
ssg71
Nsg64
(lp3130
g57
(g73
g59
NtRp3131
(dp3132
g62
(dp3133
sg71
g3127
sg64
(lp3134
g57
(g78
g59
NtRp3135
(dp3136
g62
(dp3137
g82
g83
ssg71
g3131
sg64
(lp3138
S'environ'
p3139
asbag57
(g78
g59
NtRp3140
(dp3141
g62
(dp3142
g89
g90
ssg71
g3131
sg64
(lp3143
S':'
asbag57
(g78
g59
NtRp3144
(dp3145
g62
(dp3146
sg71
g3131
sg64
(lp3147
g57
(g58
g59
NtRp3148
(dp3149
g62
(dp3150
g70
I4
ssg71
g3144
sg64
(lp3151
g57
(g66
g59
NtRp3152
(dp3153
g62
(dp3154
g70
I3
ssg71
Nsg64
(lp3155
g57
(g73
g59
NtRp3156
(dp3157
g62
(dp3158
sg71
g3152
sg64
(lp3159
g57
(g78
g59
NtRp3160
(dp3161
g62
(dp3162
g82
g83
ssg71
g3156
sg64
(lp3163
S'CONTENT_LENGTH'
p3164
asbag57
(g78
g59
NtRp3165
(dp3166
g62
(dp3167
g89
g90
ssg71
g3156
sg64
(lp3168
S':'
asbag57
(g78
g59
NtRp3169
(dp3170
g62
(dp3171
sg71
g3156
sg64
(lp3172
g57
(g58
g59
NtRp3173
(dp3174
g62
(dp3175
g70
I3
ssg71
g3169
sg64
(lp3176
g1308
asbasbasbag57
(g73
g59
NtRp3177
(dp3178
g62
(dp3179
sg71
g3152
sg64
(lp3180
g57
(g78
g59
NtRp3181
(dp3182
g62
(dp3183
g82
g83
ssg71
g3177
sg64
(lp3184
S'CONTENT_TYPE'
p3185
asbag57
(g78
g59
NtRp3186
(dp3187
g62
(dp3188
g89
g90
ssg71
g3177
sg64
(lp3189
S':'
asbag57
(g78
g59
NtRp3190
(dp3191
g62
(dp3192
sg71
g3177
sg64
(lp3193
g57
(g58
g59
NtRp3194
(dp3195
g62
(dp3196
g70
I3
ssg71
g3190
sg64
(lp3197
g1330
asbasbasbag57
(g73
g59
NtRp3198
(dp3199
g62
(dp3200
sg71
g3152
sg64
(lp3201
g57
(g78
g59
NtRp3202
(dp3203
g62
(dp3204
g82
g83
ssg71
g3198
sg64
(lp3205
S'HTTP_ACCEPT'
p3206
asbag57
(g78
g59
NtRp3207
(dp3208
g62
(dp3209
g89
g90
ssg71
g3198
sg64
(lp3210
S':'
asbag57
(g78
g59
NtRp3211
(dp3212
g62
(dp3213
sg71
g3198
sg64
(lp3214
g57
(g58
g59
NtRp3215
(dp3216
g62
(dp3217
g70
I3
ssg71
g3211
sg64
(lp3218
g1417
asbasbasbag57
(g73
g59
NtRp3219
(dp3220
g62
(dp3221
sg71
g3152
sg64
(lp3222
g57
(g78
g59
NtRp3223
(dp3224
g62
(dp3225
g82
g83
ssg71
g3219
sg64
(lp3226
S'HTTP_ACCEPT_CHARSET'
p3227
asbag57
(g78
g59
NtRp3228
(dp3229
g62
(dp3230
g89
g90
ssg71
g3219
sg64
(lp3231
S':'
asbag57
(g78
g59
NtRp3232
(dp3233
g62
(dp3234
sg71
g3219
sg64
(lp3235
g57
(g58
g59
NtRp3236
(dp3237
g62
(dp3238
g70
I3
ssg71
g3232
sg64
(lp3239
g1439
asbasbasbag57
(g73
g59
NtRp3240
(dp3241
g62
(dp3242
sg71
g3152
sg64
(lp3243
g57
(g78
g59
NtRp3244
(dp3245
g62
(dp3246
g82
g83
ssg71
g3240
sg64
(lp3247
S'HTTP_ACCEPT_ENCODING'
p3248
asbag57
(g78
g59
NtRp3249
(dp3250
g62
(dp3251
g89
g90
ssg71
g3240
sg64
(lp3252
S':'
asbag57
(g78
g59
NtRp3253
(dp3254
g62
(dp3255
sg71
g3240
sg64
(lp3256
g57
(g58
g59
NtRp3257
(dp3258
g62
(dp3259
g70
I3
ssg71
g3253
sg64
(lp3260
g1461
asbasbasbag57
(g73
g59
NtRp3261
(dp3262
g62
(dp3263
sg71
g3152
sg64
(lp3264
g57
(g78
g59
NtRp3265
(dp3266
g62
(dp3267
g82
g83
ssg71
g3261
sg64
(lp3268
S'HTTP_ACCEPT_LANGUAGE'
p3269
asbag57
(g78
g59
NtRp3270
(dp3271
g62
(dp3272
g89
g90
ssg71
g3261
sg64
(lp3273
S':'
asbag57
(g78
g59
NtRp3274
(dp3275
g62
(dp3276
sg71
g3261
sg64
(lp3277
g57
(g58
g59
NtRp3278
(dp3279
g62
(dp3280
g70
I3
ssg71
g3274
sg64
(lp3281
g1483
asbasbasbag57
(g73
g59
NtRp3282
(dp3283
g62
(dp3284
sg71
g3152
sg64
(lp3285
g57
(g78
g59
NtRp3286
(dp3287
g62
(dp3288
g82
g83
ssg71
g3282
sg64
(lp3289
S'HTTP_CACHE_CONTROL'
p3290
asbag57
(g78
g59
NtRp3291
(dp3292
g62
(dp3293
g89
g90
ssg71
g3282
sg64
(lp3294
S':'
asbag57
(g78
g59
NtRp3295
(dp3296
g62
(dp3297
sg71
g3282
sg64
(lp3298
g57
(g58
g59
NtRp3299
(dp3300
g62
(dp3301
g70
I3
ssg71
g3295
sg64
(lp3302
g1505
asbasbasbag57
(g73
g59
NtRp3303
(dp3304
g62
(dp3305
sg71
g3152
sg64
(lp3306
g57
(g78
g59
NtRp3307
(dp3308
g62
(dp3309
g82
g83
ssg71
g3303
sg64
(lp3310
S'HTTP_CONNECTION'
p3311
asbag57
(g78
g59
NtRp3312
(dp3313
g62
(dp3314
g89
g90
ssg71
g3303
sg64
(lp3315
S':'
asbag57
(g78
g59
NtRp3316
(dp3317
g62
(dp3318
sg71
g3303
sg64
(lp3319
g57
(g58
g59
NtRp3320
(dp3321
g62
(dp3322
g70
I3
ssg71
g3316
sg64
(lp3323
g1527
asbasbasbag57
(g73
g59
NtRp3324
(dp3325
g62
(dp3326
sg71
g3152
sg64
(lp3327
g57
(g78
g59
NtRp3328
(dp3329
g62
(dp3330
g82
g83
ssg71
g3324
sg64
(lp3331
S'HTTP_CONTENT_LENGTH'
p3332
asbag57
(g78
g59
NtRp3333
(dp3334
g62
(dp3335
g89
g90
ssg71
g3324
sg64
(lp3336
S':'
asbag57
(g78
g59
NtRp3337
(dp3338
g62
(dp3339
sg71
g3324
sg64
(lp3340
g57
(g58
g59
NtRp3341
(dp3342
g62
(dp3343
g70
I3
ssg71
g3337
sg64
(lp3344
g1308
asbasbasbag57
(g73
g59
NtRp3345
(dp3346
g62
(dp3347
sg71
g3152
sg64
(lp3348
g57
(g78
g59
NtRp3349
(dp3350
g62
(dp3351
g82
g83
ssg71
g3345
sg64
(lp3352
S'HTTP_CONTENT_TYPE'
p3353
asbag57
(g78
g59
NtRp3354
(dp3355
g62
(dp3356
g89
g90
ssg71
g3345
sg64
(lp3357
S':'
asbag57
(g78
g59
NtRp3358
(dp3359
g62
(dp3360
sg71
g3345
sg64
(lp3361
g57
(g58
g59
NtRp3362
(dp3363
g62
(dp3364
g70
I3
ssg71
g3358
sg64
(lp3365
g1330
asbasbasbag57
(g73
g59
NtRp3366
(dp3367
g62
(dp3368
sg71
g3152
sg64
(lp3369
g57
(g78
g59
NtRp3370
(dp3371
g62
(dp3372
g82
g83
ssg71
g3366
sg64
(lp3373
S'HTTP_COOKIE'
p3374
asbag57
(g78
g59
NtRp3375
(dp3376
g62
(dp3377
g89
g90
ssg71
g3366
sg64
(lp3378
S':'
asbag57
(g78
g59
NtRp3379
(dp3380
g62
(dp3381
sg71
g3366
sg64
(lp3382
g57
(g58
g59
NtRp3383
(dp3384
g62
(dp3385
g70
I3
ssg71
g3379
sg64
(lp3386
g1591
asbasbasbag57
(g73
g59
NtRp3387
(dp3388
g62
(dp3389
sg71
g3152
sg64
(lp3390
g57
(g78
g59
NtRp3391
(dp3392
g62
(dp3393
g82
g83
ssg71
g3387
sg64
(lp3394
S'HTTP_HOST'
p3395
asbag57
(g78
g59
NtRp3396
(dp3397
g62
(dp3398
g89
g90
ssg71
g3387
sg64
(lp3399
S':'
asbag57
(g78
g59
NtRp3400
(dp3401
g62
(dp3402
sg71
g3387
sg64
(lp3403
g57
(g58
g59
NtRp3404
(dp3405
g62
(dp3406
g70
I3
ssg71
g3400
sg64
(lp3407
g1613
asbasbasbag57
(g73
g59
NtRp3408
(dp3409
g62
(dp3410
sg71
g3152
sg64
(lp3411
g57
(g78
g59
NtRp3412
(dp3413
g62
(dp3414
g82
g83
ssg71
g3408
sg64
(lp3415
S'HTTP_ORIGIN'
p3416
asbag57
(g78
g59
NtRp3417
(dp3418
g62
(dp3419
g89
g90
ssg71
g3408
sg64
(lp3420
S':'
asbag57
(g78
g59
NtRp3421
(dp3422
g62
(dp3423
sg71
g3408
sg64
(lp3424
g57
(g58
g59
NtRp3425
(dp3426
g62
(dp3427
g70
I3
ssg71
g3421
sg64
(lp3428
g1635
asbasbasbag57
(g73
g59
NtRp3429
(dp3430
g62
(dp3431
sg71
g3152
sg64
(lp3432
g57
(g78
g59
NtRp3433
(dp3434
g62
(dp3435
g82
g83
ssg71
g3429
sg64
(lp3436
S'HTTP_REFERER'
p3437
asbag57
(g78
g59
NtRp3438
(dp3439
g62
(dp3440
g89
g90
ssg71
g3429
sg64
(lp3441
S':'
asbag57
(g78
g59
NtRp3442
(dp3443
g62
(dp3444
sg71
g3429
sg64
(lp3445
g57
(g58
g59
NtRp3446
(dp3447
g62
(dp3448
g70
I3
ssg71
g3442
sg64
(lp3449
g1657
asbasbasbag57
(g73
g59
NtRp3450
(dp3451
g62
(dp3452
sg71
g3152
sg64
(lp3453
g57
(g78
g59
NtRp3454
(dp3455
g62
(dp3456
g82
g83
ssg71
g3450
sg64
(lp3457
S'HTTP_USER_AGENT'
p3458
asbag57
(g78
g59
NtRp3459
(dp3460
g62
(dp3461
g89
g90
ssg71
g3450
sg64
(lp3462
S':'
asbag57
(g78
g59
NtRp3463
(dp3464
g62
(dp3465
sg71
g3450
sg64
(lp3466
g57
(g58
g59
NtRp3467
(dp3468
g62
(dp3469
g70
I3
ssg71
g3463
sg64
(lp3470
g1679
asbasbasbag57
(g73
g59
NtRp3471
(dp3472
g62
(dp3473
sg71
g3152
sg64
(lp3474
g57
(g78
g59
NtRp3475
(dp3476
g62
(dp3477
g82
g83
ssg71
g3471
sg64
(lp3478
S'PATH_INFO'
p3479
asbag57
(g78
g59
NtRp3480
(dp3481
g62
(dp3482
g89
g90
ssg71
g3471
sg64
(lp3483
S':'
asbag57
(g78
g59
NtRp3484
(dp3485
g62
(dp3486
sg71
g3471
sg64
(lp3487
g57
(g58
g59
NtRp3488
(dp3489
g62
(dp3490
g70
I3
ssg71
g3484
sg64
(lp3491
g1743
asbasbasbag57
(g73
g59
NtRp3492
(dp3493
g62
(dp3494
sg71
g3152
sg64
(lp3495
g57
(g78
g59
NtRp3496
(dp3497
g62
(dp3498
g82
g83
ssg71
g3492
sg64
(lp3499
S'QUERY_STRING'
p3500
asbag57
(g78
g59
NtRp3501
(dp3502
g62
(dp3503
g89
g90
ssg71
g3492
sg64
(lp3504
S':'
asbag57
(g78
g59
NtRp3505
(dp3506
g62
(dp3507
sg71
g3492
sg64
(lp3508
g57
(g58
g59
NtRp3509
(dp3510
g62
(dp3511
g70
I3
ssg71
g3505
sg64
(lp3512
S''
asbasbasbag57
(g73
g59
NtRp3513
(dp3514
g62
(dp3515
sg71
g3152
sg64
(lp3516
g57
(g78
g59
NtRp3517
(dp3518
g62
(dp3519
g82
g83
ssg71
g3513
sg64
(lp3520
S'REMOTE_ADDR'
p3521
asbag57
(g78
g59
NtRp3522
(dp3523
g62
(dp3524
g89
g90
ssg71
g3513
sg64
(lp3525
S':'
asbag57
(g78
g59
NtRp3526
(dp3527
g62
(dp3528
sg71
g3513
sg64
(lp3529
g57
(g58
g59
NtRp3530
(dp3531
g62
(dp3532
g70
I3
ssg71
g3526
sg64
(lp3533
g190
asbasbasbag57
(g73
g59
NtRp3534
(dp3535
g62
(dp3536
sg71
g3152
sg64
(lp3537
g57
(g78
g59
NtRp3538
(dp3539
g62
(dp3540
g82
g83
ssg71
g3534
sg64
(lp3541
S'REMOTE_PORT'
p3542
asbag57
(g78
g59
NtRp3543
(dp3544
g62
(dp3545
g89
g90
ssg71
g3534
sg64
(lp3546
S':'
asbag57
(g78
g59
NtRp3547
(dp3548
g62
(dp3549
sg71
g3534
sg64
(lp3550
g57
(g58
g59
NtRp3551
(dp3552
g62
(dp3553
g70
I3
ssg71
g3547
sg64
(lp3554
g1807
asbasbasbag57
(g73
g59
NtRp3555
(dp3556
g62
(dp3557
sg71
g3152
sg64
(lp3558
g57
(g78
g59
NtRp3559
(dp3560
g62
(dp3561
g82
g83
ssg71
g3555
sg64
(lp3562
S'REQUEST_METHOD'
p3563
asbag57
(g78
g59
NtRp3564
(dp3565
g62
(dp3566
g89
g90
ssg71
g3555
sg64
(lp3567
S':'
asbag57
(g78
g59
NtRp3568
(dp3569
g62
(dp3570
sg71
g3555
sg64
(lp3571
g57
(g58
g59
NtRp3572
(dp3573
g62
(dp3574
g70
I3
ssg71
g3568
sg64
(lp3575
g1829
asbasbasbag57
(g73
g59
NtRp3576
(dp3577
g62
(dp3578
sg71
g3152
sg64
(lp3579
g57
(g78
g59
NtRp3580
(dp3581
g62
(dp3582
g82
g83
ssg71
g3576
sg64
(lp3583
S'SCRIPT_NAME'
p3584
asbag57
(g78
g59
NtRp3585
(dp3586
g62
(dp3587
g89
g90
ssg71
g3576
sg64
(lp3588
S':'
asbag57
(g78
g59
NtRp3589
(dp3590
g62
(dp3591
sg71
g3576
sg64
(lp3592
g57
(g58
g59
NtRp3593
(dp3594
g62
(dp3595
g70
I3
ssg71
g3589
sg64
(lp3596
S''
asbasbasbag57
(g73
g59
NtRp3597
(dp3598
g62
(dp3599
sg71
g3152
sg64
(lp3600
g57
(g78
g59
NtRp3601
(dp3602
g62
(dp3603
g82
g83
ssg71
g3597
sg64
(lp3604
S'SERVER_NAME'
p3605
asbag57
(g78
g59
NtRp3606
(dp3607
g62
(dp3608
g89
g90
ssg71
g3597
sg64
(lp3609
S':'
asbag57
(g78
g59
NtRp3610
(dp3611
g62
(dp3612
sg71
g3597
sg64
(lp3613
g57
(g58
g59
NtRp3614
(dp3615
g62
(dp3616
g70
I3
ssg71
g3610
sg64
(lp3617
g1872
asbasbasbag57
(g73
g59
NtRp3618
(dp3619
g62
(dp3620
sg71
g3152
sg64
(lp3621
g57
(g78
g59
NtRp3622
(dp3623
g62
(dp3624
g82
g83
ssg71
g3618
sg64
(lp3625
S'SERVER_PORT'
p3626
asbag57
(g78
g59
NtRp3627
(dp3628
g62
(dp3629
g89
g90
ssg71
g3618
sg64
(lp3630
S':'
asbag57
(g78
g59
NtRp3631
(dp3632
g62
(dp3633
sg71
g3618
sg64
(lp3634
g57
(g58
g59
NtRp3635
(dp3636
g62
(dp3637
g70
I3
ssg71
g3631
sg64
(lp3638
g1894
asbasbasbag57
(g73
g59
NtRp3639
(dp3640
g62
(dp3641
sg71
g3152
sg64
(lp3642
g57
(g78
g59
NtRp3643
(dp3644
g62
(dp3645
g82
g83
ssg71
g3639
sg64
(lp3646
S'SERVER_PROTOCOL'
p3647
asbag57
(g78
g59
NtRp3648
(dp3649
g62
(dp3650
g89
g90
ssg71
g3639
sg64
(lp3651
S':'
asbag57
(g78
g59
NtRp3652
(dp3653
g62
(dp3654
sg71
g3639
sg64
(lp3655
g57
(g58
g59
NtRp3656
(dp3657
g62
(dp3658
g70
I3
ssg71
g3652
sg64
(lp3659
g1916
asbasbasbag57
(g73
g59
NtRp3660
(dp3661
g62
(dp3662
sg71
g3152
sg64
(lp3663
g57
(g78
g59
NtRp3664
(dp3665
g62
(dp3666
g82
g83
ssg71
g3660
sg64
(lp3667
S'SERVER_SOFTWARE'
p3668
asbag57
(g78
g59
NtRp3669
(dp3670
g62
(dp3671
g89
g90
ssg71
g3660
sg64
(lp3672
S':'
asbag57
(g78
g59
NtRp3673
(dp3674
g62
(dp3675
sg71
g3660
sg64
(lp3676
g57
(g58
g59
NtRp3677
(dp3678
g62
(dp3679
g70
I3
ssg71
g3673
sg64
(lp3680
g1938
asbasbasbag57
(g73
g59
NtRp3681
(dp3682
g62
(dp3683
sg71
g3152
sg64
(lp3684
g57
(g78
g59
NtRp3685
(dp3686
g62
(dp3687
g82
g83
ssg71
g3681
sg64
(lp3688
S'wsgi.errors'
p3689
asbag57
(g78
g59
NtRp3690
(dp3691
g62
(dp3692
g89
g90
ssg71
g3681
sg64
(lp3693
S':'
asbag57
(g78
g59
NtRp3694
(dp3695
g62
(dp3696
sg71
g3681
sg64
(lp3697
g57
(g58
g59
NtRp3698
(dp3699
g62
(dp3700
g70
I3
ssg71
g3694
sg64
(lp3701
S"<open file '<stderr>', mode 'w' at 0xb73830d0>"
p3702
asbasbasbag57
(g73
g59
NtRp3703
(dp3704
g62
(dp3705
sg71
g3152
sg64
(lp3706
g57
(g78
g59
NtRp3707
(dp3708
g62
(dp3709
g82
g83
ssg71
g3703
sg64
(lp3710
S'wsgi.file_wrapper'
p3711
asbag57
(g78
g59
NtRp3712
(dp3713
g62
(dp3714
g89
g90
ssg71
g3703
sg64
(lp3715
S':'
asbag57
(g78
g59
NtRp3716
(dp3717
g62
(dp3718
sg71
g3703
sg64
(lp3719
g57
(g58
g59
NtRp3720
(dp3721
g62
(dp3722
g70
I3
ssg71
g3716
sg64
(lp3723
S'<class wsgiref.util.FileWrapper at 0x92dfaac>'
p3724
asbasbasbag57
(g73
g59
NtRp3725
(dp3726
g62
(dp3727
sg71
g3152
sg64
(lp3728
g57
(g78
g59
NtRp3729
(dp3730
g62
(dp3731
g82
g83
ssg71
g3725
sg64
(lp3732
S'wsgi.input'
p3733
asbag57
(g78
g59
NtRp3734
(dp3735
g62
(dp3736
g89
g90
ssg71
g3725
sg64
(lp3737
S':'
asbag57
(g78
g59
NtRp3738
(dp3739
g62
(dp3740
sg71
g3725
sg64
(lp3741
g57
(g58
g59
NtRp3742
(dp3743
g62
(dp3744
g70
I3
ssg71
g3738
sg64
(lp3745
S"<open file '<fdopen>', mode 'w+b' at 0xa02be38>"
p3746
asbasbasbag57
(g73
g59
NtRp3747
(dp3748
g62
(dp3749
sg71
g3152
sg64
(lp3750
g57
(g78
g59
NtRp3751
(dp3752
g62
(dp3753
g82
g83
ssg71
g3747
sg64
(lp3754
S'wsgi.multiprocess'
p3755
asbag57
(g78
g59
NtRp3756
(dp3757
g62
(dp3758
g89
g90
ssg71
g3747
sg64
(lp3759
S':'
asbag57
(g78
g59
NtRp3760
(dp3761
g62
(dp3762
sg71
g3747
sg64
(lp3763
g57
(g58
g59
NtRp3764
(dp3765
g62
(dp3766
g70
I3
ssg71
g3760
sg64
(lp3767
g100
asbasbasbag57
(g73
g59
NtRp3768
(dp3769
g62
(dp3770
sg71
g3152
sg64
(lp3771
g57
(g78
g59
NtRp3772
(dp3773
g62
(dp3774
g82
g83
ssg71
g3768
sg64
(lp3775
S'wsgi.multithread'
p3776
asbag57
(g78
g59
NtRp3777
(dp3778
g62
(dp3779
g89
g90
ssg71
g3768
sg64
(lp3780
S':'
asbag57
(g78
g59
NtRp3781
(dp3782
g62
(dp3783
sg71
g3768
sg64
(lp3784
g57
(g58
g59
NtRp3785
(dp3786
g62
(dp3787
g70
I3
ssg71
g3781
sg64
(lp3788
g2178
asbasbasbag57
(g73
g59
NtRp3789
(dp3790
g62
(dp3791
sg71
g3152
sg64
(lp3792
g57
(g78
g59
NtRp3793
(dp3794
g62
(dp3795
g82
g83
ssg71
g3789
sg64
(lp3796
S'wsgi.run_once'
p3797
asbag57
(g78
g59
NtRp3798
(dp3799
g62
(dp3800
g89
g90
ssg71
g3789
sg64
(lp3801
S':'
asbag57
(g78
g59
NtRp3802
(dp3803
g62
(dp3804
sg71
g3789
sg64
(lp3805
g57
(g58
g59
NtRp3806
(dp3807
g62
(dp3808
g70
I3
ssg71
g3802
sg64
(lp3809
g100
asbasbasbag57
(g73
g59
NtRp3810
(dp3811
g62
(dp3812
sg71
g3152
sg64
(lp3813
g57
(g78
g59
NtRp3814
(dp3815
g62
(dp3816
g82
g83
ssg71
g3810
sg64
(lp3817
S'wsgi.url_scheme'
p3818
asbag57
(g78
g59
NtRp3819
(dp3820
g62
(dp3821
g89
g90
ssg71
g3810
sg64
(lp3822
S':'
asbag57
(g78
g59
NtRp3823
(dp3824
g62
(dp3825
sg71
g3810
sg64
(lp3826
g57
(g58
g59
NtRp3827
(dp3828
g62
(dp3829
g70
I3
ssg71
g3823
sg64
(lp3830
g2221
asbasbasbag57
(g73
g59
NtRp3831
(dp3832
g62
(dp3833
sg71
g3152
sg64
(lp3834
g57
(g78
g59
NtRp3835
(dp3836
g62
(dp3837
g82
g83
ssg71
g3831
sg64
(lp3838
S'wsgi.version'
p3839
asbag57
(g78
g59
NtRp3840
(dp3841
g62
(dp3842
g89
g90
ssg71
g3831
sg64
(lp3843
S':'
asbag57
(g78
g59
NtRp3844
(dp3845
g62
(dp3846
sg71
g3831
sg64
(lp3847
g57
(g58
g59
NtRp3848
(dp3849
g62
(dp3850
g70
I3
ssg71
g3844
sg64
(lp3851
S'1'
asbasbasbasbasbasbasbasbasbasbasbasbasbsS'frames'
p3852
(lp3853
(dp3854
S'file'
p3855
S'/home/tls-sanjeet/Desktop/HRMS/web2py/gluon/restricted.py'
p3856
sS'dump'
p3857
(dp3858
S'environment'
p3859
S"{'A': <class 'gluon.html.A'>, 'Auth': <class 'gluon.tools.Auth'>, 'B': <class 'gluon.html.B'>, 'BEAUTIFY': <class 'gluon.html.BEAUTIFY'>, 'BODY': <class 'gluon.html.BODY'>, 'BR': <class 'gluon.html.BR'>, 'BUTTON': <class 'gluon.html.BUTTON'>, 'CAT': <class 'gluon.html.CAT'>, 'CENTER': <class 'gluon.html.CENTER'>, 'CLEANUP': <class 'gluon.validators.CLEANUP'>, ...}"
p3860
sS'ccode'
p3861
S'<code object <module> at 0x9816f98, file "/home/...hrms/views/default/emp_apply_leave.html", line 1>'
p3862
ssS'lnum'
p3863
I205
sS'lines'
p3864
(dp3865
I200
S'    try:'
p3866
sI201
S'        if type(code) == types.CodeType:'
p3867
sI202
S'            ccode = code'
p3868
sI203
S'        else:'
p3869
sI204
S'            ccode = compile2(code,layer)'
p3870
sI205
S'        exec ccode in environment'
p3871
sI206
S'    except HTTP:'
p3872
sI207
S'        raise'
p3873
sI208
S'    except RestrictedError:'
p3874
sI209
S'        # do not encapsulate (obfuscate) the original RestrictedError'
p3875
ssS'call'
p3876
S'(code=r"left_sidebar_enabled,right_sidebar_enabled=True,...ponse.write(\'\\n</body>\\n</html>\\n\', escape=False)", environment={\'A\': <class \'gluon.html.A\'>, \'Auth\': <class \'gluon.tools.Auth\'>, \'B\': <class \'gluon.html.B\'>, \'BEAUTIFY\': <class \'gluon.html.BEAUTIFY\'>, \'BODY\': <class \'gluon.html.BODY\'>, \'BR\': <class \'gluon.html.BR\'>, \'BUTTON\': <class \'gluon.html.BUTTON\'>, \'CAT\': <class \'gluon.html.CAT\'>, \'CENTER\': <class \'gluon.html.CENTER\'>, \'CLEANUP\': <class \'gluon.validators.CLEANUP\'>, ...}, layer=\'/home/tls-sanjeet/Desktop/HRMS/web2py/applications/themishrms/views/default/emp_apply_leave.html\')'
p3877
sS'func'
p3878
S'restricted'
p3879
sa(dp3880
g3855
S'/home/tls-sanjeet/Desktop/HRMS/web2py/applications/themishrms/views/default/emp_apply_leave.html'
p3881
sg3857
(dp3882
sg3863
I75
sg3864
(dp3883
I66
S"response.write(MENU(response.tlsmenu, _class='mobile-menu' if is_mobile else 'sf-menu',mobile=is_mobile))"
p3884
sI67
S'response.write(\'</div>\\n\\t\\t</div>\\n        </div>\\n      </div>\\n    </div><!-- topbar -->   \\n    <div class="flash">\', escape=False)'
p3885
sI68
S"response.write(response.flash or '')"
p3886
sI69
S'response.write(\'</div>\\n    <div class="header">\\n    <div class="container">\\n\\t<div id="logo"></div>\\n               \\n        <div class="sixteen columns">\\n\\t\\t  <div id="projtstatus">\\n\\t\\t  Project Status\\n\\t\\t  </div>\\n        </div>\\n        <div class="sixteen columns">\\n        </div>\\n      </div>\\n    </div>\\n    <div class="main">\\n      <div class="container">                 \\n        \', escape=False)'
p3887
sI70
S'if left_sidebar_enabled:'
p3888
sI71
S'    response.write(\'\\n        <div class="four columns left-sidebar">\\n          \', escape=False)'
p3889
sI72
S'    response.write(\'\\n\\t\\t\\t\\t<div id="esidebar">\\n\\t\\t\\t\\t\\t<a href="\', escape=False)'
p3890
sI73
S"    response.write(URL('default','employee'))"
p3891
sI74
S'    response.write(\'">Dashboard</a>\\n\\t\\t\\t\\t\\t<div id="photo"><img width="100px" src="\', escape=False)'
p3892
sI75
S"    response.write(URL('download', args=images))"
p3893
sI76
S'    response.write(\'" />\\n\\t\\t\\t\\t\\t<div style="margin-top:-5px;">\', escape=False)'
p3894
sI77
S"    response.write(A(T('Update Image'),_href=URL('emp_update_image')))"
p3895
sI78
S'    response.write(\'</div>\\n\\t\\t\\t\\t</div>\\n\\t\\t\\t\\t<br>\\n\\t\\t\\t\\t<div id="navigation">\\n   \\t\\t\\t\\t <ul class="top-level">\\n        \\t\\t\\t\\t<li><a href="\', escape=False)'
p3896
sI79
S"    response.write(URL('default','emp_myprofile'))"
p3897
sI80
S'    response.write(\'">My Profile</a></li>\\n        \\t\\t\\t\\t<li><a href="\', escape=False)'
p3898
sI81
S"    response.write(URL('default','emp_leavecalendar'))"
p3899
sI82
S'    response.write(\'">Calendar</a>\\n        \\t\\t\\t\\t\\t<ul class="sub-level">\\n                \\t\\t\\t\\t<li><a href="\', escape=False)'
p3900
sI83
S"    response.write(URL('default','emp_leavecalendar'))"
p3901
sI84
S'    response.write(\'">Leave Calendar</a></li>\\n\\t\\t  \\t\\t\\t\\t\\t\\t\\t<li><a href="\', escape=False)'
p3902
sI85
S"    response.write(URL('default','emp_calendar'))"
p3903
ssg3876
S'()'
p3904
sg3878
S'<module>'
p3905
sasS'pyver'
p3906
S'Python 2.6.5: /usr/bin/python'
p3907
sS'session'
p3908
g57
(g58
g59
NtRp3909
(dp3910
g62
(dp3911
sg64
(lp3912
g57
(g66
g59
NtRp3913
(dp3914
g62
(dp3915
g70
I5
ssg71
Nsg64
(lp3916
g57
(g73
g59
NtRp3917
(dp3918
g62
(dp3919
sg71
g3913
sg64
(lp3920
g57
(g78
g59
NtRp3921
(dp3922
g62
(dp3923
g82
g83
ssg71
g3917
sg64
(lp3924
S'auth'
p3925
asbag57
(g78
g59
NtRp3926
(dp3927
g62
(dp3928
g89
g90
ssg71
g3917
sg64
(lp3929
S':'
asbag57
(g78
g59
NtRp3930
(dp3931
g62
(dp3932
sg71
g3917
sg64
(lp3933
g57
(g58
g59
NtRp3934
(dp3935
g62
(dp3936
g70
I5
ssg71
g3930
sg64
(lp3937
g57
(g66
g59
NtRp3938
(dp3939
g62
(dp3940
g70
I4
ssg71
Nsg64
(lp3941
g57
(g73
g59
NtRp3942
(dp3943
g62
(dp3944
sg71
g3938
sg64
(lp3945
g57
(g78
g59
NtRp3946
(dp3947
g62
(dp3948
g82
g83
ssg71
g3942
sg64
(lp3949
S'expiration'
p3950
asbag57
(g78
g59
NtRp3951
(dp3952
g62
(dp3953
g89
g90
ssg71
g3942
sg64
(lp3954
S':'
asbag57
(g78
g59
NtRp3955
(dp3956
g62
(dp3957
sg71
g3942
sg64
(lp3958
g57
(g58
g59
NtRp3959
(dp3960
g62
(dp3961
g70
I4
ssg71
g3955
sg64
(lp3962
S'3600'
p3963
asbasbasbag57
(g73
g59
NtRp3964
(dp3965
g62
(dp3966
sg71
g3938
sg64
(lp3967
g57
(g78
g59
NtRp3968
(dp3969
g62
(dp3970
g82
g83
ssg71
g3964
sg64
(lp3971
S'hmac_key'
p3972
asbag57
(g78
g59
NtRp3973
(dp3974
g62
(dp3975
g89
g90
ssg71
g3964
sg64
(lp3976
S':'
asbag57
(g78
g59
NtRp3977
(dp3978
g62
(dp3979
sg71
g3964
sg64
(lp3980
g57
(g58
g59
NtRp3981
(dp3982
g62
(dp3983
g70
I4
ssg71
g3977
sg64
(lp3984
S'faff634e-1a63-47e1-9d16-f879c8cc0362'
p3985
asbasbasbag57
(g73
g59
NtRp3986
(dp3987
g62
(dp3988
sg71
g3938
sg64
(lp3989
g57
(g78
g59
NtRp3990
(dp3991
g62
(dp3992
g82
g83
ssg71
g3986
sg64
(lp3993
S'last_visit'
p3994
asbag57
(g78
g59
NtRp3995
(dp3996
g62
(dp3997
g89
g90
ssg71
g3986
sg64
(lp3998
S':'
asbag57
(g78
g59
NtRp3999
(dp4000
g62
(dp4001
sg71
g3986
sg64
(lp4002
g57
(g58
g59
NtRp4003
(dp4004
g62
(dp4005
g70
I4
ssg71
g3999
sg64
(lp4006
S'datetime.datetime(2012, 4, 26, 12, 55, 5, 637931)'
p4007
asbasbasbag57
(g73
g59
NtRp4008
(dp4009
g62
(dp4010
sg71
g3938
sg64
(lp4011
g57
(g78
g59
NtRp4012
(dp4013
g62
(dp4014
g82
g83
ssg71
g4008
sg64
(lp4015
S'remember'
p4016
asbag57
(g78
g59
NtRp4017
(dp4018
g62
(dp4019
g89
g90
ssg71
g4008
sg64
(lp4020
S':'
asbag57
(g78
g59
NtRp4021
(dp4022
g62
(dp4023
sg71
g4008
sg64
(lp4024
g57
(g58
g59
NtRp4025
(dp4026
g62
(dp4027
g70
I4
ssg71
g4021
sg64
(lp4028
g100
asbasbasbag57
(g73
g59
NtRp4029
(dp4030
g62
(dp4031
sg71
g3938
sg64
(lp4032
g57
(g78
g59
NtRp4033
(dp4034
g62
(dp4035
g82
g83
ssg71
g4029
sg64
(lp4036
S'user'
p4037
asbag57
(g78
g59
NtRp4038
(dp4039
g62
(dp4040
g89
g90
ssg71
g4029
sg64
(lp4041
S':'
asbag57
(g78
g59
NtRp4042
(dp4043
g62
(dp4044
sg71
g4029
sg64
(lp4045
g57
(g58
g59
NtRp4046
(dp4047
g62
(dp4048
g70
I4
ssg71
g4042
sg64
(lp4049
g57
(g66
g59
NtRp4050
(dp4051
g62
(dp4052
g70
I3
ssg71
Nsg64
(lp4053
g57
(g73
g59
NtRp4054
(dp4055
g62
(dp4056
sg71
g4050
sg64
(lp4057
g57
(g78
g59
NtRp4058
(dp4059
g62
(dp4060
g82
g83
ssg71
g4054
sg64
(lp4061
S'date_of_exit'
p4062
asbag57
(g78
g59
NtRp4063
(dp4064
g62
(dp4065
g89
g90
ssg71
g4054
sg64
(lp4066
S':'
asbag57
(g78
g59
NtRp4067
(dp4068
g62
(dp4069
sg71
g4054
sg64
(lp4070
g57
(g58
g59
NtRp4071
(dp4072
g62
(dp4073
g70
I3
ssg71
g4067
sg64
(lp4074
S'None'
p4075
asbasbasbag57
(g73
g59
NtRp4076
(dp4077
g62
(dp4078
sg71
g4050
sg64
(lp4079
g57
(g78
g59
NtRp4080
(dp4081
g62
(dp4082
g82
g83
ssg71
g4076
sg64
(lp4083
S'date_of_joining'
p4084
asbag57
(g78
g59
NtRp4085
(dp4086
g62
(dp4087
g89
g90
ssg71
g4076
sg64
(lp4088
S':'
asbag57
(g78
g59
NtRp4089
(dp4090
g62
(dp4091
sg71
g4076
sg64
(lp4092
g57
(g58
g59
NtRp4093
(dp4094
g62
(dp4095
g70
I3
ssg71
g4089
sg64
(lp4096
S'datetime.date(2012, 2, 1)'
p4097
asbasbasbag57
(g73
g59
NtRp4098
(dp4099
g62
(dp4100
sg71
g4050
sg64
(lp4101
g57
(g78
g59
NtRp4102
(dp4103
g62
(dp4104
g82
g83
ssg71
g4098
sg64
(lp4105
S'department'
p4106
asbag57
(g78
g59
NtRp4107
(dp4108
g62
(dp4109
g89
g90
ssg71
g4098
sg64
(lp4110
S':'
asbag57
(g78
g59
NtRp4111
(dp4112
g62
(dp4113
sg71
g4098
sg64
(lp4114
g57
(g58
g59
NtRp4115
(dp4116
g62
(dp4117
g70
I3
ssg71
g4111
sg64
(lp4118
S'Software'
p4119
asbasbasbag57
(g73
g59
NtRp4120
(dp4121
g62
(dp4122
sg71
g4050
sg64
(lp4123
g57
(g78
g59
NtRp4124
(dp4125
g62
(dp4126
g82
g83
ssg71
g4120
sg64
(lp4127
S'designation'
p4128
asbag57
(g78
g59
NtRp4129
(dp4130
g62
(dp4131
g89
g90
ssg71
g4120
sg64
(lp4132
S':'
asbag57
(g78
g59
NtRp4133
(dp4134
g62
(dp4135
sg71
g4120
sg64
(lp4136
g57
(g58
g59
NtRp4137
(dp4138
g62
(dp4139
g70
I3
ssg71
g4133
sg64
(lp4140
S'Software Developer'
p4141
asbasbasbag57
(g73
g59
NtRp4142
(dp4143
g62
(dp4144
sg71
g4050
sg64
(lp4145
g57
(g78
g59
NtRp4146
(dp4147
g62
(dp4148
g82
g83
ssg71
g4142
sg64
(lp4149
S'email'
p4150
asbag57
(g78
g59
NtRp4151
(dp4152
g62
(dp4153
g89
g90
ssg71
g4142
sg64
(lp4154
S':'
asbag57
(g78
g59
NtRp4155
(dp4156
g62
(dp4157
sg71
g4142
sg64
(lp4158
g57
(g58
g59
NtRp4159
(dp4160
g62
(dp4161
g70
I3
ssg71
g4155
sg64
(lp4162
S'prakhar.tls@gmail.com'
p4163
asbasbasbag57
(g73
g59
NtRp4164
(dp4165
g62
(dp4166
sg71
g4050
sg64
(lp4167
g57
(g78
g59
NtRp4168
(dp4169
g62
(dp4170
g82
g83
ssg71
g4164
sg64
(lp4171
S'employee_code'
p4172
asbag57
(g78
g59
NtRp4173
(dp4174
g62
(dp4175
g89
g90
ssg71
g4164
sg64
(lp4176
S':'
asbag57
(g78
g59
NtRp4177
(dp4178
g62
(dp4179
sg71
g4164
sg64
(lp4180
g57
(g58
g59
NtRp4181
(dp4182
g62
(dp4183
g70
I3
ssg71
g4177
sg64
(lp4184
S'tls001'
p4185
asbasbasbag57
(g73
g59
NtRp4186
(dp4187
g62
(dp4188
sg71
g4050
sg64
(lp4189
g57
(g78
g59
NtRp4190
(dp4191
g62
(dp4192
g82
g83
ssg71
g4186
sg64
(lp4193
S'employee_status'
p4194
asbag57
(g78
g59
NtRp4195
(dp4196
g62
(dp4197
g89
g90
ssg71
g4186
sg64
(lp4198
S':'
asbag57
(g78
g59
NtRp4199
(dp4200
g62
(dp4201
sg71
g4186
sg64
(lp4202
g57
(g58
g59
NtRp4203
(dp4204
g62
(dp4205
g70
I3
ssg71
g4199
sg64
(lp4206
S'Active'
p4207
asbasbasbag57
(g73
g59
NtRp4208
(dp4209
g62
(dp4210
sg71
g4050
sg64
(lp4211
g57
(g78
g59
NtRp4212
(dp4213
g62
(dp4214
g82
g83
ssg71
g4208
sg64
(lp4215
S'exit_remark'
p4216
asbag57
(g78
g59
NtRp4217
(dp4218
g62
(dp4219
g89
g90
ssg71
g4208
sg64
(lp4220
S':'
asbag57
(g78
g59
NtRp4221
(dp4222
g62
(dp4223
sg71
g4208
sg64
(lp4224
g57
(g58
g59
NtRp4225
(dp4226
g62
(dp4227
g70
I3
ssg71
g4221
sg64
(lp4228
S'None'
p4229
asbasbasbag57
(g73
g59
NtRp4230
(dp4231
g62
(dp4232
sg71
g4050
sg64
(lp4233
g57
(g78
g59
NtRp4234
(dp4235
g62
(dp4236
g82
g83
ssg71
g4230
sg64
(lp4237
S'first_name'
p4238
asbag57
(g78
g59
NtRp4239
(dp4240
g62
(dp4241
g89
g90
ssg71
g4230
sg64
(lp4242
S':'
asbag57
(g78
g59
NtRp4243
(dp4244
g62
(dp4245
sg71
g4230
sg64
(lp4246
g57
(g58
g59
NtRp4247
(dp4248
g62
(dp4249
g70
I3
ssg71
g4243
sg64
(lp4250
S'Prakhar'
p4251
asbasbasbag57
(g73
g59
NtRp4252
(dp4253
g62
(dp4254
sg71
g4050
sg64
(lp4255
g57
(g78
g59
NtRp4256
(dp4257
g62
(dp4258
g82
g83
ssg71
g4252
sg64
(lp4259
S'id'
p4260
asbag57
(g78
g59
NtRp4261
(dp4262
g62
(dp4263
g89
g90
ssg71
g4252
sg64
(lp4264
S':'
asbag57
(g78
g59
NtRp4265
(dp4266
g62
(dp4267
sg71
g4252
sg64
(lp4268
g57
(g58
g59
NtRp4269
(dp4270
g62
(dp4271
g70
I3
ssg71
g4265
sg64
(lp4272
S'2'
asbasbasbag57
(g73
g59
NtRp4273
(dp4274
g62
(dp4275
sg71
g4050
sg64
(lp4276
g57
(g78
g59
NtRp4277
(dp4278
g62
(dp4279
g82
g83
ssg71
g4273
sg64
(lp4280
S'last_name'
p4281
asbag57
(g78
g59
NtRp4282
(dp4283
g62
(dp4284
g89
g90
ssg71
g4273
sg64
(lp4285
S':'
asbag57
(g78
g59
NtRp4286
(dp4287
g62
(dp4288
sg71
g4273
sg64
(lp4289
g57
(g58
g59
NtRp4290
(dp4291
g62
(dp4292
g70
I3
ssg71
g4286
sg64
(lp4293
S'Srivastava'
p4294
asbasbasbag57
(g73
g59
NtRp4295
(dp4296
g62
(dp4297
sg71
g4050
sg64
(lp4298
g57
(g78
g59
NtRp4299
(dp4300
g62
(dp4301
g82
g83
ssg71
g4295
sg64
(lp4302
S'location'
p4303
asbag57
(g78
g59
NtRp4304
(dp4305
g62
(dp4306
g89
g90
ssg71
g4295
sg64
(lp4307
S':'
asbag57
(g78
g59
NtRp4308
(dp4309
g62
(dp4310
sg71
g4295
sg64
(lp4311
g57
(g58
g59
NtRp4312
(dp4313
g62
(dp4314
g70
I3
ssg71
g4308
sg64
(lp4315
S'Bangalore'
p4316
asbasbasbag57
(g73
g59
NtRp4317
(dp4318
g62
(dp4319
sg71
g4050
sg64
(lp4320
g57
(g78
g59
NtRp4321
(dp4322
g62
(dp4323
g82
g83
ssg71
g4317
sg64
(lp4324
S'organization_name'
p4325
asbag57
(g78
g59
NtRp4326
(dp4327
g62
(dp4328
g89
g90
ssg71
g4317
sg64
(lp4329
S':'
asbag57
(g78
g59
NtRp4330
(dp4331
g62
(dp4332
sg71
g4317
sg64
(lp4333
g57
(g58
g59
NtRp4334
(dp4335
g62
(dp4336
g70
I3
ssg71
g4330
sg64
(lp4337
S'Themis Lexsol'
p4338
asbasbasbag57
(g73
g59
NtRp4339
(dp4340
g62
(dp4341
sg71
g4050
sg64
(lp4342
g57
(g78
g59
NtRp4343
(dp4344
g62
(dp4345
g82
g83
ssg71
g4339
sg64
(lp4346
S'password'
p4347
asbag57
(g78
g59
NtRp4348
(dp4349
g62
(dp4350
g89
g90
ssg71
g4339
sg64
(lp4351
S':'
asbag57
(g78
g59
NtRp4352
(dp4353
g62
(dp4354
sg71
g4339
sg64
(lp4355
g57
(g58
g59
NtRp4356
(dp4357
g62
(dp4358
g70
I3
ssg71
g4352
sg64
(lp4359
S'3b00954a2acd03e4a32d91f4bdebb4b7'
p4360
asbasbasbag57
(g73
g59
NtRp4361
(dp4362
g62
(dp4363
sg71
g4050
sg64
(lp4364
g57
(g78
g59
NtRp4365
(dp4366
g62
(dp4367
g82
g83
ssg71
g4361
sg64
(lp4368
S'personal_email'
p4369
asbag57
(g78
g59
NtRp4370
(dp4371
g62
(dp4372
g89
g90
ssg71
g4361
sg64
(lp4373
S':'
asbag57
(g78
g59
NtRp4374
(dp4375
g62
(dp4376
sg71
g4361
sg64
(lp4377
g57
(g58
g59
NtRp4378
(dp4379
g62
(dp4380
g70
I3
ssg71
g4374
sg64
(lp4381
S'prakharsrivas@gmail.com'
p4382
asbasbasbag57
(g73
g59
NtRp4383
(dp4384
g62
(dp4385
sg71
g4050
sg64
(lp4386
g57
(g78
g59
NtRp4387
(dp4388
g62
(dp4389
g82
g83
ssg71
g4383
sg64
(lp4390
S'registration_id'
p4391
asbag57
(g78
g59
NtRp4392
(dp4393
g62
(dp4394
g89
g90
ssg71
g4383
sg64
(lp4395
S':'
asbag57
(g78
g59
NtRp4396
(dp4397
g62
(dp4398
sg71
g4383
sg64
(lp4399
g57
(g58
g59
NtRp4400
(dp4401
g62
(dp4402
g70
I3
ssg71
g4396
sg64
(lp4403
S''
asbasbasbag57
(g73
g59
NtRp4404
(dp4405
g62
(dp4406
sg71
g4050
sg64
(lp4407
g57
(g78
g59
NtRp4408
(dp4409
g62
(dp4410
g82
g83
ssg71
g4404
sg64
(lp4411
S'registration_key'
p4412
asbag57
(g78
g59
NtRp4413
(dp4414
g62
(dp4415
g89
g90
ssg71
g4404
sg64
(lp4416
S':'
asbag57
(g78
g59
NtRp4417
(dp4418
g62
(dp4419
sg71
g4404
sg64
(lp4420
g57
(g58
g59
NtRp4421
(dp4422
g62
(dp4423
g70
I3
ssg71
g4417
sg64
(lp4424
S''
asbasbasbag57
(g73
g59
NtRp4425
(dp4426
g62
(dp4427
sg71
g4050
sg64
(lp4428
g57
(g78
g59
NtRp4429
(dp4430
g62
(dp4431
g82
g83
ssg71
g4425
sg64
(lp4432
S'reporting_manager'
p4433
asbag57
(g78
g59
NtRp4434
(dp4435
g62
(dp4436
g89
g90
ssg71
g4425
sg64
(lp4437
S':'
asbag57
(g78
g59
NtRp4438
(dp4439
g62
(dp4440
sg71
g4425
sg64
(lp4441
g57
(g58
g59
NtRp4442
(dp4443
g62
(dp4444
g70
I3
ssg71
g4438
sg64
(lp4445
S'admin@themislexsol.com'
p4446
asbasbasbag57
(g73
g59
NtRp4447
(dp4448
g62
(dp4449
sg71
g4050
sg64
(lp4450
g57
(g78
g59
NtRp4451
(dp4452
g62
(dp4453
g82
g83
ssg71
g4447
sg64
(lp4454
S'reset_password_key'
p4455
asbag57
(g78
g59
NtRp4456
(dp4457
g62
(dp4458
g89
g90
ssg71
g4447
sg64
(lp4459
S':'
asbag57
(g78
g59
NtRp4460
(dp4461
g62
(dp4462
sg71
g4447
sg64
(lp4463
g57
(g58
g59
NtRp4464
(dp4465
g62
(dp4466
g70
I3
ssg71
g4460
sg64
(lp4467
S''
asbasbasbasbasbasbasbag57
(g73
g59
NtRp4468
(dp4469
g62
(dp4470
sg71
g3938
sg64
(lp4471
g57
(g78
g59
NtRp4472
(dp4473
g62
(dp4474
g82
g83
ssg71
g4468
sg64
(lp4475
S'user_groups'
p4476
asbag57
(g78
g59
NtRp4477
(dp4478
g62
(dp4479
g89
g90
ssg71
g4468
sg64
(lp4480
S':'
asbag57
(g78
g59
NtRp4481
(dp4482
g62
(dp4483
sg71
g4468
sg64
(lp4484
g57
(g58
g59
NtRp4485
(dp4486
g62
(dp4487
g70
I4
ssg71
g4481
sg64
(lp4488
g57
(g66
g59
NtRp4489
(dp4490
g62
(dp4491
g70
I3
ssg71
Nsg64
(lp4492
g57
(g73
g59
NtRp4493
(dp4494
g62
(dp4495
sg71
g4489
sg64
(lp4496
g57
(g78
g59
NtRp4497
(dp4498
g62
(dp4499
g82
g83
ssg71
g4493
sg64
(lp4500
S'2'
asbag57
(g78
g59
NtRp4501
(dp4502
g62
(dp4503
g89
g90
ssg71
g4493
sg64
(lp4504
S':'
asbag57
(g78
g59
NtRp4505
(dp4506
g62
(dp4507
sg71
g4493
sg64
(lp4508
g57
(g58
g59
NtRp4509
(dp4510
g62
(dp4511
g70
I3
ssg71
g4505
sg64
(lp4512
S'Emp'
p4513
asbasbasbasbasbasbasbasbasbasbasbag57
(g73
g59
NtRp4514
(dp4515
g62
(dp4516
sg71
g3913
sg64
(lp4517
g57
(g78
g59
NtRp4518
(dp4519
g62
(dp4520
g82
g83
ssg71
g4514
sg64
(lp4521
S'last_query'
p4522
asbag57
(g78
g59
NtRp4523
(dp4524
g62
(dp4525
g89
g90
ssg71
g4514
sg64
(lp4526
S':'
asbag57
(g78
g59
NtRp4527
(dp4528
g62
(dp4529
sg71
g4514
sg64
(lp4530
g57
(g58
g59
NtRp4531
(dp4532
g62
(dp4533
g70
I5
ssg71
g4527
sg64
(lp4534
S'db.auth_permission.id>0'
p4535
asbasbasbag57
(g73
g59
NtRp4536
(dp4537
g62
(dp4538
sg71
g3913
sg64
(lp4539
g57
(g78
g59
NtRp4540
(dp4541
g62
(dp4542
g82
g83
ssg71
g4536
sg64
(lp4543
S'starttime'
p4544
asbag57
(g78
g59
NtRp4545
(dp4546
g62
(dp4547
g89
g90
ssg71
g4536
sg64
(lp4548
S':'
asbag57
(g78
g59
NtRp4549
(dp4550
g62
(dp4551
sg71
g4536
sg64
(lp4552
g57
(g58
g59
NtRp4553
(dp4554
g62
(dp4555
g70
I5
ssg71
g4549
sg64
(lp4556
S'datetime.datetime(2012, 4, 26, 11, 57, 35, 903189)'
p4557
asbasbasbag57
(g73
g59
NtRp4558
(dp4559
g62
(dp4560
sg71
g3913
sg64
(lp4561
g57
(g78
g59
NtRp4562
(dp4563
g62
(dp4564
g82
g83
ssg71
g4558
sg64
(lp4565
S'time'
p4566
asbag57
(g78
g59
NtRp4567
(dp4568
g62
(dp4569
g89
g90
ssg71
g4558
sg64
(lp4570
S':'
asbag57
(g78
g59
NtRp4571
(dp4572
g62
(dp4573
sg71
g4558
sg64
(lp4574
g57
(g58
g59
NtRp4575
(dp4576
g62
(dp4577
g70
I5
ssg71
g4571
sg64
(lp4578
S'11:57:35'
p4579
asbasbasbasbasbsS'etype'
p4580
S"<type 'exceptions.NameError'>"
p4581
sS'date'
p4582
S'Thu Apr 26 12:55:05 2012'
p4583
sS'response'
p4584
g57
(g58
g59
NtRp4585
(dp4586
g62
(dp4587
sg64
(lp4588
g57
(g66
g59
NtRp4589
(dp4590
g62
(dp4591
g70
I5
ssg71
Nsg64
(lp4592
g57
(g73
g59
NtRp4593
(dp4594
g62
(dp4595
sg71
g4589
sg64
(lp4596
g57
(g78
g59
NtRp4597
(dp4598
g62
(dp4599
g82
g83
ssg71
g4593
sg64
(lp4600
S'atlsmenu'
p4601
asbag57
(g78
g59
NtRp4602
(dp4603
g62
(dp4604
g89
g90
ssg71
g4593
sg64
(lp4605
S':'
asbag57
(g78
g59
NtRp4606
(dp4607
g62
(dp4608
sg71
g4593
sg64
(lp4609
g57
(g58
g59
NtRp4610
(dp4611
g62
(dp4612
g70
I5
ssg71
g4606
sg64
(lp4613
g57
(g66
g59
NtRp4614
(dp4615
g62
(dp4616
g70
I4
ssg71
Nsg64
(lp4617
g57
(g73
g59
NtRp4618
(dp4619
g62
(dp4620
sg71
g4614
sg64
(lp4621
g57
(g78
g59
NtRp4622
(dp4623
g62
(dp4624
sg71
g4618
sg64
(lp4625
g57
(g58
g59
NtRp4626
(dp4627
g62
(dp4628
g70
I4
ssg71
g4622
sg64
(lp4629
g57
(g66
g59
NtRp4630
(dp4631
g62
(dp4632
g70
I3
ssg71
Nsg64
(lp4633
g57
(g73
g59
NtRp4634
(dp4635
g62
(dp4636
sg71
g4630
sg64
(lp4637
g57
(g78
g59
NtRp4638
(dp4639
g62
(dp4640
sg71
g4634
sg64
(lp4641
g57
(g58
g59
NtRp4642
(dp4643
g62
(dp4644
g70
I3
ssg71
g4638
sg64
(lp4645
cgluon.languages
lazyT_unpickle
p4646
(S's\x07\x00\x00\x00Website'
tRp4647
asbasbasbag57
(g73
g59
NtRp4648
(dp4649
g62
(dp4650
sg71
g4630
sg64
(lp4651
g57
(g78
g59
NtRp4652
(dp4653
g62
(dp4654
sg71
g4648
sg64
(lp4655
g57
(g58
g59
NtRp4656
(dp4657
g62
(dp4658
g70
I3
ssg71
g4652
sg64
(lp4659
g100
asbasbasbag57
(g73
g59
NtRp4660
(dp4661
g62
(dp4662
sg71
g4630
sg64
(lp4663
g57
(g78
g59
NtRp4664
(dp4665
g62
(dp4666
sg71
g4660
sg64
(lp4667
g57
(g58
g59
NtRp4668
(dp4669
g62
(dp4670
g70
I3
ssg71
g4664
sg64
(lp4671
S'/themishrms/default/index'
p4672
asbasbasbag57
(g73
g59
NtRp4673
(dp4674
g62
(dp4675
sg71
g4630
sg64
(lp4676
g57
(g78
g59
NtRp4677
(dp4678
g62
(dp4679
sg71
g4673
sg64
(lp4680
g57
(g58
g59
NtRp4681
(dp4682
g62
(dp4683
g70
I3
ssg71
g4677
sg64
(lp4684
g57
(g66
g59
NtRp4685
(dp4686
g62
(dp4687
g70
I2
ssg71
Nsg64
(lp4688
sbasbasbasbasbasbasbasbag57
(g73
g59
NtRp4689
(dp4690
g62
(dp4691
sg71
g4614
sg64
(lp4692
g57
(g78
g59
NtRp4693
(dp4694
g62
(dp4695
sg71
g4689
sg64
(lp4696
g57
(g58
g59
NtRp4697
(dp4698
g62
(dp4699
g70
I4
ssg71
g4693
sg64
(lp4700
g57
(g66
g59
NtRp4701
(dp4702
g62
(dp4703
g70
I3
ssg71
Nsg64
(lp4704
g57
(g73
g59
NtRp4705
(dp4706
g62
(dp4707
sg71
g4701
sg64
(lp4708
g57
(g78
g59
NtRp4709
(dp4710
g62
(dp4711
sg71
g4705
sg64
(lp4712
g57
(g58
g59
NtRp4713
(dp4714
g62
(dp4715
g70
I3
ssg71
g4709
sg64
(lp4716
g4646
(S's\x07\x00\x00\x00Webmail'
tRp4717
asbasbasbag57
(g73
g59
NtRp4718
(dp4719
g62
(dp4720
sg71
g4701
sg64
(lp4721
g57
(g78
g59
NtRp4722
(dp4723
g62
(dp4724
sg71
g4718
sg64
(lp4725
g57
(g58
g59
NtRp4726
(dp4727
g62
(dp4728
g70
I3
ssg71
g4722
sg64
(lp4729
g100
asbasbasbag57
(g73
g59
NtRp4730
(dp4731
g62
(dp4732
sg71
g4701
sg64
(lp4733
g57
(g78
g59
NtRp4734
(dp4735
g62
(dp4736
sg71
g4730
sg64
(lp4737
g57
(g58
g59
NtRp4738
(dp4739
g62
(dp4740
g70
I3
ssg71
g4734
sg64
(lp4741
S'/themishrms/default/#'
p4742
asbasbasbag57
(g73
g59
NtRp4743
(dp4744
g62
(dp4745
sg71
g4701
sg64
(lp4746
g57
(g78
g59
NtRp4747
(dp4748
g62
(dp4749
sg71
g4743
sg64
(lp4750
g57
(g58
g59
NtRp4751
(dp4752
g62
(dp4753
g70
I3
ssg71
g4747
sg64
(lp4754
g57
(g66
g59
NtRp4755
(dp4756
g62
(dp4757
g70
I2
ssg71
Nsg64
(lp4758
sbasbasbasbasbasbasbasbag57
(g73
g59
NtRp4759
(dp4760
g62
(dp4761
sg71
g4614
sg64
(lp4762
g57
(g78
g59
NtRp4763
(dp4764
g62
(dp4765
sg71
g4759
sg64
(lp4766
g57
(g58
g59
NtRp4767
(dp4768
g62
(dp4769
g70
I4
ssg71
g4763
sg64
(lp4770
g57
(g66
g59
NtRp4771
(dp4772
g62
(dp4773
g70
I3
ssg71
Nsg64
(lp4774
g57
(g73
g59
NtRp4775
(dp4776
g62
(dp4777
sg71
g4771
sg64
(lp4778
g57
(g78
g59
NtRp4779
(dp4780
g62
(dp4781
sg71
g4775
sg64
(lp4782
g57
(g58
g59
NtRp4783
(dp4784
g62
(dp4785
g70
I3
ssg71
g4779
sg64
(lp4786
g4646
(S's\r\x00\x00\x00Themis Portal'
tRp4787
asbasbasbag57
(g73
g59
NtRp4788
(dp4789
g62
(dp4790
sg71
g4771
sg64
(lp4791
g57
(g78
g59
NtRp4792
(dp4793
g62
(dp4794
sg71
g4788
sg64
(lp4795
g57
(g58
g59
NtRp4796
(dp4797
g62
(dp4798
g70
I3
ssg71
g4792
sg64
(lp4799
g100
asbasbasbag57
(g73
g59
NtRp4800
(dp4801
g62
(dp4802
sg71
g4771
sg64
(lp4803
g57
(g78
g59
NtRp4804
(dp4805
g62
(dp4806
sg71
g4800
sg64
(lp4807
g57
(g58
g59
NtRp4808
(dp4809
g62
(dp4810
g70
I3
ssg71
g4804
sg64
(lp4811
S'/themishrms/default/#'
p4812
asbasbasbag57
(g73
g59
NtRp4813
(dp4814
g62
(dp4815
sg71
g4771
sg64
(lp4816
g57
(g78
g59
NtRp4817
(dp4818
g62
(dp4819
sg71
g4813
sg64
(lp4820
g57
(g58
g59
NtRp4821
(dp4822
g62
(dp4823
g70
I3
ssg71
g4817
sg64
(lp4824
g57
(g66
g59
NtRp4825
(dp4826
g62
(dp4827
g70
I2
ssg71
Nsg64
(lp4828
sbasbasbasbasbasbasbasbag57
(g73
g59
NtRp4829
(dp4830
g62
(dp4831
sg71
g4614
sg64
(lp4832
g57
(g78
g59
NtRp4833
(dp4834
g62
(dp4835
sg71
g4829
sg64
(lp4836
g57
(g58
g59
NtRp4837
(dp4838
g62
(dp4839
g70
I4
ssg71
g4833
sg64
(lp4840
g57
(g66
g59
NtRp4841
(dp4842
g62
(dp4843
g70
I3
ssg71
Nsg64
(lp4844
g57
(g73
g59
NtRp4845
(dp4846
g62
(dp4847
sg71
g4841
sg64
(lp4848
g57
(g78
g59
NtRp4849
(dp4850
g62
(dp4851
sg71
g4845
sg64
(lp4852
g57
(g58
g59
NtRp4853
(dp4854
g62
(dp4855
g70
I3
ssg71
g4849
sg64
(lp4856
g4646
(S's\x0f\x00\x00\x00Themis Policies'
tRp4857
asbasbasbag57
(g73
g59
NtRp4858
(dp4859
g62
(dp4860
sg71
g4841
sg64
(lp4861
g57
(g78
g59
NtRp4862
(dp4863
g62
(dp4864
sg71
g4858
sg64
(lp4865
g57
(g58
g59
NtRp4866
(dp4867
g62
(dp4868
g70
I3
ssg71
g4862
sg64
(lp4869
g100
asbasbasbag57
(g73
g59
NtRp4870
(dp4871
g62
(dp4872
sg71
g4841
sg64
(lp4873
g57
(g78
g59
NtRp4874
(dp4875
g62
(dp4876
sg71
g4870
sg64
(lp4877
g57
(g58
g59
NtRp4878
(dp4879
g62
(dp4880
g70
I3
ssg71
g4874
sg64
(lp4881
S'/themishrms/default/add_project'
p4882
asbasbasbag57
(g73
g59
NtRp4883
(dp4884
g62
(dp4885
sg71
g4841
sg64
(lp4886
g57
(g78
g59
NtRp4887
(dp4888
g62
(dp4889
sg71
g4883
sg64
(lp4890
g57
(g58
g59
NtRp4891
(dp4892
g62
(dp4893
g70
I3
ssg71
g4887
sg64
(lp4894
g57
(g66
g59
NtRp4895
(dp4896
g62
(dp4897
g70
I2
ssg71
Nsg64
(lp4898
sbasbasbasbasbasbasbasbag57
(g73
g59
NtRp4899
(dp4900
g62
(dp4901
sg71
g4614
sg64
(lp4902
g57
(g78
g59
NtRp4903
(dp4904
g62
(dp4905
sg71
g4899
sg64
(lp4906
g57
(g58
g59
NtRp4907
(dp4908
g62
(dp4909
g70
I4
ssg71
g4903
sg64
(lp4910
g57
(g66
g59
NtRp4911
(dp4912
g62
(dp4913
g70
I3
ssg71
Nsg64
(lp4914
g57
(g73
g59
NtRp4915
(dp4916
g62
(dp4917
sg71
g4911
sg64
(lp4918
g57
(g78
g59
NtRp4919
(dp4920
g62
(dp4921
sg71
g4915
sg64
(lp4922
g57
(g58
g59
NtRp4923
(dp4924
g62
(dp4925
g70
I3
ssg71
g4919
sg64
(lp4926
g4646
(S's\x0f\x00\x00\x00Contact Details'
tRp4927
asbasbasbag57
(g73
g59
NtRp4928
(dp4929
g62
(dp4930
sg71
g4911
sg64
(lp4931
g57
(g78
g59
NtRp4932
(dp4933
g62
(dp4934
sg71
g4928
sg64
(lp4935
g57
(g58
g59
NtRp4936
(dp4937
g62
(dp4938
g70
I3
ssg71
g4932
sg64
(lp4939
g100
asbasbasbag57
(g73
g59
NtRp4940
(dp4941
g62
(dp4942
sg71
g4911
sg64
(lp4943
g57
(g78
g59
NtRp4944
(dp4945
g62
(dp4946
sg71
g4940
sg64
(lp4947
g57
(g58
g59
NtRp4948
(dp4949
g62
(dp4950
g70
I3
ssg71
g4944
sg64
(lp4951
S'/themishrms/default/admin_contact_detail'
p4952
asbasbasbag57
(g73
g59
NtRp4953
(dp4954
g62
(dp4955
sg71
g4911
sg64
(lp4956
g57
(g78
g59
NtRp4957
(dp4958
g62
(dp4959
sg71
g4953
sg64
(lp4960
g57
(g58
g59
NtRp4961
(dp4962
g62
(dp4963
g70
I3
ssg71
g4957
sg64
(lp4964
g57
(g66
g59
NtRp4965
(dp4966
g62
(dp4967
g70
I2
ssg71
Nsg64
(lp4968
sbasbasbasbasbasbasbasbasbasbasbasbag57
(g73
g59
NtRp4969
(dp4970
g62
(dp4971
sg71
g4589
sg64
(lp4972
g57
(g78
g59
NtRp4973
(dp4974
g62
(dp4975
g82
g83
ssg71
g4969
sg64
(lp4976
g155
asbag57
(g78
g59
NtRp4977
(dp4978
g62
(dp4979
g89
g90
ssg71
g4969
sg64
(lp4980
S':'
asbag57
(g78
g59
NtRp4981
(dp4982
g62
(dp4983
sg71
g4969
sg64
(lp4984
g57
(g58
g59
NtRp4985
(dp4986
g62
(dp4987
g70
I5
ssg71
g4981
sg64
(lp4988
S'<cStringIO.StringO object at 0x99a8660>'
p4989
asbasbasbag57
(g73
g59
NtRp4990
(dp4991
g62
(dp4992
sg71
g4589
sg64
(lp4993
g57
(g78
g59
NtRp4994
(dp4995
g62
(dp4996
g82
g83
ssg71
g4990
sg64
(lp4997
g221
asbag57
(g78
g59
NtRp4998
(dp4999
g62
(dp5000
g89
g90
ssg71
g4990
sg64
(lp5001
S':'
asbag57
(g78
g59
NtRp5002
(dp5003
g62
(dp5004
sg71
g4990
sg64
(lp5005
g57
(g58
g59
NtRp5006
(dp5007
g62
(dp5008
g70
I5
ssg71
g5002
sg64
(lp5009
g57
(g66
g59
NtRp5010
(dp5011
g62
(dp5012
g70
I4
ssg71
Nsg64
(lp5013
g57
(g73
g59
NtRp5014
(dp5015
g62
(dp5016
sg71
g5010
sg64
(lp5017
g57
(g78
g59
NtRp5018
(dp5019
g62
(dp5020
g82
g83
ssg71
g5014
sg64
(lp5021
S'session_id_themishrms'
p5022
asbag57
(g78
g59
NtRp5023
(dp5024
g62
(dp5025
g89
g90
ssg71
g5014
sg64
(lp5026
S':'
asbag57
(g78
g59
NtRp5027
(dp5028
g62
(dp5029
sg71
g5014
sg64
(lp5030
g57
(g58
g59
NtRp5031
(dp5032
g62
(dp5033
g70
I4
ssg71
g5027
sg64
(lp5034
g57
(g66
g59
NtRp5035
(dp5036
g62
(dp5037
g70
I3
ssg71
Nsg64
(lp5038
g57
(g73
g59
NtRp5039
(dp5040
g62
(dp5041
sg71
g5035
sg64
(lp5042
g57
(g78
g59
NtRp5043
(dp5044
g62
(dp5045
g82
g83
ssg71
g5039
sg64
(lp5046
g271
asbag57
(g78
g59
NtRp5047
(dp5048
g62
(dp5049
g89
g90
ssg71
g5039
sg64
(lp5050
S':'
asbag57
(g78
g59
NtRp5051
(dp5052
g62
(dp5053
sg71
g5039
sg64
(lp5054
g57
(g58
g59
NtRp5055
(dp5056
g62
(dp5057
g70
I3
ssg71
g5051
sg64
(lp5058
S''
asbasbasbag57
(g73
g59
NtRp5059
(dp5060
g62
(dp5061
sg71
g5035
sg64
(lp5062
g57
(g78
g59
NtRp5063
(dp5064
g62
(dp5065
g82
g83
ssg71
g5059
sg64
(lp5066
g292
asbag57
(g78
g59
NtRp5067
(dp5068
g62
(dp5069
g89
g90
ssg71
g5059
sg64
(lp5070
S':'
asbag57
(g78
g59
NtRp5071
(dp5072
g62
(dp5073
sg71
g5059
sg64
(lp5074
g57
(g58
g59
NtRp5075
(dp5076
g62
(dp5077
g70
I3
ssg71
g5071
sg64
(lp5078
S''
asbasbasbag57
(g73
g59
NtRp5079
(dp5080
g62
(dp5081
sg71
g5035
sg64
(lp5082
g57
(g78
g59
NtRp5083
(dp5084
g62
(dp5085
g82
g83
ssg71
g5079
sg64
(lp5086
g313
asbag57
(g78
g59
NtRp5087
(dp5088
g62
(dp5089
g89
g90
ssg71
g5079
sg64
(lp5090
S':'
asbag57
(g78
g59
NtRp5091
(dp5092
g62
(dp5093
sg71
g5079
sg64
(lp5094
g57
(g58
g59
NtRp5095
(dp5096
g62
(dp5097
g70
I3
ssg71
g5091
sg64
(lp5098
S''
asbasbasbag57
(g73
g59
NtRp5099
(dp5100
g62
(dp5101
sg71
g5035
sg64
(lp5102
g57
(g78
g59
NtRp5103
(dp5104
g62
(dp5105
g82
g83
ssg71
g5099
sg64
(lp5106
g334
asbag57
(g78
g59
NtRp5107
(dp5108
g62
(dp5109
g89
g90
ssg71
g5099
sg64
(lp5110
S':'
asbag57
(g78
g59
NtRp5111
(dp5112
g62
(dp5113
sg71
g5099
sg64
(lp5114
g57
(g58
g59
NtRp5115
(dp5116
g62
(dp5117
g70
I3
ssg71
g5111
sg64
(lp5118
S''
asbasbasbag57
(g73
g59
NtRp5119
(dp5120
g62
(dp5121
sg71
g5035
sg64
(lp5122
g57
(g78
g59
NtRp5123
(dp5124
g62
(dp5125
g82
g83
ssg71
g5119
sg64
(lp5126
g355
asbag57
(g78
g59
NtRp5127
(dp5128
g62
(dp5129
g89
g90
ssg71
g5119
sg64
(lp5130
S':'
asbag57
(g78
g59
NtRp5131
(dp5132
g62
(dp5133
sg71
g5119
sg64
(lp5134
g57
(g58
g59
NtRp5135
(dp5136
g62
(dp5137
g70
I3
ssg71
g5131
sg64
(lp5138
S''
asbasbasbag57
(g73
g59
NtRp5139
(dp5140
g62
(dp5141
sg71
g5035
sg64
(lp5142
g57
(g78
g59
NtRp5143
(dp5144
g62
(dp5145
g82
g83
ssg71
g5139
sg64
(lp5146
g376
asbag57
(g78
g59
NtRp5147
(dp5148
g62
(dp5149
g89
g90
ssg71
g5139
sg64
(lp5150
S':'
asbag57
(g78
g59
NtRp5151
(dp5152
g62
(dp5153
sg71
g5139
sg64
(lp5154
g57
(g58
g59
NtRp5155
(dp5156
g62
(dp5157
g70
I3
ssg71
g5151
sg64
(lp5158
S'/'
asbasbasbag57
(g73
g59
NtRp5159
(dp5160
g62
(dp5161
sg71
g5035
sg64
(lp5162
g57
(g78
g59
NtRp5163
(dp5164
g62
(dp5165
g82
g83
ssg71
g5159
sg64
(lp5166
g397
asbag57
(g78
g59
NtRp5167
(dp5168
g62
(dp5169
g89
g90
ssg71
g5159
sg64
(lp5170
S':'
asbag57
(g78
g59
NtRp5171
(dp5172
g62
(dp5173
sg71
g5159
sg64
(lp5174
g57
(g58
g59
NtRp5175
(dp5176
g62
(dp5177
g70
I3
ssg71
g5171
sg64
(lp5178
S''
asbasbasbag57
(g73
g59
NtRp5179
(dp5180
g62
(dp5181
sg71
g5035
sg64
(lp5182
g57
(g78
g59
NtRp5183
(dp5184
g62
(dp5185
g82
g83
ssg71
g5179
sg64
(lp5186
g418
asbag57
(g78
g59
NtRp5187
(dp5188
g62
(dp5189
g89
g90
ssg71
g5179
sg64
(lp5190
S':'
asbag57
(g78
g59
NtRp5191
(dp5192
g62
(dp5193
sg71
g5179
sg64
(lp5194
g57
(g58
g59
NtRp5195
(dp5196
g62
(dp5197
g70
I3
ssg71
g5191
sg64
(lp5198
S''
asbasbasbasbasbasbasbasbasbasbasbag57
(g73
g59
NtRp5199
(dp5200
g62
(dp5201
sg71
g4589
sg64
(lp5202
g57
(g78
g59
NtRp5203
(dp5204
g62
(dp5205
g82
g83
ssg71
g5199
sg64
(lp5206
S'delimiters'
p5207
asbag57
(g78
g59
NtRp5208
(dp5209
g62
(dp5210
g89
g90
ssg71
g5199
sg64
(lp5211
S':'
asbag57
(g78
g59
NtRp5212
(dp5213
g62
(dp5214
sg71
g5199
sg64
(lp5215
g57
(g58
g59
NtRp5216
(dp5217
g62
(dp5218
g70
I5
ssg71
g5212
sg64
(lp5219
g57
(g66
g59
NtRp5220
(dp5221
g62
(dp5222
g70
I4
ssg71
Nsg64
(lp5223
g57
(g73
g59
NtRp5224
(dp5225
g62
(dp5226
sg71
g5220
sg64
(lp5227
g57
(g78
g59
NtRp5228
(dp5229
g62
(dp5230
sg71
g5224
sg64
(lp5231
g57
(g58
g59
NtRp5232
(dp5233
g62
(dp5234
g70
I4
ssg71
g5228
sg64
(lp5235
S'{{'
p5236
asbasbasbag57
(g73
g59
NtRp5237
(dp5238
g62
(dp5239
sg71
g5220
sg64
(lp5240
g57
(g78
g59
NtRp5241
(dp5242
g62
(dp5243
sg71
g5237
sg64
(lp5244
g57
(g58
g59
NtRp5245
(dp5246
g62
(dp5247
g70
I4
ssg71
g5241
sg64
(lp5248
S'}}'
p5249
asbasbasbasbasbasbasbag57
(g73
g59
NtRp5250
(dp5251
g62
(dp5252
sg71
g4589
sg64
(lp5253
g57
(g78
g59
NtRp5254
(dp5255
g62
(dp5256
g82
g83
ssg71
g5250
sg64
(lp5257
S'files'
p5258
asbag57
(g78
g59
NtRp5259
(dp5260
g62
(dp5261
g89
g90
ssg71
g5250
sg64
(lp5262
S':'
asbag57
(g78
g59
NtRp5263
(dp5264
g62
(dp5265
sg71
g5250
sg64
(lp5266
g57
(g58
g59
NtRp5267
(dp5268
g62
(dp5269
g70
I5
ssg71
g5263
sg64
(lp5270
g57
(g66
g59
NtRp5271
(dp5272
g62
(dp5273
g70
I4
ssg71
Nsg64
(lp5274
g57
(g73
g59
NtRp5275
(dp5276
g62
(dp5277
sg71
g5271
sg64
(lp5278
g57
(g78
g59
NtRp5279
(dp5280
g62
(dp5281
sg71
g5275
sg64
(lp5282
g57
(g58
g59
NtRp5283
(dp5284
g62
(dp5285
g70
I4
ssg71
g5279
sg64
(lp5286
S'/themishrms/static/js/jquery.js'
p5287
asbasbasbag57
(g73
g59
NtRp5288
(dp5289
g62
(dp5290
sg71
g5271
sg64
(lp5291
g57
(g78
g59
NtRp5292
(dp5293
g62
(dp5294
sg71
g5288
sg64
(lp5295
g57
(g58
g59
NtRp5296
(dp5297
g62
(dp5298
g70
I4
ssg71
g5292
sg64
(lp5299
S'/themishrms/static/css/calendar.css'
p5300
asbasbasbag57
(g73
g59
NtRp5301
(dp5302
g62
(dp5303
sg71
g5271
sg64
(lp5304
g57
(g78
g59
NtRp5305
(dp5306
g62
(dp5307
sg71
g5301
sg64
(lp5308
g57
(g58
g59
NtRp5309
(dp5310
g62
(dp5311
g70
I4
ssg71
g5305
sg64
(lp5312
S'/themishrms/static/js/calendar.js'
p5313
asbasbasbag57
(g73
g59
NtRp5314
(dp5315
g62
(dp5316
sg71
g5271
sg64
(lp5317
g57
(g78
g59
NtRp5318
(dp5319
g62
(dp5320
sg71
g5314
sg64
(lp5321
g57
(g58
g59
NtRp5322
(dp5323
g62
(dp5324
g70
I4
ssg71
g5318
sg64
(lp5325
S'/themishrms/static/js/web2py.js'
p5326
asbasbasbag57
(g73
g59
NtRp5327
(dp5328
g62
(dp5329
sg71
g5271
sg64
(lp5330
g57
(g78
g59
NtRp5331
(dp5332
g62
(dp5333
sg71
g5327
sg64
(lp5334
g57
(g58
g59
NtRp5335
(dp5336
g62
(dp5337
g70
I4
ssg71
g5331
sg64
(lp5338
S'/themishrms/static/css/skeleton.css'
p5339
asbasbasbag57
(g73
g59
NtRp5340
(dp5341
g62
(dp5342
sg71
g5271
sg64
(lp5343
g57
(g78
g59
NtRp5344
(dp5345
g62
(dp5346
sg71
g5340
sg64
(lp5347
g57
(g58
g59
NtRp5348
(dp5349
g62
(dp5350
g70
I4
ssg71
g5344
sg64
(lp5351
S'/themishrms/static/css/web2py.css'
p5352
asbasbasbag57
(g73
g59
NtRp5353
(dp5354
g62
(dp5355
sg71
g5271
sg64
(lp5356
g57
(g78
g59
NtRp5357
(dp5358
g62
(dp5359
sg71
g5353
sg64
(lp5360
g57
(g58
g59
NtRp5361
(dp5362
g62
(dp5363
g70
I4
ssg71
g5357
sg64
(lp5364
S'/themishrms/static/css/superfish.css'
p5365
asbasbasbag57
(g73
g59
NtRp5366
(dp5367
g62
(dp5368
sg71
g5271
sg64
(lp5369
g57
(g78
g59
NtRp5370
(dp5371
g62
(dp5372
sg71
g5366
sg64
(lp5373
g57
(g58
g59
NtRp5374
(dp5375
g62
(dp5376
g70
I4
ssg71
g5370
sg64
(lp5377
S'/themishrms/static/css/dock.css'
p5378
asbasbasbag57
(g73
g59
NtRp5379
(dp5380
g62
(dp5381
sg71
g5271
sg64
(lp5382
g57
(g78
g59
NtRp5383
(dp5384
g62
(dp5385
sg71
g5379
sg64
(lp5386
g57
(g58
g59
NtRp5387
(dp5388
g62
(dp5389
g70
I4
ssg71
g5383
sg64
(lp5390
S'/themishrms/static/css/layout2.css'
p5391
asbasbasbag57
(g73
g59
NtRp5392
(dp5393
g62
(dp5394
sg71
g5271
sg64
(lp5395
g57
(g78
g59
NtRp5396
(dp5397
g62
(dp5398
sg71
g5392
sg64
(lp5399
g57
(g58
g59
NtRp5400
(dp5401
g62
(dp5402
g70
I4
ssg71
g5396
sg64
(lp5403
S'/themishrms/static/js/superfish.js'
p5404
asbasbasbag57
(g73
g59
NtRp5405
(dp5406
g62
(dp5407
sg71
g5271
sg64
(lp5408
g57
(g78
g59
NtRp5409
(dp5410
g62
(dp5411
sg71
g5405
sg64
(lp5412
g57
(g58
g59
NtRp5413
(dp5414
g62
(dp5415
g70
I4
ssg71
g5409
sg64
(lp5416
S'/themishrms/static/js/jquery.jqDock.min.js'
p5417
asbasbasbag57
(g73
g59
NtRp5418
(dp5419
g62
(dp5420
sg71
g5271
sg64
(lp5421
g57
(g78
g59
NtRp5422
(dp5423
g62
(dp5424
sg71
g5418
sg64
(lp5425
g57
(g58
g59
NtRp5426
(dp5427
g62
(dp5428
g70
I4
ssg71
g5422
sg64
(lp5429
S'/themishrms/static/js/jquery.js'
p5430
asbasbasbag57
(g73
g59
NtRp5431
(dp5432
g62
(dp5433
sg71
g5271
sg64
(lp5434
g57
(g78
g59
NtRp5435
(dp5436
g62
(dp5437
sg71
g5431
sg64
(lp5438
g57
(g58
g59
NtRp5439
(dp5440
g62
(dp5441
g70
I4
ssg71
g5435
sg64
(lp5442
S'/themishrms/static/js/jquery.validate.js'
p5443
asbasbasbag57
(g73
g59
NtRp5444
(dp5445
g62
(dp5446
sg71
g5271
sg64
(lp5447
g57
(g78
g59
NtRp5448
(dp5449
g62
(dp5450
sg71
g5444
sg64
(lp5451
g57
(g58
g59
NtRp5452
(dp5453
g62
(dp5454
g70
I4
ssg71
g5448
sg64
(lp5455
S'/themishrms/static/js/ui.core.js'
p5456
asbasbasbag57
(g73
g59
NtRp5457
(dp5458
g62
(dp5459
sg71
g5271
sg64
(lp5460
g57
(g78
g59
NtRp5461
(dp5462
g62
(dp5463
sg71
g5457
sg64
(lp5464
g57
(g58
g59
NtRp5465
(dp5466
g62
(dp5467
g70
I4
ssg71
g5461
sg64
(lp5468
S'/themishrms/static/js/ui.draggable.js'
p5469
asbasbasbag57
(g73
g59
NtRp5470
(dp5471
g62
(dp5472
sg71
g5271
sg64
(lp5473
g57
(g78
g59
NtRp5474
(dp5475
g62
(dp5476
sg71
g5470
sg64
(lp5477
g57
(g58
g59
NtRp5478
(dp5479
g62
(dp5480
g70
I4
ssg71
g5474
sg64
(lp5481
S'/themishrms/static/js/ui.resizable.js'
p5482
asbasbasbag57
(g73
g59
NtRp5483
(dp5484
g62
(dp5485
sg71
g5271
sg64
(lp5486
g57
(g78
g59
NtRp5487
(dp5488
g62
(dp5489
sg71
g5483
sg64
(lp5490
g57
(g58
g59
NtRp5491
(dp5492
g62
(dp5493
g70
I4
ssg71
g5487
sg64
(lp5494
S'/themishrms/static/js/fullcalendar.min.js'
p5495
asbasbasbag57
(g73
g59
NtRp5496
(dp5497
g62
(dp5498
sg71
g5271
sg64
(lp5499
g57
(g78
g59
NtRp5500
(dp5501
g62
(dp5502
sg71
g5496
sg64
(lp5503
g57
(g58
g59
NtRp5504
(dp5505
g62
(dp5506
g70
I4
ssg71
g5500
sg64
(lp5507
S'/themishrms/static/css/fullcalendar.css'
p5508
asbasbasbasbasbasbasbag57
(g73
g59
NtRp5509
(dp5510
g62
(dp5511
sg71
g4589
sg64
(lp5512
g57
(g78
g59
NtRp5513
(dp5514
g62
(dp5515
g82
g83
ssg71
g5509
sg64
(lp5516
S'flash'
p5517
asbag57
(g78
g59
NtRp5518
(dp5519
g62
(dp5520
g89
g90
ssg71
g5509
sg64
(lp5521
S':'
asbag57
(g78
g59
NtRp5522
(dp5523
g62
(dp5524
sg71
g5509
sg64
(lp5525
g57
(g58
g59
NtRp5526
(dp5527
g62
(dp5528
g70
I5
ssg71
g5522
sg64
(lp5529
g57
(g66
g59
NtRp5530
(dp5531
g62
(dp5532
g70
I4
ssg71
Nsg64
(lp5533
g57
(g73
g59
NtRp5534
(dp5535
g62
(dp5536
sg71
g5530
sg64
(lp5537
g57
(g78
g59
NtRp5538
(dp5539
g62
(dp5540
sg71
g5534
sg64
(lp5541
g57
(g58
g59
NtRp5542
(dp5543
g62
(dp5544
g70
I4
ssg71
g5538
sg64
(lp5545
g2849
asbasbasbag57
(g73
g59
NtRp5546
(dp5547
g62
(dp5548
sg71
g5530
sg64
(lp5549
g57
(g78
g59
NtRp5550
(dp5551
g62
(dp5552
sg71
g5546
sg64
(lp5553
g57
(g58
g59
NtRp5554
(dp5555
g62
(dp5556
g70
I4
ssg71
g5550
sg64
(lp5557
g2862
asbasbasbasbasbasbasbag57
(g73
g59
NtRp5558
(dp5559
g62
(dp5560
sg71
g4589
sg64
(lp5561
g57
(g78
g59
NtRp5562
(dp5563
g62
(dp5564
g82
g83
ssg71
g5558
sg64
(lp5565
S'generic_patterns'
p5566
asbag57
(g78
g59
NtRp5567
(dp5568
g62
(dp5569
g89
g90
ssg71
g5558
sg64
(lp5570
S':'
asbag57
(g78
g59
NtRp5571
(dp5572
g62
(dp5573
sg71
g5558
sg64
(lp5574
g57
(g58
g59
NtRp5575
(dp5576
g62
(dp5577
g70
I5
ssg71
g5571
sg64
(lp5578
g57
(g66
g59
NtRp5579
(dp5580
g62
(dp5581
g70
I4
ssg71
Nsg64
(lp5582
g57
(g73
g59
NtRp5583
(dp5584
g62
(dp5585
sg71
g5579
sg64
(lp5586
g57
(g78
g59
NtRp5587
(dp5588
g62
(dp5589
sg71
g5583
sg64
(lp5590
g57
(g58
g59
NtRp5591
(dp5592
g62
(dp5593
g70
I4
ssg71
g5587
sg64
(lp5594
S'*'
asbasbasbasbasbasbasbag57
(g73
g59
NtRp5595
(dp5596
g62
(dp5597
sg71
g4589
sg64
(lp5598
g57
(g78
g59
NtRp5599
(dp5600
g62
(dp5601
g82
g83
ssg71
g5595
sg64
(lp5602
S'headers'
p5603
asbag57
(g78
g59
NtRp5604
(dp5605
g62
(dp5606
g89
g90
ssg71
g5595
sg64
(lp5607
S':'
asbag57
(g78
g59
NtRp5608
(dp5609
g62
(dp5610
sg71
g5595
sg64
(lp5611
g57
(g58
g59
NtRp5612
(dp5613
g62
(dp5614
g70
I5
ssg71
g5608
sg64
(lp5615
g57
(g66
g59
NtRp5616
(dp5617
g62
(dp5618
g70
I4
ssg71
Nsg64
(lp5619
g57
(g73
g59
NtRp5620
(dp5621
g62
(dp5622
sg71
g5616
sg64
(lp5623
g57
(g78
g59
NtRp5624
(dp5625
g62
(dp5626
g82
g83
ssg71
g5620
sg64
(lp5627
S'Cache-Control'
p5628
asbag57
(g78
g59
NtRp5629
(dp5630
g62
(dp5631
g89
g90
ssg71
g5620
sg64
(lp5632
S':'
asbag57
(g78
g59
NtRp5633
(dp5634
g62
(dp5635
sg71
g5620
sg64
(lp5636
g57
(g58
g59
NtRp5637
(dp5638
g62
(dp5639
g70
I4
ssg71
g5633
sg64
(lp5640
S'no-store, no-cache, must-revalidate, post-check=0, pre-check=0'
p5641
asbasbasbag57
(g73
g59
NtRp5642
(dp5643
g62
(dp5644
sg71
g5616
sg64
(lp5645
g57
(g78
g59
NtRp5646
(dp5647
g62
(dp5648
g82
g83
ssg71
g5642
sg64
(lp5649
S'Content-Type'
p5650
asbag57
(g78
g59
NtRp5651
(dp5652
g62
(dp5653
g89
g90
ssg71
g5642
sg64
(lp5654
S':'
asbag57
(g78
g59
NtRp5655
(dp5656
g62
(dp5657
sg71
g5642
sg64
(lp5658
g57
(g58
g59
NtRp5659
(dp5660
g62
(dp5661
g70
I4
ssg71
g5655
sg64
(lp5662
S'text/html; charset=utf-8'
p5663
asbasbasbag57
(g73
g59
NtRp5664
(dp5665
g62
(dp5666
sg71
g5616
sg64
(lp5667
g57
(g78
g59
NtRp5668
(dp5669
g62
(dp5670
g82
g83
ssg71
g5664
sg64
(lp5671
S'Expires'
p5672
asbag57
(g78
g59
NtRp5673
(dp5674
g62
(dp5675
g89
g90
ssg71
g5664
sg64
(lp5676
S':'
asbag57
(g78
g59
NtRp5677
(dp5678
g62
(dp5679
sg71
g5664
sg64
(lp5680
g57
(g58
g59
NtRp5681
(dp5682
g62
(dp5683
g70
I4
ssg71
g5677
sg64
(lp5684
S'Thu, 26 Apr 2012 07:25:05 GMT'
p5685
asbasbasbag57
(g73
g59
NtRp5686
(dp5687
g62
(dp5688
sg71
g5616
sg64
(lp5689
g57
(g78
g59
NtRp5690
(dp5691
g62
(dp5692
g82
g83
ssg71
g5686
sg64
(lp5693
S'Pragma'
p5694
asbag57
(g78
g59
NtRp5695
(dp5696
g62
(dp5697
g89
g90
ssg71
g5686
sg64
(lp5698
S':'
asbag57
(g78
g59
NtRp5699
(dp5700
g62
(dp5701
sg71
g5686
sg64
(lp5702
g57
(g58
g59
NtRp5703
(dp5704
g62
(dp5705
g70
I4
ssg71
g5699
sg64
(lp5706
S'no-cache'
p5707
asbasbasbag57
(g73
g59
NtRp5708
(dp5709
g62
(dp5710
sg71
g5616
sg64
(lp5711
g57
(g78
g59
NtRp5712
(dp5713
g62
(dp5714
g82
g83
ssg71
g5708
sg64
(lp5715
S'X-Powered-By'
p5716
asbag57
(g78
g59
NtRp5717
(dp5718
g62
(dp5719
g89
g90
ssg71
g5708
sg64
(lp5720
S':'
asbag57
(g78
g59
NtRp5721
(dp5722
g62
(dp5723
sg71
g5708
sg64
(lp5724
g57
(g58
g59
NtRp5725
(dp5726
g62
(dp5727
g70
I4
ssg71
g5721
sg64
(lp5728
S'web2py'
p5729
asbasbasbasbasbasbasbag57
(g73
g59
NtRp5730
(dp5731
g62
(dp5732
sg71
g4589
sg64
(lp5733
g57
(g78
g59
NtRp5734
(dp5735
g62
(dp5736
g82
g83
ssg71
g5730
sg64
(lp5737
S'menu'
p5738
asbag57
(g78
g59
NtRp5739
(dp5740
g62
(dp5741
g89
g90
ssg71
g5730
sg64
(lp5742
S':'
asbag57
(g78
g59
NtRp5743
(dp5744
g62
(dp5745
sg71
g5730
sg64
(lp5746
g57
(g58
g59
NtRp5747
(dp5748
g62
(dp5749
g70
I5
ssg71
g5743
sg64
(lp5750
g57
(g66
g59
NtRp5751
(dp5752
g62
(dp5753
g70
I4
ssg71
Nsg64
(lp5754
g57
(g73
g59
NtRp5755
(dp5756
g62
(dp5757
sg71
g5751
sg64
(lp5758
g57
(g78
g59
NtRp5759
(dp5760
g62
(dp5761
sg71
g5755
sg64
(lp5762
g57
(g58
g59
NtRp5763
(dp5764
g62
(dp5765
g70
I4
ssg71
g5759
sg64
(lp5766
g57
(g66
g59
NtRp5767
(dp5768
g62
(dp5769
g70
I3
ssg71
Nsg64
(lp5770
g57
(g73
g59
NtRp5771
(dp5772
g62
(dp5773
sg71
g5767
sg64
(lp5774
g57
(g78
g59
NtRp5775
(dp5776
g62
(dp5777
sg71
g5771
sg64
(lp5778
g57
(g58
g59
NtRp5779
(dp5780
g62
(dp5781
g70
I3
ssg71
g5775
sg64
(lp5782
g4646
(S's\x04\x00\x00\x00HOME'
tRp5783
asbasbasbag57
(g73
g59
NtRp5784
(dp5785
g62
(dp5786
sg71
g5767
sg64
(lp5787
g57
(g78
g59
NtRp5788
(dp5789
g62
(dp5790
sg71
g5784
sg64
(lp5791
g57
(g58
g59
NtRp5792
(dp5793
g62
(dp5794
g70
I3
ssg71
g5788
sg64
(lp5795
g100
asbasbasbag57
(g73
g59
NtRp5796
(dp5797
g62
(dp5798
sg71
g5767
sg64
(lp5799
g57
(g78
g59
NtRp5800
(dp5801
g62
(dp5802
sg71
g5796
sg64
(lp5803
g57
(g58
g59
NtRp5804
(dp5805
g62
(dp5806
g70
I3
ssg71
g5800
sg64
(lp5807
S'/themishrms/default/index'
p5808
asbasbasbag57
(g73
g59
NtRp5809
(dp5810
g62
(dp5811
sg71
g5767
sg64
(lp5812
g57
(g78
g59
NtRp5813
(dp5814
g62
(dp5815
sg71
g5809
sg64
(lp5816
g57
(g58
g59
NtRp5817
(dp5818
g62
(dp5819
g70
I3
ssg71
g5813
sg64
(lp5820
g57
(g66
g59
NtRp5821
(dp5822
g62
(dp5823
g70
I2
ssg71
Nsg64
(lp5824
sbasbasbasbasbasbasbasbag57
(g73
g59
NtRp5825
(dp5826
g62
(dp5827
sg71
g5751
sg64
(lp5828
g57
(g78
g59
NtRp5829
(dp5830
g62
(dp5831
sg71
g5825
sg64
(lp5832
g57
(g58
g59
NtRp5833
(dp5834
g62
(dp5835
g70
I4
ssg71
g5829
sg64
(lp5836
g57
(g66
g59
NtRp5837
(dp5838
g62
(dp5839
g70
I3
ssg71
Nsg64
(lp5840
g57
(g73
g59
NtRp5841
(dp5842
g62
(dp5843
sg71
g5837
sg64
(lp5844
g57
(g78
g59
NtRp5845
(dp5846
g62
(dp5847
sg71
g5841
sg64
(lp5848
g57
(g58
g59
NtRp5849
(dp5850
g62
(dp5851
g70
I3
ssg71
g5845
sg64
(lp5852
g4646
(S's\t\x00\x00\x00ABOUT US '
tRp5853
asbasbasbag57
(g73
g59
NtRp5854
(dp5855
g62
(dp5856
sg71
g5837
sg64
(lp5857
g57
(g78
g59
NtRp5858
(dp5859
g62
(dp5860
sg71
g5854
sg64
(lp5861
g57
(g58
g59
NtRp5862
(dp5863
g62
(dp5864
g70
I3
ssg71
g5858
sg64
(lp5865
g100
asbasbasbag57
(g73
g59
NtRp5866
(dp5867
g62
(dp5868
sg71
g5837
sg64
(lp5869
g57
(g78
g59
NtRp5870
(dp5871
g62
(dp5872
sg71
g5866
sg64
(lp5873
g57
(g58
g59
NtRp5874
(dp5875
g62
(dp5876
g70
I3
ssg71
g5870
sg64
(lp5877
S'/themishrms/default/tlsabout'
p5878
asbasbasbag57
(g73
g59
NtRp5879
(dp5880
g62
(dp5881
sg71
g5837
sg64
(lp5882
g57
(g78
g59
NtRp5883
(dp5884
g62
(dp5885
sg71
g5879
sg64
(lp5886
g57
(g58
g59
NtRp5887
(dp5888
g62
(dp5889
g70
I3
ssg71
g5883
sg64
(lp5890
g57
(g66
g59
NtRp5891
(dp5892
g62
(dp5893
g70
I2
ssg71
Nsg64
(lp5894
sbasbasbasbasbasbasbasbag57
(g73
g59
NtRp5895
(dp5896
g62
(dp5897
sg71
g5751
sg64
(lp5898
g57
(g78
g59
NtRp5899
(dp5900
g62
(dp5901
sg71
g5895
sg64
(lp5902
g57
(g58
g59
NtRp5903
(dp5904
g62
(dp5905
g70
I4
ssg71
g5899
sg64
(lp5906
g57
(g66
g59
NtRp5907
(dp5908
g62
(dp5909
g70
I3
ssg71
Nsg64
(lp5910
g57
(g73
g59
NtRp5911
(dp5912
g62
(dp5913
sg71
g5907
sg64
(lp5914
g57
(g78
g59
NtRp5915
(dp5916
g62
(dp5917
sg71
g5911
sg64
(lp5918
g57
(g58
g59
NtRp5919
(dp5920
g62
(dp5921
g70
I3
ssg71
g5915
sg64
(lp5922
g4646
(S's\x0f\x00\x00\x00OUR EXPERTISE  '
tRp5923
asbasbasbag57
(g73
g59
NtRp5924
(dp5925
g62
(dp5926
sg71
g5907
sg64
(lp5927
g57
(g78
g59
NtRp5928
(dp5929
g62
(dp5930
sg71
g5924
sg64
(lp5931
g57
(g58
g59
NtRp5932
(dp5933
g62
(dp5934
g70
I3
ssg71
g5928
sg64
(lp5935
g100
asbasbasbag57
(g73
g59
NtRp5936
(dp5937
g62
(dp5938
sg71
g5907
sg64
(lp5939
g57
(g78
g59
NtRp5940
(dp5941
g62
(dp5942
sg71
g5936
sg64
(lp5943
g57
(g58
g59
NtRp5944
(dp5945
g62
(dp5946
g70
I3
ssg71
g5940
sg64
(lp5947
S'/themishrms/default/tlsservice'
p5948
asbasbasbag57
(g73
g59
NtRp5949
(dp5950
g62
(dp5951
sg71
g5907
sg64
(lp5952
g57
(g78
g59
NtRp5953
(dp5954
g62
(dp5955
sg71
g5949
sg64
(lp5956
g57
(g58
g59
NtRp5957
(dp5958
g62
(dp5959
g70
I3
ssg71
g5953
sg64
(lp5960
g57
(g66
g59
NtRp5961
(dp5962
g62
(dp5963
g70
I2
ssg71
Nsg64
(lp5964
sbasbasbasbasbasbasbasbag57
(g73
g59
NtRp5965
(dp5966
g62
(dp5967
sg71
g5751
sg64
(lp5968
g57
(g78
g59
NtRp5969
(dp5970
g62
(dp5971
sg71
g5965
sg64
(lp5972
g57
(g58
g59
NtRp5973
(dp5974
g62
(dp5975
g70
I4
ssg71
g5969
sg64
(lp5976
g57
(g66
g59
NtRp5977
(dp5978
g62
(dp5979
g70
I3
ssg71
Nsg64
(lp5980
g57
(g73
g59
NtRp5981
(dp5982
g62
(dp5983
sg71
g5977
sg64
(lp5984
g57
(g78
g59
NtRp5985
(dp5986
g62
(dp5987
sg71
g5981
sg64
(lp5988
g57
(g58
g59
NtRp5989
(dp5990
g62
(dp5991
g70
I3
ssg71
g5985
sg64
(lp5992
g4646
(S's\x08\x00\x00\x00OUR TEAM'
tRp5993
asbasbasbag57
(g73
g59
NtRp5994
(dp5995
g62
(dp5996
sg71
g5977
sg64
(lp5997
g57
(g78
g59
NtRp5998
(dp5999
g62
(dp6000
sg71
g5994
sg64
(lp6001
g57
(g58
g59
NtRp6002
(dp6003
g62
(dp6004
g70
I3
ssg71
g5998
sg64
(lp6005
g100
asbasbasbag57
(g73
g59
NtRp6006
(dp6007
g62
(dp6008
sg71
g5977
sg64
(lp6009
g57
(g78
g59
NtRp6010
(dp6011
g62
(dp6012
sg71
g6006
sg64
(lp6013
g57
(g58
g59
NtRp6014
(dp6015
g62
(dp6016
g70
I3
ssg71
g6010
sg64
(lp6017
S'/themishrms/default/tlsoteam'
p6018
asbasbasbag57
(g73
g59
NtRp6019
(dp6020
g62
(dp6021
sg71
g5977
sg64
(lp6022
g57
(g78
g59
NtRp6023
(dp6024
g62
(dp6025
sg71
g6019
sg64
(lp6026
g57
(g58
g59
NtRp6027
(dp6028
g62
(dp6029
g70
I3
ssg71
g6023
sg64
(lp6030
g57
(g66
g59
NtRp6031
(dp6032
g62
(dp6033
g70
I2
ssg71
Nsg64
(lp6034
sbasbasbasbasbasbasbasbag57
(g73
g59
NtRp6035
(dp6036
g62
(dp6037
sg71
g5751
sg64
(lp6038
g57
(g78
g59
NtRp6039
(dp6040
g62
(dp6041
sg71
g6035
sg64
(lp6042
g57
(g58
g59
NtRp6043
(dp6044
g62
(dp6045
g70
I4
ssg71
g6039
sg64
(lp6046
g57
(g66
g59
NtRp6047
(dp6048
g62
(dp6049
g70
I3
ssg71
Nsg64
(lp6050
g57
(g73
g59
NtRp6051
(dp6052
g62
(dp6053
sg71
g6047
sg64
(lp6054
g57
(g78
g59
NtRp6055
(dp6056
g62
(dp6057
sg71
g6051
sg64
(lp6058
g57
(g58
g59
NtRp6059
(dp6060
g62
(dp6061
g70
I3
ssg71
g6055
sg64
(lp6062
g4646
(S's\n\x00\x00\x00OPERATIONS'
tRp6063
asbasbasbag57
(g73
g59
NtRp6064
(dp6065
g62
(dp6066
sg71
g6047
sg64
(lp6067
g57
(g78
g59
NtRp6068
(dp6069
g62
(dp6070
sg71
g6064
sg64
(lp6071
g57
(g58
g59
NtRp6072
(dp6073
g62
(dp6074
g70
I3
ssg71
g6068
sg64
(lp6075
g100
asbasbasbag57
(g73
g59
NtRp6076
(dp6077
g62
(dp6078
sg71
g6047
sg64
(lp6079
g57
(g78
g59
NtRp6080
(dp6081
g62
(dp6082
sg71
g6076
sg64
(lp6083
g57
(g58
g59
NtRp6084
(dp6085
g62
(dp6086
g70
I3
ssg71
g6080
sg64
(lp6087
S'/themishrms/default/tlsoo'
p6088
asbasbasbag57
(g73
g59
NtRp6089
(dp6090
g62
(dp6091
sg71
g6047
sg64
(lp6092
g57
(g78
g59
NtRp6093
(dp6094
g62
(dp6095
sg71
g6089
sg64
(lp6096
g57
(g58
g59
NtRp6097
(dp6098
g62
(dp6099
g70
I3
ssg71
g6093
sg64
(lp6100
g57
(g66
g59
NtRp6101
(dp6102
g62
(dp6103
g70
I2
ssg71
Nsg64
(lp6104
sbasbasbasbasbasbasbasbag57
(g73
g59
NtRp6105
(dp6106
g62
(dp6107
sg71
g5751
sg64
(lp6108
g57
(g78
g59
NtRp6109
(dp6110
g62
(dp6111
sg71
g6105
sg64
(lp6112
g57
(g58
g59
NtRp6113
(dp6114
g62
(dp6115
g70
I4
ssg71
g6109
sg64
(lp6116
g57
(g66
g59
NtRp6117
(dp6118
g62
(dp6119
g70
I3
ssg71
Nsg64
(lp6120
g57
(g73
g59
NtRp6121
(dp6122
g62
(dp6123
sg71
g6117
sg64
(lp6124
g57
(g78
g59
NtRp6125
(dp6126
g62
(dp6127
sg71
g6121
sg64
(lp6128
g57
(g58
g59
NtRp6129
(dp6130
g62
(dp6131
g70
I3
ssg71
g6125
sg64
(lp6132
g4646
(S's\x07\x00\x00\x00JOIN US'
tRp6133
asbasbasbag57
(g73
g59
NtRp6134
(dp6135
g62
(dp6136
sg71
g6117
sg64
(lp6137
g57
(g78
g59
NtRp6138
(dp6139
g62
(dp6140
sg71
g6134
sg64
(lp6141
g57
(g58
g59
NtRp6142
(dp6143
g62
(dp6144
g70
I3
ssg71
g6138
sg64
(lp6145
g100
asbasbasbag57
(g73
g59
NtRp6146
(dp6147
g62
(dp6148
sg71
g6117
sg64
(lp6149
g57
(g78
g59
NtRp6150
(dp6151
g62
(dp6152
sg71
g6146
sg64
(lp6153
g57
(g58
g59
NtRp6154
(dp6155
g62
(dp6156
g70
I3
ssg71
g6150
sg64
(lp6157
S'/themishrms/default/tlscareer'
p6158
asbasbasbag57
(g73
g59
NtRp6159
(dp6160
g62
(dp6161
sg71
g6117
sg64
(lp6162
g57
(g78
g59
NtRp6163
(dp6164
g62
(dp6165
sg71
g6159
sg64
(lp6166
g57
(g58
g59
NtRp6167
(dp6168
g62
(dp6169
g70
I3
ssg71
g6163
sg64
(lp6170
g57
(g66
g59
NtRp6171
(dp6172
g62
(dp6173
g70
I2
ssg71
Nsg64
(lp6174
sbasbasbasbasbasbasbasbag57
(g73
g59
NtRp6175
(dp6176
g62
(dp6177
sg71
g5751
sg64
(lp6178
g57
(g78
g59
NtRp6179
(dp6180
g62
(dp6181
sg71
g6175
sg64
(lp6182
g57
(g58
g59
NtRp6183
(dp6184
g62
(dp6185
g70
I4
ssg71
g6179
sg64
(lp6186
g57
(g66
g59
NtRp6187
(dp6188
g62
(dp6189
g70
I3
ssg71
Nsg64
(lp6190
g57
(g73
g59
NtRp6191
(dp6192
g62
(dp6193
sg71
g6187
sg64
(lp6194
g57
(g78
g59
NtRp6195
(dp6196
g62
(dp6197
sg71
g6191
sg64
(lp6198
g57
(g58
g59
NtRp6199
(dp6200
g62
(dp6201
g70
I3
ssg71
g6195
sg64
(lp6202
g4646
(S's\n\x00\x00\x00CONTACT US'
tRp6203
asbasbasbag57
(g73
g59
NtRp6204
(dp6205
g62
(dp6206
sg71
g6187
sg64
(lp6207
g57
(g78
g59
NtRp6208
(dp6209
g62
(dp6210
sg71
g6204
sg64
(lp6211
g57
(g58
g59
NtRp6212
(dp6213
g62
(dp6214
g70
I3
ssg71
g6208
sg64
(lp6215
g100
asbasbasbag57
(g73
g59
NtRp6216
(dp6217
g62
(dp6218
sg71
g6187
sg64
(lp6219
g57
(g78
g59
NtRp6220
(dp6221
g62
(dp6222
sg71
g6216
sg64
(lp6223
g57
(g58
g59
NtRp6224
(dp6225
g62
(dp6226
g70
I3
ssg71
g6220
sg64
(lp6227
S'/themishrms/default/tlscontact'
p6228
asbasbasbag57
(g73
g59
NtRp6229
(dp6230
g62
(dp6231
sg71
g6187
sg64
(lp6232
g57
(g78
g59
NtRp6233
(dp6234
g62
(dp6235
sg71
g6229
sg64
(lp6236
g57
(g58
g59
NtRp6237
(dp6238
g62
(dp6239
g70
I3
ssg71
g6233
sg64
(lp6240
g57
(g66
g59
NtRp6241
(dp6242
g62
(dp6243
g70
I2
ssg71
Nsg64
(lp6244
sbasbasbasbasbasbasbasbasbasbasbasbag57
(g73
g59
NtRp6245
(dp6246
g62
(dp6247
sg71
g4589
sg64
(lp6248
g57
(g78
g59
NtRp6249
(dp6250
g62
(dp6251
g82
g83
ssg71
g6245
sg64
(lp6252
S'meta'
p6253
asbag57
(g78
g59
NtRp6254
(dp6255
g62
(dp6256
g89
g90
ssg71
g6245
sg64
(lp6257
S':'
asbag57
(g78
g59
NtRp6258
(dp6259
g62
(dp6260
sg71
g6245
sg64
(lp6261
g57
(g58
g59
NtRp6262
(dp6263
g62
(dp6264
g70
I5
ssg71
g6258
sg64
(lp6265
g57
(g66
g59
NtRp6266
(dp6267
g62
(dp6268
g70
I4
ssg71
Nsg64
(lp6269
g57
(g73
g59
NtRp6270
(dp6271
g62
(dp6272
sg71
g6266
sg64
(lp6273
g57
(g78
g59
NtRp6274
(dp6275
g62
(dp6276
g82
g83
ssg71
g6270
sg64
(lp6277
S'author'
p6278
asbag57
(g78
g59
NtRp6279
(dp6280
g62
(dp6281
g89
g90
ssg71
g6270
sg64
(lp6282
S':'
asbag57
(g78
g59
NtRp6283
(dp6284
g62
(dp6285
sg71
g6270
sg64
(lp6286
g57
(g58
g59
NtRp6287
(dp6288
g62
(dp6289
g70
I4
ssg71
g6283
sg64
(lp6290
S'Your Name <you@example.com>'
p6291
asbasbasbag57
(g73
g59
NtRp6292
(dp6293
g62
(dp6294
sg71
g6266
sg64
(lp6295
g57
(g78
g59
NtRp6296
(dp6297
g62
(dp6298
g82
g83
ssg71
g6292
sg64
(lp6299
S'copyright'
p6300
asbag57
(g78
g59
NtRp6301
(dp6302
g62
(dp6303
g89
g90
ssg71
g6292
sg64
(lp6304
S':'
asbag57
(g78
g59
NtRp6305
(dp6306
g62
(dp6307
sg71
g6292
sg64
(lp6308
g57
(g58
g59
NtRp6309
(dp6310
g62
(dp6311
g70
I4
ssg71
g6305
sg64
(lp6312
S'Copyright 2011'
p6313
asbasbasbag57
(g73
g59
NtRp6314
(dp6315
g62
(dp6316
sg71
g6266
sg64
(lp6317
g57
(g78
g59
NtRp6318
(dp6319
g62
(dp6320
g82
g83
ssg71
g6314
sg64
(lp6321
S'description'
p6322
asbag57
(g78
g59
NtRp6323
(dp6324
g62
(dp6325
g89
g90
ssg71
g6314
sg64
(lp6326
S':'
asbag57
(g78
g59
NtRp6327
(dp6328
g62
(dp6329
sg71
g6314
sg64
(lp6330
g57
(g58
g59
NtRp6331
(dp6332
g62
(dp6333
g70
I4
ssg71
g6327
sg64
(lp6334
S'a cool new app'
p6335
asbasbasbag57
(g73
g59
NtRp6336
(dp6337
g62
(dp6338
sg71
g6266
sg64
(lp6339
g57
(g78
g59
NtRp6340
(dp6341
g62
(dp6342
g82
g83
ssg71
g6336
sg64
(lp6343
S'generator'
p6344
asbag57
(g78
g59
NtRp6345
(dp6346
g62
(dp6347
g89
g90
ssg71
g6336
sg64
(lp6348
S':'
asbag57
(g78
g59
NtRp6349
(dp6350
g62
(dp6351
sg71
g6336
sg64
(lp6352
g57
(g58
g59
NtRp6353
(dp6354
g62
(dp6355
g70
I4
ssg71
g6349
sg64
(lp6356
S'Web2py Web Framework'
p6357
asbasbasbag57
(g73
g59
NtRp6358
(dp6359
g62
(dp6360
sg71
g6266
sg64
(lp6361
g57
(g78
g59
NtRp6362
(dp6363
g62
(dp6364
g82
g83
ssg71
g6358
sg64
(lp6365
S'keywords'
p6366
asbag57
(g78
g59
NtRp6367
(dp6368
g62
(dp6369
g89
g90
ssg71
g6358
sg64
(lp6370
S':'
asbag57
(g78
g59
NtRp6371
(dp6372
g62
(dp6373
sg71
g6358
sg64
(lp6374
g57
(g58
g59
NtRp6375
(dp6376
g62
(dp6377
g70
I4
ssg71
g6371
sg64
(lp6378
S'web2py, python, framework'
p6379
asbasbasbasbasbasbasbag57
(g73
g59
NtRp6380
(dp6381
g62
(dp6382
sg71
g4589
sg64
(lp6383
g57
(g78
g59
NtRp6384
(dp6385
g62
(dp6386
g82
g83
ssg71
g6380
sg64
(lp6387
S'postprocessing'
p6388
asbag57
(g78
g59
NtRp6389
(dp6390
g62
(dp6391
g89
g90
ssg71
g6380
sg64
(lp6392
S':'
asbag57
(g78
g59
NtRp6393
(dp6394
g62
(dp6395
sg71
g6380
sg64
(lp6396
g57
(g58
g59
NtRp6397
(dp6398
g62
(dp6399
g70
I5
ssg71
g6393
sg64
(lp6400
g57
(g66
g59
NtRp6401
(dp6402
g62
(dp6403
g70
I4
ssg71
Nsg64
(lp6404
sbasbasbasbag57
(g73
g59
NtRp6405
(dp6406
g62
(dp6407
sg71
g4589
sg64
(lp6408
g57
(g78
g59
NtRp6409
(dp6410
g62
(dp6411
g82
g83
ssg71
g6405
sg64
(lp6412
S'session_file'
p6413
asbag57
(g78
g59
NtRp6414
(dp6415
g62
(dp6416
g89
g90
ssg71
g6405
sg64
(lp6417
S':'
asbag57
(g78
g59
NtRp6418
(dp6419
g62
(dp6420
sg71
g6405
sg64
(lp6421
g57
(g58
g59
NtRp6422
(dp6423
g62
(dp6424
g70
I5
ssg71
g6418
sg64
(lp6425
S"<open file '/home/tls-sanjeet/Desktop/HRMS/web2py/applications/themishrms/sessions/127.0.0.1-242e7abf-396d-48e9-918e-1c534375193b', mode 'rb+' at 0x99b0758>"
p6426
asbasbasbag57
(g73
g59
NtRp6427
(dp6428
g62
(dp6429
sg71
g4589
sg64
(lp6430
g57
(g78
g59
NtRp6431
(dp6432
g62
(dp6433
g82
g83
ssg71
g6427
sg64
(lp6434
S'session_filename'
p6435
asbag57
(g78
g59
NtRp6436
(dp6437
g62
(dp6438
g89
g90
ssg71
g6427
sg64
(lp6439
S':'
asbag57
(g78
g59
NtRp6440
(dp6441
g62
(dp6442
sg71
g6427
sg64
(lp6443
g57
(g58
g59
NtRp6444
(dp6445
g62
(dp6446
g70
I5
ssg71
g6440
sg64
(lp6447
S'/home/tls-sanjeet/Desktop/HRMS/web2py/applications/themishrms/sessions/127.0.0.1-242e7abf-396d-48e9-918e-1c534375193b'
p6448
asbasbasbag57
(g73
g59
NtRp6449
(dp6450
g62
(dp6451
sg71
g4589
sg64
(lp6452
g57
(g78
g59
NtRp6453
(dp6454
g62
(dp6455
g82
g83
ssg71
g6449
sg64
(lp6456
S'session_id'
p6457
asbag57
(g78
g59
NtRp6458
(dp6459
g62
(dp6460
g89
g90
ssg71
g6449
sg64
(lp6461
S':'
asbag57
(g78
g59
NtRp6462
(dp6463
g62
(dp6464
sg71
g6449
sg64
(lp6465
g57
(g58
g59
NtRp6466
(dp6467
g62
(dp6468
g70
I5
ssg71
g6462
sg64
(lp6469
S'127.0.0.1-242e7abf-396d-48e9-918e-1c534375193b'
p6470
asbasbasbag57
(g73
g59
NtRp6471
(dp6472
g62
(dp6473
sg71
g4589
sg64
(lp6474
g57
(g78
g59
NtRp6475
(dp6476
g62
(dp6477
g82
g83
ssg71
g6471
sg64
(lp6478
S'session_id_name'
p6479
asbag57
(g78
g59
NtRp6480
(dp6481
g62
(dp6482
g89
g90
ssg71
g6471
sg64
(lp6483
S':'
asbag57
(g78
g59
NtRp6484
(dp6485
g62
(dp6486
sg71
g6471
sg64
(lp6487
g57
(g58
g59
NtRp6488
(dp6489
g62
(dp6490
g70
I5
ssg71
g6484
sg64
(lp6491
g5022
asbasbasbag57
(g73
g59
NtRp6492
(dp6493
g62
(dp6494
sg71
g4589
sg64
(lp6495
g57
(g78
g59
NtRp6496
(dp6497
g62
(dp6498
g82
g83
ssg71
g6492
sg64
(lp6499
S'session_locked'
p6500
asbag57
(g78
g59
NtRp6501
(dp6502
g62
(dp6503
g89
g90
ssg71
g6492
sg64
(lp6504
S':'
asbag57
(g78
g59
NtRp6505
(dp6506
g62
(dp6507
sg71
g6492
sg64
(lp6508
g57
(g58
g59
NtRp6509
(dp6510
g62
(dp6511
g70
I5
ssg71
g6505
sg64
(lp6512
g2178
asbasbasbag57
(g73
g59
NtRp6513
(dp6514
g62
(dp6515
sg71
g4589
sg64
(lp6516
g57
(g78
g59
NtRp6517
(dp6518
g62
(dp6519
g82
g83
ssg71
g6513
sg64
(lp6520
S'session_new'
p6521
asbag57
(g78
g59
NtRp6522
(dp6523
g62
(dp6524
g89
g90
ssg71
g6513
sg64
(lp6525
S':'
asbag57
(g78
g59
NtRp6526
(dp6527
g62
(dp6528
sg71
g6513
sg64
(lp6529
g57
(g58
g59
NtRp6530
(dp6531
g62
(dp6532
g70
I5
ssg71
g6526
sg64
(lp6533
g100
asbasbasbag57
(g73
g59
NtRp6534
(dp6535
g62
(dp6536
sg71
g4589
sg64
(lp6537
g57
(g78
g59
NtRp6538
(dp6539
g62
(dp6540
g82
g83
ssg71
g6534
sg64
(lp6541
S'status'
p6542
asbag57
(g78
g59
NtRp6543
(dp6544
g62
(dp6545
g89
g90
ssg71
g6534
sg64
(lp6546
S':'
asbag57
(g78
g59
NtRp6547
(dp6548
g62
(dp6549
sg71
g6534
sg64
(lp6550
g57
(g58
g59
NtRp6551
(dp6552
g62
(dp6553
g70
I5
ssg71
g6547
sg64
(lp6554
S'200'
p6555
asbasbasbag57
(g73
g59
NtRp6556
(dp6557
g62
(dp6558
sg71
g4589
sg64
(lp6559
g57
(g78
g59
NtRp6560
(dp6561
g62
(dp6562
g82
g83
ssg71
g6556
sg64
(lp6563
S'subtitle'
p6564
asbag57
(g78
g59
NtRp6565
(dp6566
g62
(dp6567
g89
g90
ssg71
g6556
sg64
(lp6568
S':'
asbag57
(g78
g59
NtRp6569
(dp6570
g62
(dp6571
sg71
g6556
sg64
(lp6572
g57
(g58
g59
NtRp6573
(dp6574
g62
(dp6575
g70
I5
ssg71
g6569
sg64
(lp6576
g4646
(S's\r\x00\x00\x00customize me!'
tRp6577
asbasbasbag57
(g73
g59
NtRp6578
(dp6579
g62
(dp6580
sg71
g4589
sg64
(lp6581
g57
(g78
g59
NtRp6582
(dp6583
g62
(dp6584
g82
g83
ssg71
g6578
sg64
(lp6585
S'title'
p6586
asbag57
(g78
g59
NtRp6587
(dp6588
g62
(dp6589
g89
g90
ssg71
g6578
sg64
(lp6590
S':'
asbag57
(g78
g59
NtRp6591
(dp6592
g62
(dp6593
sg71
g6578
sg64
(lp6594
g57
(g58
g59
NtRp6595
(dp6596
g62
(dp6597
g70
I5
ssg71
g6591
sg64
(lp6598
S'Themishrms'
p6599
asbasbasbag57
(g73
g59
NtRp6600
(dp6601
g62
(dp6602
sg71
g4589
sg64
(lp6603
g57
(g78
g59
NtRp6604
(dp6605
g62
(dp6606
g82
g83
ssg71
g6600
sg64
(lp6607
S'tlsmenu'
p6608
asbag57
(g78
g59
NtRp6609
(dp6610
g62
(dp6611
g89
g90
ssg71
g6600
sg64
(lp6612
S':'
asbag57
(g78
g59
NtRp6613
(dp6614
g62
(dp6615
sg71
g6600
sg64
(lp6616
g57
(g58
g59
NtRp6617
(dp6618
g62
(dp6619
g70
I5
ssg71
g6613
sg64
(lp6620
g57
(g66
g59
NtRp6621
(dp6622
g62
(dp6623
g70
I4
ssg71
Nsg64
(lp6624
g57
(g73
g59
NtRp6625
(dp6626
g62
(dp6627
sg71
g6621
sg64
(lp6628
g57
(g78
g59
NtRp6629
(dp6630
g62
(dp6631
sg71
g6625
sg64
(lp6632
g57
(g58
g59
NtRp6633
(dp6634
g62
(dp6635
g70
I4
ssg71
g6629
sg64
(lp6636
g57
(g66
g59
NtRp6637
(dp6638
g62
(dp6639
g70
I3
ssg71
Nsg64
(lp6640
g57
(g73
g59
NtRp6641
(dp6642
g62
(dp6643
sg71
g6637
sg64
(lp6644
g57
(g78
g59
NtRp6645
(dp6646
g62
(dp6647
sg71
g6641
sg64
(lp6648
g57
(g58
g59
NtRp6649
(dp6650
g62
(dp6651
g70
I3
ssg71
g6645
sg64
(lp6652
g4646
(S's\x07\x00\x00\x00Website'
tRp6653
asbasbasbag57
(g73
g59
NtRp6654
(dp6655
g62
(dp6656
sg71
g6637
sg64
(lp6657
g57
(g78
g59
NtRp6658
(dp6659
g62
(dp6660
sg71
g6654
sg64
(lp6661
g57
(g58
g59
NtRp6662
(dp6663
g62
(dp6664
g70
I3
ssg71
g6658
sg64
(lp6665
g100
asbasbasbag57
(g73
g59
NtRp6666
(dp6667
g62
(dp6668
sg71
g6637
sg64
(lp6669
g57
(g78
g59
NtRp6670
(dp6671
g62
(dp6672
sg71
g6666
sg64
(lp6673
g57
(g58
g59
NtRp6674
(dp6675
g62
(dp6676
g70
I3
ssg71
g6670
sg64
(lp6677
S'/themishrms/default/index'
p6678
asbasbasbag57
(g73
g59
NtRp6679
(dp6680
g62
(dp6681
sg71
g6637
sg64
(lp6682
g57
(g78
g59
NtRp6683
(dp6684
g62
(dp6685
sg71
g6679
sg64
(lp6686
g57
(g58
g59
NtRp6687
(dp6688
g62
(dp6689
g70
I3
ssg71
g6683
sg64
(lp6690
g57
(g66
g59
NtRp6691
(dp6692
g62
(dp6693
g70
I2
ssg71
Nsg64
(lp6694
sbasbasbasbasbasbasbasbag57
(g73
g59
NtRp6695
(dp6696
g62
(dp6697
sg71
g6621
sg64
(lp6698
g57
(g78
g59
NtRp6699
(dp6700
g62
(dp6701
sg71
g6695
sg64
(lp6702
g57
(g58
g59
NtRp6703
(dp6704
g62
(dp6705
g70
I4
ssg71
g6699
sg64
(lp6706
g57
(g66
g59
NtRp6707
(dp6708
g62
(dp6709
g70
I3
ssg71
Nsg64
(lp6710
g57
(g73
g59
NtRp6711
(dp6712
g62
(dp6713
sg71
g6707
sg64
(lp6714
g57
(g78
g59
NtRp6715
(dp6716
g62
(dp6717
sg71
g6711
sg64
(lp6718
g57
(g58
g59
NtRp6719
(dp6720
g62
(dp6721
g70
I3
ssg71
g6715
sg64
(lp6722
g4646
(S's\x07\x00\x00\x00WebMail'
tRp6723
asbasbasbag57
(g73
g59
NtRp6724
(dp6725
g62
(dp6726
sg71
g6707
sg64
(lp6727
g57
(g78
g59
NtRp6728
(dp6729
g62
(dp6730
sg71
g6724
sg64
(lp6731
g57
(g58
g59
NtRp6732
(dp6733
g62
(dp6734
g70
I3
ssg71
g6728
sg64
(lp6735
g100
asbasbasbag57
(g73
g59
NtRp6736
(dp6737
g62
(dp6738
sg71
g6707
sg64
(lp6739
g57
(g78
g59
NtRp6740
(dp6741
g62
(dp6742
sg71
g6736
sg64
(lp6743
g57
(g58
g59
NtRp6744
(dp6745
g62
(dp6746
g70
I3
ssg71
g6740
sg64
(lp6747
S'/themishrms/default/webmail'
p6748
asbasbasbag57
(g73
g59
NtRp6749
(dp6750
g62
(dp6751
sg71
g6707
sg64
(lp6752
g57
(g78
g59
NtRp6753
(dp6754
g62
(dp6755
sg71
g6749
sg64
(lp6756
g57
(g58
g59
NtRp6757
(dp6758
g62
(dp6759
g70
I3
ssg71
g6753
sg64
(lp6760
g57
(g66
g59
NtRp6761
(dp6762
g62
(dp6763
g70
I2
ssg71
Nsg64
(lp6764
sbasbasbasbasbasbasbasbag57
(g73
g59
NtRp6765
(dp6766
g62
(dp6767
sg71
g6621
sg64
(lp6768
g57
(g78
g59
NtRp6769
(dp6770
g62
(dp6771
sg71
g6765
sg64
(lp6772
g57
(g58
g59
NtRp6773
(dp6774
g62
(dp6775
g70
I4
ssg71
g6769
sg64
(lp6776
g57
(g66
g59
NtRp6777
(dp6778
g62
(dp6779
g70
I3
ssg71
Nsg64
(lp6780
g57
(g73
g59
NtRp6781
(dp6782
g62
(dp6783
sg71
g6777
sg64
(lp6784
g57
(g78
g59
NtRp6785
(dp6786
g62
(dp6787
sg71
g6781
sg64
(lp6788
g57
(g58
g59
NtRp6789
(dp6790
g62
(dp6791
g70
I3
ssg71
g6785
sg64
(lp6792
g4646
(S's\r\x00\x00\x00Themis Portal'
tRp6793
asbasbasbag57
(g73
g59
NtRp6794
(dp6795
g62
(dp6796
sg71
g6777
sg64
(lp6797
g57
(g78
g59
NtRp6798
(dp6799
g62
(dp6800
sg71
g6794
sg64
(lp6801
g57
(g58
g59
NtRp6802
(dp6803
g62
(dp6804
g70
I3
ssg71
g6798
sg64
(lp6805
g100
asbasbasbag57
(g73
g59
NtRp6806
(dp6807
g62
(dp6808
sg71
g6777
sg64
(lp6809
g57
(g78
g59
NtRp6810
(dp6811
g62
(dp6812
sg71
g6806
sg64
(lp6813
g57
(g58
g59
NtRp6814
(dp6815
g62
(dp6816
g70
I3
ssg71
g6810
sg64
(lp6817
S'/themishrms/default/portal'
p6818
asbasbasbag57
(g73
g59
NtRp6819
(dp6820
g62
(dp6821
sg71
g6777
sg64
(lp6822
g57
(g78
g59
NtRp6823
(dp6824
g62
(dp6825
sg71
g6819
sg64
(lp6826
g57
(g58
g59
NtRp6827
(dp6828
g62
(dp6829
g70
I3
ssg71
g6823
sg64
(lp6830
g57
(g66
g59
NtRp6831
(dp6832
g62
(dp6833
g70
I2
ssg71
Nsg64
(lp6834
sbasbasbasbasbasbasbasbag57
(g73
g59
NtRp6835
(dp6836
g62
(dp6837
sg71
g6621
sg64
(lp6838
g57
(g78
g59
NtRp6839
(dp6840
g62
(dp6841
sg71
g6835
sg64
(lp6842
g57
(g58
g59
NtRp6843
(dp6844
g62
(dp6845
g70
I4
ssg71
g6839
sg64
(lp6846
g57
(g66
g59
NtRp6847
(dp6848
g62
(dp6849
g70
I3
ssg71
Nsg64
(lp6850
g57
(g73
g59
NtRp6851
(dp6852
g62
(dp6853
sg71
g6847
sg64
(lp6854
g57
(g78
g59
NtRp6855
(dp6856
g62
(dp6857
sg71
g6851
sg64
(lp6858
g57
(g58
g59
NtRp6859
(dp6860
g62
(dp6861
g70
I3
ssg71
g6855
sg64
(lp6862
g4646
(S's\x0f\x00\x00\x00Themis Policies'
tRp6863
asbasbasbag57
(g73
g59
NtRp6864
(dp6865
g62
(dp6866
sg71
g6847
sg64
(lp6867
g57
(g78
g59
NtRp6868
(dp6869
g62
(dp6870
sg71
g6864
sg64
(lp6871
g57
(g58
g59
NtRp6872
(dp6873
g62
(dp6874
g70
I3
ssg71
g6868
sg64
(lp6875
g100
asbasbasbag57
(g73
g59
NtRp6876
(dp6877
g62
(dp6878
sg71
g6847
sg64
(lp6879
g57
(g78
g59
NtRp6880
(dp6881
g62
(dp6882
sg71
g6876
sg64
(lp6883
g57
(g58
g59
NtRp6884
(dp6885
g62
(dp6886
g70
I3
ssg71
g6880
sg64
(lp6887
S'/themishrms/default/ourtrem'
p6888
asbasbasbag57
(g73
g59
NtRp6889
(dp6890
g62
(dp6891
sg71
g6847
sg64
(lp6892
g57
(g78
g59
NtRp6893
(dp6894
g62
(dp6895
sg71
g6889
sg64
(lp6896
g57
(g58
g59
NtRp6897
(dp6898
g62
(dp6899
g70
I3
ssg71
g6893
sg64
(lp6900
g57
(g66
g59
NtRp6901
(dp6902
g62
(dp6903
g70
I2
ssg71
Nsg64
(lp6904
sbasbasbasbasbasbasbasbag57
(g73
g59
NtRp6905
(dp6906
g62
(dp6907
sg71
g6621
sg64
(lp6908
g57
(g78
g59
NtRp6909
(dp6910
g62
(dp6911
sg71
g6905
sg64
(lp6912
g57
(g58
g59
NtRp6913
(dp6914
g62
(dp6915
g70
I4
ssg71
g6909
sg64
(lp6916
g57
(g66
g59
NtRp6917
(dp6918
g62
(dp6919
g70
I3
ssg71
Nsg64
(lp6920
g57
(g73
g59
NtRp6921
(dp6922
g62
(dp6923
sg71
g6917
sg64
(lp6924
g57
(g78
g59
NtRp6925
(dp6926
g62
(dp6927
sg71
g6921
sg64
(lp6928
g57
(g58
g59
NtRp6929
(dp6930
g62
(dp6931
g70
I3
ssg71
g6925
sg64
(lp6932
g4646
(S's\x0f\x00\x00\x00Contact Details'
tRp6933
asbasbasbag57
(g73
g59
NtRp6934
(dp6935
g62
(dp6936
sg71
g6917
sg64
(lp6937
g57
(g78
g59
NtRp6938
(dp6939
g62
(dp6940
sg71
g6934
sg64
(lp6941
g57
(g58
g59
NtRp6942
(dp6943
g62
(dp6944
g70
I3
ssg71
g6938
sg64
(lp6945
g100
asbasbasbag57
(g73
g59
NtRp6946
(dp6947
g62
(dp6948
sg71
g6917
sg64
(lp6949
g57
(g78
g59
NtRp6950
(dp6951
g62
(dp6952
sg71
g6946
sg64
(lp6953
g57
(g58
g59
NtRp6954
(dp6955
g62
(dp6956
g70
I3
ssg71
g6950
sg64
(lp6957
S'/themishrms/default/emp_contact_detail'
p6958
asbasbasbag57
(g73
g59
NtRp6959
(dp6960
g62
(dp6961
sg71
g6917
sg64
(lp6962
g57
(g78
g59
NtRp6963
(dp6964
g62
(dp6965
sg71
g6959
sg64
(lp6966
g57
(g58
g59
NtRp6967
(dp6968
g62
(dp6969
g70
I3
ssg71
g6963
sg64
(lp6970
g57
(g66
g59
NtRp6971
(dp6972
g62
(dp6973
g70
I2
ssg71
Nsg64
(lp6974
sbasbasbasbasbasbasbasbasbasbasbasbag57
(g73
g59
NtRp6975
(dp6976
g62
(dp6977
sg71
g4589
sg64
(lp6978
g57
(g78
g59
NtRp6979
(dp6980
g62
(dp6981
g82
g83
ssg71
g6975
sg64
(lp6982
g2959
asbag57
(g78
g59
NtRp6983
(dp6984
g62
(dp6985
g89
g90
ssg71
g6975
sg64
(lp6986
S':'
asbag57
(g78
g59
NtRp6987
(dp6988
g62
(dp6989
sg71
g6975
sg64
(lp6990
g57
(g58
g59
NtRp6991
(dp6992
g62
(dp6993
g70
I5
ssg71
g6987
sg64
(lp6994
g2972
asbasbasbag57
(g73
g59
NtRp6995
(dp6996
g62
(dp6997
sg71
g4589
sg64
(lp6998
g57
(g78
g59
NtRp6999
(dp7000
g62
(dp7001
g82
g83
ssg71
g6995
sg64
(lp7002
S'view'
p7003
asbag57
(g78
g59
NtRp7004
(dp7005
g62
(dp7006
g89
g90
ssg71
g6995
sg64
(lp7007
S':'
asbag57
(g78
g59
NtRp7008
(dp7009
g62
(dp7010
sg71
g6995
sg64
(lp7011
g57
(g58
g59
NtRp7012
(dp7013
g62
(dp7014
g70
I5
ssg71
g7008
sg64
(lp7015
S'default/emp_apply_leave.html'
p7016
asbasbasbasbasbsS'locals'
p7017
(dp7018
S'Service'
p7019
S"<class 'gluon.tools.Service'>"
p7020
sS'OBJECT'
p7021
S"<class 'gluon.html.OBJECT'>"
p7022
sS'SQLDB'
p7023
S"<class 'gluon.dal.DAL'>"
p7024
sg3908
S"<Storage {'last_query': 'db.auth_permission.id>0...login]': 'd90271ec-311b-49ef-8437-24157c3dd43a'}>"
p7025
sS'LINK'
p7026
S"<class 'gluon.html.LINK'>"
p7027
sS'BR'
p7028
S"<class 'gluon.html.BR'>"
p7029
sS'local_import'
p7030
S'<function <lambda>>'
p7031
sS'OPTGROUP'
p7032
S"<class 'gluon.html.OPTGROUP'>"
p7033
sS'__package__'
p7034
S'None'
p7035
sS'PRE'
p7036
S"<class 'gluon.html.PRE'>"
p7037
sS'IS_INT_IN_RANGE'
p7038
S"<class 'gluon.validators.IS_INT_IN_RANGE'>"
p7039
sS'left_sidebar_enabled'
p7040
g2178
sS'IS_LOWER'
p7041
S"<class 'gluon.validators.IS_LOWER'>"
p7042
sS'IS_STRONG'
p7043
S"<class 'gluon.validators.IS_STRONG'>"
p7044
sS'get_dpt_name'
p7045
S'<function get_dpt_name>'
p7046
sS'cache'
p7047
S'<gluon.cache.Cache object>'
p7048
sS'IS_IN_DB'
p7049
S"<class 'gluon.validators.IS_IN_DB'>"
p7050
sS'TAG'
p7051
S'<gluon.html.__TAG__ object>'
p7052
sS'SQLField'
p7053
S"<class 'gluon.dal.Field'>"
p7054
sS'mail'
p7055
S'<gluon.tools.Mail object>'
p7056
sS'get_loc_name'
p7057
S'<function get_loc_name>'
p7058
sS'BODY'
p7059
S"<class 'gluon.html.BODY'>"
p7060
sS'IS_DATE_IN_RANGE'
p7061
S"<class 'gluon.validators.IS_DATE_IN_RANGE'>"
p7062
sS'get_org_name'
p7063
S'<function get_org_name>'
p7064
sS'TH'
p7065
S"<class 'gluon.html.TH'>"
p7066
sS'URL'
p7067
S'<function URL>'
p7068
sS'__file__'
p7069
S"'/home/tls-sanjeet/Desktop/HRMS/web2py/applications/themishrms/views/default/emp_apply_leave.html'"
p7070
sS'db'
p7071
S"<DAL {'auth_event': <Table {'origin': <gluon.dal...98868ec>, '_singular': 'Add new organization'}>}>"
p7072
sS'auth'
p7073
S'<gluon.tools.Auth object>'
p7074
sS'P'
S"<class 'gluon.html.P'>"
p7075
sS'TFOOT'
p7076
S"<class 'gluon.html.TFOOT'>"
p7077
sS'XHTML'
p7078
S"<class 'gluon.html.XHTML'>"
p7079
sS'ON'
p7080
g2178
sS'OL'
p7081
S"<class 'gluon.html.OL'>"
p7082
sS'TEXTAREA'
p7083
S"<class 'gluon.html.TEXTAREA'>"
p7084
sS'MENU'
p7085
S"<class 'gluon.html.MENU'>"
p7086
sS'IS_IMAGE'
p7087
S"<class 'gluon.validators.IS_IMAGE'>"
p7088
sS'LOAD'
p7089
S'<function LOAD>'
p7090
sS'CODE'
p7091
S"<class 'gluon.html.CODE'>"
p7092
sS'HTTP'
p7093
S"<class 'gluon.http.HTTP'>"
p7094
sS'HR'
p7095
S"<class 'gluon.html.HR'>"
p7096
sS'IS_DATETIME'
p7097
S"<class 'gluon.validators.IS_DATETIME'>"
p7098
sS'HEAD'
p7099
S"<class 'gluon.html.HEAD'>"
p7100
sS'LABEL'
p7101
S"<class 'gluon.html.LABEL'>"
p7102
sS'META'
p7103
S"<class 'gluon.html.META'>"
p7104
sS'plugins'
p7105
S'<gluon.tools.PluginManager object>'
p7106
sS'SELECT'
p7107
S"<class 'gluon.html.SELECT'>"
p7108
sS'use_janrain'
p7109
S'<function use_janrain>'
p7110
sS'CENTER'
p7111
S"<class 'gluon.html.CENTER'>"
p7112
sS'prettydate'
p7113
S'<function prettydate>'
p7114
sS'Crud'
p7115
S"<class 'gluon.tools.Crud'>"
p7116
sS'Auth'
p7117
S"<class 'gluon.tools.Auth'>"
p7118
sS'IS_EQUAL_TO'
p7119
S"<class 'gluon.validators.IS_EQUAL_TO'>"
p7120
sS'HTML'
p7121
S"<class 'gluon.html.HTML'>"
p7122
sS'SQLFORM'
p7123
S"<class 'gluon.sqlhtml.SQLFORM'>"
p7124
sS'EM'
p7125
S"<class 'gluon.html.EM'>"
p7126
sS'redirect'
p7127
S'<function redirect>'
p7128
sS'FIELDSET'
p7129
S"<class 'gluon.html.FIELDSET'>"
p7130
sS'__builtins__'
p7131
S"{'ArithmeticError': <type 'exceptions.ArithmeticError'>, 'AssertionError': <type 'exceptions.AssertionError'>, 'AttributeError': <type 'exceptions.AttributeError'>, 'BaseException': <type 'exceptions.BaseException'>, 'BufferError': <type 'exceptions.BufferError'>, 'BytesWarning': <type 'exceptions.BytesWarning'>, 'DeprecationWarning': <type 'exceptions.DeprecationWarning'>, 'EOFError': <type 'exceptions.EOFError'>, 'Ellipsis': Ellipsis, 'EnvironmentError': <type 'exceptions.EnvironmentError'>, ...}"
p7132
sS'embed64'
p7133
S'<function embed64>'
p7134
sS'IS_LIST_OF'
p7135
S"<class 'gluon.validators.IS_LIST_OF'>"
p7136
sS'get_emp_name'
p7137
S'<function get_emp_name>'
p7138
sS'INPUT'
p7139
S"<class 'gluon.html.INPUT'>"
p7140
sS'EMBED'
p7141
S"<class 'gluon.html.EMBED'>"
p7142
sS'_'
S'<function _>'
p7143
sS'H2'
p7144
S"<class 'gluon.html.H2'>"
p7145
sS'H3'
p7146
S"<class 'gluon.html.H3'>"
p7147
sS'BUTTON'
p7148
S"<class 'gluon.html.BUTTON'>"
p7149
sS'H1'
p7150
S"<class 'gluon.html.H1'>"
p7151
sS'H6'
p7152
S"<class 'gluon.html.H6'>"
p7153
sS'H4'
p7154
S"<class 'gluon.html.H4'>"
p7155
sS'H5'
p7156
S"<class 'gluon.html.H5'>"
p7157
sS'UL'
p7158
S"<class 'gluon.html.UL'>"
p7159
sS'IS_UPPER'
p7160
S"<class 'gluon.validators.IS_UPPER'>"
p7161
sS'xmlescape'
p7162
S'<function xmlescape>'
p7163
sS'IS_TIME'
p7164
S"<class 'gluon.validators.IS_TIME'>"
p7165
sS'os'
p7166
S"<module 'os' from '/usr/lib/python2.6/os.pyc'>"
p7167
sS'OPTION'
p7168
S"<class 'gluon.html.OPTION'>"
p7169
sS'TITLE'
p7170
S"<class 'gluon.html.TITLE'>"
p7171
sS'CRYPT'
p7172
S"<class 'gluon.validators.CRYPT'>"
p7173
sS'IS_EMPTY_OR'
p7174
S"<class 'gluon.validators.IS_EMPTY_OR'>"
p7175
sS'MARKMIN'
p7176
S"<class 'gluon.html.MARKMIN'>"
p7177
sS'__name__'
p7178
S"'__restricted__'"
p7179
sS'COL'
p7180
S"<class 'gluon.html.COL'>"
p7181
sS'service'
p7182
S'<gluon.tools.Service object>'
p7183
sS'SCRIPT'
p7184
S"<class 'gluon.html.SCRIPT'>"
p7185
sS'is_mobile'
p7186
g100
sS'TABLE'
p7187
S"<class 'gluon.html.TABLE'>"
p7188
sS'IS_IPV4'
p7189
S"<class 'gluon.validators.IS_IPV4'>"
p7190
sS'IS_LENGTH'
p7191
S"<class 'gluon.validators.IS_LENGTH'>"
p7192
sS'XML'
p7193
S"<class 'gluon.html.XML'>"
p7194
sS'B'
S"<class 'gluon.html.B'>"
p7195
sS'IMG'
p7196
S"<class 'gluon.html.IMG'>"
p7197
sS'SQLTABLE'
p7198
S"<class 'gluon.sqlhtml.SQLTABLE'>"
p7199
sS'IS_MATCH'
p7200
S"<class 'gluon.validators.IS_MATCH'>"
p7201
sS'IS_ALPHANUMERIC'
p7202
S"<class 'gluon.validators.IS_ALPHANUMERIC'>"
p7203
sS'SPAN'
p7204
S"<class 'gluon.html.SPAN'>"
p7205
sS'IS_SLUG'
p7206
S"<class 'gluon.validators.IS_SLUG'>"
p7207
sS'CLEANUP'
p7208
S"<class 'gluon.validators.CLEANUP'>"
p7209
sS'IS_DATE'
p7210
S"<class 'gluon.validators.IS_DATE'>"
p7211
sS'IS_EMAIL'
p7212
S"<class 'gluon.validators.IS_EMAIL'>"
p7213
sS'IS_NOT_EMPTY'
p7214
S"<class 'gluon.validators.IS_NOT_EMPTY'>"
p7215
sg56
S"<Storage {'body': <open file '<fdopen>', mode 'w...012-04-26', '2012-04-30'], 'submit': 'Submit'}>}>"
p7216
sS'BEAUTIFY'
p7217
S"<class 'gluon.html.BEAUTIFY'>"
p7218
sS'TBODY'
p7219
S"<class 'gluon.html.TBODY'>"
p7220
sS'CAT'
p7221
S"<class 'gluon.html.CAT'>"
p7222
sS'Field'
p7223
S"<class 'gluon.dal.Field'>"
p7224
sS'middle_columns'
p7225
S"'eight'"
p7226
sS'DIV'
p7227
S"<class 'gluon.html.DIV'>"
p7228
sS'LEGEND'
p7229
S"<class 'gluon.html.LEGEND'>"
p7230
sS'COLGROUP'
p7231
S"<class 'gluon.html.COLGROUP'>"
p7232
sS'DAL'
p7233
S"<class 'gluon.dal.DAL'>"
p7234
sS'TT'
p7235
S"<class 'gluon.html.TT'>"
p7236
sS'TR'
p7237
S"<class 'gluon.html.TR'>"
p7238
sS'LI'
p7239
S"<class 'gluon.html.LI'>"
p7240
sS'right_sidebar_enabled'
p7241
g2178
sS'IFRAME'
p7242
S"<class 'gluon.html.IFRAME'>"
p7243
sS'TD'
p7244
S"<class 'gluon.html.TD'>"
p7245
sS'PluginManager'
p7246
S"<class 'gluon.tools.PluginManager'>"
p7247
sS'IS_URL'
p7248
S"<class 'gluon.validators.IS_URL'>"
p7249
sS'A'
S"<class 'gluon.html.A'>"
p7250
sS'STYLE'
p7251
S"<class 'gluon.html.STYLE'>"
p7252
sS'IS_DATETIME_IN_RANGE'
p7253
S"<class 'gluon.validators.IS_DATETIME_IN_RANGE'>"
p7254
sS'FORM'
p7255
S"<class 'gluon.html.FORM'>"
p7256
sS'I'
S"<class 'gluon.html.I'>"
p7257
sS'crud'
p7258
S'<gluon.tools.Crud object>'
p7259
sS'get_project_name'
p7260
S'<function get_project_name>'
p7261
sS'IS_NOT_IN_DB'
p7262
S"<class 'gluon.validators.IS_NOT_IN_DB'>"
p7263
sg4584
S"<Storage {'body': <cStringIO.StringO object at 0...', [])], 'view': 'default/emp_apply_leave.html'}>"
p7264
sS'THEAD'
p7265
S"<class 'gluon.html.THEAD'>"
p7266
sS'IS_NULL_OR'
p7267
S"<class 'gluon.validators.IS_EMPTY_OR'>"
p7268
sS'filepath'
p7269
S"'/home/tls-sanjeet/Desktop/HRMS/web2py/applications/themishrms/uploads'"
p7270
sS'IS_FLOAT_IN_RANGE'
p7271
S"<class 'gluon.validators.IS_FLOAT_IN_RANGE'>"
p7272
sS'IS_EXPR'
p7273
S"<class 'gluon.validators.IS_EXPR'>"
p7274
sS'T'
S'<gluon.languages.translator object>'
p7275
sS'IS_IN_SET'
p7276
S"<class 'gluon.validators.IS_IN_SET'>"
p7277
sS'IS_UPLOAD_FILENAME'
p7278
S"<class 'gluon.validators.IS_UPLOAD_FILENAME'>"
p7279
sS'IS_DECIMAL_IN_RANGE'
p7280
S"<class 'gluon.validators.IS_DECIMAL_IN_RANGE'>"
p7281
sssS'traceback'
p7282
S'Traceback (most recent call last):\n  File "/home/tls-sanjeet/Desktop/HRMS/web2py/gluon/restricted.py", line 205, in restricted\n    exec ccode in environment\n  File "/home/tls-sanjeet/Desktop/HRMS/web2py/applications/themishrms/views/default/emp_apply_leave.html", line 75, in <module>\nNameError: name \'images\' is not defined\n'
p7283
s.