(dp1
S'output'
p2
S"<type 'exceptions.NameError'> name 'left_sidebar_enabled' is not defined"
p3
sS'layer'
p4
S'/home/rohitraj/Desktop/web2py/applications/themishrms/views/default/user_timesheet.html'
p5
sS'code'
p6
S'left_sidebar_enabled,True\nresponse.write(\'\\n\', escape=False)\nresponse.write(\'<!DOCTYPE html>\\n<!-- paulirish.com/2008/conditional-stylesheets-vs-css-hacks-answer-neither/ -->\\n<!--[if lt IE 7]><html class="ie ie6 ie-lte9 ie-lte8 ie-lte7 no-js" lang="\', escape=False)\nresponse.write(T.accepted_language or \'en\')\nresponse.write(\'"> <![endif]-->\\n<!--[if IE 7]><html class="ie ie7 ie-lte9 ie-lte8 ie-lte7 no-js" lang="\', escape=False)\nresponse.write(T.accepted_language or \'en\')\nresponse.write(\'"> <![endif]-->\\n<!--[if IE 8]><html class="ie ie8 ie-lte9 ie-lte8 no-js" lang="\', escape=False)\nresponse.write(T.accepted_language or \'en\')\nresponse.write(\'"> <![endif]-->\\n<!--[if IE 9]><html class="ie9 ie-lte9 no-js" lang="\', escape=False)\nresponse.write(T.accepted_language or \'en\')\nresponse.write(\'"> <![endif]-->\\n<!--[if (gt IE 9)|!(IE)]><!--> <html class="no-js" lang="\', escape=False)\nresponse.write(T.accepted_language or \'en\')\nresponse.write(\'"> <!--<![endif]-->\\n<head>\\n  <meta charset="utf-8" />\\n  <!-- www.phpied.com/conditional-comments-block-downloads/ -->\\n  <!-- Always force latest IE rendering engine\\n\\t   (even in intranet) & Chrome Frame\\n\\t   Remove this if you use the .htaccess -->\\n  <!--[if IE]>\\n    <meta http-equiv="X-UA-Compatible" content="IE=edge\', escape=False)\nresponse.write(not request.is_local and \',chrome=1\' or \'\')\nresponse.write(\'">\\n  <![endif]-->\\n  \\n  <title>\', escape=False)\nresponse.write(response.title or request.application)\nresponse.write(\'</title>\\n  \\n  <!-- http://dev.w3.org/html5/markup/meta.name.html -->\\n  <meta name="application-name" content="\', escape=False)\nresponse.write(request.application)\nresponse.write(\'" />\\n  \\n  <!-- Speaking of Google, don\\\'t forget to set your site up:\\n\\t   http://google.com/webmasters -->\\n  <meta name="google-site-verification" content="" />\\n\\n  <!--  Mobile Viewport Fix\\n\\t  j.mp/mobileviewport & davidbcalhoun.com/2010/viewport-metatag\\n\\t  device-width: Occupy full width of the screen in its current orientation\\n\\t  initial-scale = 1.0 retains dimensions instead of zooming out if page height > device height\\n\\t  user-scalable = yes allows the user to zoom in -->\\n  <meta name="viewport" content="width=device-width, initial-scale=1.0, user-scalable=yes">\\n  \\n  <!-- Place favicon.ico and apple-touch-icon.png in the root of your domain and delete these references -->\\n  <link rel="shortcut icon" href="\', escape=False)\nresponse.write(URL(\'static\',\'favicon.ico\'))\nresponse.write(\'" type="image/x-icon">\\n  <link rel="apple-touch-icon" href="\', escape=False)\nresponse.write(URL(\'static\',\'favicon.png\'))\nresponse.write(\'">\\n\\n  <!-- All JavaScript at the bottom, except for Modernizr which enables \\n\\t   HTML5 elements & feature detects -->\\n  <script src="\', escape=False)\nresponse.write(URL(\'static\',\'js/modernizr.custom.js\'))\nresponse.write(\'"></script>  \\n\\n  <!-- include stylesheets -->\\n  \', escape=False)\nresponse.files.append(URL(\'static\',\'css/skeleton.css\'))\nresponse.files.append(URL(\'static\',\'css/web2py.css\'))\nresponse.files.append(URL(\'static\',\'css/superfish.css\'))\nresponse.files.append(URL(\'static\',\'css/dock.css\'))\nresponse.files.append(URL(\'static\',\'css/layout2.css\'))\nresponse.files.append(URL(\'static\',\'js/superfish.js\'))\nresponse.files.append(URL(\'static\',\'js/jquery.jqDock.min.js\'))\nresponse.files.append(URL(\'static\',\'js/jquery.js\'))\nresponse.files.append(URL(\'static\',\'js/jquery.validate.js\'))\nresponse.files.append(URL(\'static\',\'js/ui.core.js\'))\nresponse.files.append(URL(\'static\',\'js/ui.draggable.js\'))\nresponse.files.append(URL(\'static\',\'js/ui.resizable.js\'))\nresponse.files.append(URL(\'static\',\'js/fullcalendar.min.js\'))\nresponse.files.append(URL(\'static\',\'css/fullcalendar.css\'))\nresponse.files.append(URL(\'static\',\'css/dock.css\'))\nresponse.files.append(URL(\'static\',\'js/jquery.jqDock.min.js\'))\nresponse.write(\'\\n  \\n  \', escape=False)\nresponse.write(\'<script type="text/javascript"><!--\\n    // These variables are used by the web2py_ajax_init function in web2py_ajax.js (which is loaded below).\\n    var w2p_ajax_confirm_message = "\', escape=False)\nresponse.write(T(\'Are you sure you want to delete this object?\'))\nresponse.write(\'";\\n    var w2p_ajax_date_format = "\', escape=False)\nresponse.write(T(\'%Y-%m-%d\'))\nresponse.write(\'";\\n    var w2p_ajax_datetime_format = "\', escape=False)\nresponse.write(T(\'%Y-%m-%d %H:%M:%S\'))\nresponse.write(\'";\\n    //--></script>\\n\', escape=False)\nresponse.files.insert(0,URL(\'static\',\'js/jquery.js\'))\nresponse.files.insert(1,URL(\'static\',\'css/calendar.css\'))\nresponse.files.insert(2,URL(\'static\',\'js/calendar.js\'))\nresponse.files.insert(3,URL(\'static\',\'js/web2py.js\'))\nresponse.include_meta()\nresponse.include_files()\nresponse.write(\'\\n\', escape=False)\nresponse.write(\'\\n\\n  <script type="text/javascript">\\n    jQuery(function(){ jQuery(\\\'ul.sf-menu\\\').supersubs({minWidth:12,maxWidth:30,extraWidth:3}).superfish(); });\\n  </script>\\n\\n  \', escape=False)\n# using sidebars need to know what sidebar you want to use\nleft_sidebar_enabled = globals().get(\'left_sidebar_enabled\',False)\nright_sidebar_enabled = globals().get(\'right_sidebar_enabled\',False)\nmiddle_columns = {0:\'sixteen\',1:\'twelve\',2:\'eight\'}[\n(left_sidebar_enabled and 1 or 0)+(right_sidebar_enabled and 1 or 0)]\nresponse.write(\'\\n\\n  <!-- uncomment here to load jquery-ui\\n  <link rel="stylesheet" href="http://ajax.googleapis.com/ajax/libs/jqueryui/1.8.16/themes/base/jquery-ui.css" type="text/css" media="all" />\\n  <script src="http://ajax.googleapis.com/ajax/libs/jqueryui/1.8.16/jquery-ui.min.js" type="text/javascript"></script>\\n  uncomment to load jquery-ui //-->\\n  \\n  \\t<script type="text/javascript">\\n\\t\\t$(function(){\\n\\t\\t\\tvar jqDockOpts = {align: \\\'left\\\', duration: 200, labels: \\\'tc\\\', size: 48, distance: 85};\\n\\t\\t\\t$(\\\'#jqDock\\\').jqDock(jqDockOpts);\\n\\t\\t});\\n\\t</script>  \\n\\t\\n  <style type="text/css">\\n#navigation {font-size:1.0em; width:150px;}\\n#navigation ul {margin:0px; padding:0px;}\\n#navigation li {list-style: none;}\\n\\nul.top-level li {\\n border-bottom: #fff solid;\\n border-width: 1px;\\n}\\n#navigation a {\\n color:#D7A95A;\\n cursor: pointer;\\n display:block;\\n height:25px;\\n line-height: 25px;\\n text-indent: 10px;                   \\n text-decoration:none;\\n width:100%;\\n}\\n#navigation a:hover{\\n text-decoration:underline;\\n color: #CE8417;\\n}\\n#navigation li:hover {\\n background:#fff;\\n position: relative;\\n}\\nul.sub-level {\\n    display: none;\\n}\\n\\nli:hover .sub-level {\\n    background: #5B5125;\\n    border-width: 1px;\\n    display: block;\\n    position: absolute;\\n    left: 75px;\\n    top: 5px;\\n}\\nul.sub-level li {\\n    border: none;\\n    float:left;\\n    width:150px;\\n}\\n</style>\\n  \\n</head>\\n<body>\\n  <div class="wrapper"><!-- for sticky footer -->\\n  \\n    <div class="topbar">\\n      <div class="container">    \\n        <div class="sixteen columns">\\n          <div id="navbar">\', escape=False)\nresponse.write(\'auth\' in globals() and auth.navbar(separators=(\' \',\' | \',\'\')))\nresponse.write(\'</div>\\n          \', escape=False)\nis_mobile=request.user_agent().is_mobile\nresponse.write(\'\\n\\t\\t<div id="nav"><div id="menu">\', escape=False)\nresponse.write(MENU(response.tlsmenu, _class=\'mobile-menu\' if is_mobile else \'sf-menu\',mobile=is_mobile))\nresponse.write(\'</div>\\n\\t\\t</div>\\n        </div>\\n      </div>\\n    </div><!-- topbar -->   \\n    <div class="flash">\', escape=False)\nresponse.write(response.flash or \'\')\nresponse.write(\'</div>\\n    <div class="header">\\n    <div class="container">\\n\\t<div id="logo"></div>\\n               \\n        <div class="sixteen columns">\\n\\t\\t  <div id="projtstatus">\\n\\t\\t  Project Status\\n\\t\\t  </div>\\n        </div>\\n        <div class="sixteen columns">\\n        </div>\\n      </div>\\n    </div>\\n    <div class="main">\\n      <div class="container">                 \\n        \', escape=False)\nif left_sidebar_enabled:\n    response.write(\'\\n        <div class="four columns left-sidebar">\\n          \', escape=False)\n    response.write(\'\\n\\t\\t\\t\\t<div id="esidebar">\\n\\t\\t\\t\\t\\t<a href="\', escape=False)\n    response.write(URL(\'default\',\'employee\'))\n    response.write(\'">Dashboard</a>\\n\\t\\t\\t\\t\\t<div id="photo"><img width="100px" src="\', escape=False)\n    response.write(URL(\'download\', args=images))\n    response.write(\'" />\\n\\t\\t\\t\\t\\t<div style="margin-top:-5px;">\', escape=False)\n    response.write(A(T(\'Update Image\'),_href=URL(\'emp_update_image\')))\n    response.write(\'</div>\\n\\t\\t\\t\\t</div>\\n\\t\\t\\t\\t<br>\\n\\t\\t\\t\\t<div id="navigation">\\n   \\t\\t\\t\\t <ul class="top-level">\\n        \\t\\t\\t\\t<li><a href="\', escape=False)\n    response.write(URL(\'default\',\'emp_myprofile\'))\n    response.write(\'">My Profile</a></li>\\n        \\t\\t\\t\\t\\t<li><a href="\', escape=False)\n    response.write(URL(\'default\',\'user_timesheet\'))\n    response.write(\'">TimeSheet</a></li>\\n        \\t\\t\\t\\t<li><a href="\', escape=False)\n    response.write(URL(\'default\',\'emp_leavecalendar\'))\n    response.write(\'">Calendar</a>\\n        \\t\\t\\t\\t\\t<ul class="sub-level">\\n                \\t\\t\\t\\t<li><a href="\', escape=False)\n    response.write(URL(\'default\',\'#\'))\n    response.write(\'">Leave Calendar</a></li>\\n\\t\\t  \\t\\t\\t\\t\\t\\t\\t<li><a href="\', escape=False)\n    response.write(URL(\'default\',\'#\'))\n    response.write(\'">Holiday Calendar</a></li>\\n            \\t\\t\\t </ul>\\n            \\t   </li>\\n\\t\\t  \\t\\t\\t\\t<li><a href="\', escape=False)\n    response.write(URL(\'default\',\'emp_company\'))\n    response.write(\'">Attendence</a></li>\\n\\t\\t  \\t\\t\\t\\t<li><a href="\', escape=False)\n    response.write(URL(\'default\',\'emp_organization\'))\n    response.write(\'">Company Policies</a></li>\\n\\t\\t  \\t\\t\\t\\t<li><a href="\', escape=False)\n    response.write(URL(\'default\',\'emp_mydoc\'))\n    response.write(\'">My Documents</a></li>\\n\\t\\t  \\t\\t\\t\\t<li><a href="\', escape=False)\n    response.write(URL(\'default\',\'emp_compliance\'))\n    response.write(\'">Requst For Asset</a></li>\\n\\t\\t  \\t\\t\\t\\t<li><a href="\', escape=False)\n    response.write(URL(\'default\',\'emp_all\'))\n    response.write(\'">IT Support</a></li>\\n\\t\\t  \\t\\t\\t\\t     \\n\\t\\t  \\t\\t\\t\\t\', escape=False)\n    if auth.has_permission(\'Mgr\',\'auth_user\'):\n        response.write(\' \\n\\t\\t  \\t\\t\\t\\t<li><a href="\', escape=False)\n        response.write(URL(\'default\',\'emp_leave_stat\'))\n        response.write(\'">Leave Status</a></li>\\n\\t\\t  \\t\\t\\t\\t\', escape=False)\n        pass\n    response.write(\'\\n    \\t\\t\\t\\t</ul>\\n\\t\\t\\t\\t</div>\\n\\t\\t\\t\\t</div>          \\n          \', escape=False)\n    response.write(\'\\n        </div>\\n        \', escape=False)\n    pass\nresponse.write(\'       \\n         <div class="\', escape=False)\nresponse.write(middle_columns)\nresponse.write(\' columns center">\\n          \', escape=False)\nresponse.write(\'\\n          \', escape=False)\nresponse.write(\'\\n\\n<script type="text/javascript">\\r\\nvar c=0;\\r\\nvar t;\\r\\nvar timer_is_on=0;\\r\\n\\r\\nfunction timedCount()\\r\\n{\\r\\ndocument.getElementById(\\\'txt\\\').value=c;\\r\\nc=c+1;\\r\\nt=setTimeout("timedCount()",1000);\\r\\n}\\r\\n\\r\\nfunction doTimer()\\r\\n{\\r\\nif (!timer_is_on)\\r\\n  {\\r\\n  timer_is_on=1;\\r\\n  timedCount();\\r\\n  }\\r\\n}\\r\\n\\r\\nfunction stopCount()\\r\\n{\\r\\nclearTimeout(t);\\r\\ntimer_is_on=0;\\r\\n}\\r\\n</script>\\r\\n</head>\\r\\n\\t\\r\\n<div id="contdoc"><h4>Organization</h4> </div>\\n<div id="econtent">\\n\\r\\n\\t<div id="usr_head1" >Select Project</div>\\r\\n\\t<div id="usr_head1">Select Task</div>\\n\\t<div id="usr_head">\\r\\n\\t\\t\\t\\t<form>\\r\\n\\t\\t\\r\\n\\t\\t\\t\\t\\tProject<input type="text" id="tx1">\\r\\n\\t\\t\\t\\t\\tTask<input type="text" id="txt2">\\r\\n\\t\\t\\t\\t\\t\\t\\t\\n\\t\\t\\t\\t\\tTime<input type="text" id="txt">\\r\\n\\t\\t\\t\\t\\t<input type="button" value="Start " onClick="doTimer()">\\r\\n\\t\\t\\t\\t\\t<input type="button" value="Stop " onClick="stopCount()">\\r\\n\\t\\t\\t\\t</form>\\r\\n\\t\\t\\r\\n\\t\\r\\n\\t</div>\\n\\t\\n\\t\\n</div>\\n\\n\\t\\t\\n\', escape=False)\nresponse.write(\'\\n          \', escape=False)\nresponse.write(\'\\n        </div>        \\n        \', escape=False)\nif right_sidebar_enabled:\n    response.write(\'\\n        <div class="four columns">\\n          \', escape=False)\n    response.write(\'\\n          <div id="psidebar">\\n\\t  \\t\\t\\t<div id="dockContainer">\\n\\t \\t\\t\\t\\t<h2>Themis Product</h2>\\t\\t\\t\\n\\t\\t\\t\\t\\t\\t<br>\\n\\t\\t\\t\\t\\t\\t\', escape=False)\n    for lg in algin:\n        response.write(\'\\n\\t\\t\\t\\t\\t\\t\\t<li>\', escape=False)\n        response.write(lg)\n        response.write(\'</li>\\n\\t\\t\\t\\t\\t\\t\', escape=False)\n        pass\n    response.write(\'\\n\\t\\t\\t\\t\\t<ul id="jqDock">\\n\\t\\t\\t\\t\\t\\t<li><a class="dockItem" href="index.html"><img style="margin:0px auto;" src="\', escape=False)\n    response.write(URL(\'static\',\'images/home-sm.png\'))\n    response.write(\'" alt="ThemisLCM"/></a></li>\\n\\t\\t\\t\\t\\t\\t<li><a class="dockItem" href="index.html"><img src="\', escape=False)\n    response.write(URL(\'static\',\'images/email-sm.png\'))\n    response.write(\'" alt="ThemisPortfolio"/></a></li>\\n\\t\\t\\t\\t\\t</ul>\\n\\t\\t\\t\\t</div>\\n\\t\\t\\t</div>\\n          \', escape=False)\n    response.write(\'\\n        </div>    \\n        \', escape=False)\n    pass\nresponse.write(\'      \\n      </div><!-- container -->\\n    </div><!-- main -->    \\n    <div class="push"></div>\\n  </div><!-- wrapper -->\\n  <div class="footer">\\n    <div class="container">    \\n        \', escape=False)\nresponse.write(\' <!-- this is default footer -->\\n          <div class="copyright">\', escape=False)\nresponse.write(T(\'Copyright Themis Lexsol Private LTD\'))\nresponse.write(\' &#169; 2012</div>\\n          <div style="float: right;">\\n            <a href="http://www.web2py.com/">\\n            <img style="padding-bottom: 0;" src="\', escape=False)\nresponse.write(URL(\'static\',\'images/poweredby.png\'))\nresponse.write(\'"/>\\n            </a>\\n          </div>\\n        \', escape=False)\nresponse.write(\'\\t\\n    </div><!-- container -->\\n  </div><!-- footer -->\\n  \\n  <!--[if lt IE 7 ]>\\n\\t<script src="\', escape=False)\nresponse.write(URL(\'static\',\'js/dd_belatedpng.js\'))\nresponse.write(\'"></script>\\n\\t<script> DD_belatedPNG.fix(\\\'img, .png_bg\\\'); //fix any <img> or .png_bg background-images </script>\\n\\t<![endif]-->\\n  \', escape=False)\nif response.google_analytics_id:\n    response.write(\'<script type="text/javascript"> var _gaq = _gaq || []; _gaq.push([\\\'_setAccount\\\', \\\'\', escape=False)\n    response.write(response.google_analytics_id)\n    response.write("\']); _gaq.push([\'_trackPageview\']); (function() { var ga = document.createElement(\'script\'); ga.type = \'text/javascript\'; ga.async = true; ga.src = (\'https:\' == document.location.protocol ? \'https://ssl\' : \'http://www\') + \'.google-analytics.com/ga.js\'; var s = document.getElementsByTagName(\'script\')[0]; s.parentNode.insertBefore(ga, s); })(); </script> ", escape=False)\n    pass\nresponse.write(\'\\n</body>\\n</html>\\n\', escape=False)'
p7
sS'snapshot'
p8
(dp9
S'exception'
p10
(dp11
S'__hash__'
p12
S"<method-wrapper '__hash__' of exceptions.NameError object>"
p13
sS'__setattr__'
p14
S"<method-wrapper '__setattr__' of exceptions.NameError object>"
p15
sS'__reduce_ex__'
p16
S'<built-in method __reduce_ex__ of exceptions.NameError object>'
p17
sS'__getslice__'
p18
S"<method-wrapper '__getslice__' of exceptions.NameError object>"
p19
sS'__getitem__'
p20
S"<method-wrapper '__getitem__' of exceptions.NameError object>"
p21
sS'__setstate__'
p22
S'<built-in method __setstate__ of exceptions.NameError object>'
p23
sS'args'
p24
S'("name \'left_sidebar_enabled\' is not defined",)'
p25
sS'__reduce__'
p26
S'<built-in method __reduce__ of exceptions.NameError object>'
p27
sS'__str__'
p28
S"<method-wrapper '__str__' of exceptions.NameError object>"
p29
sS'__format__'
p30
S'<built-in method __format__ of exceptions.NameError object>'
p31
sS'__getattribute__'
p32
S"<method-wrapper '__getattribute__' of exceptions.NameError object>"
p33
sS'__class__'
p34
S"<type 'exceptions.NameError'>"
p35
sS'__unicode__'
p36
S'<built-in method __unicode__ of exceptions.NameError object>'
p37
sS'__delattr__'
p38
S"<method-wrapper '__delattr__' of exceptions.NameError object>"
p39
sS'__subclasshook__'
p40
S'<built-in method __subclasshook__ of type object>'
p41
sS'__repr__'
p42
S"<method-wrapper '__repr__' of exceptions.NameError object>"
p43
sS'__dict__'
p44
S'{}'
p45
sS'__sizeof__'
p46
S'<built-in method __sizeof__ of exceptions.NameError object>'
p47
sS'__doc__'
p48
S"'Name not found globally.'"
p49
sS'__init__'
p50
S"<method-wrapper '__init__' of exceptions.NameError object>"
p51
sS'__new__'
p52
S'<built-in method __new__ of type object>'
p53
ssS'evalue'
p54
S"name 'left_sidebar_enabled' is not defined"
p55
sS'request'
p56
ccopy_reg
_reconstructor
p57
(cgluon.html
BEAUTIFY
p58
c__builtin__
object
p59
NtRp60
(dp61
S'attributes'
p62
(dp63
sS'components'
p64
(lp65
g57
(cgluon.html
TABLE
p66
g59
NtRp67
(dp68
g62
(dp69
S'level'
p70
I5
ssS'parent'
p71
Nsg64
(lp72
g57
(cgluon.html
TR
p73
g59
NtRp74
(dp75
g62
(dp76
sg71
g67
sg64
(lp77
g57
(cgluon.html
TD
p78
g59
NtRp79
(dp80
g62
(dp81
S'_style'
p82
S'font-weight:bold;vertical-align:top'
p83
ssg71
g74
sg64
(lp84
S'ajax'
p85
asbag57
(g78
g59
NtRp86
(dp87
g62
(dp88
S'_valign'
p89
S'top'
p90
ssg71
g74
sg64
(lp91
S':'
asbag57
(g78
g59
NtRp92
(dp93
g62
(dp94
sg71
g74
sg64
(lp95
g57
(g58
g59
NtRp96
(dp97
g62
(dp98
g70
I5
ssg71
g92
sg64
(lp99
S'False'
p100
asbasbasbag57
(g73
g59
NtRp101
(dp102
g62
(dp103
sg71
g67
sg64
(lp104
g57
(g78
g59
NtRp105
(dp106
g62
(dp107
g82
g83
ssg71
g101
sg64
(lp108
S'application'
p109
asbag57
(g78
g59
NtRp110
(dp111
g62
(dp112
g89
g90
ssg71
g101
sg64
(lp113
S':'
asbag57
(g78
g59
NtRp114
(dp115
g62
(dp116
sg71
g101
sg64
(lp117
g57
(g58
g59
NtRp118
(dp119
g62
(dp120
g70
I5
ssg71
g114
sg64
(lp121
S'themishrms'
p122
asbasbasbag57
(g73
g59
NtRp123
(dp124
g62
(dp125
sg71
g67
sg64
(lp126
g57
(g78
g59
NtRp127
(dp128
g62
(dp129
g82
g83
ssg71
g123
sg64
(lp130
g24
asbag57
(g78
g59
NtRp131
(dp132
g62
(dp133
g89
g90
ssg71
g123
sg64
(lp134
S':'
asbag57
(g78
g59
NtRp135
(dp136
g62
(dp137
sg71
g123
sg64
(lp138
g57
(g58
g59
NtRp139
(dp140
g62
(dp141
g70
I5
ssg71
g135
sg64
(lp142
g57
(g66
g59
NtRp143
(dp144
g62
(dp145
g70
I4
ssg71
Nsg64
(lp146
sbasbasbasbag57
(g73
g59
NtRp147
(dp148
g62
(dp149
sg71
g67
sg64
(lp150
g57
(g78
g59
NtRp151
(dp152
g62
(dp153
g82
g83
ssg71
g147
sg64
(lp154
S'body'
p155
asbag57
(g78
g59
NtRp156
(dp157
g62
(dp158
g89
g90
ssg71
g147
sg64
(lp159
S':'
asbag57
(g78
g59
NtRp160
(dp161
g62
(dp162
sg71
g147
sg64
(lp163
g57
(g58
g59
NtRp164
(dp165
g62
(dp166
g70
I5
ssg71
g160
sg64
(lp167
S'<cStringIO.StringO object at 0x3384068>'
p168
asbasbasbag57
(g73
g59
NtRp169
(dp170
g62
(dp171
sg71
g67
sg64
(lp172
g57
(g78
g59
NtRp173
(dp174
g62
(dp175
g82
g83
ssg71
g169
sg64
(lp176
S'client'
p177
asbag57
(g78
g59
NtRp178
(dp179
g62
(dp180
g89
g90
ssg71
g169
sg64
(lp181
S':'
asbag57
(g78
g59
NtRp182
(dp183
g62
(dp184
sg71
g169
sg64
(lp185
g57
(g58
g59
NtRp186
(dp187
g62
(dp188
g70
I5
ssg71
g182
sg64
(lp189
S'127.0.0.1'
p190
asbasbasbag57
(g73
g59
NtRp191
(dp192
g62
(dp193
sg71
g67
sg64
(lp194
g57
(g78
g59
NtRp195
(dp196
g62
(dp197
g82
g83
ssg71
g191
sg64
(lp198
S'controller'
p199
asbag57
(g78
g59
NtRp200
(dp201
g62
(dp202
g89
g90
ssg71
g191
sg64
(lp203
S':'
asbag57
(g78
g59
NtRp204
(dp205
g62
(dp206
sg71
g191
sg64
(lp207
g57
(g58
g59
NtRp208
(dp209
g62
(dp210
g70
I5
ssg71
g204
sg64
(lp211
S'default'
p212
asbasbasbag57
(g73
g59
NtRp213
(dp214
g62
(dp215
sg71
g67
sg64
(lp216
g57
(g78
g59
NtRp217
(dp218
g62
(dp219
g82
g83
ssg71
g213
sg64
(lp220
S'cookies'
p221
asbag57
(g78
g59
NtRp222
(dp223
g62
(dp224
g89
g90
ssg71
g213
sg64
(lp225
S':'
asbag57
(g78
g59
NtRp226
(dp227
g62
(dp228
sg71
g213
sg64
(lp229
g57
(g58
g59
NtRp230
(dp231
g62
(dp232
g70
I5
ssg71
g226
sg64
(lp233
g57
(g66
g59
NtRp234
(dp235
g62
(dp236
g70
I4
ssg71
Nsg64
(lp237
g57
(g73
g59
NtRp238
(dp239
g62
(dp240
sg71
g234
sg64
(lp241
g57
(g78
g59
NtRp242
(dp243
g62
(dp244
g82
g83
ssg71
g238
sg64
(lp245
S'mypanel'
p246
asbag57
(g78
g59
NtRp247
(dp248
g62
(dp249
g89
g90
ssg71
g238
sg64
(lp250
S':'
asbag57
(g78
g59
NtRp251
(dp252
g62
(dp253
sg71
g238
sg64
(lp254
g57
(g58
g59
NtRp255
(dp256
g62
(dp257
g70
I4
ssg71
g251
sg64
(lp258
g57
(g66
g59
NtRp259
(dp260
g62
(dp261
g70
I3
ssg71
Nsg64
(lp262
g57
(g73
g59
NtRp263
(dp264
g62
(dp265
sg71
g259
sg64
(lp266
g57
(g78
g59
NtRp267
(dp268
g62
(dp269
g82
g83
ssg71
g263
sg64
(lp270
S'comment'
p271
asbag57
(g78
g59
NtRp272
(dp273
g62
(dp274
g89
g90
ssg71
g263
sg64
(lp275
S':'
asbag57
(g78
g59
NtRp276
(dp277
g62
(dp278
sg71
g263
sg64
(lp279
g57
(g58
g59
NtRp280
(dp281
g62
(dp282
g70
I3
ssg71
g276
sg64
(lp283
S''
asbasbasbag57
(g73
g59
NtRp284
(dp285
g62
(dp286
sg71
g259
sg64
(lp287
g57
(g78
g59
NtRp288
(dp289
g62
(dp290
g82
g83
ssg71
g284
sg64
(lp291
S'domain'
p292
asbag57
(g78
g59
NtRp293
(dp294
g62
(dp295
g89
g90
ssg71
g284
sg64
(lp296
S':'
asbag57
(g78
g59
NtRp297
(dp298
g62
(dp299
sg71
g284
sg64
(lp300
g57
(g58
g59
NtRp301
(dp302
g62
(dp303
g70
I3
ssg71
g297
sg64
(lp304
S''
asbasbasbag57
(g73
g59
NtRp305
(dp306
g62
(dp307
sg71
g259
sg64
(lp308
g57
(g78
g59
NtRp309
(dp310
g62
(dp311
g82
g83
ssg71
g305
sg64
(lp312
S'expires'
p313
asbag57
(g78
g59
NtRp314
(dp315
g62
(dp316
g89
g90
ssg71
g305
sg64
(lp317
S':'
asbag57
(g78
g59
NtRp318
(dp319
g62
(dp320
sg71
g305
sg64
(lp321
g57
(g58
g59
NtRp322
(dp323
g62
(dp324
g70
I3
ssg71
g318
sg64
(lp325
S''
asbasbasbag57
(g73
g59
NtRp326
(dp327
g62
(dp328
sg71
g259
sg64
(lp329
g57
(g78
g59
NtRp330
(dp331
g62
(dp332
g82
g83
ssg71
g326
sg64
(lp333
S'httponly'
p334
asbag57
(g78
g59
NtRp335
(dp336
g62
(dp337
g89
g90
ssg71
g326
sg64
(lp338
S':'
asbag57
(g78
g59
NtRp339
(dp340
g62
(dp341
sg71
g326
sg64
(lp342
g57
(g58
g59
NtRp343
(dp344
g62
(dp345
g70
I3
ssg71
g339
sg64
(lp346
S''
asbasbasbag57
(g73
g59
NtRp347
(dp348
g62
(dp349
sg71
g259
sg64
(lp350
g57
(g78
g59
NtRp351
(dp352
g62
(dp353
g82
g83
ssg71
g347
sg64
(lp354
S'max-age'
p355
asbag57
(g78
g59
NtRp356
(dp357
g62
(dp358
g89
g90
ssg71
g347
sg64
(lp359
S':'
asbag57
(g78
g59
NtRp360
(dp361
g62
(dp362
sg71
g347
sg64
(lp363
g57
(g58
g59
NtRp364
(dp365
g62
(dp366
g70
I3
ssg71
g360
sg64
(lp367
S''
asbasbasbag57
(g73
g59
NtRp368
(dp369
g62
(dp370
sg71
g259
sg64
(lp371
g57
(g78
g59
NtRp372
(dp373
g62
(dp374
g82
g83
ssg71
g368
sg64
(lp375
S'path'
p376
asbag57
(g78
g59
NtRp377
(dp378
g62
(dp379
g89
g90
ssg71
g368
sg64
(lp380
S':'
asbag57
(g78
g59
NtRp381
(dp382
g62
(dp383
sg71
g368
sg64
(lp384
g57
(g58
g59
NtRp385
(dp386
g62
(dp387
g70
I3
ssg71
g381
sg64
(lp388
S''
asbasbasbag57
(g73
g59
NtRp389
(dp390
g62
(dp391
sg71
g259
sg64
(lp392
g57
(g78
g59
NtRp393
(dp394
g62
(dp395
g82
g83
ssg71
g389
sg64
(lp396
S'secure'
p397
asbag57
(g78
g59
NtRp398
(dp399
g62
(dp400
g89
g90
ssg71
g389
sg64
(lp401
S':'
asbag57
(g78
g59
NtRp402
(dp403
g62
(dp404
sg71
g389
sg64
(lp405
g57
(g58
g59
NtRp406
(dp407
g62
(dp408
g70
I3
ssg71
g402
sg64
(lp409
S''
asbasbasbag57
(g73
g59
NtRp410
(dp411
g62
(dp412
sg71
g259
sg64
(lp413
g57
(g78
g59
NtRp414
(dp415
g62
(dp416
g82
g83
ssg71
g410
sg64
(lp417
S'version'
p418
asbag57
(g78
g59
NtRp419
(dp420
g62
(dp421
g89
g90
ssg71
g410
sg64
(lp422
S':'
asbag57
(g78
g59
NtRp423
(dp424
g62
(dp425
sg71
g410
sg64
(lp426
g57
(g58
g59
NtRp427
(dp428
g62
(dp429
g70
I3
ssg71
g423
sg64
(lp430
S''
asbasbasbasbasbasbasbag57
(g73
g59
NtRp431
(dp432
g62
(dp433
sg71
g234
sg64
(lp434
g57
(g78
g59
NtRp435
(dp436
g62
(dp437
g82
g83
ssg71
g431
sg64
(lp438
S'session_id_admin'
p439
asbag57
(g78
g59
NtRp440
(dp441
g62
(dp442
g89
g90
ssg71
g431
sg64
(lp443
S':'
asbag57
(g78
g59
NtRp444
(dp445
g62
(dp446
sg71
g431
sg64
(lp447
g57
(g58
g59
NtRp448
(dp449
g62
(dp450
g70
I4
ssg71
g444
sg64
(lp451
g57
(g66
g59
NtRp452
(dp453
g62
(dp454
g70
I3
ssg71
Nsg64
(lp455
g57
(g73
g59
NtRp456
(dp457
g62
(dp458
sg71
g452
sg64
(lp459
g57
(g78
g59
NtRp460
(dp461
g62
(dp462
g82
g83
ssg71
g456
sg64
(lp463
g271
asbag57
(g78
g59
NtRp464
(dp465
g62
(dp466
g89
g90
ssg71
g456
sg64
(lp467
S':'
asbag57
(g78
g59
NtRp468
(dp469
g62
(dp470
sg71
g456
sg64
(lp471
g57
(g58
g59
NtRp472
(dp473
g62
(dp474
g70
I3
ssg71
g468
sg64
(lp475
S''
asbasbasbag57
(g73
g59
NtRp476
(dp477
g62
(dp478
sg71
g452
sg64
(lp479
g57
(g78
g59
NtRp480
(dp481
g62
(dp482
g82
g83
ssg71
g476
sg64
(lp483
g292
asbag57
(g78
g59
NtRp484
(dp485
g62
(dp486
g89
g90
ssg71
g476
sg64
(lp487
S':'
asbag57
(g78
g59
NtRp488
(dp489
g62
(dp490
sg71
g476
sg64
(lp491
g57
(g58
g59
NtRp492
(dp493
g62
(dp494
g70
I3
ssg71
g488
sg64
(lp495
S''
asbasbasbag57
(g73
g59
NtRp496
(dp497
g62
(dp498
sg71
g452
sg64
(lp499
g57
(g78
g59
NtRp500
(dp501
g62
(dp502
g82
g83
ssg71
g496
sg64
(lp503
g313
asbag57
(g78
g59
NtRp504
(dp505
g62
(dp506
g89
g90
ssg71
g496
sg64
(lp507
S':'
asbag57
(g78
g59
NtRp508
(dp509
g62
(dp510
sg71
g496
sg64
(lp511
g57
(g58
g59
NtRp512
(dp513
g62
(dp514
g70
I3
ssg71
g508
sg64
(lp515
S''
asbasbasbag57
(g73
g59
NtRp516
(dp517
g62
(dp518
sg71
g452
sg64
(lp519
g57
(g78
g59
NtRp520
(dp521
g62
(dp522
g82
g83
ssg71
g516
sg64
(lp523
g334
asbag57
(g78
g59
NtRp524
(dp525
g62
(dp526
g89
g90
ssg71
g516
sg64
(lp527
S':'
asbag57
(g78
g59
NtRp528
(dp529
g62
(dp530
sg71
g516
sg64
(lp531
g57
(g58
g59
NtRp532
(dp533
g62
(dp534
g70
I3
ssg71
g528
sg64
(lp535
S''
asbasbasbag57
(g73
g59
NtRp536
(dp537
g62
(dp538
sg71
g452
sg64
(lp539
g57
(g78
g59
NtRp540
(dp541
g62
(dp542
g82
g83
ssg71
g536
sg64
(lp543
g355
asbag57
(g78
g59
NtRp544
(dp545
g62
(dp546
g89
g90
ssg71
g536
sg64
(lp547
S':'
asbag57
(g78
g59
NtRp548
(dp549
g62
(dp550
sg71
g536
sg64
(lp551
g57
(g58
g59
NtRp552
(dp553
g62
(dp554
g70
I3
ssg71
g548
sg64
(lp555
S''
asbasbasbag57
(g73
g59
NtRp556
(dp557
g62
(dp558
sg71
g452
sg64
(lp559
g57
(g78
g59
NtRp560
(dp561
g62
(dp562
g82
g83
ssg71
g556
sg64
(lp563
g376
asbag57
(g78
g59
NtRp564
(dp565
g62
(dp566
g89
g90
ssg71
g556
sg64
(lp567
S':'
asbag57
(g78
g59
NtRp568
(dp569
g62
(dp570
sg71
g556
sg64
(lp571
g57
(g58
g59
NtRp572
(dp573
g62
(dp574
g70
I3
ssg71
g568
sg64
(lp575
S''
asbasbasbag57
(g73
g59
NtRp576
(dp577
g62
(dp578
sg71
g452
sg64
(lp579
g57
(g78
g59
NtRp580
(dp581
g62
(dp582
g82
g83
ssg71
g576
sg64
(lp583
g397
asbag57
(g78
g59
NtRp584
(dp585
g62
(dp586
g89
g90
ssg71
g576
sg64
(lp587
S':'
asbag57
(g78
g59
NtRp588
(dp589
g62
(dp590
sg71
g576
sg64
(lp591
g57
(g58
g59
NtRp592
(dp593
g62
(dp594
g70
I3
ssg71
g588
sg64
(lp595
S''
asbasbasbag57
(g73
g59
NtRp596
(dp597
g62
(dp598
sg71
g452
sg64
(lp599
g57
(g78
g59
NtRp600
(dp601
g62
(dp602
g82
g83
ssg71
g596
sg64
(lp603
g418
asbag57
(g78
g59
NtRp604
(dp605
g62
(dp606
g89
g90
ssg71
g596
sg64
(lp607
S':'
asbag57
(g78
g59
NtRp608
(dp609
g62
(dp610
sg71
g596
sg64
(lp611
g57
(g58
g59
NtRp612
(dp613
g62
(dp614
g70
I3
ssg71
g608
sg64
(lp615
S''
asbasbasbasbasbasbasbag57
(g73
g59
NtRp616
(dp617
g62
(dp618
sg71
g234
sg64
(lp619
g57
(g78
g59
NtRp620
(dp621
g62
(dp622
g82
g83
ssg71
g616
sg64
(lp623
S'session_id_themishrms'
p624
asbag57
(g78
g59
NtRp625
(dp626
g62
(dp627
g89
g90
ssg71
g616
sg64
(lp628
S':'
asbag57
(g78
g59
NtRp629
(dp630
g62
(dp631
sg71
g616
sg64
(lp632
g57
(g58
g59
NtRp633
(dp634
g62
(dp635
g70
I4
ssg71
g629
sg64
(lp636
g57
(g66
g59
NtRp637
(dp638
g62
(dp639
g70
I3
ssg71
Nsg64
(lp640
g57
(g73
g59
NtRp641
(dp642
g62
(dp643
sg71
g637
sg64
(lp644
g57
(g78
g59
NtRp645
(dp646
g62
(dp647
g82
g83
ssg71
g641
sg64
(lp648
g271
asbag57
(g78
g59
NtRp649
(dp650
g62
(dp651
g89
g90
ssg71
g641
sg64
(lp652
S':'
asbag57
(g78
g59
NtRp653
(dp654
g62
(dp655
sg71
g641
sg64
(lp656
g57
(g58
g59
NtRp657
(dp658
g62
(dp659
g70
I3
ssg71
g653
sg64
(lp660
S''
asbasbasbag57
(g73
g59
NtRp661
(dp662
g62
(dp663
sg71
g637
sg64
(lp664
g57
(g78
g59
NtRp665
(dp666
g62
(dp667
g82
g83
ssg71
g661
sg64
(lp668
g292
asbag57
(g78
g59
NtRp669
(dp670
g62
(dp671
g89
g90
ssg71
g661
sg64
(lp672
S':'
asbag57
(g78
g59
NtRp673
(dp674
g62
(dp675
sg71
g661
sg64
(lp676
g57
(g58
g59
NtRp677
(dp678
g62
(dp679
g70
I3
ssg71
g673
sg64
(lp680
S''
asbasbasbag57
(g73
g59
NtRp681
(dp682
g62
(dp683
sg71
g637
sg64
(lp684
g57
(g78
g59
NtRp685
(dp686
g62
(dp687
g82
g83
ssg71
g681
sg64
(lp688
g313
asbag57
(g78
g59
NtRp689
(dp690
g62
(dp691
g89
g90
ssg71
g681
sg64
(lp692
S':'
asbag57
(g78
g59
NtRp693
(dp694
g62
(dp695
sg71
g681
sg64
(lp696
g57
(g58
g59
NtRp697
(dp698
g62
(dp699
g70
I3
ssg71
g693
sg64
(lp700
S''
asbasbasbag57
(g73
g59
NtRp701
(dp702
g62
(dp703
sg71
g637
sg64
(lp704
g57
(g78
g59
NtRp705
(dp706
g62
(dp707
g82
g83
ssg71
g701
sg64
(lp708
g334
asbag57
(g78
g59
NtRp709
(dp710
g62
(dp711
g89
g90
ssg71
g701
sg64
(lp712
S':'
asbag57
(g78
g59
NtRp713
(dp714
g62
(dp715
sg71
g701
sg64
(lp716
g57
(g58
g59
NtRp717
(dp718
g62
(dp719
g70
I3
ssg71
g713
sg64
(lp720
S''
asbasbasbag57
(g73
g59
NtRp721
(dp722
g62
(dp723
sg71
g637
sg64
(lp724
g57
(g78
g59
NtRp725
(dp726
g62
(dp727
g82
g83
ssg71
g721
sg64
(lp728
g355
asbag57
(g78
g59
NtRp729
(dp730
g62
(dp731
g89
g90
ssg71
g721
sg64
(lp732
S':'
asbag57
(g78
g59
NtRp733
(dp734
g62
(dp735
sg71
g721
sg64
(lp736
g57
(g58
g59
NtRp737
(dp738
g62
(dp739
g70
I3
ssg71
g733
sg64
(lp740
S''
asbasbasbag57
(g73
g59
NtRp741
(dp742
g62
(dp743
sg71
g637
sg64
(lp744
g57
(g78
g59
NtRp745
(dp746
g62
(dp747
g82
g83
ssg71
g741
sg64
(lp748
g376
asbag57
(g78
g59
NtRp749
(dp750
g62
(dp751
g89
g90
ssg71
g741
sg64
(lp752
S':'
asbag57
(g78
g59
NtRp753
(dp754
g62
(dp755
sg71
g741
sg64
(lp756
g57
(g58
g59
NtRp757
(dp758
g62
(dp759
g70
I3
ssg71
g753
sg64
(lp760
S''
asbasbasbag57
(g73
g59
NtRp761
(dp762
g62
(dp763
sg71
g637
sg64
(lp764
g57
(g78
g59
NtRp765
(dp766
g62
(dp767
g82
g83
ssg71
g761
sg64
(lp768
g397
asbag57
(g78
g59
NtRp769
(dp770
g62
(dp771
g89
g90
ssg71
g761
sg64
(lp772
S':'
asbag57
(g78
g59
NtRp773
(dp774
g62
(dp775
sg71
g761
sg64
(lp776
g57
(g58
g59
NtRp777
(dp778
g62
(dp779
g70
I3
ssg71
g773
sg64
(lp780
S''
asbasbasbag57
(g73
g59
NtRp781
(dp782
g62
(dp783
sg71
g637
sg64
(lp784
g57
(g78
g59
NtRp785
(dp786
g62
(dp787
g82
g83
ssg71
g781
sg64
(lp788
g418
asbag57
(g78
g59
NtRp789
(dp790
g62
(dp791
g89
g90
ssg71
g781
sg64
(lp792
S':'
asbag57
(g78
g59
NtRp793
(dp794
g62
(dp795
sg71
g781
sg64
(lp796
g57
(g58
g59
NtRp797
(dp798
g62
(dp799
g70
I3
ssg71
g793
sg64
(lp800
S''
asbasbasbasbasbasbasbag57
(g73
g59
NtRp801
(dp802
g62
(dp803
sg71
g234
sg64
(lp804
g57
(g78
g59
NtRp805
(dp806
g62
(dp807
g82
g83
ssg71
g801
sg64
(lp808
S'session_id_welcome'
p809
asbag57
(g78
g59
NtRp810
(dp811
g62
(dp812
g89
g90
ssg71
g801
sg64
(lp813
S':'
asbag57
(g78
g59
NtRp814
(dp815
g62
(dp816
sg71
g801
sg64
(lp817
g57
(g58
g59
NtRp818
(dp819
g62
(dp820
g70
I4
ssg71
g814
sg64
(lp821
g57
(g66
g59
NtRp822
(dp823
g62
(dp824
g70
I3
ssg71
Nsg64
(lp825
g57
(g73
g59
NtRp826
(dp827
g62
(dp828
sg71
g822
sg64
(lp829
g57
(g78
g59
NtRp830
(dp831
g62
(dp832
g82
g83
ssg71
g826
sg64
(lp833
g271
asbag57
(g78
g59
NtRp834
(dp835
g62
(dp836
g89
g90
ssg71
g826
sg64
(lp837
S':'
asbag57
(g78
g59
NtRp838
(dp839
g62
(dp840
sg71
g826
sg64
(lp841
g57
(g58
g59
NtRp842
(dp843
g62
(dp844
g70
I3
ssg71
g838
sg64
(lp845
S''
asbasbasbag57
(g73
g59
NtRp846
(dp847
g62
(dp848
sg71
g822
sg64
(lp849
g57
(g78
g59
NtRp850
(dp851
g62
(dp852
g82
g83
ssg71
g846
sg64
(lp853
g292
asbag57
(g78
g59
NtRp854
(dp855
g62
(dp856
g89
g90
ssg71
g846
sg64
(lp857
S':'
asbag57
(g78
g59
NtRp858
(dp859
g62
(dp860
sg71
g846
sg64
(lp861
g57
(g58
g59
NtRp862
(dp863
g62
(dp864
g70
I3
ssg71
g858
sg64
(lp865
S''
asbasbasbag57
(g73
g59
NtRp866
(dp867
g62
(dp868
sg71
g822
sg64
(lp869
g57
(g78
g59
NtRp870
(dp871
g62
(dp872
g82
g83
ssg71
g866
sg64
(lp873
g313
asbag57
(g78
g59
NtRp874
(dp875
g62
(dp876
g89
g90
ssg71
g866
sg64
(lp877
S':'
asbag57
(g78
g59
NtRp878
(dp879
g62
(dp880
sg71
g866
sg64
(lp881
g57
(g58
g59
NtRp882
(dp883
g62
(dp884
g70
I3
ssg71
g878
sg64
(lp885
S''
asbasbasbag57
(g73
g59
NtRp886
(dp887
g62
(dp888
sg71
g822
sg64
(lp889
g57
(g78
g59
NtRp890
(dp891
g62
(dp892
g82
g83
ssg71
g886
sg64
(lp893
g334
asbag57
(g78
g59
NtRp894
(dp895
g62
(dp896
g89
g90
ssg71
g886
sg64
(lp897
S':'
asbag57
(g78
g59
NtRp898
(dp899
g62
(dp900
sg71
g886
sg64
(lp901
g57
(g58
g59
NtRp902
(dp903
g62
(dp904
g70
I3
ssg71
g898
sg64
(lp905
S''
asbasbasbag57
(g73
g59
NtRp906
(dp907
g62
(dp908
sg71
g822
sg64
(lp909
g57
(g78
g59
NtRp910
(dp911
g62
(dp912
g82
g83
ssg71
g906
sg64
(lp913
g355
asbag57
(g78
g59
NtRp914
(dp915
g62
(dp916
g89
g90
ssg71
g906
sg64
(lp917
S':'
asbag57
(g78
g59
NtRp918
(dp919
g62
(dp920
sg71
g906
sg64
(lp921
g57
(g58
g59
NtRp922
(dp923
g62
(dp924
g70
I3
ssg71
g918
sg64
(lp925
S''
asbasbasbag57
(g73
g59
NtRp926
(dp927
g62
(dp928
sg71
g822
sg64
(lp929
g57
(g78
g59
NtRp930
(dp931
g62
(dp932
g82
g83
ssg71
g926
sg64
(lp933
g376
asbag57
(g78
g59
NtRp934
(dp935
g62
(dp936
g89
g90
ssg71
g926
sg64
(lp937
S':'
asbag57
(g78
g59
NtRp938
(dp939
g62
(dp940
sg71
g926
sg64
(lp941
g57
(g58
g59
NtRp942
(dp943
g62
(dp944
g70
I3
ssg71
g938
sg64
(lp945
S''
asbasbasbag57
(g73
g59
NtRp946
(dp947
g62
(dp948
sg71
g822
sg64
(lp949
g57
(g78
g59
NtRp950
(dp951
g62
(dp952
g82
g83
ssg71
g946
sg64
(lp953
g397
asbag57
(g78
g59
NtRp954
(dp955
g62
(dp956
g89
g90
ssg71
g946
sg64
(lp957
S':'
asbag57
(g78
g59
NtRp958
(dp959
g62
(dp960
sg71
g946
sg64
(lp961
g57
(g58
g59
NtRp962
(dp963
g62
(dp964
g70
I3
ssg71
g958
sg64
(lp965
S''
asbasbasbag57
(g73
g59
NtRp966
(dp967
g62
(dp968
sg71
g822
sg64
(lp969
g57
(g78
g59
NtRp970
(dp971
g62
(dp972
g82
g83
ssg71
g966
sg64
(lp973
g418
asbag57
(g78
g59
NtRp974
(dp975
g62
(dp976
g89
g90
ssg71
g966
sg64
(lp977
S':'
asbag57
(g78
g59
NtRp978
(dp979
g62
(dp980
sg71
g966
sg64
(lp981
g57
(g58
g59
NtRp982
(dp983
g62
(dp984
g70
I3
ssg71
g978
sg64
(lp985
S''
asbasbasbasbasbasbasbag57
(g73
g59
NtRp986
(dp987
g62
(dp988
sg71
g234
sg64
(lp989
g57
(g78
g59
NtRp990
(dp991
g62
(dp992
g82
g83
ssg71
g986
sg64
(lp993
S'tls'
p994
asbag57
(g78
g59
NtRp995
(dp996
g62
(dp997
g89
g90
ssg71
g986
sg64
(lp998
S':'
asbag57
(g78
g59
NtRp999
(dp1000
g62
(dp1001
sg71
g986
sg64
(lp1002
g57
(g58
g59
NtRp1003
(dp1004
g62
(dp1005
g70
I4
ssg71
g999
sg64
(lp1006
g57
(g66
g59
NtRp1007
(dp1008
g62
(dp1009
g70
I3
ssg71
Nsg64
(lp1010
g57
(g73
g59
NtRp1011
(dp1012
g62
(dp1013
sg71
g1007
sg64
(lp1014
g57
(g78
g59
NtRp1015
(dp1016
g62
(dp1017
g82
g83
ssg71
g1011
sg64
(lp1018
g271
asbag57
(g78
g59
NtRp1019
(dp1020
g62
(dp1021
g89
g90
ssg71
g1011
sg64
(lp1022
S':'
asbag57
(g78
g59
NtRp1023
(dp1024
g62
(dp1025
sg71
g1011
sg64
(lp1026
g57
(g58
g59
NtRp1027
(dp1028
g62
(dp1029
g70
I3
ssg71
g1023
sg64
(lp1030
S''
asbasbasbag57
(g73
g59
NtRp1031
(dp1032
g62
(dp1033
sg71
g1007
sg64
(lp1034
g57
(g78
g59
NtRp1035
(dp1036
g62
(dp1037
g82
g83
ssg71
g1031
sg64
(lp1038
g292
asbag57
(g78
g59
NtRp1039
(dp1040
g62
(dp1041
g89
g90
ssg71
g1031
sg64
(lp1042
S':'
asbag57
(g78
g59
NtRp1043
(dp1044
g62
(dp1045
sg71
g1031
sg64
(lp1046
g57
(g58
g59
NtRp1047
(dp1048
g62
(dp1049
g70
I3
ssg71
g1043
sg64
(lp1050
S''
asbasbasbag57
(g73
g59
NtRp1051
(dp1052
g62
(dp1053
sg71
g1007
sg64
(lp1054
g57
(g78
g59
NtRp1055
(dp1056
g62
(dp1057
g82
g83
ssg71
g1051
sg64
(lp1058
g313
asbag57
(g78
g59
NtRp1059
(dp1060
g62
(dp1061
g89
g90
ssg71
g1051
sg64
(lp1062
S':'
asbag57
(g78
g59
NtRp1063
(dp1064
g62
(dp1065
sg71
g1051
sg64
(lp1066
g57
(g58
g59
NtRp1067
(dp1068
g62
(dp1069
g70
I3
ssg71
g1063
sg64
(lp1070
S''
asbasbasbag57
(g73
g59
NtRp1071
(dp1072
g62
(dp1073
sg71
g1007
sg64
(lp1074
g57
(g78
g59
NtRp1075
(dp1076
g62
(dp1077
g82
g83
ssg71
g1071
sg64
(lp1078
g334
asbag57
(g78
g59
NtRp1079
(dp1080
g62
(dp1081
g89
g90
ssg71
g1071
sg64
(lp1082
S':'
asbag57
(g78
g59
NtRp1083
(dp1084
g62
(dp1085
sg71
g1071
sg64
(lp1086
g57
(g58
g59
NtRp1087
(dp1088
g62
(dp1089
g70
I3
ssg71
g1083
sg64
(lp1090
S''
asbasbasbag57
(g73
g59
NtRp1091
(dp1092
g62
(dp1093
sg71
g1007
sg64
(lp1094
g57
(g78
g59
NtRp1095
(dp1096
g62
(dp1097
g82
g83
ssg71
g1091
sg64
(lp1098
g355
asbag57
(g78
g59
NtRp1099
(dp1100
g62
(dp1101
g89
g90
ssg71
g1091
sg64
(lp1102
S':'
asbag57
(g78
g59
NtRp1103
(dp1104
g62
(dp1105
sg71
g1091
sg64
(lp1106
g57
(g58
g59
NtRp1107
(dp1108
g62
(dp1109
g70
I3
ssg71
g1103
sg64
(lp1110
S''
asbasbasbag57
(g73
g59
NtRp1111
(dp1112
g62
(dp1113
sg71
g1007
sg64
(lp1114
g57
(g78
g59
NtRp1115
(dp1116
g62
(dp1117
g82
g83
ssg71
g1111
sg64
(lp1118
g376
asbag57
(g78
g59
NtRp1119
(dp1120
g62
(dp1121
g89
g90
ssg71
g1111
sg64
(lp1122
S':'
asbag57
(g78
g59
NtRp1123
(dp1124
g62
(dp1125
sg71
g1111
sg64
(lp1126
g57
(g58
g59
NtRp1127
(dp1128
g62
(dp1129
g70
I3
ssg71
g1123
sg64
(lp1130
S''
asbasbasbag57
(g73
g59
NtRp1131
(dp1132
g62
(dp1133
sg71
g1007
sg64
(lp1134
g57
(g78
g59
NtRp1135
(dp1136
g62
(dp1137
g82
g83
ssg71
g1131
sg64
(lp1138
g397
asbag57
(g78
g59
NtRp1139
(dp1140
g62
(dp1141
g89
g90
ssg71
g1131
sg64
(lp1142
S':'
asbag57
(g78
g59
NtRp1143
(dp1144
g62
(dp1145
sg71
g1131
sg64
(lp1146
g57
(g58
g59
NtRp1147
(dp1148
g62
(dp1149
g70
I3
ssg71
g1143
sg64
(lp1150
S''
asbasbasbag57
(g73
g59
NtRp1151
(dp1152
g62
(dp1153
sg71
g1007
sg64
(lp1154
g57
(g78
g59
NtRp1155
(dp1156
g62
(dp1157
g82
g83
ssg71
g1151
sg64
(lp1158
g418
asbag57
(g78
g59
NtRp1159
(dp1160
g62
(dp1161
g89
g90
ssg71
g1151
sg64
(lp1162
S':'
asbag57
(g78
g59
NtRp1163
(dp1164
g62
(dp1165
sg71
g1151
sg64
(lp1166
g57
(g58
g59
NtRp1167
(dp1168
g62
(dp1169
g70
I3
ssg71
g1163
sg64
(lp1170
S''
asbasbasbasbasbasbasbasbasbasbasbag57
(g73
g59
NtRp1171
(dp1172
g62
(dp1173
sg71
g67
sg64
(lp1174
g57
(g78
g59
NtRp1175
(dp1176
g62
(dp1177
g82
g83
ssg71
g1171
sg64
(lp1178
S'env'
p1179
asbag57
(g78
g59
NtRp1180
(dp1181
g62
(dp1182
g89
g90
ssg71
g1171
sg64
(lp1183
S':'
asbag57
(g78
g59
NtRp1184
(dp1185
g62
(dp1186
sg71
g1171
sg64
(lp1187
g57
(g58
g59
NtRp1188
(dp1189
g62
(dp1190
g70
I5
ssg71
g1184
sg64
(lp1191
g57
(g66
g59
NtRp1192
(dp1193
g62
(dp1194
g70
I4
ssg71
Nsg64
(lp1195
g57
(g73
g59
NtRp1196
(dp1197
g62
(dp1198
sg71
g1192
sg64
(lp1199
g57
(g78
g59
NtRp1200
(dp1201
g62
(dp1202
g82
g83
ssg71
g1196
sg64
(lp1203
S'app_folders'
p1204
asbag57
(g78
g59
NtRp1205
(dp1206
g62
(dp1207
g89
g90
ssg71
g1196
sg64
(lp1208
S':'
asbag57
(g78
g59
NtRp1209
(dp1210
g62
(dp1211
sg71
g1196
sg64
(lp1212
g57
(g58
g59
NtRp1213
(dp1214
g62
(dp1215
g70
I4
ssg71
g1209
sg64
(lp1216
S"set(['/home/rohitraj/Desktop/web2py/applications/admin/', '/home/rohitraj/Desktop/web2py/applications/welcome/', '/home/rohitraj/Desktop/web2py/applications/themishrms/'])"
p1217
asbasbasbag57
(g73
g59
NtRp1218
(dp1219
g62
(dp1220
sg71
g1192
sg64
(lp1221
g57
(g78
g59
NtRp1222
(dp1223
g62
(dp1224
g82
g83
ssg71
g1218
sg64
(lp1225
S'applications_parent'
p1226
asbag57
(g78
g59
NtRp1227
(dp1228
g62
(dp1229
g89
g90
ssg71
g1218
sg64
(lp1230
S':'
asbag57
(g78
g59
NtRp1231
(dp1232
g62
(dp1233
sg71
g1218
sg64
(lp1234
g57
(g58
g59
NtRp1235
(dp1236
g62
(dp1237
g70
I4
ssg71
g1231
sg64
(lp1238
S'/home/rohitraj/Desktop/web2py'
p1239
asbasbasbag57
(g73
g59
NtRp1240
(dp1241
g62
(dp1242
sg71
g1192
sg64
(lp1243
g57
(g78
g59
NtRp1244
(dp1245
g62
(dp1246
g82
g83
ssg71
g1240
sg64
(lp1247
S'cmd_args'
p1248
asbag57
(g78
g59
NtRp1249
(dp1250
g62
(dp1251
g89
g90
ssg71
g1240
sg64
(lp1252
S':'
asbag57
(g78
g59
NtRp1253
(dp1254
g62
(dp1255
sg71
g1240
sg64
(lp1256
g57
(g58
g59
NtRp1257
(dp1258
g62
(dp1259
g70
I4
ssg71
g1253
sg64
(lp1260
g57
(g66
g59
NtRp1261
(dp1262
g62
(dp1263
g70
I3
ssg71
Nsg64
(lp1264
sbasbasbasbag57
(g73
g59
NtRp1265
(dp1266
g62
(dp1267
sg71
g1192
sg64
(lp1268
g57
(g78
g59
NtRp1269
(dp1270
g62
(dp1271
g82
g83
ssg71
g1265
sg64
(lp1272
S'cmd_options'
p1273
asbag57
(g78
g59
NtRp1274
(dp1275
g62
(dp1276
g89
g90
ssg71
g1265
sg64
(lp1277
S':'
asbag57
(g78
g59
NtRp1278
(dp1279
g62
(dp1280
sg71
g1265
sg64
(lp1281
g57
(g58
g59
NtRp1282
(dp1283
g62
(dp1284
g70
I4
ssg71
g1278
sg64
(lp1285
S"<Values at 0x21cacb0: {'verbose': False, 'ip': '127.0.0.1', 'shutdown_timeout': 5, 'taskbar': False, 'nocron': False, 'pid_filename': 'httpserver.pid', 'maxthreads': None, 'softcron': False, 'server_name': 'RohitRaj', 'bpython': False, 'nogui': False, 'port': 8000, 'extcron': False, 'debuglevel': 30, 'test': None, 'folder': '/home/rohitraj/Desktop/web2py', 'config': '', 'import_models': False, 'winservice': '', 'shell': None, 'run': '', 'log_filename': 'httpserver.log', 'args': [''], 'socket_timeout': 5, 'ssl_ca_certificate': None, 'scheduler': None, 'profiler_filename': None, 'ssl_private_key': '', 'password': 'admin', 'request_queue_size': 5, 'ssl_certificate': '', 'cronjob': False, 'numthreads': None, 'quiet': False, 'interfaces': None, 'minthreads': None, 'timeout': 10, 'plain': False, 'nobanner': False}>"
p1286
asbasbasbag57
(g73
g59
NtRp1287
(dp1288
g62
(dp1289
sg71
g1192
sg64
(lp1290
g57
(g78
g59
NtRp1291
(dp1292
g62
(dp1293
g82
g83
ssg71
g1287
sg64
(lp1294
S'db_sessions'
p1295
asbag57
(g78
g59
NtRp1296
(dp1297
g62
(dp1298
g89
g90
ssg71
g1287
sg64
(lp1299
S':'
asbag57
(g78
g59
NtRp1300
(dp1301
g62
(dp1302
sg71
g1287
sg64
(lp1303
g57
(g58
g59
NtRp1304
(dp1305
g62
(dp1306
g70
I4
ssg71
g1300
sg64
(lp1307
S'set([])'
p1308
asbasbasbag57
(g73
g59
NtRp1309
(dp1310
g62
(dp1311
sg71
g1192
sg64
(lp1312
g57
(g78
g59
NtRp1313
(dp1314
g62
(dp1315
g82
g83
ssg71
g1309
sg64
(lp1316
S'debugging'
p1317
asbag57
(g78
g59
NtRp1318
(dp1319
g62
(dp1320
g89
g90
ssg71
g1309
sg64
(lp1321
S':'
asbag57
(g78
g59
NtRp1322
(dp1323
g62
(dp1324
sg71
g1309
sg64
(lp1325
g57
(g58
g59
NtRp1326
(dp1327
g62
(dp1328
g70
I4
ssg71
g1322
sg64
(lp1329
g100
asbasbasbag57
(g73
g59
NtRp1330
(dp1331
g62
(dp1332
sg71
g1192
sg64
(lp1333
g57
(g78
g59
NtRp1334
(dp1335
g62
(dp1336
g82
g83
ssg71
g1330
sg64
(lp1337
S'gluon_parent'
p1338
asbag57
(g78
g59
NtRp1339
(dp1340
g62
(dp1341
g89
g90
ssg71
g1330
sg64
(lp1342
S':'
asbag57
(g78
g59
NtRp1343
(dp1344
g62
(dp1345
sg71
g1330
sg64
(lp1346
g57
(g58
g59
NtRp1347
(dp1348
g62
(dp1349
g70
I4
ssg71
g1343
sg64
(lp1350
S'/home/rohitraj/Desktop/web2py'
p1351
asbasbasbag57
(g73
g59
NtRp1352
(dp1353
g62
(dp1354
sg71
g1192
sg64
(lp1355
g57
(g78
g59
NtRp1356
(dp1357
g62
(dp1358
g82
g83
ssg71
g1352
sg64
(lp1359
S'http_accept'
p1360
asbag57
(g78
g59
NtRp1361
(dp1362
g62
(dp1363
g89
g90
ssg71
g1352
sg64
(lp1364
S':'
asbag57
(g78
g59
NtRp1365
(dp1366
g62
(dp1367
sg71
g1352
sg64
(lp1368
g57
(g58
g59
NtRp1369
(dp1370
g62
(dp1371
g70
I4
ssg71
g1365
sg64
(lp1372
S'text/html,application/xhtml+xml,application/xml;q=0.9,*/*;q=0.8'
p1373
asbasbasbag57
(g73
g59
NtRp1374
(dp1375
g62
(dp1376
sg71
g1192
sg64
(lp1377
g57
(g78
g59
NtRp1378
(dp1379
g62
(dp1380
g82
g83
ssg71
g1374
sg64
(lp1381
S'http_accept_charset'
p1382
asbag57
(g78
g59
NtRp1383
(dp1384
g62
(dp1385
g89
g90
ssg71
g1374
sg64
(lp1386
S':'
asbag57
(g78
g59
NtRp1387
(dp1388
g62
(dp1389
sg71
g1374
sg64
(lp1390
g57
(g58
g59
NtRp1391
(dp1392
g62
(dp1393
g70
I4
ssg71
g1387
sg64
(lp1394
S'ISO-8859-1,utf-8;q=0.7,*;q=0.3'
p1395
asbasbasbag57
(g73
g59
NtRp1396
(dp1397
g62
(dp1398
sg71
g1192
sg64
(lp1399
g57
(g78
g59
NtRp1400
(dp1401
g62
(dp1402
g82
g83
ssg71
g1396
sg64
(lp1403
S'http_accept_encoding'
p1404
asbag57
(g78
g59
NtRp1405
(dp1406
g62
(dp1407
g89
g90
ssg71
g1396
sg64
(lp1408
S':'
asbag57
(g78
g59
NtRp1409
(dp1410
g62
(dp1411
sg71
g1396
sg64
(lp1412
g57
(g58
g59
NtRp1413
(dp1414
g62
(dp1415
g70
I4
ssg71
g1409
sg64
(lp1416
S'gzip,deflate,sdch'
p1417
asbasbasbag57
(g73
g59
NtRp1418
(dp1419
g62
(dp1420
sg71
g1192
sg64
(lp1421
g57
(g78
g59
NtRp1422
(dp1423
g62
(dp1424
g82
g83
ssg71
g1418
sg64
(lp1425
S'http_accept_language'
p1426
asbag57
(g78
g59
NtRp1427
(dp1428
g62
(dp1429
g89
g90
ssg71
g1418
sg64
(lp1430
S':'
asbag57
(g78
g59
NtRp1431
(dp1432
g62
(dp1433
sg71
g1418
sg64
(lp1434
g57
(g58
g59
NtRp1435
(dp1436
g62
(dp1437
g70
I4
ssg71
g1431
sg64
(lp1438
S'en-US,en;q=0.8'
p1439
asbasbasbag57
(g73
g59
NtRp1440
(dp1441
g62
(dp1442
sg71
g1192
sg64
(lp1443
g57
(g78
g59
NtRp1444
(dp1445
g62
(dp1446
g82
g83
ssg71
g1440
sg64
(lp1447
S'http_cache_control'
p1448
asbag57
(g78
g59
NtRp1449
(dp1450
g62
(dp1451
g89
g90
ssg71
g1440
sg64
(lp1452
S':'
asbag57
(g78
g59
NtRp1453
(dp1454
g62
(dp1455
sg71
g1440
sg64
(lp1456
g57
(g58
g59
NtRp1457
(dp1458
g62
(dp1459
g70
I4
ssg71
g1453
sg64
(lp1460
S'max-age=0'
p1461
asbasbasbag57
(g73
g59
NtRp1462
(dp1463
g62
(dp1464
sg71
g1192
sg64
(lp1465
g57
(g78
g59
NtRp1466
(dp1467
g62
(dp1468
g82
g83
ssg71
g1462
sg64
(lp1469
S'http_connection'
p1470
asbag57
(g78
g59
NtRp1471
(dp1472
g62
(dp1473
g89
g90
ssg71
g1462
sg64
(lp1474
S':'
asbag57
(g78
g59
NtRp1475
(dp1476
g62
(dp1477
sg71
g1462
sg64
(lp1478
g57
(g58
g59
NtRp1479
(dp1480
g62
(dp1481
g70
I4
ssg71
g1475
sg64
(lp1482
S'keep-alive'
p1483
asbasbasbag57
(g73
g59
NtRp1484
(dp1485
g62
(dp1486
sg71
g1192
sg64
(lp1487
g57
(g78
g59
NtRp1488
(dp1489
g62
(dp1490
g82
g83
ssg71
g1484
sg64
(lp1491
S'http_cookie'
p1492
asbag57
(g78
g59
NtRp1493
(dp1494
g62
(dp1495
g89
g90
ssg71
g1484
sg64
(lp1496
S':'
asbag57
(g78
g59
NtRp1497
(dp1498
g62
(dp1499
sg71
g1484
sg64
(lp1500
g57
(g58
g59
NtRp1501
(dp1502
g62
(dp1503
g70
I4
ssg71
g1497
sg64
(lp1504
S'session_id_welcome=127.0.0.1-70bea01e-00fc-48e0-aae6-cb9924c63a4e; mypanel=up; tls=up; session_id_admin=127.0.0.1-afd17df7-85e4-48fa-9cea-bbd57a7d0408; session_id_themishrms=127.0.0.1-20fd6c52-a5a5-4c5e-a380-2f2008348425'
p1505
asbasbasbag57
(g73
g59
NtRp1506
(dp1507
g62
(dp1508
sg71
g1192
sg64
(lp1509
g57
(g78
g59
NtRp1510
(dp1511
g62
(dp1512
g82
g83
ssg71
g1506
sg64
(lp1513
S'http_host'
p1514
asbag57
(g78
g59
NtRp1515
(dp1516
g62
(dp1517
g89
g90
ssg71
g1506
sg64
(lp1518
S':'
asbag57
(g78
g59
NtRp1519
(dp1520
g62
(dp1521
sg71
g1506
sg64
(lp1522
g57
(g58
g59
NtRp1523
(dp1524
g62
(dp1525
g70
I4
ssg71
g1519
sg64
(lp1526
S'127.0.0.1:8000'
p1527
asbasbasbag57
(g73
g59
NtRp1528
(dp1529
g62
(dp1530
sg71
g1192
sg64
(lp1531
g57
(g78
g59
NtRp1532
(dp1533
g62
(dp1534
g82
g83
ssg71
g1528
sg64
(lp1535
S'http_referer'
p1536
asbag57
(g78
g59
NtRp1537
(dp1538
g62
(dp1539
g89
g90
ssg71
g1528
sg64
(lp1540
S':'
asbag57
(g78
g59
NtRp1541
(dp1542
g62
(dp1543
sg71
g1528
sg64
(lp1544
g57
(g58
g59
NtRp1545
(dp1546
g62
(dp1547
g70
I4
ssg71
g1541
sg64
(lp1548
S'http://127.0.0.1:8000/themishrms/default/employee'
p1549
asbasbasbag57
(g73
g59
NtRp1550
(dp1551
g62
(dp1552
sg71
g1192
sg64
(lp1553
g57
(g78
g59
NtRp1554
(dp1555
g62
(dp1556
g82
g83
ssg71
g1550
sg64
(lp1557
S'http_user_agent'
p1558
asbag57
(g78
g59
NtRp1559
(dp1560
g62
(dp1561
g89
g90
ssg71
g1550
sg64
(lp1562
S':'
asbag57
(g78
g59
NtRp1563
(dp1564
g62
(dp1565
sg71
g1550
sg64
(lp1566
g57
(g58
g59
NtRp1567
(dp1568
g62
(dp1569
g70
I4
ssg71
g1563
sg64
(lp1570
S'Mozilla/5.0 (X11; Linux x86_64) AppleWebKit/535.19 (KHTML, like Gecko) Ubuntu/10.04 Chromium/18.0.1025.151 Chrome/18.0.1025.151 Safari/535.19'
p1571
asbasbasbag57
(g73
g59
NtRp1572
(dp1573
g62
(dp1574
sg71
g1192
sg64
(lp1575
g57
(g78
g59
NtRp1576
(dp1577
g62
(dp1578
g82
g83
ssg71
g1572
sg64
(lp1579
S'is_jython'
p1580
asbag57
(g78
g59
NtRp1581
(dp1582
g62
(dp1583
g89
g90
ssg71
g1572
sg64
(lp1584
S':'
asbag57
(g78
g59
NtRp1585
(dp1586
g62
(dp1587
sg71
g1572
sg64
(lp1588
g57
(g58
g59
NtRp1589
(dp1590
g62
(dp1591
g70
I4
ssg71
g1585
sg64
(lp1592
g100
asbasbasbag57
(g73
g59
NtRp1593
(dp1594
g62
(dp1595
sg71
g1192
sg64
(lp1596
g57
(g78
g59
NtRp1597
(dp1598
g62
(dp1599
g82
g83
ssg71
g1593
sg64
(lp1600
S'is_pypy'
p1601
asbag57
(g78
g59
NtRp1602
(dp1603
g62
(dp1604
g89
g90
ssg71
g1593
sg64
(lp1605
S':'
asbag57
(g78
g59
NtRp1606
(dp1607
g62
(dp1608
sg71
g1593
sg64
(lp1609
g57
(g58
g59
NtRp1610
(dp1611
g62
(dp1612
g70
I4
ssg71
g1606
sg64
(lp1613
g100
asbasbasbag57
(g73
g59
NtRp1614
(dp1615
g62
(dp1616
sg71
g1192
sg64
(lp1617
g57
(g78
g59
NtRp1618
(dp1619
g62
(dp1620
g82
g83
ssg71
g1614
sg64
(lp1621
S'path_info'
p1622
asbag57
(g78
g59
NtRp1623
(dp1624
g62
(dp1625
g89
g90
ssg71
g1614
sg64
(lp1626
S':'
asbag57
(g78
g59
NtRp1627
(dp1628
g62
(dp1629
sg71
g1614
sg64
(lp1630
g57
(g58
g59
NtRp1631
(dp1632
g62
(dp1633
g70
I4
ssg71
g1627
sg64
(lp1634
S'/themishrms/default/user_timesheet'
p1635
asbasbasbag57
(g73
g59
NtRp1636
(dp1637
g62
(dp1638
sg71
g1192
sg64
(lp1639
g57
(g78
g59
NtRp1640
(dp1641
g62
(dp1642
g82
g83
ssg71
g1636
sg64
(lp1643
S'query_string'
p1644
asbag57
(g78
g59
NtRp1645
(dp1646
g62
(dp1647
g89
g90
ssg71
g1636
sg64
(lp1648
S':'
asbag57
(g78
g59
NtRp1649
(dp1650
g62
(dp1651
sg71
g1636
sg64
(lp1652
g57
(g58
g59
NtRp1653
(dp1654
g62
(dp1655
g70
I4
ssg71
g1649
sg64
(lp1656
S''
asbasbasbag57
(g73
g59
NtRp1657
(dp1658
g62
(dp1659
sg71
g1192
sg64
(lp1660
g57
(g78
g59
NtRp1661
(dp1662
g62
(dp1663
g82
g83
ssg71
g1657
sg64
(lp1664
S'remote_addr'
p1665
asbag57
(g78
g59
NtRp1666
(dp1667
g62
(dp1668
g89
g90
ssg71
g1657
sg64
(lp1669
S':'
asbag57
(g78
g59
NtRp1670
(dp1671
g62
(dp1672
sg71
g1657
sg64
(lp1673
g57
(g58
g59
NtRp1674
(dp1675
g62
(dp1676
g70
I4
ssg71
g1670
sg64
(lp1677
g190
asbasbasbag57
(g73
g59
NtRp1678
(dp1679
g62
(dp1680
sg71
g1192
sg64
(lp1681
g57
(g78
g59
NtRp1682
(dp1683
g62
(dp1684
g82
g83
ssg71
g1678
sg64
(lp1685
S'remote_port'
p1686
asbag57
(g78
g59
NtRp1687
(dp1688
g62
(dp1689
g89
g90
ssg71
g1678
sg64
(lp1690
S':'
asbag57
(g78
g59
NtRp1691
(dp1692
g62
(dp1693
sg71
g1678
sg64
(lp1694
g57
(g58
g59
NtRp1695
(dp1696
g62
(dp1697
g70
I4
ssg71
g1691
sg64
(lp1698
S'38649'
p1699
asbasbasbag57
(g73
g59
NtRp1700
(dp1701
g62
(dp1702
sg71
g1192
sg64
(lp1703
g57
(g78
g59
NtRp1704
(dp1705
g62
(dp1706
g82
g83
ssg71
g1700
sg64
(lp1707
S'request_method'
p1708
asbag57
(g78
g59
NtRp1709
(dp1710
g62
(dp1711
g89
g90
ssg71
g1700
sg64
(lp1712
S':'
asbag57
(g78
g59
NtRp1713
(dp1714
g62
(dp1715
sg71
g1700
sg64
(lp1716
g57
(g58
g59
NtRp1717
(dp1718
g62
(dp1719
g70
I4
ssg71
g1713
sg64
(lp1720
S'GET'
p1721
asbasbasbag57
(g73
g59
NtRp1722
(dp1723
g62
(dp1724
sg71
g1192
sg64
(lp1725
g57
(g78
g59
NtRp1726
(dp1727
g62
(dp1728
g82
g83
ssg71
g1722
sg64
(lp1729
S'script_name'
p1730
asbag57
(g78
g59
NtRp1731
(dp1732
g62
(dp1733
g89
g90
ssg71
g1722
sg64
(lp1734
S':'
asbag57
(g78
g59
NtRp1735
(dp1736
g62
(dp1737
sg71
g1722
sg64
(lp1738
g57
(g58
g59
NtRp1739
(dp1740
g62
(dp1741
g70
I4
ssg71
g1735
sg64
(lp1742
S''
asbasbasbag57
(g73
g59
NtRp1743
(dp1744
g62
(dp1745
sg71
g1192
sg64
(lp1746
g57
(g78
g59
NtRp1747
(dp1748
g62
(dp1749
g82
g83
ssg71
g1743
sg64
(lp1750
S'server_name'
p1751
asbag57
(g78
g59
NtRp1752
(dp1753
g62
(dp1754
g89
g90
ssg71
g1743
sg64
(lp1755
S':'
asbag57
(g78
g59
NtRp1756
(dp1757
g62
(dp1758
sg71
g1743
sg64
(lp1759
g57
(g58
g59
NtRp1760
(dp1761
g62
(dp1762
g70
I4
ssg71
g1756
sg64
(lp1763
S'RohitRaj'
p1764
asbasbasbag57
(g73
g59
NtRp1765
(dp1766
g62
(dp1767
sg71
g1192
sg64
(lp1768
g57
(g78
g59
NtRp1769
(dp1770
g62
(dp1771
g82
g83
ssg71
g1765
sg64
(lp1772
S'server_port'
p1773
asbag57
(g78
g59
NtRp1774
(dp1775
g62
(dp1776
g89
g90
ssg71
g1765
sg64
(lp1777
S':'
asbag57
(g78
g59
NtRp1778
(dp1779
g62
(dp1780
sg71
g1765
sg64
(lp1781
g57
(g58
g59
NtRp1782
(dp1783
g62
(dp1784
g70
I4
ssg71
g1778
sg64
(lp1785
S'8000'
p1786
asbasbasbag57
(g73
g59
NtRp1787
(dp1788
g62
(dp1789
sg71
g1192
sg64
(lp1790
g57
(g78
g59
NtRp1791
(dp1792
g62
(dp1793
g82
g83
ssg71
g1787
sg64
(lp1794
S'server_protocol'
p1795
asbag57
(g78
g59
NtRp1796
(dp1797
g62
(dp1798
g89
g90
ssg71
g1787
sg64
(lp1799
S':'
asbag57
(g78
g59
NtRp1800
(dp1801
g62
(dp1802
sg71
g1787
sg64
(lp1803
g57
(g58
g59
NtRp1804
(dp1805
g62
(dp1806
g70
I4
ssg71
g1800
sg64
(lp1807
S'HTTP/1.1'
p1808
asbasbasbag57
(g73
g59
NtRp1809
(dp1810
g62
(dp1811
sg71
g1192
sg64
(lp1812
g57
(g78
g59
NtRp1813
(dp1814
g62
(dp1815
g82
g83
ssg71
g1809
sg64
(lp1816
S'server_software'
p1817
asbag57
(g78
g59
NtRp1818
(dp1819
g62
(dp1820
g89
g90
ssg71
g1809
sg64
(lp1821
S':'
asbag57
(g78
g59
NtRp1822
(dp1823
g62
(dp1824
sg71
g1809
sg64
(lp1825
g57
(g58
g59
NtRp1826
(dp1827
g62
(dp1828
g70
I4
ssg71
g1822
sg64
(lp1829
S'Rocket 1.2.4'
p1830
asbasbasbag57
(g73
g59
NtRp1831
(dp1832
g62
(dp1833
sg71
g1192
sg64
(lp1834
g57
(g78
g59
NtRp1835
(dp1836
g62
(dp1837
g82
g83
ssg71
g1831
sg64
(lp1838
S'web2py_crontype'
p1839
asbag57
(g78
g59
NtRp1840
(dp1841
g62
(dp1842
g89
g90
ssg71
g1831
sg64
(lp1843
S':'
asbag57
(g78
g59
NtRp1844
(dp1845
g62
(dp1846
sg71
g1831
sg64
(lp1847
g57
(g58
g59
NtRp1848
(dp1849
g62
(dp1850
g70
I4
ssg71
g1844
sg64
(lp1851
S'hard'
p1852
asbasbasbag57
(g73
g59
NtRp1853
(dp1854
g62
(dp1855
sg71
g1192
sg64
(lp1856
g57
(g78
g59
NtRp1857
(dp1858
g62
(dp1859
g82
g83
ssg71
g1853
sg64
(lp1860
S'web2py_path'
p1861
asbag57
(g78
g59
NtRp1862
(dp1863
g62
(dp1864
g89
g90
ssg71
g1853
sg64
(lp1865
S':'
asbag57
(g78
g59
NtRp1866
(dp1867
g62
(dp1868
sg71
g1853
sg64
(lp1869
g57
(g58
g59
NtRp1870
(dp1871
g62
(dp1872
g70
I4
ssg71
g1866
sg64
(lp1873
g1239
asbasbasbag57
(g73
g59
NtRp1874
(dp1875
g62
(dp1876
sg71
g1192
sg64
(lp1877
g57
(g78
g59
NtRp1878
(dp1879
g62
(dp1880
g82
g83
ssg71
g1874
sg64
(lp1881
S'web2py_version'
p1882
asbag57
(g78
g59
NtRp1883
(dp1884
g62
(dp1885
g89
g90
ssg71
g1874
sg64
(lp1886
S':'
asbag57
(g78
g59
NtRp1887
(dp1888
g62
(dp1889
sg71
g1874
sg64
(lp1890
g57
(g58
g59
NtRp1891
(dp1892
g62
(dp1893
g70
I4
ssg71
g1887
sg64
(lp1894
g57
(g66
g59
NtRp1895
(dp1896
g62
(dp1897
g70
I3
ssg71
Nsg64
(lp1898
g57
(g73
g59
NtRp1899
(dp1900
g62
(dp1901
sg71
g1895
sg64
(lp1902
g57
(g78
g59
NtRp1903
(dp1904
g62
(dp1905
sg71
g1899
sg64
(lp1906
g57
(g58
g59
NtRp1907
(dp1908
g62
(dp1909
g70
I3
ssg71
g1903
sg64
(lp1910
S'1'
asbasbasbag57
(g73
g59
NtRp1911
(dp1912
g62
(dp1913
sg71
g1895
sg64
(lp1914
g57
(g78
g59
NtRp1915
(dp1916
g62
(dp1917
sg71
g1911
sg64
(lp1918
g57
(g58
g59
NtRp1919
(dp1920
g62
(dp1921
g70
I3
ssg71
g1915
sg64
(lp1922
S'99'
p1923
asbasbasbag57
(g73
g59
NtRp1924
(dp1925
g62
(dp1926
sg71
g1895
sg64
(lp1927
g57
(g78
g59
NtRp1928
(dp1929
g62
(dp1930
sg71
g1924
sg64
(lp1931
g57
(g58
g59
NtRp1932
(dp1933
g62
(dp1934
g70
I3
ssg71
g1928
sg64
(lp1935
S'7'
asbasbasbag57
(g73
g59
NtRp1936
(dp1937
g62
(dp1938
sg71
g1895
sg64
(lp1939
g57
(g78
g59
NtRp1940
(dp1941
g62
(dp1942
sg71
g1936
sg64
(lp1943
g57
(g58
g59
NtRp1944
(dp1945
g62
(dp1946
g70
I3
ssg71
g1940
sg64
(lp1947
S'datetime.datetime(2012, 3, 4, 22, 12, 8)'
p1948
asbasbasbag57
(g73
g59
NtRp1949
(dp1950
g62
(dp1951
sg71
g1895
sg64
(lp1952
g57
(g78
g59
NtRp1953
(dp1954
g62
(dp1955
sg71
g1949
sg64
(lp1956
g57
(g58
g59
NtRp1957
(dp1958
g62
(dp1959
g70
I3
ssg71
g1953
sg64
(lp1960
S'stable'
p1961
asbasbasbasbasbasbasbag57
(g73
g59
NtRp1962
(dp1963
g62
(dp1964
sg71
g1192
sg64
(lp1965
g57
(g78
g59
NtRp1966
(dp1967
g62
(dp1968
g82
g83
ssg71
g1962
sg64
(lp1969
S'wsgi_errors'
p1970
asbag57
(g78
g59
NtRp1971
(dp1972
g62
(dp1973
g89
g90
ssg71
g1962
sg64
(lp1974
S':'
asbag57
(g78
g59
NtRp1975
(dp1976
g62
(dp1977
sg71
g1962
sg64
(lp1978
g57
(g58
g59
NtRp1979
(dp1980
g62
(dp1981
g70
I4
ssg71
g1975
sg64
(lp1982
S"<open file '<stderr>', mode 'w' at 0x7fb75e7a21e0>"
p1983
asbasbasbag57
(g73
g59
NtRp1984
(dp1985
g62
(dp1986
sg71
g1192
sg64
(lp1987
g57
(g78
g59
NtRp1988
(dp1989
g62
(dp1990
g82
g83
ssg71
g1984
sg64
(lp1991
S'wsgi_file_wrapper'
p1992
asbag57
(g78
g59
NtRp1993
(dp1994
g62
(dp1995
g89
g90
ssg71
g1984
sg64
(lp1996
S':'
asbag57
(g78
g59
NtRp1997
(dp1998
g62
(dp1999
sg71
g1984
sg64
(lp2000
g57
(g58
g59
NtRp2001
(dp2002
g62
(dp2003
g70
I4
ssg71
g1997
sg64
(lp2004
S'<class wsgiref.util.FileWrapper at 0x212a7d0>'
p2005
asbasbasbag57
(g73
g59
NtRp2006
(dp2007
g62
(dp2008
sg71
g1192
sg64
(lp2009
g57
(g78
g59
NtRp2010
(dp2011
g62
(dp2012
g82
g83
ssg71
g2006
sg64
(lp2013
S'wsgi_input'
p2014
asbag57
(g78
g59
NtRp2015
(dp2016
g62
(dp2017
g89
g90
ssg71
g2006
sg64
(lp2018
S':'
asbag57
(g78
g59
NtRp2019
(dp2020
g62
(dp2021
sg71
g2006
sg64
(lp2022
g57
(g58
g59
NtRp2023
(dp2024
g62
(dp2025
g70
I4
ssg71
g2019
sg64
(lp2026
S'<socket._fileobject object at 0x34fb9d0>'
p2027
asbasbasbag57
(g73
g59
NtRp2028
(dp2029
g62
(dp2030
sg71
g1192
sg64
(lp2031
g57
(g78
g59
NtRp2032
(dp2033
g62
(dp2034
g82
g83
ssg71
g2028
sg64
(lp2035
S'wsgi_multiprocess'
p2036
asbag57
(g78
g59
NtRp2037
(dp2038
g62
(dp2039
g89
g90
ssg71
g2028
sg64
(lp2040
S':'
asbag57
(g78
g59
NtRp2041
(dp2042
g62
(dp2043
sg71
g2028
sg64
(lp2044
g57
(g58
g59
NtRp2045
(dp2046
g62
(dp2047
g70
I4
ssg71
g2041
sg64
(lp2048
g100
asbasbasbag57
(g73
g59
NtRp2049
(dp2050
g62
(dp2051
sg71
g1192
sg64
(lp2052
g57
(g78
g59
NtRp2053
(dp2054
g62
(dp2055
g82
g83
ssg71
g2049
sg64
(lp2056
S'wsgi_multithread'
p2057
asbag57
(g78
g59
NtRp2058
(dp2059
g62
(dp2060
g89
g90
ssg71
g2049
sg64
(lp2061
S':'
asbag57
(g78
g59
NtRp2062
(dp2063
g62
(dp2064
sg71
g2049
sg64
(lp2065
g57
(g58
g59
NtRp2066
(dp2067
g62
(dp2068
g70
I4
ssg71
g2062
sg64
(lp2069
S'True'
p2070
asbasbasbag57
(g73
g59
NtRp2071
(dp2072
g62
(dp2073
sg71
g1192
sg64
(lp2074
g57
(g78
g59
NtRp2075
(dp2076
g62
(dp2077
g82
g83
ssg71
g2071
sg64
(lp2078
S'wsgi_run_once'
p2079
asbag57
(g78
g59
NtRp2080
(dp2081
g62
(dp2082
g89
g90
ssg71
g2071
sg64
(lp2083
S':'
asbag57
(g78
g59
NtRp2084
(dp2085
g62
(dp2086
sg71
g2071
sg64
(lp2087
g57
(g58
g59
NtRp2088
(dp2089
g62
(dp2090
g70
I4
ssg71
g2084
sg64
(lp2091
g100
asbasbasbag57
(g73
g59
NtRp2092
(dp2093
g62
(dp2094
sg71
g1192
sg64
(lp2095
g57
(g78
g59
NtRp2096
(dp2097
g62
(dp2098
g82
g83
ssg71
g2092
sg64
(lp2099
S'wsgi_url_scheme'
p2100
asbag57
(g78
g59
NtRp2101
(dp2102
g62
(dp2103
g89
g90
ssg71
g2092
sg64
(lp2104
S':'
asbag57
(g78
g59
NtRp2105
(dp2106
g62
(dp2107
sg71
g2092
sg64
(lp2108
g57
(g58
g59
NtRp2109
(dp2110
g62
(dp2111
g70
I4
ssg71
g2105
sg64
(lp2112
S'http'
p2113
asbasbasbag57
(g73
g59
NtRp2114
(dp2115
g62
(dp2116
sg71
g1192
sg64
(lp2117
g57
(g78
g59
NtRp2118
(dp2119
g62
(dp2120
g82
g83
ssg71
g2114
sg64
(lp2121
S'wsgi_version'
p2122
asbag57
(g78
g59
NtRp2123
(dp2124
g62
(dp2125
g89
g90
ssg71
g2114
sg64
(lp2126
S':'
asbag57
(g78
g59
NtRp2127
(dp2128
g62
(dp2129
sg71
g2114
sg64
(lp2130
g57
(g58
g59
NtRp2131
(dp2132
g62
(dp2133
g70
I4
ssg71
g2127
sg64
(lp2134
g57
(g66
g59
NtRp2135
(dp2136
g62
(dp2137
g70
I3
ssg71
Nsg64
(lp2138
g57
(g73
g59
NtRp2139
(dp2140
g62
(dp2141
sg71
g2135
sg64
(lp2142
g57
(g78
g59
NtRp2143
(dp2144
g62
(dp2145
sg71
g2139
sg64
(lp2146
g57
(g58
g59
NtRp2147
(dp2148
g62
(dp2149
g70
I3
ssg71
g2143
sg64
(lp2150
S'1'
asbasbasbag57
(g73
g59
NtRp2151
(dp2152
g62
(dp2153
sg71
g2135
sg64
(lp2154
g57
(g78
g59
NtRp2155
(dp2156
g62
(dp2157
sg71
g2151
sg64
(lp2158
g57
(g58
g59
NtRp2159
(dp2160
g62
(dp2161
g70
I3
ssg71
g2155
sg64
(lp2162
S'0'
asbasbasbasbasbasbasbasbasbasbasbag57
(g73
g59
NtRp2163
(dp2164
g62
(dp2165
sg71
g67
sg64
(lp2166
g57
(g78
g59
NtRp2167
(dp2168
g62
(dp2169
g82
g83
ssg71
g2163
sg64
(lp2170
S'extension'
p2171
asbag57
(g78
g59
NtRp2172
(dp2173
g62
(dp2174
g89
g90
ssg71
g2163
sg64
(lp2175
S':'
asbag57
(g78
g59
NtRp2176
(dp2177
g62
(dp2178
sg71
g2163
sg64
(lp2179
g57
(g58
g59
NtRp2180
(dp2181
g62
(dp2182
g70
I5
ssg71
g2176
sg64
(lp2183
S'html'
p2184
asbasbasbag57
(g73
g59
NtRp2185
(dp2186
g62
(dp2187
sg71
g67
sg64
(lp2188
g57
(g78
g59
NtRp2189
(dp2190
g62
(dp2191
g82
g83
ssg71
g2185
sg64
(lp2192
S'folder'
p2193
asbag57
(g78
g59
NtRp2194
(dp2195
g62
(dp2196
g89
g90
ssg71
g2185
sg64
(lp2197
S':'
asbag57
(g78
g59
NtRp2198
(dp2199
g62
(dp2200
sg71
g2185
sg64
(lp2201
g57
(g58
g59
NtRp2202
(dp2203
g62
(dp2204
g70
I5
ssg71
g2198
sg64
(lp2205
S'/home/rohitraj/Desktop/web2py/applications/themishrms/'
p2206
asbasbasbag57
(g73
g59
NtRp2207
(dp2208
g62
(dp2209
sg71
g67
sg64
(lp2210
g57
(g78
g59
NtRp2211
(dp2212
g62
(dp2213
g82
g83
ssg71
g2207
sg64
(lp2214
S'function'
p2215
asbag57
(g78
g59
NtRp2216
(dp2217
g62
(dp2218
g89
g90
ssg71
g2207
sg64
(lp2219
S':'
asbag57
(g78
g59
NtRp2220
(dp2221
g62
(dp2222
sg71
g2207
sg64
(lp2223
g57
(g58
g59
NtRp2224
(dp2225
g62
(dp2226
g70
I5
ssg71
g2220
sg64
(lp2227
S'user_timesheet'
p2228
asbasbasbag57
(g73
g59
NtRp2229
(dp2230
g62
(dp2231
sg71
g67
sg64
(lp2232
g57
(g78
g59
NtRp2233
(dp2234
g62
(dp2235
g82
g83
ssg71
g2229
sg64
(lp2236
S'get_vars'
p2237
asbag57
(g78
g59
NtRp2238
(dp2239
g62
(dp2240
g89
g90
ssg71
g2229
sg64
(lp2241
S':'
asbag57
(g78
g59
NtRp2242
(dp2243
g62
(dp2244
sg71
g2229
sg64
(lp2245
g57
(g58
g59
NtRp2246
(dp2247
g62
(dp2248
g70
I5
ssg71
g2242
sg64
(lp2249
g57
(g66
g59
NtRp2250
(dp2251
g62
(dp2252
g70
I4
ssg71
Nsg64
(lp2253
sbasbasbasbag57
(g73
g59
NtRp2254
(dp2255
g62
(dp2256
sg71
g67
sg64
(lp2257
g57
(g78
g59
NtRp2258
(dp2259
g62
(dp2260
g82
g83
ssg71
g2254
sg64
(lp2261
S'global_settings'
p2262
asbag57
(g78
g59
NtRp2263
(dp2264
g62
(dp2265
g89
g90
ssg71
g2254
sg64
(lp2266
S':'
asbag57
(g78
g59
NtRp2267
(dp2268
g62
(dp2269
sg71
g2254
sg64
(lp2270
g57
(g58
g59
NtRp2271
(dp2272
g62
(dp2273
g70
I5
ssg71
g2267
sg64
(lp2274
g57
(g66
g59
NtRp2275
(dp2276
g62
(dp2277
g70
I4
ssg71
Nsg64
(lp2278
g57
(g73
g59
NtRp2279
(dp2280
g62
(dp2281
sg71
g2275
sg64
(lp2282
g57
(g78
g59
NtRp2283
(dp2284
g62
(dp2285
g82
g83
ssg71
g2279
sg64
(lp2286
g1204
asbag57
(g78
g59
NtRp2287
(dp2288
g62
(dp2289
g89
g90
ssg71
g2279
sg64
(lp2290
S':'
asbag57
(g78
g59
NtRp2291
(dp2292
g62
(dp2293
sg71
g2279
sg64
(lp2294
g57
(g58
g59
NtRp2295
(dp2296
g62
(dp2297
g70
I4
ssg71
g2291
sg64
(lp2298
S"set(['/home/rohitraj/Desktop/web2py/applications/admin/', '/home/rohitraj/Desktop/web2py/applications/welcome/', '/home/rohitraj/Desktop/web2py/applications/themishrms/'])"
p2299
asbasbasbag57
(g73
g59
NtRp2300
(dp2301
g62
(dp2302
sg71
g2275
sg64
(lp2303
g57
(g78
g59
NtRp2304
(dp2305
g62
(dp2306
g82
g83
ssg71
g2300
sg64
(lp2307
g1226
asbag57
(g78
g59
NtRp2308
(dp2309
g62
(dp2310
g89
g90
ssg71
g2300
sg64
(lp2311
S':'
asbag57
(g78
g59
NtRp2312
(dp2313
g62
(dp2314
sg71
g2300
sg64
(lp2315
g57
(g58
g59
NtRp2316
(dp2317
g62
(dp2318
g70
I4
ssg71
g2312
sg64
(lp2319
g1239
asbasbasbag57
(g73
g59
NtRp2320
(dp2321
g62
(dp2322
sg71
g2275
sg64
(lp2323
g57
(g78
g59
NtRp2324
(dp2325
g62
(dp2326
g82
g83
ssg71
g2320
sg64
(lp2327
g1248
asbag57
(g78
g59
NtRp2328
(dp2329
g62
(dp2330
g89
g90
ssg71
g2320
sg64
(lp2331
S':'
asbag57
(g78
g59
NtRp2332
(dp2333
g62
(dp2334
sg71
g2320
sg64
(lp2335
g57
(g58
g59
NtRp2336
(dp2337
g62
(dp2338
g70
I4
ssg71
g2332
sg64
(lp2339
g57
(g66
g59
NtRp2340
(dp2341
g62
(dp2342
g70
I3
ssg71
Nsg64
(lp2343
sbasbasbasbag57
(g73
g59
NtRp2344
(dp2345
g62
(dp2346
sg71
g2275
sg64
(lp2347
g57
(g78
g59
NtRp2348
(dp2349
g62
(dp2350
g82
g83
ssg71
g2344
sg64
(lp2351
g1273
asbag57
(g78
g59
NtRp2352
(dp2353
g62
(dp2354
g89
g90
ssg71
g2344
sg64
(lp2355
S':'
asbag57
(g78
g59
NtRp2356
(dp2357
g62
(dp2358
sg71
g2344
sg64
(lp2359
g57
(g58
g59
NtRp2360
(dp2361
g62
(dp2362
g70
I4
ssg71
g2356
sg64
(lp2363
S"<Values at 0x21cacb0: {'verbose': False, 'ip': '127.0.0.1', 'shutdown_timeout': 5, 'taskbar': False, 'nocron': False, 'pid_filename': 'httpserver.pid', 'maxthreads': None, 'softcron': False, 'server_name': 'RohitRaj', 'bpython': False, 'nogui': False, 'port': 8000, 'extcron': False, 'debuglevel': 30, 'test': None, 'folder': '/home/rohitraj/Desktop/web2py', 'config': '', 'import_models': False, 'winservice': '', 'shell': None, 'run': '', 'log_filename': 'httpserver.log', 'args': [''], 'socket_timeout': 5, 'ssl_ca_certificate': None, 'scheduler': None, 'profiler_filename': None, 'ssl_private_key': '', 'password': 'admin', 'request_queue_size': 5, 'ssl_certificate': '', 'cronjob': False, 'numthreads': None, 'quiet': False, 'interfaces': None, 'minthreads': None, 'timeout': 10, 'plain': False, 'nobanner': False}>"
p2364
asbasbasbag57
(g73
g59
NtRp2365
(dp2366
g62
(dp2367
sg71
g2275
sg64
(lp2368
g57
(g78
g59
NtRp2369
(dp2370
g62
(dp2371
g82
g83
ssg71
g2365
sg64
(lp2372
g1295
asbag57
(g78
g59
NtRp2373
(dp2374
g62
(dp2375
g89
g90
ssg71
g2365
sg64
(lp2376
S':'
asbag57
(g78
g59
NtRp2377
(dp2378
g62
(dp2379
sg71
g2365
sg64
(lp2380
g57
(g58
g59
NtRp2381
(dp2382
g62
(dp2383
g70
I4
ssg71
g2377
sg64
(lp2384
S'set([])'
p2385
asbasbasbag57
(g73
g59
NtRp2386
(dp2387
g62
(dp2388
sg71
g2275
sg64
(lp2389
g57
(g78
g59
NtRp2390
(dp2391
g62
(dp2392
g82
g83
ssg71
g2386
sg64
(lp2393
g1317
asbag57
(g78
g59
NtRp2394
(dp2395
g62
(dp2396
g89
g90
ssg71
g2386
sg64
(lp2397
S':'
asbag57
(g78
g59
NtRp2398
(dp2399
g62
(dp2400
sg71
g2386
sg64
(lp2401
g57
(g58
g59
NtRp2402
(dp2403
g62
(dp2404
g70
I4
ssg71
g2398
sg64
(lp2405
g100
asbasbasbag57
(g73
g59
NtRp2406
(dp2407
g62
(dp2408
sg71
g2275
sg64
(lp2409
g57
(g78
g59
NtRp2410
(dp2411
g62
(dp2412
g82
g83
ssg71
g2406
sg64
(lp2413
g1338
asbag57
(g78
g59
NtRp2414
(dp2415
g62
(dp2416
g89
g90
ssg71
g2406
sg64
(lp2417
S':'
asbag57
(g78
g59
NtRp2418
(dp2419
g62
(dp2420
sg71
g2406
sg64
(lp2421
g57
(g58
g59
NtRp2422
(dp2423
g62
(dp2424
g70
I4
ssg71
g2418
sg64
(lp2425
g1351
asbasbasbag57
(g73
g59
NtRp2426
(dp2427
g62
(dp2428
sg71
g2275
sg64
(lp2429
g57
(g78
g59
NtRp2430
(dp2431
g62
(dp2432
g82
g83
ssg71
g2426
sg64
(lp2433
g1580
asbag57
(g78
g59
NtRp2434
(dp2435
g62
(dp2436
g89
g90
ssg71
g2426
sg64
(lp2437
S':'
asbag57
(g78
g59
NtRp2438
(dp2439
g62
(dp2440
sg71
g2426
sg64
(lp2441
g57
(g58
g59
NtRp2442
(dp2443
g62
(dp2444
g70
I4
ssg71
g2438
sg64
(lp2445
g100
asbasbasbag57
(g73
g59
NtRp2446
(dp2447
g62
(dp2448
sg71
g2275
sg64
(lp2449
g57
(g78
g59
NtRp2450
(dp2451
g62
(dp2452
g82
g83
ssg71
g2446
sg64
(lp2453
g1601
asbag57
(g78
g59
NtRp2454
(dp2455
g62
(dp2456
g89
g90
ssg71
g2446
sg64
(lp2457
S':'
asbag57
(g78
g59
NtRp2458
(dp2459
g62
(dp2460
sg71
g2446
sg64
(lp2461
g57
(g58
g59
NtRp2462
(dp2463
g62
(dp2464
g70
I4
ssg71
g2458
sg64
(lp2465
g100
asbasbasbag57
(g73
g59
NtRp2466
(dp2467
g62
(dp2468
sg71
g2275
sg64
(lp2469
g57
(g78
g59
NtRp2470
(dp2471
g62
(dp2472
g82
g83
ssg71
g2466
sg64
(lp2473
g1839
asbag57
(g78
g59
NtRp2474
(dp2475
g62
(dp2476
g89
g90
ssg71
g2466
sg64
(lp2477
S':'
asbag57
(g78
g59
NtRp2478
(dp2479
g62
(dp2480
sg71
g2466
sg64
(lp2481
g57
(g58
g59
NtRp2482
(dp2483
g62
(dp2484
g70
I4
ssg71
g2478
sg64
(lp2485
g1852
asbasbasbag57
(g73
g59
NtRp2486
(dp2487
g62
(dp2488
sg71
g2275
sg64
(lp2489
g57
(g78
g59
NtRp2490
(dp2491
g62
(dp2492
g82
g83
ssg71
g2486
sg64
(lp2493
g1882
asbag57
(g78
g59
NtRp2494
(dp2495
g62
(dp2496
g89
g90
ssg71
g2486
sg64
(lp2497
S':'
asbag57
(g78
g59
NtRp2498
(dp2499
g62
(dp2500
sg71
g2486
sg64
(lp2501
g57
(g58
g59
NtRp2502
(dp2503
g62
(dp2504
g70
I4
ssg71
g2498
sg64
(lp2505
g57
(g66
g59
NtRp2506
(dp2507
g62
(dp2508
g70
I3
ssg71
Nsg64
(lp2509
g57
(g73
g59
NtRp2510
(dp2511
g62
(dp2512
sg71
g2506
sg64
(lp2513
g57
(g78
g59
NtRp2514
(dp2515
g62
(dp2516
sg71
g2510
sg64
(lp2517
g57
(g58
g59
NtRp2518
(dp2519
g62
(dp2520
g70
I3
ssg71
g2514
sg64
(lp2521
S'1'
asbasbasbag57
(g73
g59
NtRp2522
(dp2523
g62
(dp2524
sg71
g2506
sg64
(lp2525
g57
(g78
g59
NtRp2526
(dp2527
g62
(dp2528
sg71
g2522
sg64
(lp2529
g57
(g58
g59
NtRp2530
(dp2531
g62
(dp2532
g70
I3
ssg71
g2526
sg64
(lp2533
S'99'
p2534
asbasbasbag57
(g73
g59
NtRp2535
(dp2536
g62
(dp2537
sg71
g2506
sg64
(lp2538
g57
(g78
g59
NtRp2539
(dp2540
g62
(dp2541
sg71
g2535
sg64
(lp2542
g57
(g58
g59
NtRp2543
(dp2544
g62
(dp2545
g70
I3
ssg71
g2539
sg64
(lp2546
S'7'
asbasbasbag57
(g73
g59
NtRp2547
(dp2548
g62
(dp2549
sg71
g2506
sg64
(lp2550
g57
(g78
g59
NtRp2551
(dp2552
g62
(dp2553
sg71
g2547
sg64
(lp2554
g57
(g58
g59
NtRp2555
(dp2556
g62
(dp2557
g70
I3
ssg71
g2551
sg64
(lp2558
S'datetime.datetime(2012, 3, 4, 22, 12, 8)'
p2559
asbasbasbag57
(g73
g59
NtRp2560
(dp2561
g62
(dp2562
sg71
g2506
sg64
(lp2563
g57
(g78
g59
NtRp2564
(dp2565
g62
(dp2566
sg71
g2560
sg64
(lp2567
g57
(g58
g59
NtRp2568
(dp2569
g62
(dp2570
g70
I3
ssg71
g2564
sg64
(lp2571
g1961
asbasbasbasbasbasbasbasbasbasbasbag57
(g73
g59
NtRp2572
(dp2573
g62
(dp2574
sg71
g67
sg64
(lp2575
g57
(g78
g59
NtRp2576
(dp2577
g62
(dp2578
g82
g83
ssg71
g2572
sg64
(lp2579
S'is_https'
p2580
asbag57
(g78
g59
NtRp2581
(dp2582
g62
(dp2583
g89
g90
ssg71
g2572
sg64
(lp2584
S':'
asbag57
(g78
g59
NtRp2585
(dp2586
g62
(dp2587
sg71
g2572
sg64
(lp2588
g57
(g58
g59
NtRp2589
(dp2590
g62
(dp2591
g70
I5
ssg71
g2585
sg64
(lp2592
g100
asbasbasbag57
(g73
g59
NtRp2593
(dp2594
g62
(dp2595
sg71
g67
sg64
(lp2596
g57
(g78
g59
NtRp2597
(dp2598
g62
(dp2599
g82
g83
ssg71
g2593
sg64
(lp2600
S'is_local'
p2601
asbag57
(g78
g59
NtRp2602
(dp2603
g62
(dp2604
g89
g90
ssg71
g2593
sg64
(lp2605
S':'
asbag57
(g78
g59
NtRp2606
(dp2607
g62
(dp2608
sg71
g2593
sg64
(lp2609
g57
(g58
g59
NtRp2610
(dp2611
g62
(dp2612
g70
I5
ssg71
g2606
sg64
(lp2613
g2070
asbasbasbag57
(g73
g59
NtRp2614
(dp2615
g62
(dp2616
sg71
g67
sg64
(lp2617
g57
(g78
g59
NtRp2618
(dp2619
g62
(dp2620
g82
g83
ssg71
g2614
sg64
(lp2621
S'is_restful'
p2622
asbag57
(g78
g59
NtRp2623
(dp2624
g62
(dp2625
g89
g90
ssg71
g2614
sg64
(lp2626
S':'
asbag57
(g78
g59
NtRp2627
(dp2628
g62
(dp2629
sg71
g2614
sg64
(lp2630
g57
(g58
g59
NtRp2631
(dp2632
g62
(dp2633
g70
I5
ssg71
g2627
sg64
(lp2634
g100
asbasbasbag57
(g73
g59
NtRp2635
(dp2636
g62
(dp2637
sg71
g67
sg64
(lp2638
g57
(g78
g59
NtRp2639
(dp2640
g62
(dp2641
g82
g83
ssg71
g2635
sg64
(lp2642
S'now'
p2643
asbag57
(g78
g59
NtRp2644
(dp2645
g62
(dp2646
g89
g90
ssg71
g2635
sg64
(lp2647
S':'
asbag57
(g78
g59
NtRp2648
(dp2649
g62
(dp2650
sg71
g2635
sg64
(lp2651
g57
(g58
g59
NtRp2652
(dp2653
g62
(dp2654
g70
I5
ssg71
g2648
sg64
(lp2655
S'datetime.datetime(2012, 5, 3, 16, 11, 1, 668766)'
p2656
asbasbasbag57
(g73
g59
NtRp2657
(dp2658
g62
(dp2659
sg71
g67
sg64
(lp2660
g57
(g78
g59
NtRp2661
(dp2662
g62
(dp2663
g82
g83
ssg71
g2657
sg64
(lp2664
S'post_vars'
p2665
asbag57
(g78
g59
NtRp2666
(dp2667
g62
(dp2668
g89
g90
ssg71
g2657
sg64
(lp2669
S':'
asbag57
(g78
g59
NtRp2670
(dp2671
g62
(dp2672
sg71
g2657
sg64
(lp2673
g57
(g58
g59
NtRp2674
(dp2675
g62
(dp2676
g70
I5
ssg71
g2670
sg64
(lp2677
g57
(g66
g59
NtRp2678
(dp2679
g62
(dp2680
g70
I4
ssg71
Nsg64
(lp2681
sbasbasbasbag57
(g73
g59
NtRp2682
(dp2683
g62
(dp2684
sg71
g67
sg64
(lp2685
g57
(g78
g59
NtRp2686
(dp2687
g62
(dp2688
g82
g83
ssg71
g2682
sg64
(lp2689
S'url'
p2690
asbag57
(g78
g59
NtRp2691
(dp2692
g62
(dp2693
g89
g90
ssg71
g2682
sg64
(lp2694
S':'
asbag57
(g78
g59
NtRp2695
(dp2696
g62
(dp2697
sg71
g2682
sg64
(lp2698
g57
(g58
g59
NtRp2699
(dp2700
g62
(dp2701
g70
I5
ssg71
g2695
sg64
(lp2702
S'/themishrms/default/user_timesheet'
p2703
asbasbasbag57
(g73
g59
NtRp2704
(dp2705
g62
(dp2706
sg71
g67
sg64
(lp2707
g57
(g78
g59
NtRp2708
(dp2709
g62
(dp2710
g82
g83
ssg71
g2704
sg64
(lp2711
S'utcnow'
p2712
asbag57
(g78
g59
NtRp2713
(dp2714
g62
(dp2715
g89
g90
ssg71
g2704
sg64
(lp2716
S':'
asbag57
(g78
g59
NtRp2717
(dp2718
g62
(dp2719
sg71
g2704
sg64
(lp2720
g57
(g58
g59
NtRp2721
(dp2722
g62
(dp2723
g70
I5
ssg71
g2717
sg64
(lp2724
S'datetime.datetime(2012, 5, 3, 10, 41, 1, 668800)'
p2725
asbasbasbag57
(g73
g59
NtRp2726
(dp2727
g62
(dp2728
sg71
g67
sg64
(lp2729
g57
(g78
g59
NtRp2730
(dp2731
g62
(dp2732
g82
g83
ssg71
g2726
sg64
(lp2733
S'uuid'
p2734
asbag57
(g78
g59
NtRp2735
(dp2736
g62
(dp2737
g89
g90
ssg71
g2726
sg64
(lp2738
S':'
asbag57
(g78
g59
NtRp2739
(dp2740
g62
(dp2741
sg71
g2726
sg64
(lp2742
g57
(g58
g59
NtRp2743
(dp2744
g62
(dp2745
g70
I5
ssg71
g2739
sg64
(lp2746
S'themishrms/127.0.0.1.2012-05-03.16-11-01.18d27bfe-89b0-40bd-98cc-cde14107fdd2'
p2747
asbasbasbag57
(g73
g59
NtRp2748
(dp2749
g62
(dp2750
sg71
g67
sg64
(lp2751
g57
(g78
g59
NtRp2752
(dp2753
g62
(dp2754
g82
g83
ssg71
g2748
sg64
(lp2755
S'vars'
p2756
asbag57
(g78
g59
NtRp2757
(dp2758
g62
(dp2759
g89
g90
ssg71
g2748
sg64
(lp2760
S':'
asbag57
(g78
g59
NtRp2761
(dp2762
g62
(dp2763
sg71
g2748
sg64
(lp2764
g57
(g58
g59
NtRp2765
(dp2766
g62
(dp2767
g70
I5
ssg71
g2761
sg64
(lp2768
g57
(g66
g59
NtRp2769
(dp2770
g62
(dp2771
g70
I4
ssg71
Nsg64
(lp2772
sbasbasbasbag57
(g73
g59
NtRp2773
(dp2774
g62
(dp2775
sg71
g67
sg64
(lp2776
g57
(g78
g59
NtRp2777
(dp2778
g62
(dp2779
g82
g83
ssg71
g2773
sg64
(lp2780
S'wsgi'
p2781
asbag57
(g78
g59
NtRp2782
(dp2783
g62
(dp2784
g89
g90
ssg71
g2773
sg64
(lp2785
S':'
asbag57
(g78
g59
NtRp2786
(dp2787
g62
(dp2788
sg71
g2773
sg64
(lp2789
g57
(g58
g59
NtRp2790
(dp2791
g62
(dp2792
g70
I5
ssg71
g2786
sg64
(lp2793
g57
(g66
g59
NtRp2794
(dp2795
g62
(dp2796
g70
I4
ssg71
Nsg64
(lp2797
g57
(g73
g59
NtRp2798
(dp2799
g62
(dp2800
sg71
g2794
sg64
(lp2801
g57
(g78
g59
NtRp2802
(dp2803
g62
(dp2804
g82
g83
ssg71
g2798
sg64
(lp2805
S'environ'
p2806
asbag57
(g78
g59
NtRp2807
(dp2808
g62
(dp2809
g89
g90
ssg71
g2798
sg64
(lp2810
S':'
asbag57
(g78
g59
NtRp2811
(dp2812
g62
(dp2813
sg71
g2798
sg64
(lp2814
g57
(g58
g59
NtRp2815
(dp2816
g62
(dp2817
g70
I4
ssg71
g2811
sg64
(lp2818
g57
(g66
g59
NtRp2819
(dp2820
g62
(dp2821
g70
I3
ssg71
Nsg64
(lp2822
g57
(g73
g59
NtRp2823
(dp2824
g62
(dp2825
sg71
g2819
sg64
(lp2826
g57
(g78
g59
NtRp2827
(dp2828
g62
(dp2829
g82
g83
ssg71
g2823
sg64
(lp2830
S'HTTP_ACCEPT'
p2831
asbag57
(g78
g59
NtRp2832
(dp2833
g62
(dp2834
g89
g90
ssg71
g2823
sg64
(lp2835
S':'
asbag57
(g78
g59
NtRp2836
(dp2837
g62
(dp2838
sg71
g2823
sg64
(lp2839
g57
(g58
g59
NtRp2840
(dp2841
g62
(dp2842
g70
I3
ssg71
g2836
sg64
(lp2843
g1373
asbasbasbag57
(g73
g59
NtRp2844
(dp2845
g62
(dp2846
sg71
g2819
sg64
(lp2847
g57
(g78
g59
NtRp2848
(dp2849
g62
(dp2850
g82
g83
ssg71
g2844
sg64
(lp2851
S'HTTP_ACCEPT_CHARSET'
p2852
asbag57
(g78
g59
NtRp2853
(dp2854
g62
(dp2855
g89
g90
ssg71
g2844
sg64
(lp2856
S':'
asbag57
(g78
g59
NtRp2857
(dp2858
g62
(dp2859
sg71
g2844
sg64
(lp2860
g57
(g58
g59
NtRp2861
(dp2862
g62
(dp2863
g70
I3
ssg71
g2857
sg64
(lp2864
g1395
asbasbasbag57
(g73
g59
NtRp2865
(dp2866
g62
(dp2867
sg71
g2819
sg64
(lp2868
g57
(g78
g59
NtRp2869
(dp2870
g62
(dp2871
g82
g83
ssg71
g2865
sg64
(lp2872
S'HTTP_ACCEPT_ENCODING'
p2873
asbag57
(g78
g59
NtRp2874
(dp2875
g62
(dp2876
g89
g90
ssg71
g2865
sg64
(lp2877
S':'
asbag57
(g78
g59
NtRp2878
(dp2879
g62
(dp2880
sg71
g2865
sg64
(lp2881
g57
(g58
g59
NtRp2882
(dp2883
g62
(dp2884
g70
I3
ssg71
g2878
sg64
(lp2885
g1417
asbasbasbag57
(g73
g59
NtRp2886
(dp2887
g62
(dp2888
sg71
g2819
sg64
(lp2889
g57
(g78
g59
NtRp2890
(dp2891
g62
(dp2892
g82
g83
ssg71
g2886
sg64
(lp2893
S'HTTP_ACCEPT_LANGUAGE'
p2894
asbag57
(g78
g59
NtRp2895
(dp2896
g62
(dp2897
g89
g90
ssg71
g2886
sg64
(lp2898
S':'
asbag57
(g78
g59
NtRp2899
(dp2900
g62
(dp2901
sg71
g2886
sg64
(lp2902
g57
(g58
g59
NtRp2903
(dp2904
g62
(dp2905
g70
I3
ssg71
g2899
sg64
(lp2906
g1439
asbasbasbag57
(g73
g59
NtRp2907
(dp2908
g62
(dp2909
sg71
g2819
sg64
(lp2910
g57
(g78
g59
NtRp2911
(dp2912
g62
(dp2913
g82
g83
ssg71
g2907
sg64
(lp2914
S'HTTP_CACHE_CONTROL'
p2915
asbag57
(g78
g59
NtRp2916
(dp2917
g62
(dp2918
g89
g90
ssg71
g2907
sg64
(lp2919
S':'
asbag57
(g78
g59
NtRp2920
(dp2921
g62
(dp2922
sg71
g2907
sg64
(lp2923
g57
(g58
g59
NtRp2924
(dp2925
g62
(dp2926
g70
I3
ssg71
g2920
sg64
(lp2927
g1461
asbasbasbag57
(g73
g59
NtRp2928
(dp2929
g62
(dp2930
sg71
g2819
sg64
(lp2931
g57
(g78
g59
NtRp2932
(dp2933
g62
(dp2934
g82
g83
ssg71
g2928
sg64
(lp2935
S'HTTP_CONNECTION'
p2936
asbag57
(g78
g59
NtRp2937
(dp2938
g62
(dp2939
g89
g90
ssg71
g2928
sg64
(lp2940
S':'
asbag57
(g78
g59
NtRp2941
(dp2942
g62
(dp2943
sg71
g2928
sg64
(lp2944
g57
(g58
g59
NtRp2945
(dp2946
g62
(dp2947
g70
I3
ssg71
g2941
sg64
(lp2948
g1483
asbasbasbag57
(g73
g59
NtRp2949
(dp2950
g62
(dp2951
sg71
g2819
sg64
(lp2952
g57
(g78
g59
NtRp2953
(dp2954
g62
(dp2955
g82
g83
ssg71
g2949
sg64
(lp2956
S'HTTP_COOKIE'
p2957
asbag57
(g78
g59
NtRp2958
(dp2959
g62
(dp2960
g89
g90
ssg71
g2949
sg64
(lp2961
S':'
asbag57
(g78
g59
NtRp2962
(dp2963
g62
(dp2964
sg71
g2949
sg64
(lp2965
g57
(g58
g59
NtRp2966
(dp2967
g62
(dp2968
g70
I3
ssg71
g2962
sg64
(lp2969
g1505
asbasbasbag57
(g73
g59
NtRp2970
(dp2971
g62
(dp2972
sg71
g2819
sg64
(lp2973
g57
(g78
g59
NtRp2974
(dp2975
g62
(dp2976
g82
g83
ssg71
g2970
sg64
(lp2977
S'HTTP_HOST'
p2978
asbag57
(g78
g59
NtRp2979
(dp2980
g62
(dp2981
g89
g90
ssg71
g2970
sg64
(lp2982
S':'
asbag57
(g78
g59
NtRp2983
(dp2984
g62
(dp2985
sg71
g2970
sg64
(lp2986
g57
(g58
g59
NtRp2987
(dp2988
g62
(dp2989
g70
I3
ssg71
g2983
sg64
(lp2990
g1527
asbasbasbag57
(g73
g59
NtRp2991
(dp2992
g62
(dp2993
sg71
g2819
sg64
(lp2994
g57
(g78
g59
NtRp2995
(dp2996
g62
(dp2997
g82
g83
ssg71
g2991
sg64
(lp2998
S'HTTP_REFERER'
p2999
asbag57
(g78
g59
NtRp3000
(dp3001
g62
(dp3002
g89
g90
ssg71
g2991
sg64
(lp3003
S':'
asbag57
(g78
g59
NtRp3004
(dp3005
g62
(dp3006
sg71
g2991
sg64
(lp3007
g57
(g58
g59
NtRp3008
(dp3009
g62
(dp3010
g70
I3
ssg71
g3004
sg64
(lp3011
g1549
asbasbasbag57
(g73
g59
NtRp3012
(dp3013
g62
(dp3014
sg71
g2819
sg64
(lp3015
g57
(g78
g59
NtRp3016
(dp3017
g62
(dp3018
g82
g83
ssg71
g3012
sg64
(lp3019
S'HTTP_USER_AGENT'
p3020
asbag57
(g78
g59
NtRp3021
(dp3022
g62
(dp3023
g89
g90
ssg71
g3012
sg64
(lp3024
S':'
asbag57
(g78
g59
NtRp3025
(dp3026
g62
(dp3027
sg71
g3012
sg64
(lp3028
g57
(g58
g59
NtRp3029
(dp3030
g62
(dp3031
g70
I3
ssg71
g3025
sg64
(lp3032
g1571
asbasbasbag57
(g73
g59
NtRp3033
(dp3034
g62
(dp3035
sg71
g2819
sg64
(lp3036
g57
(g78
g59
NtRp3037
(dp3038
g62
(dp3039
g82
g83
ssg71
g3033
sg64
(lp3040
S'PATH_INFO'
p3041
asbag57
(g78
g59
NtRp3042
(dp3043
g62
(dp3044
g89
g90
ssg71
g3033
sg64
(lp3045
S':'
asbag57
(g78
g59
NtRp3046
(dp3047
g62
(dp3048
sg71
g3033
sg64
(lp3049
g57
(g58
g59
NtRp3050
(dp3051
g62
(dp3052
g70
I3
ssg71
g3046
sg64
(lp3053
g1635
asbasbasbag57
(g73
g59
NtRp3054
(dp3055
g62
(dp3056
sg71
g2819
sg64
(lp3057
g57
(g78
g59
NtRp3058
(dp3059
g62
(dp3060
g82
g83
ssg71
g3054
sg64
(lp3061
S'QUERY_STRING'
p3062
asbag57
(g78
g59
NtRp3063
(dp3064
g62
(dp3065
g89
g90
ssg71
g3054
sg64
(lp3066
S':'
asbag57
(g78
g59
NtRp3067
(dp3068
g62
(dp3069
sg71
g3054
sg64
(lp3070
g57
(g58
g59
NtRp3071
(dp3072
g62
(dp3073
g70
I3
ssg71
g3067
sg64
(lp3074
S''
asbasbasbag57
(g73
g59
NtRp3075
(dp3076
g62
(dp3077
sg71
g2819
sg64
(lp3078
g57
(g78
g59
NtRp3079
(dp3080
g62
(dp3081
g82
g83
ssg71
g3075
sg64
(lp3082
S'REMOTE_ADDR'
p3083
asbag57
(g78
g59
NtRp3084
(dp3085
g62
(dp3086
g89
g90
ssg71
g3075
sg64
(lp3087
S':'
asbag57
(g78
g59
NtRp3088
(dp3089
g62
(dp3090
sg71
g3075
sg64
(lp3091
g57
(g58
g59
NtRp3092
(dp3093
g62
(dp3094
g70
I3
ssg71
g3088
sg64
(lp3095
g190
asbasbasbag57
(g73
g59
NtRp3096
(dp3097
g62
(dp3098
sg71
g2819
sg64
(lp3099
g57
(g78
g59
NtRp3100
(dp3101
g62
(dp3102
g82
g83
ssg71
g3096
sg64
(lp3103
S'REMOTE_PORT'
p3104
asbag57
(g78
g59
NtRp3105
(dp3106
g62
(dp3107
g89
g90
ssg71
g3096
sg64
(lp3108
S':'
asbag57
(g78
g59
NtRp3109
(dp3110
g62
(dp3111
sg71
g3096
sg64
(lp3112
g57
(g58
g59
NtRp3113
(dp3114
g62
(dp3115
g70
I3
ssg71
g3109
sg64
(lp3116
g1699
asbasbasbag57
(g73
g59
NtRp3117
(dp3118
g62
(dp3119
sg71
g2819
sg64
(lp3120
g57
(g78
g59
NtRp3121
(dp3122
g62
(dp3123
g82
g83
ssg71
g3117
sg64
(lp3124
S'REQUEST_METHOD'
p3125
asbag57
(g78
g59
NtRp3126
(dp3127
g62
(dp3128
g89
g90
ssg71
g3117
sg64
(lp3129
S':'
asbag57
(g78
g59
NtRp3130
(dp3131
g62
(dp3132
sg71
g3117
sg64
(lp3133
g57
(g58
g59
NtRp3134
(dp3135
g62
(dp3136
g70
I3
ssg71
g3130
sg64
(lp3137
g1721
asbasbasbag57
(g73
g59
NtRp3138
(dp3139
g62
(dp3140
sg71
g2819
sg64
(lp3141
g57
(g78
g59
NtRp3142
(dp3143
g62
(dp3144
g82
g83
ssg71
g3138
sg64
(lp3145
S'SCRIPT_NAME'
p3146
asbag57
(g78
g59
NtRp3147
(dp3148
g62
(dp3149
g89
g90
ssg71
g3138
sg64
(lp3150
S':'
asbag57
(g78
g59
NtRp3151
(dp3152
g62
(dp3153
sg71
g3138
sg64
(lp3154
g57
(g58
g59
NtRp3155
(dp3156
g62
(dp3157
g70
I3
ssg71
g3151
sg64
(lp3158
S''
asbasbasbag57
(g73
g59
NtRp3159
(dp3160
g62
(dp3161
sg71
g2819
sg64
(lp3162
g57
(g78
g59
NtRp3163
(dp3164
g62
(dp3165
g82
g83
ssg71
g3159
sg64
(lp3166
S'SERVER_NAME'
p3167
asbag57
(g78
g59
NtRp3168
(dp3169
g62
(dp3170
g89
g90
ssg71
g3159
sg64
(lp3171
S':'
asbag57
(g78
g59
NtRp3172
(dp3173
g62
(dp3174
sg71
g3159
sg64
(lp3175
g57
(g58
g59
NtRp3176
(dp3177
g62
(dp3178
g70
I3
ssg71
g3172
sg64
(lp3179
g1764
asbasbasbag57
(g73
g59
NtRp3180
(dp3181
g62
(dp3182
sg71
g2819
sg64
(lp3183
g57
(g78
g59
NtRp3184
(dp3185
g62
(dp3186
g82
g83
ssg71
g3180
sg64
(lp3187
S'SERVER_PORT'
p3188
asbag57
(g78
g59
NtRp3189
(dp3190
g62
(dp3191
g89
g90
ssg71
g3180
sg64
(lp3192
S':'
asbag57
(g78
g59
NtRp3193
(dp3194
g62
(dp3195
sg71
g3180
sg64
(lp3196
g57
(g58
g59
NtRp3197
(dp3198
g62
(dp3199
g70
I3
ssg71
g3193
sg64
(lp3200
g1786
asbasbasbag57
(g73
g59
NtRp3201
(dp3202
g62
(dp3203
sg71
g2819
sg64
(lp3204
g57
(g78
g59
NtRp3205
(dp3206
g62
(dp3207
g82
g83
ssg71
g3201
sg64
(lp3208
S'SERVER_PROTOCOL'
p3209
asbag57
(g78
g59
NtRp3210
(dp3211
g62
(dp3212
g89
g90
ssg71
g3201
sg64
(lp3213
S':'
asbag57
(g78
g59
NtRp3214
(dp3215
g62
(dp3216
sg71
g3201
sg64
(lp3217
g57
(g58
g59
NtRp3218
(dp3219
g62
(dp3220
g70
I3
ssg71
g3214
sg64
(lp3221
g1808
asbasbasbag57
(g73
g59
NtRp3222
(dp3223
g62
(dp3224
sg71
g2819
sg64
(lp3225
g57
(g78
g59
NtRp3226
(dp3227
g62
(dp3228
g82
g83
ssg71
g3222
sg64
(lp3229
S'SERVER_SOFTWARE'
p3230
asbag57
(g78
g59
NtRp3231
(dp3232
g62
(dp3233
g89
g90
ssg71
g3222
sg64
(lp3234
S':'
asbag57
(g78
g59
NtRp3235
(dp3236
g62
(dp3237
sg71
g3222
sg64
(lp3238
g57
(g58
g59
NtRp3239
(dp3240
g62
(dp3241
g70
I3
ssg71
g3235
sg64
(lp3242
g1830
asbasbasbag57
(g73
g59
NtRp3243
(dp3244
g62
(dp3245
sg71
g2819
sg64
(lp3246
g57
(g78
g59
NtRp3247
(dp3248
g62
(dp3249
g82
g83
ssg71
g3243
sg64
(lp3250
S'wsgi.errors'
p3251
asbag57
(g78
g59
NtRp3252
(dp3253
g62
(dp3254
g89
g90
ssg71
g3243
sg64
(lp3255
S':'
asbag57
(g78
g59
NtRp3256
(dp3257
g62
(dp3258
sg71
g3243
sg64
(lp3259
g57
(g58
g59
NtRp3260
(dp3261
g62
(dp3262
g70
I3
ssg71
g3256
sg64
(lp3263
S"<open file '<stderr>', mode 'w' at 0x7fb75e7a21e0>"
p3264
asbasbasbag57
(g73
g59
NtRp3265
(dp3266
g62
(dp3267
sg71
g2819
sg64
(lp3268
g57
(g78
g59
NtRp3269
(dp3270
g62
(dp3271
g82
g83
ssg71
g3265
sg64
(lp3272
S'wsgi.file_wrapper'
p3273
asbag57
(g78
g59
NtRp3274
(dp3275
g62
(dp3276
g89
g90
ssg71
g3265
sg64
(lp3277
S':'
asbag57
(g78
g59
NtRp3278
(dp3279
g62
(dp3280
sg71
g3265
sg64
(lp3281
g57
(g58
g59
NtRp3282
(dp3283
g62
(dp3284
g70
I3
ssg71
g3278
sg64
(lp3285
S'<class wsgiref.util.FileWrapper at 0x212a7d0>'
p3286
asbasbasbag57
(g73
g59
NtRp3287
(dp3288
g62
(dp3289
sg71
g2819
sg64
(lp3290
g57
(g78
g59
NtRp3291
(dp3292
g62
(dp3293
g82
g83
ssg71
g3287
sg64
(lp3294
S'wsgi.input'
p3295
asbag57
(g78
g59
NtRp3296
(dp3297
g62
(dp3298
g89
g90
ssg71
g3287
sg64
(lp3299
S':'
asbag57
(g78
g59
NtRp3300
(dp3301
g62
(dp3302
sg71
g3287
sg64
(lp3303
g57
(g58
g59
NtRp3304
(dp3305
g62
(dp3306
g70
I3
ssg71
g3300
sg64
(lp3307
S'<cStringIO.StringO object at 0x3384068>'
p3308
asbasbasbag57
(g73
g59
NtRp3309
(dp3310
g62
(dp3311
sg71
g2819
sg64
(lp3312
g57
(g78
g59
NtRp3313
(dp3314
g62
(dp3315
g82
g83
ssg71
g3309
sg64
(lp3316
S'wsgi.multiprocess'
p3317
asbag57
(g78
g59
NtRp3318
(dp3319
g62
(dp3320
g89
g90
ssg71
g3309
sg64
(lp3321
S':'
asbag57
(g78
g59
NtRp3322
(dp3323
g62
(dp3324
sg71
g3309
sg64
(lp3325
g57
(g58
g59
NtRp3326
(dp3327
g62
(dp3328
g70
I3
ssg71
g3322
sg64
(lp3329
g100
asbasbasbag57
(g73
g59
NtRp3330
(dp3331
g62
(dp3332
sg71
g2819
sg64
(lp3333
g57
(g78
g59
NtRp3334
(dp3335
g62
(dp3336
g82
g83
ssg71
g3330
sg64
(lp3337
S'wsgi.multithread'
p3338
asbag57
(g78
g59
NtRp3339
(dp3340
g62
(dp3341
g89
g90
ssg71
g3330
sg64
(lp3342
S':'
asbag57
(g78
g59
NtRp3343
(dp3344
g62
(dp3345
sg71
g3330
sg64
(lp3346
g57
(g58
g59
NtRp3347
(dp3348
g62
(dp3349
g70
I3
ssg71
g3343
sg64
(lp3350
g2070
asbasbasbag57
(g73
g59
NtRp3351
(dp3352
g62
(dp3353
sg71
g2819
sg64
(lp3354
g57
(g78
g59
NtRp3355
(dp3356
g62
(dp3357
g82
g83
ssg71
g3351
sg64
(lp3358
S'wsgi.run_once'
p3359
asbag57
(g78
g59
NtRp3360
(dp3361
g62
(dp3362
g89
g90
ssg71
g3351
sg64
(lp3363
S':'
asbag57
(g78
g59
NtRp3364
(dp3365
g62
(dp3366
sg71
g3351
sg64
(lp3367
g57
(g58
g59
NtRp3368
(dp3369
g62
(dp3370
g70
I3
ssg71
g3364
sg64
(lp3371
g100
asbasbasbag57
(g73
g59
NtRp3372
(dp3373
g62
(dp3374
sg71
g2819
sg64
(lp3375
g57
(g78
g59
NtRp3376
(dp3377
g62
(dp3378
g82
g83
ssg71
g3372
sg64
(lp3379
S'wsgi.url_scheme'
p3380
asbag57
(g78
g59
NtRp3381
(dp3382
g62
(dp3383
g89
g90
ssg71
g3372
sg64
(lp3384
S':'
asbag57
(g78
g59
NtRp3385
(dp3386
g62
(dp3387
sg71
g3372
sg64
(lp3388
g57
(g58
g59
NtRp3389
(dp3390
g62
(dp3391
g70
I3
ssg71
g3385
sg64
(lp3392
g2113
asbasbasbag57
(g73
g59
NtRp3393
(dp3394
g62
(dp3395
sg71
g2819
sg64
(lp3396
g57
(g78
g59
NtRp3397
(dp3398
g62
(dp3399
g82
g83
ssg71
g3393
sg64
(lp3400
S'wsgi.version'
p3401
asbag57
(g78
g59
NtRp3402
(dp3403
g62
(dp3404
g89
g90
ssg71
g3393
sg64
(lp3405
S':'
asbag57
(g78
g59
NtRp3406
(dp3407
g62
(dp3408
sg71
g3393
sg64
(lp3409
g57
(g58
g59
NtRp3410
(dp3411
g62
(dp3412
g70
I3
ssg71
g3406
sg64
(lp3413
S'1'
asbasbasbasbasbasbasbasbasbasbasbasbasbsS'frames'
p3414
(lp3415
(dp3416
S'file'
p3417
S'/home/rohitraj/Desktop/web2py/gluon/restricted.py'
p3418
sS'dump'
p3419
(dp3420
S'environment'
p3421
S"{'A': <class 'gluon.html.A'>, 'Auth': <class 'gluon.tools.Auth'>, 'B': <class 'gluon.html.B'>, 'BEAUTIFY': <class 'gluon.html.BEAUTIFY'>, 'BODY': <class 'gluon.html.BODY'>, 'BR': <class 'gluon.html.BR'>, 'BUTTON': <class 'gluon.html.BUTTON'>, 'CAT': <class 'gluon.html.CAT'>, 'CENTER': <class 'gluon.html.CENTER'>, 'CLEANUP': <class 'gluon.validators.CLEANUP'>, ...}"
p3422
sS'ccode'
p3423
S'<code object <module> at 0x313f6c0, file "/home/...shrms/views/default/user_timesheet.html", line 1>'
p3424
ssS'lnum'
p3425
I205
sS'lines'
p3426
(dp3427
I200
S'    try:'
p3428
sI201
S'        if type(code) == types.CodeType:'
p3429
sI202
S'            ccode = code'
p3430
sI203
S'        else:'
p3431
sI204
S'            ccode = compile2(code,layer)'
p3432
sI205
S'        exec ccode in environment'
p3433
sI206
S'    except HTTP:'
p3434
sI207
S'        raise'
p3435
sI208
S'    except RestrictedError:'
p3436
sI209
S'        # do not encapsulate (obfuscate) the original RestrictedError'
p3437
ssS'call'
p3438
S'(code="left_sidebar_enabled,True\\nresponse.write(\'\\\\n\', e...ponse.write(\'\\\\n</body>\\\\n</html>\\\\n\', escape=False)", environment={\'A\': <class \'gluon.html.A\'>, \'Auth\': <class \'gluon.tools.Auth\'>, \'B\': <class \'gluon.html.B\'>, \'BEAUTIFY\': <class \'gluon.html.BEAUTIFY\'>, \'BODY\': <class \'gluon.html.BODY\'>, \'BR\': <class \'gluon.html.BR\'>, \'BUTTON\': <class \'gluon.html.BUTTON\'>, \'CAT\': <class \'gluon.html.CAT\'>, \'CENTER\': <class \'gluon.html.CENTER\'>, \'CLEANUP\': <class \'gluon.validators.CLEANUP\'>, ...}, layer=\'/home/rohitraj/Desktop/web2py/applications/themishrms/views/default/user_timesheet.html\')'
p3439
sS'func'
p3440
S'restricted'
p3441
sa(dp3442
g3417
S'/home/rohitraj/Desktop/web2py/applications/themishrms/views/default/user_timesheet.html'
p3443
sg3419
(dp3444
S'builtinTrue'
p3445
g2070
sS'left_sidebar_enabled'
p3446
S'undefined'
p3447
ssg3425
I1
sg3426
(dp3448
I1
S'left_sidebar_enabled,True'
p3449
sI2
S"response.write('\\n', escape=False)"
p3450
sI3
S'response.write(\'<!DOCTYPE html>\\n<!-- paulirish.com/2008/conditional-stylesheets-vs-css-hacks-answer-neither/ -->\\n<!--[if lt IE 7]><html class="ie ie6 ie-lte9 ie-lte8 ie-lte7 no-js" lang="\', escape=False)'
p3451
sI4
S"response.write(T.accepted_language or 'en')"
p3452
sI5
S'response.write(\'"> <![endif]-->\\n<!--[if IE 7]><html class="ie ie7 ie-lte9 ie-lte8 ie-lte7 no-js" lang="\', escape=False)'
p3453
sI6
S"response.write(T.accepted_language or 'en')"
p3454
sI7
S'response.write(\'"> <![endif]-->\\n<!--[if IE 8]><html class="ie ie8 ie-lte9 ie-lte8 no-js" lang="\', escape=False)'
p3455
sI8
S"response.write(T.accepted_language or 'en')"
p3456
sI9
S'response.write(\'"> <![endif]-->\\n<!--[if IE 9]><html class="ie9 ie-lte9 no-js" lang="\', escape=False)'
p3457
sI10
S"response.write(T.accepted_language or 'en')"
p3458
sI11
S'response.write(\'"> <![endif]-->\\n<!--[if (gt IE 9)|!(IE)]><!--> <html class="no-js" lang="\', escape=False)'
p3459
ssg3438
S'()'
p3460
sg3440
S'<module>'
p3461
sasS'pyver'
p3462
S'Python 2.6.5: /usr/bin/python'
p3463
sS'session'
p3464
g57
(g58
g59
NtRp3465
(dp3466
g62
(dp3467
sg64
(lp3468
g57
(g66
g59
NtRp3469
(dp3470
g62
(dp3471
g70
I5
ssg71
Nsg64
(lp3472
g57
(g73
g59
NtRp3473
(dp3474
g62
(dp3475
sg71
g3469
sg64
(lp3476
g57
(g78
g59
NtRp3477
(dp3478
g62
(dp3479
g82
g83
ssg71
g3473
sg64
(lp3480
S'auth'
p3481
asbag57
(g78
g59
NtRp3482
(dp3483
g62
(dp3484
g89
g90
ssg71
g3473
sg64
(lp3485
S':'
asbag57
(g78
g59
NtRp3486
(dp3487
g62
(dp3488
sg71
g3473
sg64
(lp3489
g57
(g58
g59
NtRp3490
(dp3491
g62
(dp3492
g70
I5
ssg71
g3486
sg64
(lp3493
g57
(g66
g59
NtRp3494
(dp3495
g62
(dp3496
g70
I4
ssg71
Nsg64
(lp3497
g57
(g73
g59
NtRp3498
(dp3499
g62
(dp3500
sg71
g3494
sg64
(lp3501
g57
(g78
g59
NtRp3502
(dp3503
g62
(dp3504
g82
g83
ssg71
g3498
sg64
(lp3505
S'expiration'
p3506
asbag57
(g78
g59
NtRp3507
(dp3508
g62
(dp3509
g89
g90
ssg71
g3498
sg64
(lp3510
S':'
asbag57
(g78
g59
NtRp3511
(dp3512
g62
(dp3513
sg71
g3498
sg64
(lp3514
g57
(g58
g59
NtRp3515
(dp3516
g62
(dp3517
g70
I4
ssg71
g3511
sg64
(lp3518
S'3600'
p3519
asbasbasbag57
(g73
g59
NtRp3520
(dp3521
g62
(dp3522
sg71
g3494
sg64
(lp3523
g57
(g78
g59
NtRp3524
(dp3525
g62
(dp3526
g82
g83
ssg71
g3520
sg64
(lp3527
S'hmac_key'
p3528
asbag57
(g78
g59
NtRp3529
(dp3530
g62
(dp3531
g89
g90
ssg71
g3520
sg64
(lp3532
S':'
asbag57
(g78
g59
NtRp3533
(dp3534
g62
(dp3535
sg71
g3520
sg64
(lp3536
g57
(g58
g59
NtRp3537
(dp3538
g62
(dp3539
g70
I4
ssg71
g3533
sg64
(lp3540
S'eb759fd9-aac0-400d-a88b-e1baa6c5442c'
p3541
asbasbasbag57
(g73
g59
NtRp3542
(dp3543
g62
(dp3544
sg71
g3494
sg64
(lp3545
g57
(g78
g59
NtRp3546
(dp3547
g62
(dp3548
g82
g83
ssg71
g3542
sg64
(lp3549
S'last_visit'
p3550
asbag57
(g78
g59
NtRp3551
(dp3552
g62
(dp3553
g89
g90
ssg71
g3542
sg64
(lp3554
S':'
asbag57
(g78
g59
NtRp3555
(dp3556
g62
(dp3557
sg71
g3542
sg64
(lp3558
g57
(g58
g59
NtRp3559
(dp3560
g62
(dp3561
g70
I4
ssg71
g3555
sg64
(lp3562
S'datetime.datetime(2012, 5, 3, 16, 10, 13, 804713)'
p3563
asbasbasbag57
(g73
g59
NtRp3564
(dp3565
g62
(dp3566
sg71
g3494
sg64
(lp3567
g57
(g78
g59
NtRp3568
(dp3569
g62
(dp3570
g82
g83
ssg71
g3564
sg64
(lp3571
S'remember'
p3572
asbag57
(g78
g59
NtRp3573
(dp3574
g62
(dp3575
g89
g90
ssg71
g3564
sg64
(lp3576
S':'
asbag57
(g78
g59
NtRp3577
(dp3578
g62
(dp3579
sg71
g3564
sg64
(lp3580
g57
(g58
g59
NtRp3581
(dp3582
g62
(dp3583
g70
I4
ssg71
g3577
sg64
(lp3584
g100
asbasbasbag57
(g73
g59
NtRp3585
(dp3586
g62
(dp3587
sg71
g3494
sg64
(lp3588
g57
(g78
g59
NtRp3589
(dp3590
g62
(dp3591
g82
g83
ssg71
g3585
sg64
(lp3592
S'user'
p3593
asbag57
(g78
g59
NtRp3594
(dp3595
g62
(dp3596
g89
g90
ssg71
g3585
sg64
(lp3597
S':'
asbag57
(g78
g59
NtRp3598
(dp3599
g62
(dp3600
sg71
g3585
sg64
(lp3601
g57
(g58
g59
NtRp3602
(dp3603
g62
(dp3604
g70
I4
ssg71
g3598
sg64
(lp3605
g57
(g66
g59
NtRp3606
(dp3607
g62
(dp3608
g70
I3
ssg71
Nsg64
(lp3609
g57
(g73
g59
NtRp3610
(dp3611
g62
(dp3612
sg71
g3606
sg64
(lp3613
g57
(g78
g59
NtRp3614
(dp3615
g62
(dp3616
g82
g83
ssg71
g3610
sg64
(lp3617
S'date_of_exit'
p3618
asbag57
(g78
g59
NtRp3619
(dp3620
g62
(dp3621
g89
g90
ssg71
g3610
sg64
(lp3622
S':'
asbag57
(g78
g59
NtRp3623
(dp3624
g62
(dp3625
sg71
g3610
sg64
(lp3626
g57
(g58
g59
NtRp3627
(dp3628
g62
(dp3629
g70
I3
ssg71
g3623
sg64
(lp3630
S'None'
p3631
asbasbasbag57
(g73
g59
NtRp3632
(dp3633
g62
(dp3634
sg71
g3606
sg64
(lp3635
g57
(g78
g59
NtRp3636
(dp3637
g62
(dp3638
g82
g83
ssg71
g3632
sg64
(lp3639
S'date_of_joining'
p3640
asbag57
(g78
g59
NtRp3641
(dp3642
g62
(dp3643
g89
g90
ssg71
g3632
sg64
(lp3644
S':'
asbag57
(g78
g59
NtRp3645
(dp3646
g62
(dp3647
sg71
g3632
sg64
(lp3648
g57
(g58
g59
NtRp3649
(dp3650
g62
(dp3651
g70
I3
ssg71
g3645
sg64
(lp3652
S'datetime.date(2012, 4, 18)'
p3653
asbasbasbag57
(g73
g59
NtRp3654
(dp3655
g62
(dp3656
sg71
g3606
sg64
(lp3657
g57
(g78
g59
NtRp3658
(dp3659
g62
(dp3660
g82
g83
ssg71
g3654
sg64
(lp3661
S'department'
p3662
asbag57
(g78
g59
NtRp3663
(dp3664
g62
(dp3665
g89
g90
ssg71
g3654
sg64
(lp3666
S':'
asbag57
(g78
g59
NtRp3667
(dp3668
g62
(dp3669
sg71
g3654
sg64
(lp3670
g57
(g58
g59
NtRp3671
(dp3672
g62
(dp3673
g70
I3
ssg71
g3667
sg64
(lp3674
S'IT'
p3675
asbasbasbag57
(g73
g59
NtRp3676
(dp3677
g62
(dp3678
sg71
g3606
sg64
(lp3679
g57
(g78
g59
NtRp3680
(dp3681
g62
(dp3682
g82
g83
ssg71
g3676
sg64
(lp3683
S'designation'
p3684
asbag57
(g78
g59
NtRp3685
(dp3686
g62
(dp3687
g89
g90
ssg71
g3676
sg64
(lp3688
S':'
asbag57
(g78
g59
NtRp3689
(dp3690
g62
(dp3691
sg71
g3676
sg64
(lp3692
g57
(g58
g59
NtRp3693
(dp3694
g62
(dp3695
g70
I3
ssg71
g3689
sg64
(lp3696
S'Web Developer'
p3697
asbasbasbag57
(g73
g59
NtRp3698
(dp3699
g62
(dp3700
sg71
g3606
sg64
(lp3701
g57
(g78
g59
NtRp3702
(dp3703
g62
(dp3704
g82
g83
ssg71
g3698
sg64
(lp3705
S'email'
p3706
asbag57
(g78
g59
NtRp3707
(dp3708
g62
(dp3709
g89
g90
ssg71
g3698
sg64
(lp3710
S':'
asbag57
(g78
g59
NtRp3711
(dp3712
g62
(dp3713
sg71
g3698
sg64
(lp3714
g57
(g58
g59
NtRp3715
(dp3716
g62
(dp3717
g70
I3
ssg71
g3711
sg64
(lp3718
S'rohitraj.sharma@themislexsol.com'
p3719
asbasbasbag57
(g73
g59
NtRp3720
(dp3721
g62
(dp3722
sg71
g3606
sg64
(lp3723
g57
(g78
g59
NtRp3724
(dp3725
g62
(dp3726
g82
g83
ssg71
g3720
sg64
(lp3727
S'employee_code'
p3728
asbag57
(g78
g59
NtRp3729
(dp3730
g62
(dp3731
g89
g90
ssg71
g3720
sg64
(lp3732
S':'
asbag57
(g78
g59
NtRp3733
(dp3734
g62
(dp3735
sg71
g3720
sg64
(lp3736
g57
(g58
g59
NtRp3737
(dp3738
g62
(dp3739
g70
I3
ssg71
g3733
sg64
(lp3740
S'TLS002'
p3741
asbasbasbag57
(g73
g59
NtRp3742
(dp3743
g62
(dp3744
sg71
g3606
sg64
(lp3745
g57
(g78
g59
NtRp3746
(dp3747
g62
(dp3748
g82
g83
ssg71
g3742
sg64
(lp3749
S'employee_status'
p3750
asbag57
(g78
g59
NtRp3751
(dp3752
g62
(dp3753
g89
g90
ssg71
g3742
sg64
(lp3754
S':'
asbag57
(g78
g59
NtRp3755
(dp3756
g62
(dp3757
sg71
g3742
sg64
(lp3758
g57
(g58
g59
NtRp3759
(dp3760
g62
(dp3761
g70
I3
ssg71
g3755
sg64
(lp3762
S'Active'
p3763
asbasbasbag57
(g73
g59
NtRp3764
(dp3765
g62
(dp3766
sg71
g3606
sg64
(lp3767
g57
(g78
g59
NtRp3768
(dp3769
g62
(dp3770
g82
g83
ssg71
g3764
sg64
(lp3771
S'exit_remark'
p3772
asbag57
(g78
g59
NtRp3773
(dp3774
g62
(dp3775
g89
g90
ssg71
g3764
sg64
(lp3776
S':'
asbag57
(g78
g59
NtRp3777
(dp3778
g62
(dp3779
sg71
g3764
sg64
(lp3780
g57
(g58
g59
NtRp3781
(dp3782
g62
(dp3783
g70
I3
ssg71
g3777
sg64
(lp3784
S''
asbasbasbag57
(g73
g59
NtRp3785
(dp3786
g62
(dp3787
sg71
g3606
sg64
(lp3788
g57
(g78
g59
NtRp3789
(dp3790
g62
(dp3791
g82
g83
ssg71
g3785
sg64
(lp3792
S'first_name'
p3793
asbag57
(g78
g59
NtRp3794
(dp3795
g62
(dp3796
g89
g90
ssg71
g3785
sg64
(lp3797
S':'
asbag57
(g78
g59
NtRp3798
(dp3799
g62
(dp3800
sg71
g3785
sg64
(lp3801
g57
(g58
g59
NtRp3802
(dp3803
g62
(dp3804
g70
I3
ssg71
g3798
sg64
(lp3805
S'Rohit'
p3806
asbasbasbag57
(g73
g59
NtRp3807
(dp3808
g62
(dp3809
sg71
g3606
sg64
(lp3810
g57
(g78
g59
NtRp3811
(dp3812
g62
(dp3813
g82
g83
ssg71
g3807
sg64
(lp3814
S'id'
p3815
asbag57
(g78
g59
NtRp3816
(dp3817
g62
(dp3818
g89
g90
ssg71
g3807
sg64
(lp3819
S':'
asbag57
(g78
g59
NtRp3820
(dp3821
g62
(dp3822
sg71
g3807
sg64
(lp3823
g57
(g58
g59
NtRp3824
(dp3825
g62
(dp3826
g70
I3
ssg71
g3820
sg64
(lp3827
S'3'
asbasbasbag57
(g73
g59
NtRp3828
(dp3829
g62
(dp3830
sg71
g3606
sg64
(lp3831
g57
(g78
g59
NtRp3832
(dp3833
g62
(dp3834
g82
g83
ssg71
g3828
sg64
(lp3835
S'last_name'
p3836
asbag57
(g78
g59
NtRp3837
(dp3838
g62
(dp3839
g89
g90
ssg71
g3828
sg64
(lp3840
S':'
asbag57
(g78
g59
NtRp3841
(dp3842
g62
(dp3843
sg71
g3828
sg64
(lp3844
g57
(g58
g59
NtRp3845
(dp3846
g62
(dp3847
g70
I3
ssg71
g3841
sg64
(lp3848
S'sharma'
p3849
asbasbasbag57
(g73
g59
NtRp3850
(dp3851
g62
(dp3852
sg71
g3606
sg64
(lp3853
g57
(g78
g59
NtRp3854
(dp3855
g62
(dp3856
g82
g83
ssg71
g3850
sg64
(lp3857
S'location'
p3858
asbag57
(g78
g59
NtRp3859
(dp3860
g62
(dp3861
g89
g90
ssg71
g3850
sg64
(lp3862
S':'
asbag57
(g78
g59
NtRp3863
(dp3864
g62
(dp3865
sg71
g3850
sg64
(lp3866
g57
(g58
g59
NtRp3867
(dp3868
g62
(dp3869
g70
I3
ssg71
g3863
sg64
(lp3870
S'Bangalore'
p3871
asbasbasbag57
(g73
g59
NtRp3872
(dp3873
g62
(dp3874
sg71
g3606
sg64
(lp3875
g57
(g78
g59
NtRp3876
(dp3877
g62
(dp3878
g82
g83
ssg71
g3872
sg64
(lp3879
S'organization_name'
p3880
asbag57
(g78
g59
NtRp3881
(dp3882
g62
(dp3883
g89
g90
ssg71
g3872
sg64
(lp3884
S':'
asbag57
(g78
g59
NtRp3885
(dp3886
g62
(dp3887
sg71
g3872
sg64
(lp3888
g57
(g58
g59
NtRp3889
(dp3890
g62
(dp3891
g70
I3
ssg71
g3885
sg64
(lp3892
S'Themis Lexsol'
p3893
asbasbasbag57
(g73
g59
NtRp3894
(dp3895
g62
(dp3896
sg71
g3606
sg64
(lp3897
g57
(g78
g59
NtRp3898
(dp3899
g62
(dp3900
g82
g83
ssg71
g3894
sg64
(lp3901
S'password'
p3902
asbag57
(g78
g59
NtRp3903
(dp3904
g62
(dp3905
g89
g90
ssg71
g3894
sg64
(lp3906
S':'
asbag57
(g78
g59
NtRp3907
(dp3908
g62
(dp3909
sg71
g3894
sg64
(lp3910
g57
(g58
g59
NtRp3911
(dp3912
g62
(dp3913
g70
I3
ssg71
g3907
sg64
(lp3914
S'5d8c8afe4854a5830a3fd1282cfa4eff'
p3915
asbasbasbag57
(g73
g59
NtRp3916
(dp3917
g62
(dp3918
sg71
g3606
sg64
(lp3919
g57
(g78
g59
NtRp3920
(dp3921
g62
(dp3922
g82
g83
ssg71
g3916
sg64
(lp3923
S'personal_email'
p3924
asbag57
(g78
g59
NtRp3925
(dp3926
g62
(dp3927
g89
g90
ssg71
g3916
sg64
(lp3928
S':'
asbag57
(g78
g59
NtRp3929
(dp3930
g62
(dp3931
sg71
g3916
sg64
(lp3932
g57
(g58
g59
NtRp3933
(dp3934
g62
(dp3935
g70
I3
ssg71
g3929
sg64
(lp3936
S'rohitraj.sharma@themislexsol.com'
p3937
asbasbasbag57
(g73
g59
NtRp3938
(dp3939
g62
(dp3940
sg71
g3606
sg64
(lp3941
g57
(g78
g59
NtRp3942
(dp3943
g62
(dp3944
g82
g83
ssg71
g3938
sg64
(lp3945
S'registration_id'
p3946
asbag57
(g78
g59
NtRp3947
(dp3948
g62
(dp3949
g89
g90
ssg71
g3938
sg64
(lp3950
S':'
asbag57
(g78
g59
NtRp3951
(dp3952
g62
(dp3953
sg71
g3938
sg64
(lp3954
g57
(g58
g59
NtRp3955
(dp3956
g62
(dp3957
g70
I3
ssg71
g3951
sg64
(lp3958
S''
asbasbasbag57
(g73
g59
NtRp3959
(dp3960
g62
(dp3961
sg71
g3606
sg64
(lp3962
g57
(g78
g59
NtRp3963
(dp3964
g62
(dp3965
g82
g83
ssg71
g3959
sg64
(lp3966
S'registration_key'
p3967
asbag57
(g78
g59
NtRp3968
(dp3969
g62
(dp3970
g89
g90
ssg71
g3959
sg64
(lp3971
S':'
asbag57
(g78
g59
NtRp3972
(dp3973
g62
(dp3974
sg71
g3959
sg64
(lp3975
g57
(g58
g59
NtRp3976
(dp3977
g62
(dp3978
g70
I3
ssg71
g3972
sg64
(lp3979
S''
asbasbasbag57
(g73
g59
NtRp3980
(dp3981
g62
(dp3982
sg71
g3606
sg64
(lp3983
g57
(g78
g59
NtRp3984
(dp3985
g62
(dp3986
g82
g83
ssg71
g3980
sg64
(lp3987
S'reporting_manager'
p3988
asbag57
(g78
g59
NtRp3989
(dp3990
g62
(dp3991
g89
g90
ssg71
g3980
sg64
(lp3992
S':'
asbag57
(g78
g59
NtRp3993
(dp3994
g62
(dp3995
sg71
g3980
sg64
(lp3996
g57
(g58
g59
NtRp3997
(dp3998
g62
(dp3999
g70
I3
ssg71
g3993
sg64
(lp4000
S'sanjeet.tls@gmail.com'
p4001
asbasbasbag57
(g73
g59
NtRp4002
(dp4003
g62
(dp4004
sg71
g3606
sg64
(lp4005
g57
(g78
g59
NtRp4006
(dp4007
g62
(dp4008
g82
g83
ssg71
g4002
sg64
(lp4009
S'reset_password_key'
p4010
asbag57
(g78
g59
NtRp4011
(dp4012
g62
(dp4013
g89
g90
ssg71
g4002
sg64
(lp4014
S':'
asbag57
(g78
g59
NtRp4015
(dp4016
g62
(dp4017
sg71
g4002
sg64
(lp4018
g57
(g58
g59
NtRp4019
(dp4020
g62
(dp4021
g70
I3
ssg71
g4015
sg64
(lp4022
S''
asbasbasbasbasbasbasbag57
(g73
g59
NtRp4023
(dp4024
g62
(dp4025
sg71
g3494
sg64
(lp4026
g57
(g78
g59
NtRp4027
(dp4028
g62
(dp4029
g82
g83
ssg71
g4023
sg64
(lp4030
S'user_groups'
p4031
asbag57
(g78
g59
NtRp4032
(dp4033
g62
(dp4034
g89
g90
ssg71
g4023
sg64
(lp4035
S':'
asbag57
(g78
g59
NtRp4036
(dp4037
g62
(dp4038
sg71
g4023
sg64
(lp4039
g57
(g58
g59
NtRp4040
(dp4041
g62
(dp4042
g70
I4
ssg71
g4036
sg64
(lp4043
g57
(g66
g59
NtRp4044
(dp4045
g62
(dp4046
g70
I3
ssg71
Nsg64
(lp4047
g57
(g73
g59
NtRp4048
(dp4049
g62
(dp4050
sg71
g4044
sg64
(lp4051
g57
(g78
g59
NtRp4052
(dp4053
g62
(dp4054
g82
g83
ssg71
g4048
sg64
(lp4055
S'2'
asbag57
(g78
g59
NtRp4056
(dp4057
g62
(dp4058
g89
g90
ssg71
g4048
sg64
(lp4059
S':'
asbag57
(g78
g59
NtRp4060
(dp4061
g62
(dp4062
sg71
g4048
sg64
(lp4063
g57
(g58
g59
NtRp4064
(dp4065
g62
(dp4066
g70
I3
ssg71
g4060
sg64
(lp4067
S'Emp'
p4068
asbasbasbasbasbasbasbasbasbasbasbag57
(g73
g59
NtRp4069
(dp4070
g62
(dp4071
sg71
g3469
sg64
(lp4072
g57
(g78
g59
NtRp4073
(dp4074
g62
(dp4075
g82
g83
ssg71
g4069
sg64
(lp4076
S'cutime'
p4077
asbag57
(g78
g59
NtRp4078
(dp4079
g62
(dp4080
g89
g90
ssg71
g4069
sg64
(lp4081
S':'
asbag57
(g78
g59
NtRp4082
(dp4083
g62
(dp4084
sg71
g4069
sg64
(lp4085
g57
(g58
g59
NtRp4086
(dp4087
g62
(dp4088
g70
I5
ssg71
g4082
sg64
(lp4089
S'16:03:45'
p4090
asbasbasbag57
(g73
g59
NtRp4091
(dp4092
g62
(dp4093
sg71
g3469
sg64
(lp4094
g57
(g78
g59
NtRp4095
(dp4096
g62
(dp4097
g82
g83
ssg71
g4091
sg64
(lp4098
S'starttime'
p4099
asbag57
(g78
g59
NtRp4100
(dp4101
g62
(dp4102
g89
g90
ssg71
g4091
sg64
(lp4103
S':'
asbag57
(g78
g59
NtRp4104
(dp4105
g62
(dp4106
sg71
g4091
sg64
(lp4107
g57
(g58
g59
NtRp4108
(dp4109
g62
(dp4110
g70
I5
ssg71
g4104
sg64
(lp4111
S'datetime.datetime(2012, 5, 3, 16, 3, 45, 915043)'
p4112
asbasbasbag57
(g73
g59
NtRp4113
(dp4114
g62
(dp4115
sg71
g3469
sg64
(lp4116
g57
(g78
g59
NtRp4117
(dp4118
g62
(dp4119
g82
g83
ssg71
g4113
sg64
(lp4120
S'time'
p4121
asbag57
(g78
g59
NtRp4122
(dp4123
g62
(dp4124
g89
g90
ssg71
g4113
sg64
(lp4125
S':'
asbag57
(g78
g59
NtRp4126
(dp4127
g62
(dp4128
sg71
g4113
sg64
(lp4129
g57
(g58
g59
NtRp4130
(dp4131
g62
(dp4132
g70
I5
ssg71
g4126
sg64
(lp4133
S'16:03:45'
p4134
asbasbasbasbasbsS'etype'
p4135
S"<type 'exceptions.NameError'>"
p4136
sS'date'
p4137
S'Thu May  3 16:11:01 2012'
p4138
sS'response'
p4139
g57
(g58
g59
NtRp4140
(dp4141
g62
(dp4142
sg64
(lp4143
g57
(g66
g59
NtRp4144
(dp4145
g62
(dp4146
g70
I5
ssg71
Nsg64
(lp4147
g57
(g73
g59
NtRp4148
(dp4149
g62
(dp4150
sg71
g4144
sg64
(lp4151
g57
(g78
g59
NtRp4152
(dp4153
g62
(dp4154
g82
g83
ssg71
g4148
sg64
(lp4155
S'atlsmenu'
p4156
asbag57
(g78
g59
NtRp4157
(dp4158
g62
(dp4159
g89
g90
ssg71
g4148
sg64
(lp4160
S':'
asbag57
(g78
g59
NtRp4161
(dp4162
g62
(dp4163
sg71
g4148
sg64
(lp4164
g57
(g58
g59
NtRp4165
(dp4166
g62
(dp4167
g70
I5
ssg71
g4161
sg64
(lp4168
g57
(g66
g59
NtRp4169
(dp4170
g62
(dp4171
g70
I4
ssg71
Nsg64
(lp4172
g57
(g73
g59
NtRp4173
(dp4174
g62
(dp4175
sg71
g4169
sg64
(lp4176
g57
(g78
g59
NtRp4177
(dp4178
g62
(dp4179
sg71
g4173
sg64
(lp4180
g57
(g58
g59
NtRp4181
(dp4182
g62
(dp4183
g70
I4
ssg71
g4177
sg64
(lp4184
g57
(g66
g59
NtRp4185
(dp4186
g62
(dp4187
g70
I3
ssg71
Nsg64
(lp4188
g57
(g73
g59
NtRp4189
(dp4190
g62
(dp4191
sg71
g4185
sg64
(lp4192
g57
(g78
g59
NtRp4193
(dp4194
g62
(dp4195
sg71
g4189
sg64
(lp4196
g57
(g58
g59
NtRp4197
(dp4198
g62
(dp4199
g70
I3
ssg71
g4193
sg64
(lp4200
cgluon.languages
lazyT_unpickle
p4201
(S's\x07\x00\x00\x00Website'
tRp4202
asbasbasbag57
(g73
g59
NtRp4203
(dp4204
g62
(dp4205
sg71
g4185
sg64
(lp4206
g57
(g78
g59
NtRp4207
(dp4208
g62
(dp4209
sg71
g4203
sg64
(lp4210
g57
(g58
g59
NtRp4211
(dp4212
g62
(dp4213
g70
I3
ssg71
g4207
sg64
(lp4214
g100
asbasbasbag57
(g73
g59
NtRp4215
(dp4216
g62
(dp4217
sg71
g4185
sg64
(lp4218
g57
(g78
g59
NtRp4219
(dp4220
g62
(dp4221
sg71
g4215
sg64
(lp4222
g57
(g58
g59
NtRp4223
(dp4224
g62
(dp4225
g70
I3
ssg71
g4219
sg64
(lp4226
S'/themishrms/default/index'
p4227
asbasbasbag57
(g73
g59
NtRp4228
(dp4229
g62
(dp4230
sg71
g4185
sg64
(lp4231
g57
(g78
g59
NtRp4232
(dp4233
g62
(dp4234
sg71
g4228
sg64
(lp4235
g57
(g58
g59
NtRp4236
(dp4237
g62
(dp4238
g70
I3
ssg71
g4232
sg64
(lp4239
g57
(g66
g59
NtRp4240
(dp4241
g62
(dp4242
g70
I2
ssg71
Nsg64
(lp4243
sbasbasbasbasbasbasbasbag57
(g73
g59
NtRp4244
(dp4245
g62
(dp4246
sg71
g4169
sg64
(lp4247
g57
(g78
g59
NtRp4248
(dp4249
g62
(dp4250
sg71
g4244
sg64
(lp4251
g57
(g58
g59
NtRp4252
(dp4253
g62
(dp4254
g70
I4
ssg71
g4248
sg64
(lp4255
g57
(g66
g59
NtRp4256
(dp4257
g62
(dp4258
g70
I3
ssg71
Nsg64
(lp4259
g57
(g73
g59
NtRp4260
(dp4261
g62
(dp4262
sg71
g4256
sg64
(lp4263
g57
(g78
g59
NtRp4264
(dp4265
g62
(dp4266
sg71
g4260
sg64
(lp4267
g57
(g58
g59
NtRp4268
(dp4269
g62
(dp4270
g70
I3
ssg71
g4264
sg64
(lp4271
g4201
(S's\x07\x00\x00\x00Webmail'
tRp4272
asbasbasbag57
(g73
g59
NtRp4273
(dp4274
g62
(dp4275
sg71
g4256
sg64
(lp4276
g57
(g78
g59
NtRp4277
(dp4278
g62
(dp4279
sg71
g4273
sg64
(lp4280
g57
(g58
g59
NtRp4281
(dp4282
g62
(dp4283
g70
I3
ssg71
g4277
sg64
(lp4284
g100
asbasbasbag57
(g73
g59
NtRp4285
(dp4286
g62
(dp4287
sg71
g4256
sg64
(lp4288
g57
(g78
g59
NtRp4289
(dp4290
g62
(dp4291
sg71
g4285
sg64
(lp4292
g57
(g58
g59
NtRp4293
(dp4294
g62
(dp4295
g70
I3
ssg71
g4289
sg64
(lp4296
S'/themishrms/default/#'
p4297
asbasbasbag57
(g73
g59
NtRp4298
(dp4299
g62
(dp4300
sg71
g4256
sg64
(lp4301
g57
(g78
g59
NtRp4302
(dp4303
g62
(dp4304
sg71
g4298
sg64
(lp4305
g57
(g58
g59
NtRp4306
(dp4307
g62
(dp4308
g70
I3
ssg71
g4302
sg64
(lp4309
g57
(g66
g59
NtRp4310
(dp4311
g62
(dp4312
g70
I2
ssg71
Nsg64
(lp4313
sbasbasbasbasbasbasbasbag57
(g73
g59
NtRp4314
(dp4315
g62
(dp4316
sg71
g4169
sg64
(lp4317
g57
(g78
g59
NtRp4318
(dp4319
g62
(dp4320
sg71
g4314
sg64
(lp4321
g57
(g58
g59
NtRp4322
(dp4323
g62
(dp4324
g70
I4
ssg71
g4318
sg64
(lp4325
g57
(g66
g59
NtRp4326
(dp4327
g62
(dp4328
g70
I3
ssg71
Nsg64
(lp4329
g57
(g73
g59
NtRp4330
(dp4331
g62
(dp4332
sg71
g4326
sg64
(lp4333
g57
(g78
g59
NtRp4334
(dp4335
g62
(dp4336
sg71
g4330
sg64
(lp4337
g57
(g58
g59
NtRp4338
(dp4339
g62
(dp4340
g70
I3
ssg71
g4334
sg64
(lp4341
g4201
(S's\r\x00\x00\x00Themis Portal'
tRp4342
asbasbasbag57
(g73
g59
NtRp4343
(dp4344
g62
(dp4345
sg71
g4326
sg64
(lp4346
g57
(g78
g59
NtRp4347
(dp4348
g62
(dp4349
sg71
g4343
sg64
(lp4350
g57
(g58
g59
NtRp4351
(dp4352
g62
(dp4353
g70
I3
ssg71
g4347
sg64
(lp4354
g100
asbasbasbag57
(g73
g59
NtRp4355
(dp4356
g62
(dp4357
sg71
g4326
sg64
(lp4358
g57
(g78
g59
NtRp4359
(dp4360
g62
(dp4361
sg71
g4355
sg64
(lp4362
g57
(g58
g59
NtRp4363
(dp4364
g62
(dp4365
g70
I3
ssg71
g4359
sg64
(lp4366
S'/themishrms/default/#'
p4367
asbasbasbag57
(g73
g59
NtRp4368
(dp4369
g62
(dp4370
sg71
g4326
sg64
(lp4371
g57
(g78
g59
NtRp4372
(dp4373
g62
(dp4374
sg71
g4368
sg64
(lp4375
g57
(g58
g59
NtRp4376
(dp4377
g62
(dp4378
g70
I3
ssg71
g4372
sg64
(lp4379
g57
(g66
g59
NtRp4380
(dp4381
g62
(dp4382
g70
I2
ssg71
Nsg64
(lp4383
sbasbasbasbasbasbasbasbag57
(g73
g59
NtRp4384
(dp4385
g62
(dp4386
sg71
g4169
sg64
(lp4387
g57
(g78
g59
NtRp4388
(dp4389
g62
(dp4390
sg71
g4384
sg64
(lp4391
g57
(g58
g59
NtRp4392
(dp4393
g62
(dp4394
g70
I4
ssg71
g4388
sg64
(lp4395
g57
(g66
g59
NtRp4396
(dp4397
g62
(dp4398
g70
I3
ssg71
Nsg64
(lp4399
g57
(g73
g59
NtRp4400
(dp4401
g62
(dp4402
sg71
g4396
sg64
(lp4403
g57
(g78
g59
NtRp4404
(dp4405
g62
(dp4406
sg71
g4400
sg64
(lp4407
g57
(g58
g59
NtRp4408
(dp4409
g62
(dp4410
g70
I3
ssg71
g4404
sg64
(lp4411
g4201
(S's\x0f\x00\x00\x00Themis Policies'
tRp4412
asbasbasbag57
(g73
g59
NtRp4413
(dp4414
g62
(dp4415
sg71
g4396
sg64
(lp4416
g57
(g78
g59
NtRp4417
(dp4418
g62
(dp4419
sg71
g4413
sg64
(lp4420
g57
(g58
g59
NtRp4421
(dp4422
g62
(dp4423
g70
I3
ssg71
g4417
sg64
(lp4424
g100
asbasbasbag57
(g73
g59
NtRp4425
(dp4426
g62
(dp4427
sg71
g4396
sg64
(lp4428
g57
(g78
g59
NtRp4429
(dp4430
g62
(dp4431
sg71
g4425
sg64
(lp4432
g57
(g58
g59
NtRp4433
(dp4434
g62
(dp4435
g70
I3
ssg71
g4429
sg64
(lp4436
S'/themishrms/default/add_project'
p4437
asbasbasbag57
(g73
g59
NtRp4438
(dp4439
g62
(dp4440
sg71
g4396
sg64
(lp4441
g57
(g78
g59
NtRp4442
(dp4443
g62
(dp4444
sg71
g4438
sg64
(lp4445
g57
(g58
g59
NtRp4446
(dp4447
g62
(dp4448
g70
I3
ssg71
g4442
sg64
(lp4449
g57
(g66
g59
NtRp4450
(dp4451
g62
(dp4452
g70
I2
ssg71
Nsg64
(lp4453
sbasbasbasbasbasbasbasbag57
(g73
g59
NtRp4454
(dp4455
g62
(dp4456
sg71
g4169
sg64
(lp4457
g57
(g78
g59
NtRp4458
(dp4459
g62
(dp4460
sg71
g4454
sg64
(lp4461
g57
(g58
g59
NtRp4462
(dp4463
g62
(dp4464
g70
I4
ssg71
g4458
sg64
(lp4465
g57
(g66
g59
NtRp4466
(dp4467
g62
(dp4468
g70
I3
ssg71
Nsg64
(lp4469
g57
(g73
g59
NtRp4470
(dp4471
g62
(dp4472
sg71
g4466
sg64
(lp4473
g57
(g78
g59
NtRp4474
(dp4475
g62
(dp4476
sg71
g4470
sg64
(lp4477
g57
(g58
g59
NtRp4478
(dp4479
g62
(dp4480
g70
I3
ssg71
g4474
sg64
(lp4481
g4201
(S's\x0f\x00\x00\x00Contact Details'
tRp4482
asbasbasbag57
(g73
g59
NtRp4483
(dp4484
g62
(dp4485
sg71
g4466
sg64
(lp4486
g57
(g78
g59
NtRp4487
(dp4488
g62
(dp4489
sg71
g4483
sg64
(lp4490
g57
(g58
g59
NtRp4491
(dp4492
g62
(dp4493
g70
I3
ssg71
g4487
sg64
(lp4494
g100
asbasbasbag57
(g73
g59
NtRp4495
(dp4496
g62
(dp4497
sg71
g4466
sg64
(lp4498
g57
(g78
g59
NtRp4499
(dp4500
g62
(dp4501
sg71
g4495
sg64
(lp4502
g57
(g58
g59
NtRp4503
(dp4504
g62
(dp4505
g70
I3
ssg71
g4499
sg64
(lp4506
S'/themishrms/default/admin_contact_detail'
p4507
asbasbasbag57
(g73
g59
NtRp4508
(dp4509
g62
(dp4510
sg71
g4466
sg64
(lp4511
g57
(g78
g59
NtRp4512
(dp4513
g62
(dp4514
sg71
g4508
sg64
(lp4515
g57
(g58
g59
NtRp4516
(dp4517
g62
(dp4518
g70
I3
ssg71
g4512
sg64
(lp4519
g57
(g66
g59
NtRp4520
(dp4521
g62
(dp4522
g70
I2
ssg71
Nsg64
(lp4523
sbasbasbasbasbasbasbasbasbasbasbasbag57
(g73
g59
NtRp4524
(dp4525
g62
(dp4526
sg71
g4144
sg64
(lp4527
g57
(g78
g59
NtRp4528
(dp4529
g62
(dp4530
g82
g83
ssg71
g4524
sg64
(lp4531
g155
asbag57
(g78
g59
NtRp4532
(dp4533
g62
(dp4534
g89
g90
ssg71
g4524
sg64
(lp4535
S':'
asbag57
(g78
g59
NtRp4536
(dp4537
g62
(dp4538
sg71
g4524
sg64
(lp4539
g57
(g58
g59
NtRp4540
(dp4541
g62
(dp4542
g70
I5
ssg71
g4536
sg64
(lp4543
S'<cStringIO.StringO object at 0x371c0a0>'
p4544
asbasbasbag57
(g73
g59
NtRp4545
(dp4546
g62
(dp4547
sg71
g4144
sg64
(lp4548
g57
(g78
g59
NtRp4549
(dp4550
g62
(dp4551
g82
g83
ssg71
g4545
sg64
(lp4552
g221
asbag57
(g78
g59
NtRp4553
(dp4554
g62
(dp4555
g89
g90
ssg71
g4545
sg64
(lp4556
S':'
asbag57
(g78
g59
NtRp4557
(dp4558
g62
(dp4559
sg71
g4545
sg64
(lp4560
g57
(g58
g59
NtRp4561
(dp4562
g62
(dp4563
g70
I5
ssg71
g4557
sg64
(lp4564
g57
(g66
g59
NtRp4565
(dp4566
g62
(dp4567
g70
I4
ssg71
Nsg64
(lp4568
g57
(g73
g59
NtRp4569
(dp4570
g62
(dp4571
sg71
g4565
sg64
(lp4572
g57
(g78
g59
NtRp4573
(dp4574
g62
(dp4575
g82
g83
ssg71
g4569
sg64
(lp4576
S'session_id_themishrms'
p4577
asbag57
(g78
g59
NtRp4578
(dp4579
g62
(dp4580
g89
g90
ssg71
g4569
sg64
(lp4581
S':'
asbag57
(g78
g59
NtRp4582
(dp4583
g62
(dp4584
sg71
g4569
sg64
(lp4585
g57
(g58
g59
NtRp4586
(dp4587
g62
(dp4588
g70
I4
ssg71
g4582
sg64
(lp4589
g57
(g66
g59
NtRp4590
(dp4591
g62
(dp4592
g70
I3
ssg71
Nsg64
(lp4593
g57
(g73
g59
NtRp4594
(dp4595
g62
(dp4596
sg71
g4590
sg64
(lp4597
g57
(g78
g59
NtRp4598
(dp4599
g62
(dp4600
g82
g83
ssg71
g4594
sg64
(lp4601
g271
asbag57
(g78
g59
NtRp4602
(dp4603
g62
(dp4604
g89
g90
ssg71
g4594
sg64
(lp4605
S':'
asbag57
(g78
g59
NtRp4606
(dp4607
g62
(dp4608
sg71
g4594
sg64
(lp4609
g57
(g58
g59
NtRp4610
(dp4611
g62
(dp4612
g70
I3
ssg71
g4606
sg64
(lp4613
S''
asbasbasbag57
(g73
g59
NtRp4614
(dp4615
g62
(dp4616
sg71
g4590
sg64
(lp4617
g57
(g78
g59
NtRp4618
(dp4619
g62
(dp4620
g82
g83
ssg71
g4614
sg64
(lp4621
g292
asbag57
(g78
g59
NtRp4622
(dp4623
g62
(dp4624
g89
g90
ssg71
g4614
sg64
(lp4625
S':'
asbag57
(g78
g59
NtRp4626
(dp4627
g62
(dp4628
sg71
g4614
sg64
(lp4629
g57
(g58
g59
NtRp4630
(dp4631
g62
(dp4632
g70
I3
ssg71
g4626
sg64
(lp4633
S''
asbasbasbag57
(g73
g59
NtRp4634
(dp4635
g62
(dp4636
sg71
g4590
sg64
(lp4637
g57
(g78
g59
NtRp4638
(dp4639
g62
(dp4640
g82
g83
ssg71
g4634
sg64
(lp4641
g313
asbag57
(g78
g59
NtRp4642
(dp4643
g62
(dp4644
g89
g90
ssg71
g4634
sg64
(lp4645
S':'
asbag57
(g78
g59
NtRp4646
(dp4647
g62
(dp4648
sg71
g4634
sg64
(lp4649
g57
(g58
g59
NtRp4650
(dp4651
g62
(dp4652
g70
I3
ssg71
g4646
sg64
(lp4653
S''
asbasbasbag57
(g73
g59
NtRp4654
(dp4655
g62
(dp4656
sg71
g4590
sg64
(lp4657
g57
(g78
g59
NtRp4658
(dp4659
g62
(dp4660
g82
g83
ssg71
g4654
sg64
(lp4661
g334
asbag57
(g78
g59
NtRp4662
(dp4663
g62
(dp4664
g89
g90
ssg71
g4654
sg64
(lp4665
S':'
asbag57
(g78
g59
NtRp4666
(dp4667
g62
(dp4668
sg71
g4654
sg64
(lp4669
g57
(g58
g59
NtRp4670
(dp4671
g62
(dp4672
g70
I3
ssg71
g4666
sg64
(lp4673
S''
asbasbasbag57
(g73
g59
NtRp4674
(dp4675
g62
(dp4676
sg71
g4590
sg64
(lp4677
g57
(g78
g59
NtRp4678
(dp4679
g62
(dp4680
g82
g83
ssg71
g4674
sg64
(lp4681
g355
asbag57
(g78
g59
NtRp4682
(dp4683
g62
(dp4684
g89
g90
ssg71
g4674
sg64
(lp4685
S':'
asbag57
(g78
g59
NtRp4686
(dp4687
g62
(dp4688
sg71
g4674
sg64
(lp4689
g57
(g58
g59
NtRp4690
(dp4691
g62
(dp4692
g70
I3
ssg71
g4686
sg64
(lp4693
S''
asbasbasbag57
(g73
g59
NtRp4694
(dp4695
g62
(dp4696
sg71
g4590
sg64
(lp4697
g57
(g78
g59
NtRp4698
(dp4699
g62
(dp4700
g82
g83
ssg71
g4694
sg64
(lp4701
g376
asbag57
(g78
g59
NtRp4702
(dp4703
g62
(dp4704
g89
g90
ssg71
g4694
sg64
(lp4705
S':'
asbag57
(g78
g59
NtRp4706
(dp4707
g62
(dp4708
sg71
g4694
sg64
(lp4709
g57
(g58
g59
NtRp4710
(dp4711
g62
(dp4712
g70
I3
ssg71
g4706
sg64
(lp4713
S'/'
asbasbasbag57
(g73
g59
NtRp4714
(dp4715
g62
(dp4716
sg71
g4590
sg64
(lp4717
g57
(g78
g59
NtRp4718
(dp4719
g62
(dp4720
g82
g83
ssg71
g4714
sg64
(lp4721
g397
asbag57
(g78
g59
NtRp4722
(dp4723
g62
(dp4724
g89
g90
ssg71
g4714
sg64
(lp4725
S':'
asbag57
(g78
g59
NtRp4726
(dp4727
g62
(dp4728
sg71
g4714
sg64
(lp4729
g57
(g58
g59
NtRp4730
(dp4731
g62
(dp4732
g70
I3
ssg71
g4726
sg64
(lp4733
S''
asbasbasbag57
(g73
g59
NtRp4734
(dp4735
g62
(dp4736
sg71
g4590
sg64
(lp4737
g57
(g78
g59
NtRp4738
(dp4739
g62
(dp4740
g82
g83
ssg71
g4734
sg64
(lp4741
g418
asbag57
(g78
g59
NtRp4742
(dp4743
g62
(dp4744
g89
g90
ssg71
g4734
sg64
(lp4745
S':'
asbag57
(g78
g59
NtRp4746
(dp4747
g62
(dp4748
sg71
g4734
sg64
(lp4749
g57
(g58
g59
NtRp4750
(dp4751
g62
(dp4752
g70
I3
ssg71
g4746
sg64
(lp4753
S''
asbasbasbasbasbasbasbasbasbasbasbag57
(g73
g59
NtRp4754
(dp4755
g62
(dp4756
sg71
g4144
sg64
(lp4757
g57
(g78
g59
NtRp4758
(dp4759
g62
(dp4760
g82
g83
ssg71
g4754
sg64
(lp4761
S'delimiters'
p4762
asbag57
(g78
g59
NtRp4763
(dp4764
g62
(dp4765
g89
g90
ssg71
g4754
sg64
(lp4766
S':'
asbag57
(g78
g59
NtRp4767
(dp4768
g62
(dp4769
sg71
g4754
sg64
(lp4770
g57
(g58
g59
NtRp4771
(dp4772
g62
(dp4773
g70
I5
ssg71
g4767
sg64
(lp4774
g57
(g66
g59
NtRp4775
(dp4776
g62
(dp4777
g70
I4
ssg71
Nsg64
(lp4778
g57
(g73
g59
NtRp4779
(dp4780
g62
(dp4781
sg71
g4775
sg64
(lp4782
g57
(g78
g59
NtRp4783
(dp4784
g62
(dp4785
sg71
g4779
sg64
(lp4786
g57
(g58
g59
NtRp4787
(dp4788
g62
(dp4789
g70
I4
ssg71
g4783
sg64
(lp4790
S'{{'
p4791
asbasbasbag57
(g73
g59
NtRp4792
(dp4793
g62
(dp4794
sg71
g4775
sg64
(lp4795
g57
(g78
g59
NtRp4796
(dp4797
g62
(dp4798
sg71
g4792
sg64
(lp4799
g57
(g58
g59
NtRp4800
(dp4801
g62
(dp4802
g70
I4
ssg71
g4796
sg64
(lp4803
S'}}'
p4804
asbasbasbasbasbasbasbag57
(g73
g59
NtRp4805
(dp4806
g62
(dp4807
sg71
g4144
sg64
(lp4808
g57
(g78
g59
NtRp4809
(dp4810
g62
(dp4811
g82
g83
ssg71
g4805
sg64
(lp4812
S'files'
p4813
asbag57
(g78
g59
NtRp4814
(dp4815
g62
(dp4816
g89
g90
ssg71
g4805
sg64
(lp4817
S':'
asbag57
(g78
g59
NtRp4818
(dp4819
g62
(dp4820
sg71
g4805
sg64
(lp4821
g57
(g58
g59
NtRp4822
(dp4823
g62
(dp4824
g70
I5
ssg71
g4818
sg64
(lp4825
g57
(g66
g59
NtRp4826
(dp4827
g62
(dp4828
g70
I4
ssg71
Nsg64
(lp4829
sbasbasbasbag57
(g73
g59
NtRp4830
(dp4831
g62
(dp4832
sg71
g4144
sg64
(lp4833
g57
(g78
g59
NtRp4834
(dp4835
g62
(dp4836
g82
g83
ssg71
g4830
sg64
(lp4837
S'flash'
p4838
asbag57
(g78
g59
NtRp4839
(dp4840
g62
(dp4841
g89
g90
ssg71
g4830
sg64
(lp4842
S':'
asbag57
(g78
g59
NtRp4843
(dp4844
g62
(dp4845
sg71
g4830
sg64
(lp4846
g57
(g58
g59
NtRp4847
(dp4848
g62
(dp4849
g70
I5
ssg71
g4843
sg64
(lp4850
S''
asbasbasbag57
(g73
g59
NtRp4851
(dp4852
g62
(dp4853
sg71
g4144
sg64
(lp4854
g57
(g78
g59
NtRp4855
(dp4856
g62
(dp4857
g82
g83
ssg71
g4851
sg64
(lp4858
S'generic_patterns'
p4859
asbag57
(g78
g59
NtRp4860
(dp4861
g62
(dp4862
g89
g90
ssg71
g4851
sg64
(lp4863
S':'
asbag57
(g78
g59
NtRp4864
(dp4865
g62
(dp4866
sg71
g4851
sg64
(lp4867
g57
(g58
g59
NtRp4868
(dp4869
g62
(dp4870
g70
I5
ssg71
g4864
sg64
(lp4871
g57
(g66
g59
NtRp4872
(dp4873
g62
(dp4874
g70
I4
ssg71
Nsg64
(lp4875
g57
(g73
g59
NtRp4876
(dp4877
g62
(dp4878
sg71
g4872
sg64
(lp4879
g57
(g78
g59
NtRp4880
(dp4881
g62
(dp4882
sg71
g4876
sg64
(lp4883
g57
(g58
g59
NtRp4884
(dp4885
g62
(dp4886
g70
I4
ssg71
g4880
sg64
(lp4887
S'*'
asbasbasbasbasbasbasbag57
(g73
g59
NtRp4888
(dp4889
g62
(dp4890
sg71
g4144
sg64
(lp4891
g57
(g78
g59
NtRp4892
(dp4893
g62
(dp4894
g82
g83
ssg71
g4888
sg64
(lp4895
S'headers'
p4896
asbag57
(g78
g59
NtRp4897
(dp4898
g62
(dp4899
g89
g90
ssg71
g4888
sg64
(lp4900
S':'
asbag57
(g78
g59
NtRp4901
(dp4902
g62
(dp4903
sg71
g4888
sg64
(lp4904
g57
(g58
g59
NtRp4905
(dp4906
g62
(dp4907
g70
I5
ssg71
g4901
sg64
(lp4908
g57
(g66
g59
NtRp4909
(dp4910
g62
(dp4911
g70
I4
ssg71
Nsg64
(lp4912
g57
(g73
g59
NtRp4913
(dp4914
g62
(dp4915
sg71
g4909
sg64
(lp4916
g57
(g78
g59
NtRp4917
(dp4918
g62
(dp4919
g82
g83
ssg71
g4913
sg64
(lp4920
S'Cache-Control'
p4921
asbag57
(g78
g59
NtRp4922
(dp4923
g62
(dp4924
g89
g90
ssg71
g4913
sg64
(lp4925
S':'
asbag57
(g78
g59
NtRp4926
(dp4927
g62
(dp4928
sg71
g4913
sg64
(lp4929
g57
(g58
g59
NtRp4930
(dp4931
g62
(dp4932
g70
I4
ssg71
g4926
sg64
(lp4933
S'no-store, no-cache, must-revalidate, post-check=0, pre-check=0'
p4934
asbasbasbag57
(g73
g59
NtRp4935
(dp4936
g62
(dp4937
sg71
g4909
sg64
(lp4938
g57
(g78
g59
NtRp4939
(dp4940
g62
(dp4941
g82
g83
ssg71
g4935
sg64
(lp4942
S'Content-Type'
p4943
asbag57
(g78
g59
NtRp4944
(dp4945
g62
(dp4946
g89
g90
ssg71
g4935
sg64
(lp4947
S':'
asbag57
(g78
g59
NtRp4948
(dp4949
g62
(dp4950
sg71
g4935
sg64
(lp4951
g57
(g58
g59
NtRp4952
(dp4953
g62
(dp4954
g70
I4
ssg71
g4948
sg64
(lp4955
S'text/html; charset=utf-8'
p4956
asbasbasbag57
(g73
g59
NtRp4957
(dp4958
g62
(dp4959
sg71
g4909
sg64
(lp4960
g57
(g78
g59
NtRp4961
(dp4962
g62
(dp4963
g82
g83
ssg71
g4957
sg64
(lp4964
S'Expires'
p4965
asbag57
(g78
g59
NtRp4966
(dp4967
g62
(dp4968
g89
g90
ssg71
g4957
sg64
(lp4969
S':'
asbag57
(g78
g59
NtRp4970
(dp4971
g62
(dp4972
sg71
g4957
sg64
(lp4973
g57
(g58
g59
NtRp4974
(dp4975
g62
(dp4976
g70
I4
ssg71
g4970
sg64
(lp4977
S'Thu, 03 May 2012 10:41:01 GMT'
p4978
asbasbasbag57
(g73
g59
NtRp4979
(dp4980
g62
(dp4981
sg71
g4909
sg64
(lp4982
g57
(g78
g59
NtRp4983
(dp4984
g62
(dp4985
g82
g83
ssg71
g4979
sg64
(lp4986
S'Pragma'
p4987
asbag57
(g78
g59
NtRp4988
(dp4989
g62
(dp4990
g89
g90
ssg71
g4979
sg64
(lp4991
S':'
asbag57
(g78
g59
NtRp4992
(dp4993
g62
(dp4994
sg71
g4979
sg64
(lp4995
g57
(g58
g59
NtRp4996
(dp4997
g62
(dp4998
g70
I4
ssg71
g4992
sg64
(lp4999
S'no-cache'
p5000
asbasbasbag57
(g73
g59
NtRp5001
(dp5002
g62
(dp5003
sg71
g4909
sg64
(lp5004
g57
(g78
g59
NtRp5005
(dp5006
g62
(dp5007
g82
g83
ssg71
g5001
sg64
(lp5008
S'X-Powered-By'
p5009
asbag57
(g78
g59
NtRp5010
(dp5011
g62
(dp5012
g89
g90
ssg71
g5001
sg64
(lp5013
S':'
asbag57
(g78
g59
NtRp5014
(dp5015
g62
(dp5016
sg71
g5001
sg64
(lp5017
g57
(g58
g59
NtRp5018
(dp5019
g62
(dp5020
g70
I4
ssg71
g5014
sg64
(lp5021
S'web2py'
p5022
asbasbasbasbasbasbasbag57
(g73
g59
NtRp5023
(dp5024
g62
(dp5025
sg71
g4144
sg64
(lp5026
g57
(g78
g59
NtRp5027
(dp5028
g62
(dp5029
g82
g83
ssg71
g5023
sg64
(lp5030
S'menu'
p5031
asbag57
(g78
g59
NtRp5032
(dp5033
g62
(dp5034
g89
g90
ssg71
g5023
sg64
(lp5035
S':'
asbag57
(g78
g59
NtRp5036
(dp5037
g62
(dp5038
sg71
g5023
sg64
(lp5039
g57
(g58
g59
NtRp5040
(dp5041
g62
(dp5042
g70
I5
ssg71
g5036
sg64
(lp5043
g57
(g66
g59
NtRp5044
(dp5045
g62
(dp5046
g70
I4
ssg71
Nsg64
(lp5047
g57
(g73
g59
NtRp5048
(dp5049
g62
(dp5050
sg71
g5044
sg64
(lp5051
g57
(g78
g59
NtRp5052
(dp5053
g62
(dp5054
sg71
g5048
sg64
(lp5055
g57
(g58
g59
NtRp5056
(dp5057
g62
(dp5058
g70
I4
ssg71
g5052
sg64
(lp5059
g57
(g66
g59
NtRp5060
(dp5061
g62
(dp5062
g70
I3
ssg71
Nsg64
(lp5063
g57
(g73
g59
NtRp5064
(dp5065
g62
(dp5066
sg71
g5060
sg64
(lp5067
g57
(g78
g59
NtRp5068
(dp5069
g62
(dp5070
sg71
g5064
sg64
(lp5071
g57
(g58
g59
NtRp5072
(dp5073
g62
(dp5074
g70
I3
ssg71
g5068
sg64
(lp5075
g4201
(S's\x04\x00\x00\x00HOME'
tRp5076
asbasbasbag57
(g73
g59
NtRp5077
(dp5078
g62
(dp5079
sg71
g5060
sg64
(lp5080
g57
(g78
g59
NtRp5081
(dp5082
g62
(dp5083
sg71
g5077
sg64
(lp5084
g57
(g58
g59
NtRp5085
(dp5086
g62
(dp5087
g70
I3
ssg71
g5081
sg64
(lp5088
g100
asbasbasbag57
(g73
g59
NtRp5089
(dp5090
g62
(dp5091
sg71
g5060
sg64
(lp5092
g57
(g78
g59
NtRp5093
(dp5094
g62
(dp5095
sg71
g5089
sg64
(lp5096
g57
(g58
g59
NtRp5097
(dp5098
g62
(dp5099
g70
I3
ssg71
g5093
sg64
(lp5100
S'/themishrms/default/index'
p5101
asbasbasbag57
(g73
g59
NtRp5102
(dp5103
g62
(dp5104
sg71
g5060
sg64
(lp5105
g57
(g78
g59
NtRp5106
(dp5107
g62
(dp5108
sg71
g5102
sg64
(lp5109
g57
(g58
g59
NtRp5110
(dp5111
g62
(dp5112
g70
I3
ssg71
g5106
sg64
(lp5113
g57
(g66
g59
NtRp5114
(dp5115
g62
(dp5116
g70
I2
ssg71
Nsg64
(lp5117
sbasbasbasbasbasbasbasbag57
(g73
g59
NtRp5118
(dp5119
g62
(dp5120
sg71
g5044
sg64
(lp5121
g57
(g78
g59
NtRp5122
(dp5123
g62
(dp5124
sg71
g5118
sg64
(lp5125
g57
(g58
g59
NtRp5126
(dp5127
g62
(dp5128
g70
I4
ssg71
g5122
sg64
(lp5129
g57
(g66
g59
NtRp5130
(dp5131
g62
(dp5132
g70
I3
ssg71
Nsg64
(lp5133
g57
(g73
g59
NtRp5134
(dp5135
g62
(dp5136
sg71
g5130
sg64
(lp5137
g57
(g78
g59
NtRp5138
(dp5139
g62
(dp5140
sg71
g5134
sg64
(lp5141
g57
(g58
g59
NtRp5142
(dp5143
g62
(dp5144
g70
I3
ssg71
g5138
sg64
(lp5145
g4201
(S's\t\x00\x00\x00ABOUT US '
tRp5146
asbasbasbag57
(g73
g59
NtRp5147
(dp5148
g62
(dp5149
sg71
g5130
sg64
(lp5150
g57
(g78
g59
NtRp5151
(dp5152
g62
(dp5153
sg71
g5147
sg64
(lp5154
g57
(g58
g59
NtRp5155
(dp5156
g62
(dp5157
g70
I3
ssg71
g5151
sg64
(lp5158
g100
asbasbasbag57
(g73
g59
NtRp5159
(dp5160
g62
(dp5161
sg71
g5130
sg64
(lp5162
g57
(g78
g59
NtRp5163
(dp5164
g62
(dp5165
sg71
g5159
sg64
(lp5166
g57
(g58
g59
NtRp5167
(dp5168
g62
(dp5169
g70
I3
ssg71
g5163
sg64
(lp5170
S'/themishrms/default/tlsabout'
p5171
asbasbasbag57
(g73
g59
NtRp5172
(dp5173
g62
(dp5174
sg71
g5130
sg64
(lp5175
g57
(g78
g59
NtRp5176
(dp5177
g62
(dp5178
sg71
g5172
sg64
(lp5179
g57
(g58
g59
NtRp5180
(dp5181
g62
(dp5182
g70
I3
ssg71
g5176
sg64
(lp5183
g57
(g66
g59
NtRp5184
(dp5185
g62
(dp5186
g70
I2
ssg71
Nsg64
(lp5187
sbasbasbasbasbasbasbasbag57
(g73
g59
NtRp5188
(dp5189
g62
(dp5190
sg71
g5044
sg64
(lp5191
g57
(g78
g59
NtRp5192
(dp5193
g62
(dp5194
sg71
g5188
sg64
(lp5195
g57
(g58
g59
NtRp5196
(dp5197
g62
(dp5198
g70
I4
ssg71
g5192
sg64
(lp5199
g57
(g66
g59
NtRp5200
(dp5201
g62
(dp5202
g70
I3
ssg71
Nsg64
(lp5203
g57
(g73
g59
NtRp5204
(dp5205
g62
(dp5206
sg71
g5200
sg64
(lp5207
g57
(g78
g59
NtRp5208
(dp5209
g62
(dp5210
sg71
g5204
sg64
(lp5211
g57
(g58
g59
NtRp5212
(dp5213
g62
(dp5214
g70
I3
ssg71
g5208
sg64
(lp5215
g4201
(S's\x0f\x00\x00\x00OUR EXPERTISE  '
tRp5216
asbasbasbag57
(g73
g59
NtRp5217
(dp5218
g62
(dp5219
sg71
g5200
sg64
(lp5220
g57
(g78
g59
NtRp5221
(dp5222
g62
(dp5223
sg71
g5217
sg64
(lp5224
g57
(g58
g59
NtRp5225
(dp5226
g62
(dp5227
g70
I3
ssg71
g5221
sg64
(lp5228
g100
asbasbasbag57
(g73
g59
NtRp5229
(dp5230
g62
(dp5231
sg71
g5200
sg64
(lp5232
g57
(g78
g59
NtRp5233
(dp5234
g62
(dp5235
sg71
g5229
sg64
(lp5236
g57
(g58
g59
NtRp5237
(dp5238
g62
(dp5239
g70
I3
ssg71
g5233
sg64
(lp5240
S'/themishrms/default/tlsservice'
p5241
asbasbasbag57
(g73
g59
NtRp5242
(dp5243
g62
(dp5244
sg71
g5200
sg64
(lp5245
g57
(g78
g59
NtRp5246
(dp5247
g62
(dp5248
sg71
g5242
sg64
(lp5249
g57
(g58
g59
NtRp5250
(dp5251
g62
(dp5252
g70
I3
ssg71
g5246
sg64
(lp5253
g57
(g66
g59
NtRp5254
(dp5255
g62
(dp5256
g70
I2
ssg71
Nsg64
(lp5257
sbasbasbasbasbasbasbasbag57
(g73
g59
NtRp5258
(dp5259
g62
(dp5260
sg71
g5044
sg64
(lp5261
g57
(g78
g59
NtRp5262
(dp5263
g62
(dp5264
sg71
g5258
sg64
(lp5265
g57
(g58
g59
NtRp5266
(dp5267
g62
(dp5268
g70
I4
ssg71
g5262
sg64
(lp5269
g57
(g66
g59
NtRp5270
(dp5271
g62
(dp5272
g70
I3
ssg71
Nsg64
(lp5273
g57
(g73
g59
NtRp5274
(dp5275
g62
(dp5276
sg71
g5270
sg64
(lp5277
g57
(g78
g59
NtRp5278
(dp5279
g62
(dp5280
sg71
g5274
sg64
(lp5281
g57
(g58
g59
NtRp5282
(dp5283
g62
(dp5284
g70
I3
ssg71
g5278
sg64
(lp5285
g4201
(S's\x08\x00\x00\x00OUR TEAM'
tRp5286
asbasbasbag57
(g73
g59
NtRp5287
(dp5288
g62
(dp5289
sg71
g5270
sg64
(lp5290
g57
(g78
g59
NtRp5291
(dp5292
g62
(dp5293
sg71
g5287
sg64
(lp5294
g57
(g58
g59
NtRp5295
(dp5296
g62
(dp5297
g70
I3
ssg71
g5291
sg64
(lp5298
g100
asbasbasbag57
(g73
g59
NtRp5299
(dp5300
g62
(dp5301
sg71
g5270
sg64
(lp5302
g57
(g78
g59
NtRp5303
(dp5304
g62
(dp5305
sg71
g5299
sg64
(lp5306
g57
(g58
g59
NtRp5307
(dp5308
g62
(dp5309
g70
I3
ssg71
g5303
sg64
(lp5310
S'/themishrms/default/tlsoteam'
p5311
asbasbasbag57
(g73
g59
NtRp5312
(dp5313
g62
(dp5314
sg71
g5270
sg64
(lp5315
g57
(g78
g59
NtRp5316
(dp5317
g62
(dp5318
sg71
g5312
sg64
(lp5319
g57
(g58
g59
NtRp5320
(dp5321
g62
(dp5322
g70
I3
ssg71
g5316
sg64
(lp5323
g57
(g66
g59
NtRp5324
(dp5325
g62
(dp5326
g70
I2
ssg71
Nsg64
(lp5327
sbasbasbasbasbasbasbasbag57
(g73
g59
NtRp5328
(dp5329
g62
(dp5330
sg71
g5044
sg64
(lp5331
g57
(g78
g59
NtRp5332
(dp5333
g62
(dp5334
sg71
g5328
sg64
(lp5335
g57
(g58
g59
NtRp5336
(dp5337
g62
(dp5338
g70
I4
ssg71
g5332
sg64
(lp5339
g57
(g66
g59
NtRp5340
(dp5341
g62
(dp5342
g70
I3
ssg71
Nsg64
(lp5343
g57
(g73
g59
NtRp5344
(dp5345
g62
(dp5346
sg71
g5340
sg64
(lp5347
g57
(g78
g59
NtRp5348
(dp5349
g62
(dp5350
sg71
g5344
sg64
(lp5351
g57
(g58
g59
NtRp5352
(dp5353
g62
(dp5354
g70
I3
ssg71
g5348
sg64
(lp5355
g4201
(S's\n\x00\x00\x00OPERATIONS'
tRp5356
asbasbasbag57
(g73
g59
NtRp5357
(dp5358
g62
(dp5359
sg71
g5340
sg64
(lp5360
g57
(g78
g59
NtRp5361
(dp5362
g62
(dp5363
sg71
g5357
sg64
(lp5364
g57
(g58
g59
NtRp5365
(dp5366
g62
(dp5367
g70
I3
ssg71
g5361
sg64
(lp5368
g100
asbasbasbag57
(g73
g59
NtRp5369
(dp5370
g62
(dp5371
sg71
g5340
sg64
(lp5372
g57
(g78
g59
NtRp5373
(dp5374
g62
(dp5375
sg71
g5369
sg64
(lp5376
g57
(g58
g59
NtRp5377
(dp5378
g62
(dp5379
g70
I3
ssg71
g5373
sg64
(lp5380
S'/themishrms/default/tlsoo'
p5381
asbasbasbag57
(g73
g59
NtRp5382
(dp5383
g62
(dp5384
sg71
g5340
sg64
(lp5385
g57
(g78
g59
NtRp5386
(dp5387
g62
(dp5388
sg71
g5382
sg64
(lp5389
g57
(g58
g59
NtRp5390
(dp5391
g62
(dp5392
g70
I3
ssg71
g5386
sg64
(lp5393
g57
(g66
g59
NtRp5394
(dp5395
g62
(dp5396
g70
I2
ssg71
Nsg64
(lp5397
sbasbasbasbasbasbasbasbag57
(g73
g59
NtRp5398
(dp5399
g62
(dp5400
sg71
g5044
sg64
(lp5401
g57
(g78
g59
NtRp5402
(dp5403
g62
(dp5404
sg71
g5398
sg64
(lp5405
g57
(g58
g59
NtRp5406
(dp5407
g62
(dp5408
g70
I4
ssg71
g5402
sg64
(lp5409
g57
(g66
g59
NtRp5410
(dp5411
g62
(dp5412
g70
I3
ssg71
Nsg64
(lp5413
g57
(g73
g59
NtRp5414
(dp5415
g62
(dp5416
sg71
g5410
sg64
(lp5417
g57
(g78
g59
NtRp5418
(dp5419
g62
(dp5420
sg71
g5414
sg64
(lp5421
g57
(g58
g59
NtRp5422
(dp5423
g62
(dp5424
g70
I3
ssg71
g5418
sg64
(lp5425
g4201
(S's\x07\x00\x00\x00JOIN US'
tRp5426
asbasbasbag57
(g73
g59
NtRp5427
(dp5428
g62
(dp5429
sg71
g5410
sg64
(lp5430
g57
(g78
g59
NtRp5431
(dp5432
g62
(dp5433
sg71
g5427
sg64
(lp5434
g57
(g58
g59
NtRp5435
(dp5436
g62
(dp5437
g70
I3
ssg71
g5431
sg64
(lp5438
g100
asbasbasbag57
(g73
g59
NtRp5439
(dp5440
g62
(dp5441
sg71
g5410
sg64
(lp5442
g57
(g78
g59
NtRp5443
(dp5444
g62
(dp5445
sg71
g5439
sg64
(lp5446
g57
(g58
g59
NtRp5447
(dp5448
g62
(dp5449
g70
I3
ssg71
g5443
sg64
(lp5450
S'/themishrms/default/tlscareer'
p5451
asbasbasbag57
(g73
g59
NtRp5452
(dp5453
g62
(dp5454
sg71
g5410
sg64
(lp5455
g57
(g78
g59
NtRp5456
(dp5457
g62
(dp5458
sg71
g5452
sg64
(lp5459
g57
(g58
g59
NtRp5460
(dp5461
g62
(dp5462
g70
I3
ssg71
g5456
sg64
(lp5463
g57
(g66
g59
NtRp5464
(dp5465
g62
(dp5466
g70
I2
ssg71
Nsg64
(lp5467
sbasbasbasbasbasbasbasbag57
(g73
g59
NtRp5468
(dp5469
g62
(dp5470
sg71
g5044
sg64
(lp5471
g57
(g78
g59
NtRp5472
(dp5473
g62
(dp5474
sg71
g5468
sg64
(lp5475
g57
(g58
g59
NtRp5476
(dp5477
g62
(dp5478
g70
I4
ssg71
g5472
sg64
(lp5479
g57
(g66
g59
NtRp5480
(dp5481
g62
(dp5482
g70
I3
ssg71
Nsg64
(lp5483
g57
(g73
g59
NtRp5484
(dp5485
g62
(dp5486
sg71
g5480
sg64
(lp5487
g57
(g78
g59
NtRp5488
(dp5489
g62
(dp5490
sg71
g5484
sg64
(lp5491
g57
(g58
g59
NtRp5492
(dp5493
g62
(dp5494
g70
I3
ssg71
g5488
sg64
(lp5495
g4201
(S's\n\x00\x00\x00CONTACT US'
tRp5496
asbasbasbag57
(g73
g59
NtRp5497
(dp5498
g62
(dp5499
sg71
g5480
sg64
(lp5500
g57
(g78
g59
NtRp5501
(dp5502
g62
(dp5503
sg71
g5497
sg64
(lp5504
g57
(g58
g59
NtRp5505
(dp5506
g62
(dp5507
g70
I3
ssg71
g5501
sg64
(lp5508
g100
asbasbasbag57
(g73
g59
NtRp5509
(dp5510
g62
(dp5511
sg71
g5480
sg64
(lp5512
g57
(g78
g59
NtRp5513
(dp5514
g62
(dp5515
sg71
g5509
sg64
(lp5516
g57
(g58
g59
NtRp5517
(dp5518
g62
(dp5519
g70
I3
ssg71
g5513
sg64
(lp5520
S'/themishrms/default/tlscontact'
p5521
asbasbasbag57
(g73
g59
NtRp5522
(dp5523
g62
(dp5524
sg71
g5480
sg64
(lp5525
g57
(g78
g59
NtRp5526
(dp5527
g62
(dp5528
sg71
g5522
sg64
(lp5529
g57
(g58
g59
NtRp5530
(dp5531
g62
(dp5532
g70
I3
ssg71
g5526
sg64
(lp5533
g57
(g66
g59
NtRp5534
(dp5535
g62
(dp5536
g70
I2
ssg71
Nsg64
(lp5537
sbasbasbasbasbasbasbasbasbasbasbasbag57
(g73
g59
NtRp5538
(dp5539
g62
(dp5540
sg71
g4144
sg64
(lp5541
g57
(g78
g59
NtRp5542
(dp5543
g62
(dp5544
g82
g83
ssg71
g5538
sg64
(lp5545
S'meta'
p5546
asbag57
(g78
g59
NtRp5547
(dp5548
g62
(dp5549
g89
g90
ssg71
g5538
sg64
(lp5550
S':'
asbag57
(g78
g59
NtRp5551
(dp5552
g62
(dp5553
sg71
g5538
sg64
(lp5554
g57
(g58
g59
NtRp5555
(dp5556
g62
(dp5557
g70
I5
ssg71
g5551
sg64
(lp5558
g57
(g66
g59
NtRp5559
(dp5560
g62
(dp5561
g70
I4
ssg71
Nsg64
(lp5562
g57
(g73
g59
NtRp5563
(dp5564
g62
(dp5565
sg71
g5559
sg64
(lp5566
g57
(g78
g59
NtRp5567
(dp5568
g62
(dp5569
g82
g83
ssg71
g5563
sg64
(lp5570
S'author'
p5571
asbag57
(g78
g59
NtRp5572
(dp5573
g62
(dp5574
g89
g90
ssg71
g5563
sg64
(lp5575
S':'
asbag57
(g78
g59
NtRp5576
(dp5577
g62
(dp5578
sg71
g5563
sg64
(lp5579
g57
(g58
g59
NtRp5580
(dp5581
g62
(dp5582
g70
I4
ssg71
g5576
sg64
(lp5583
S'Your Name <you@example.com>'
p5584
asbasbasbag57
(g73
g59
NtRp5585
(dp5586
g62
(dp5587
sg71
g5559
sg64
(lp5588
g57
(g78
g59
NtRp5589
(dp5590
g62
(dp5591
g82
g83
ssg71
g5585
sg64
(lp5592
S'copyright'
p5593
asbag57
(g78
g59
NtRp5594
(dp5595
g62
(dp5596
g89
g90
ssg71
g5585
sg64
(lp5597
S':'
asbag57
(g78
g59
NtRp5598
(dp5599
g62
(dp5600
sg71
g5585
sg64
(lp5601
g57
(g58
g59
NtRp5602
(dp5603
g62
(dp5604
g70
I4
ssg71
g5598
sg64
(lp5605
S'Copyright 2011'
p5606
asbasbasbag57
(g73
g59
NtRp5607
(dp5608
g62
(dp5609
sg71
g5559
sg64
(lp5610
g57
(g78
g59
NtRp5611
(dp5612
g62
(dp5613
g82
g83
ssg71
g5607
sg64
(lp5614
S'description'
p5615
asbag57
(g78
g59
NtRp5616
(dp5617
g62
(dp5618
g89
g90
ssg71
g5607
sg64
(lp5619
S':'
asbag57
(g78
g59
NtRp5620
(dp5621
g62
(dp5622
sg71
g5607
sg64
(lp5623
g57
(g58
g59
NtRp5624
(dp5625
g62
(dp5626
g70
I4
ssg71
g5620
sg64
(lp5627
S'a cool new app'
p5628
asbasbasbag57
(g73
g59
NtRp5629
(dp5630
g62
(dp5631
sg71
g5559
sg64
(lp5632
g57
(g78
g59
NtRp5633
(dp5634
g62
(dp5635
g82
g83
ssg71
g5629
sg64
(lp5636
S'generator'
p5637
asbag57
(g78
g59
NtRp5638
(dp5639
g62
(dp5640
g89
g90
ssg71
g5629
sg64
(lp5641
S':'
asbag57
(g78
g59
NtRp5642
(dp5643
g62
(dp5644
sg71
g5629
sg64
(lp5645
g57
(g58
g59
NtRp5646
(dp5647
g62
(dp5648
g70
I4
ssg71
g5642
sg64
(lp5649
S'Web2py Web Framework'
p5650
asbasbasbag57
(g73
g59
NtRp5651
(dp5652
g62
(dp5653
sg71
g5559
sg64
(lp5654
g57
(g78
g59
NtRp5655
(dp5656
g62
(dp5657
g82
g83
ssg71
g5651
sg64
(lp5658
S'keywords'
p5659
asbag57
(g78
g59
NtRp5660
(dp5661
g62
(dp5662
g89
g90
ssg71
g5651
sg64
(lp5663
S':'
asbag57
(g78
g59
NtRp5664
(dp5665
g62
(dp5666
sg71
g5651
sg64
(lp5667
g57
(g58
g59
NtRp5668
(dp5669
g62
(dp5670
g70
I4
ssg71
g5664
sg64
(lp5671
S'web2py, python, framework'
p5672
asbasbasbasbasbasbasbag57
(g73
g59
NtRp5673
(dp5674
g62
(dp5675
sg71
g4144
sg64
(lp5676
g57
(g78
g59
NtRp5677
(dp5678
g62
(dp5679
g82
g83
ssg71
g5673
sg64
(lp5680
S'postprocessing'
p5681
asbag57
(g78
g59
NtRp5682
(dp5683
g62
(dp5684
g89
g90
ssg71
g5673
sg64
(lp5685
S':'
asbag57
(g78
g59
NtRp5686
(dp5687
g62
(dp5688
sg71
g5673
sg64
(lp5689
g57
(g58
g59
NtRp5690
(dp5691
g62
(dp5692
g70
I5
ssg71
g5686
sg64
(lp5693
g57
(g66
g59
NtRp5694
(dp5695
g62
(dp5696
g70
I4
ssg71
Nsg64
(lp5697
sbasbasbasbag57
(g73
g59
NtRp5698
(dp5699
g62
(dp5700
sg71
g4144
sg64
(lp5701
g57
(g78
g59
NtRp5702
(dp5703
g62
(dp5704
g82
g83
ssg71
g5698
sg64
(lp5705
S'session_file'
p5706
asbag57
(g78
g59
NtRp5707
(dp5708
g62
(dp5709
g89
g90
ssg71
g5698
sg64
(lp5710
S':'
asbag57
(g78
g59
NtRp5711
(dp5712
g62
(dp5713
sg71
g5698
sg64
(lp5714
g57
(g58
g59
NtRp5715
(dp5716
g62
(dp5717
g70
I5
ssg71
g5711
sg64
(lp5718
S"<open file '/home/rohitraj/Desktop/web2py/applications/themishrms/sessions/127.0.0.1-20fd6c52-a5a5-4c5e-a380-2f2008348425', mode 'rb+' at 0x23aa810>"
p5719
asbasbasbag57
(g73
g59
NtRp5720
(dp5721
g62
(dp5722
sg71
g4144
sg64
(lp5723
g57
(g78
g59
NtRp5724
(dp5725
g62
(dp5726
g82
g83
ssg71
g5720
sg64
(lp5727
S'session_filename'
p5728
asbag57
(g78
g59
NtRp5729
(dp5730
g62
(dp5731
g89
g90
ssg71
g5720
sg64
(lp5732
S':'
asbag57
(g78
g59
NtRp5733
(dp5734
g62
(dp5735
sg71
g5720
sg64
(lp5736
g57
(g58
g59
NtRp5737
(dp5738
g62
(dp5739
g70
I5
ssg71
g5733
sg64
(lp5740
S'/home/rohitraj/Desktop/web2py/applications/themishrms/sessions/127.0.0.1-20fd6c52-a5a5-4c5e-a380-2f2008348425'
p5741
asbasbasbag57
(g73
g59
NtRp5742
(dp5743
g62
(dp5744
sg71
g4144
sg64
(lp5745
g57
(g78
g59
NtRp5746
(dp5747
g62
(dp5748
g82
g83
ssg71
g5742
sg64
(lp5749
S'session_id'
p5750
asbag57
(g78
g59
NtRp5751
(dp5752
g62
(dp5753
g89
g90
ssg71
g5742
sg64
(lp5754
S':'
asbag57
(g78
g59
NtRp5755
(dp5756
g62
(dp5757
sg71
g5742
sg64
(lp5758
g57
(g58
g59
NtRp5759
(dp5760
g62
(dp5761
g70
I5
ssg71
g5755
sg64
(lp5762
S'127.0.0.1-20fd6c52-a5a5-4c5e-a380-2f2008348425'
p5763
asbasbasbag57
(g73
g59
NtRp5764
(dp5765
g62
(dp5766
sg71
g4144
sg64
(lp5767
g57
(g78
g59
NtRp5768
(dp5769
g62
(dp5770
g82
g83
ssg71
g5764
sg64
(lp5771
S'session_id_name'
p5772
asbag57
(g78
g59
NtRp5773
(dp5774
g62
(dp5775
g89
g90
ssg71
g5764
sg64
(lp5776
S':'
asbag57
(g78
g59
NtRp5777
(dp5778
g62
(dp5779
sg71
g5764
sg64
(lp5780
g57
(g58
g59
NtRp5781
(dp5782
g62
(dp5783
g70
I5
ssg71
g5777
sg64
(lp5784
g4577
asbasbasbag57
(g73
g59
NtRp5785
(dp5786
g62
(dp5787
sg71
g4144
sg64
(lp5788
g57
(g78
g59
NtRp5789
(dp5790
g62
(dp5791
g82
g83
ssg71
g5785
sg64
(lp5792
S'session_locked'
p5793
asbag57
(g78
g59
NtRp5794
(dp5795
g62
(dp5796
g89
g90
ssg71
g5785
sg64
(lp5797
S':'
asbag57
(g78
g59
NtRp5798
(dp5799
g62
(dp5800
sg71
g5785
sg64
(lp5801
g57
(g58
g59
NtRp5802
(dp5803
g62
(dp5804
g70
I5
ssg71
g5798
sg64
(lp5805
g2070
asbasbasbag57
(g73
g59
NtRp5806
(dp5807
g62
(dp5808
sg71
g4144
sg64
(lp5809
g57
(g78
g59
NtRp5810
(dp5811
g62
(dp5812
g82
g83
ssg71
g5806
sg64
(lp5813
S'session_new'
p5814
asbag57
(g78
g59
NtRp5815
(dp5816
g62
(dp5817
g89
g90
ssg71
g5806
sg64
(lp5818
S':'
asbag57
(g78
g59
NtRp5819
(dp5820
g62
(dp5821
sg71
g5806
sg64
(lp5822
g57
(g58
g59
NtRp5823
(dp5824
g62
(dp5825
g70
I5
ssg71
g5819
sg64
(lp5826
g100
asbasbasbag57
(g73
g59
NtRp5827
(dp5828
g62
(dp5829
sg71
g4144
sg64
(lp5830
g57
(g78
g59
NtRp5831
(dp5832
g62
(dp5833
g82
g83
ssg71
g5827
sg64
(lp5834
S'status'
p5835
asbag57
(g78
g59
NtRp5836
(dp5837
g62
(dp5838
g89
g90
ssg71
g5827
sg64
(lp5839
S':'
asbag57
(g78
g59
NtRp5840
(dp5841
g62
(dp5842
sg71
g5827
sg64
(lp5843
g57
(g58
g59
NtRp5844
(dp5845
g62
(dp5846
g70
I5
ssg71
g5840
sg64
(lp5847
S'200'
p5848
asbasbasbag57
(g73
g59
NtRp5849
(dp5850
g62
(dp5851
sg71
g4144
sg64
(lp5852
g57
(g78
g59
NtRp5853
(dp5854
g62
(dp5855
g82
g83
ssg71
g5849
sg64
(lp5856
S'subtitle'
p5857
asbag57
(g78
g59
NtRp5858
(dp5859
g62
(dp5860
g89
g90
ssg71
g5849
sg64
(lp5861
S':'
asbag57
(g78
g59
NtRp5862
(dp5863
g62
(dp5864
sg71
g5849
sg64
(lp5865
g57
(g58
g59
NtRp5866
(dp5867
g62
(dp5868
g70
I5
ssg71
g5862
sg64
(lp5869
g4201
(S's\r\x00\x00\x00customize me!'
tRp5870
asbasbasbag57
(g73
g59
NtRp5871
(dp5872
g62
(dp5873
sg71
g4144
sg64
(lp5874
g57
(g78
g59
NtRp5875
(dp5876
g62
(dp5877
g82
g83
ssg71
g5871
sg64
(lp5878
S'title'
p5879
asbag57
(g78
g59
NtRp5880
(dp5881
g62
(dp5882
g89
g90
ssg71
g5871
sg64
(lp5883
S':'
asbag57
(g78
g59
NtRp5884
(dp5885
g62
(dp5886
sg71
g5871
sg64
(lp5887
g57
(g58
g59
NtRp5888
(dp5889
g62
(dp5890
g70
I5
ssg71
g5884
sg64
(lp5891
S'Themishrms'
p5892
asbasbasbag57
(g73
g59
NtRp5893
(dp5894
g62
(dp5895
sg71
g4144
sg64
(lp5896
g57
(g78
g59
NtRp5897
(dp5898
g62
(dp5899
g82
g83
ssg71
g5893
sg64
(lp5900
S'tlsmenu'
p5901
asbag57
(g78
g59
NtRp5902
(dp5903
g62
(dp5904
g89
g90
ssg71
g5893
sg64
(lp5905
S':'
asbag57
(g78
g59
NtRp5906
(dp5907
g62
(dp5908
sg71
g5893
sg64
(lp5909
g57
(g58
g59
NtRp5910
(dp5911
g62
(dp5912
g70
I5
ssg71
g5906
sg64
(lp5913
g57
(g66
g59
NtRp5914
(dp5915
g62
(dp5916
g70
I4
ssg71
Nsg64
(lp5917
g57
(g73
g59
NtRp5918
(dp5919
g62
(dp5920
sg71
g5914
sg64
(lp5921
g57
(g78
g59
NtRp5922
(dp5923
g62
(dp5924
sg71
g5918
sg64
(lp5925
g57
(g58
g59
NtRp5926
(dp5927
g62
(dp5928
g70
I4
ssg71
g5922
sg64
(lp5929
g57
(g66
g59
NtRp5930
(dp5931
g62
(dp5932
g70
I3
ssg71
Nsg64
(lp5933
g57
(g73
g59
NtRp5934
(dp5935
g62
(dp5936
sg71
g5930
sg64
(lp5937
g57
(g78
g59
NtRp5938
(dp5939
g62
(dp5940
sg71
g5934
sg64
(lp5941
g57
(g58
g59
NtRp5942
(dp5943
g62
(dp5944
g70
I3
ssg71
g5938
sg64
(lp5945
g4201
(S's\x07\x00\x00\x00Website'
tRp5946
asbasbasbag57
(g73
g59
NtRp5947
(dp5948
g62
(dp5949
sg71
g5930
sg64
(lp5950
g57
(g78
g59
NtRp5951
(dp5952
g62
(dp5953
sg71
g5947
sg64
(lp5954
g57
(g58
g59
NtRp5955
(dp5956
g62
(dp5957
g70
I3
ssg71
g5951
sg64
(lp5958
g100
asbasbasbag57
(g73
g59
NtRp5959
(dp5960
g62
(dp5961
sg71
g5930
sg64
(lp5962
g57
(g78
g59
NtRp5963
(dp5964
g62
(dp5965
sg71
g5959
sg64
(lp5966
g57
(g58
g59
NtRp5967
(dp5968
g62
(dp5969
g70
I3
ssg71
g5963
sg64
(lp5970
S'/themishrms/default/index'
p5971
asbasbasbag57
(g73
g59
NtRp5972
(dp5973
g62
(dp5974
sg71
g5930
sg64
(lp5975
g57
(g78
g59
NtRp5976
(dp5977
g62
(dp5978
sg71
g5972
sg64
(lp5979
g57
(g58
g59
NtRp5980
(dp5981
g62
(dp5982
g70
I3
ssg71
g5976
sg64
(lp5983
g57
(g66
g59
NtRp5984
(dp5985
g62
(dp5986
g70
I2
ssg71
Nsg64
(lp5987
sbasbasbasbasbasbasbasbag57
(g73
g59
NtRp5988
(dp5989
g62
(dp5990
sg71
g5914
sg64
(lp5991
g57
(g78
g59
NtRp5992
(dp5993
g62
(dp5994
sg71
g5988
sg64
(lp5995
g57
(g58
g59
NtRp5996
(dp5997
g62
(dp5998
g70
I4
ssg71
g5992
sg64
(lp5999
g57
(g66
g59
NtRp6000
(dp6001
g62
(dp6002
g70
I3
ssg71
Nsg64
(lp6003
g57
(g73
g59
NtRp6004
(dp6005
g62
(dp6006
sg71
g6000
sg64
(lp6007
g57
(g78
g59
NtRp6008
(dp6009
g62
(dp6010
sg71
g6004
sg64
(lp6011
g57
(g58
g59
NtRp6012
(dp6013
g62
(dp6014
g70
I3
ssg71
g6008
sg64
(lp6015
g4201
(S's\x07\x00\x00\x00WebMail'
tRp6016
asbasbasbag57
(g73
g59
NtRp6017
(dp6018
g62
(dp6019
sg71
g6000
sg64
(lp6020
g57
(g78
g59
NtRp6021
(dp6022
g62
(dp6023
sg71
g6017
sg64
(lp6024
g57
(g58
g59
NtRp6025
(dp6026
g62
(dp6027
g70
I3
ssg71
g6021
sg64
(lp6028
g100
asbasbasbag57
(g73
g59
NtRp6029
(dp6030
g62
(dp6031
sg71
g6000
sg64
(lp6032
g57
(g78
g59
NtRp6033
(dp6034
g62
(dp6035
sg71
g6029
sg64
(lp6036
g57
(g58
g59
NtRp6037
(dp6038
g62
(dp6039
g70
I3
ssg71
g6033
sg64
(lp6040
S'/themishrms/default/webmail'
p6041
asbasbasbag57
(g73
g59
NtRp6042
(dp6043
g62
(dp6044
sg71
g6000
sg64
(lp6045
g57
(g78
g59
NtRp6046
(dp6047
g62
(dp6048
sg71
g6042
sg64
(lp6049
g57
(g58
g59
NtRp6050
(dp6051
g62
(dp6052
g70
I3
ssg71
g6046
sg64
(lp6053
g57
(g66
g59
NtRp6054
(dp6055
g62
(dp6056
g70
I2
ssg71
Nsg64
(lp6057
sbasbasbasbasbasbasbasbag57
(g73
g59
NtRp6058
(dp6059
g62
(dp6060
sg71
g5914
sg64
(lp6061
g57
(g78
g59
NtRp6062
(dp6063
g62
(dp6064
sg71
g6058
sg64
(lp6065
g57
(g58
g59
NtRp6066
(dp6067
g62
(dp6068
g70
I4
ssg71
g6062
sg64
(lp6069
g57
(g66
g59
NtRp6070
(dp6071
g62
(dp6072
g70
I3
ssg71
Nsg64
(lp6073
g57
(g73
g59
NtRp6074
(dp6075
g62
(dp6076
sg71
g6070
sg64
(lp6077
g57
(g78
g59
NtRp6078
(dp6079
g62
(dp6080
sg71
g6074
sg64
(lp6081
g57
(g58
g59
NtRp6082
(dp6083
g62
(dp6084
g70
I3
ssg71
g6078
sg64
(lp6085
g4201
(S's\r\x00\x00\x00Themis Portal'
tRp6086
asbasbasbag57
(g73
g59
NtRp6087
(dp6088
g62
(dp6089
sg71
g6070
sg64
(lp6090
g57
(g78
g59
NtRp6091
(dp6092
g62
(dp6093
sg71
g6087
sg64
(lp6094
g57
(g58
g59
NtRp6095
(dp6096
g62
(dp6097
g70
I3
ssg71
g6091
sg64
(lp6098
g100
asbasbasbag57
(g73
g59
NtRp6099
(dp6100
g62
(dp6101
sg71
g6070
sg64
(lp6102
g57
(g78
g59
NtRp6103
(dp6104
g62
(dp6105
sg71
g6099
sg64
(lp6106
g57
(g58
g59
NtRp6107
(dp6108
g62
(dp6109
g70
I3
ssg71
g6103
sg64
(lp6110
S'/themishrms/default/portal'
p6111
asbasbasbag57
(g73
g59
NtRp6112
(dp6113
g62
(dp6114
sg71
g6070
sg64
(lp6115
g57
(g78
g59
NtRp6116
(dp6117
g62
(dp6118
sg71
g6112
sg64
(lp6119
g57
(g58
g59
NtRp6120
(dp6121
g62
(dp6122
g70
I3
ssg71
g6116
sg64
(lp6123
g57
(g66
g59
NtRp6124
(dp6125
g62
(dp6126
g70
I2
ssg71
Nsg64
(lp6127
sbasbasbasbasbasbasbasbag57
(g73
g59
NtRp6128
(dp6129
g62
(dp6130
sg71
g5914
sg64
(lp6131
g57
(g78
g59
NtRp6132
(dp6133
g62
(dp6134
sg71
g6128
sg64
(lp6135
g57
(g58
g59
NtRp6136
(dp6137
g62
(dp6138
g70
I4
ssg71
g6132
sg64
(lp6139
g57
(g66
g59
NtRp6140
(dp6141
g62
(dp6142
g70
I3
ssg71
Nsg64
(lp6143
g57
(g73
g59
NtRp6144
(dp6145
g62
(dp6146
sg71
g6140
sg64
(lp6147
g57
(g78
g59
NtRp6148
(dp6149
g62
(dp6150
sg71
g6144
sg64
(lp6151
g57
(g58
g59
NtRp6152
(dp6153
g62
(dp6154
g70
I3
ssg71
g6148
sg64
(lp6155
g4201
(S's\x0f\x00\x00\x00Themis Policies'
tRp6156
asbasbasbag57
(g73
g59
NtRp6157
(dp6158
g62
(dp6159
sg71
g6140
sg64
(lp6160
g57
(g78
g59
NtRp6161
(dp6162
g62
(dp6163
sg71
g6157
sg64
(lp6164
g57
(g58
g59
NtRp6165
(dp6166
g62
(dp6167
g70
I3
ssg71
g6161
sg64
(lp6168
g100
asbasbasbag57
(g73
g59
NtRp6169
(dp6170
g62
(dp6171
sg71
g6140
sg64
(lp6172
g57
(g78
g59
NtRp6173
(dp6174
g62
(dp6175
sg71
g6169
sg64
(lp6176
g57
(g58
g59
NtRp6177
(dp6178
g62
(dp6179
g70
I3
ssg71
g6173
sg64
(lp6180
S'/themishrms/default/ourtrem'
p6181
asbasbasbag57
(g73
g59
NtRp6182
(dp6183
g62
(dp6184
sg71
g6140
sg64
(lp6185
g57
(g78
g59
NtRp6186
(dp6187
g62
(dp6188
sg71
g6182
sg64
(lp6189
g57
(g58
g59
NtRp6190
(dp6191
g62
(dp6192
g70
I3
ssg71
g6186
sg64
(lp6193
g57
(g66
g59
NtRp6194
(dp6195
g62
(dp6196
g70
I2
ssg71
Nsg64
(lp6197
sbasbasbasbasbasbasbasbag57
(g73
g59
NtRp6198
(dp6199
g62
(dp6200
sg71
g5914
sg64
(lp6201
g57
(g78
g59
NtRp6202
(dp6203
g62
(dp6204
sg71
g6198
sg64
(lp6205
g57
(g58
g59
NtRp6206
(dp6207
g62
(dp6208
g70
I4
ssg71
g6202
sg64
(lp6209
g57
(g66
g59
NtRp6210
(dp6211
g62
(dp6212
g70
I3
ssg71
Nsg64
(lp6213
g57
(g73
g59
NtRp6214
(dp6215
g62
(dp6216
sg71
g6210
sg64
(lp6217
g57
(g78
g59
NtRp6218
(dp6219
g62
(dp6220
sg71
g6214
sg64
(lp6221
g57
(g58
g59
NtRp6222
(dp6223
g62
(dp6224
g70
I3
ssg71
g6218
sg64
(lp6225
g4201
(S's\x0f\x00\x00\x00Contact Details'
tRp6226
asbasbasbag57
(g73
g59
NtRp6227
(dp6228
g62
(dp6229
sg71
g6210
sg64
(lp6230
g57
(g78
g59
NtRp6231
(dp6232
g62
(dp6233
sg71
g6227
sg64
(lp6234
g57
(g58
g59
NtRp6235
(dp6236
g62
(dp6237
g70
I3
ssg71
g6231
sg64
(lp6238
g100
asbasbasbag57
(g73
g59
NtRp6239
(dp6240
g62
(dp6241
sg71
g6210
sg64
(lp6242
g57
(g78
g59
NtRp6243
(dp6244
g62
(dp6245
sg71
g6239
sg64
(lp6246
g57
(g58
g59
NtRp6247
(dp6248
g62
(dp6249
g70
I3
ssg71
g6243
sg64
(lp6250
S'/themishrms/default/emp_contact_detail'
p6251
asbasbasbag57
(g73
g59
NtRp6252
(dp6253
g62
(dp6254
sg71
g6210
sg64
(lp6255
g57
(g78
g59
NtRp6256
(dp6257
g62
(dp6258
sg71
g6252
sg64
(lp6259
g57
(g58
g59
NtRp6260
(dp6261
g62
(dp6262
g70
I3
ssg71
g6256
sg64
(lp6263
g57
(g66
g59
NtRp6264
(dp6265
g62
(dp6266
g70
I2
ssg71
Nsg64
(lp6267
sbasbasbasbasbasbasbasbasbasbasbasbag57
(g73
g59
NtRp6268
(dp6269
g62
(dp6270
sg71
g4144
sg64
(lp6271
g57
(g78
g59
NtRp6272
(dp6273
g62
(dp6274
g82
g83
ssg71
g6268
sg64
(lp6275
g2734
asbag57
(g78
g59
NtRp6276
(dp6277
g62
(dp6278
g89
g90
ssg71
g6268
sg64
(lp6279
S':'
asbag57
(g78
g59
NtRp6280
(dp6281
g62
(dp6282
sg71
g6268
sg64
(lp6283
g57
(g58
g59
NtRp6284
(dp6285
g62
(dp6286
g70
I5
ssg71
g6280
sg64
(lp6287
g2747
asbasbasbag57
(g73
g59
NtRp6288
(dp6289
g62
(dp6290
sg71
g4144
sg64
(lp6291
g57
(g78
g59
NtRp6292
(dp6293
g62
(dp6294
g82
g83
ssg71
g6288
sg64
(lp6295
S'view'
p6296
asbag57
(g78
g59
NtRp6297
(dp6298
g62
(dp6299
g89
g90
ssg71
g6288
sg64
(lp6300
S':'
asbag57
(g78
g59
NtRp6301
(dp6302
g62
(dp6303
sg71
g6288
sg64
(lp6304
g57
(g58
g59
NtRp6305
(dp6306
g62
(dp6307
g70
I5
ssg71
g6301
sg64
(lp6308
S'default/user_timesheet.html'
p6309
asbasbasbasbasbsS'locals'
p6310
(dp6311
S'Service'
p6312
S"<class 'gluon.tools.Service'>"
p6313
sS'OBJECT'
p6314
S"<class 'gluon.html.OBJECT'>"
p6315
sS'SQLDB'
p6316
S"<class 'gluon.dal.DAL'>"
p6317
sg3464
S"<Storage {'cutime': '16:03:45', '_formkey[login]...hemislexsol.com'}>, 'user_groups': {2: 'Emp'}}>}>"
p6318
sS'LINK'
p6319
S"<class 'gluon.html.LINK'>"
p6320
sS'BR'
p6321
S"<class 'gluon.html.BR'>"
p6322
sS'local_import'
p6323
S'<function <lambda>>'
p6324
sS'OPTGROUP'
p6325
S"<class 'gluon.html.OPTGROUP'>"
p6326
sS'__package__'
p6327
S'None'
p6328
sS'PRE'
p6329
S"<class 'gluon.html.PRE'>"
p6330
sS'IS_INT_IN_RANGE'
p6331
S"<class 'gluon.validators.IS_INT_IN_RANGE'>"
p6332
sS'IS_LOWER'
p6333
S"<class 'gluon.validators.IS_LOWER'>"
p6334
sS'IS_STRONG'
p6335
S"<class 'gluon.validators.IS_STRONG'>"
p6336
sS'get_dpt_name'
p6337
S'<function get_dpt_name>'
p6338
sS'cache'
p6339
S'<gluon.cache.Cache object>'
p6340
sS'IS_IN_DB'
p6341
S"<class 'gluon.validators.IS_IN_DB'>"
p6342
sS'TAG'
p6343
S'<gluon.html.__TAG__ object>'
p6344
sS'SQLField'
p6345
S"<class 'gluon.dal.Field'>"
p6346
sS'mail'
p6347
S'<gluon.tools.Mail object>'
p6348
sS'get_loc_name'
p6349
S'<function get_loc_name>'
p6350
sS'BODY'
p6351
S"<class 'gluon.html.BODY'>"
p6352
sS'IS_DATE_IN_RANGE'
p6353
S"<class 'gluon.validators.IS_DATE_IN_RANGE'>"
p6354
sS'get_org_name'
p6355
S'<function get_org_name>'
p6356
sS'TH'
p6357
S"<class 'gluon.html.TH'>"
p6358
sS'URL'
p6359
S'<function URL>'
p6360
sS'__file__'
p6361
S"'/home/rohitraj/Desktop/web2py/applications/themishrms/views/default/user_timesheet.html'"
p6362
sS'db'
p6363
S"<DAL {'auth_event': <Table {'origin': <gluon.dal...34e3dd0>, '_singular': 'Add new organization'}>}>"
p6364
sS'auth'
p6365
S'<gluon.tools.Auth object>'
p6366
sS'P'
S"<class 'gluon.html.P'>"
p6367
sS'TFOOT'
p6368
S"<class 'gluon.html.TFOOT'>"
p6369
sS'XHTML'
p6370
S"<class 'gluon.html.XHTML'>"
p6371
sS'ON'
p6372
g2070
sS'OL'
p6373
S"<class 'gluon.html.OL'>"
p6374
sS'TEXTAREA'
p6375
S"<class 'gluon.html.TEXTAREA'>"
p6376
sS'MENU'
p6377
S"<class 'gluon.html.MENU'>"
p6378
sS'IS_IMAGE'
p6379
S"<class 'gluon.validators.IS_IMAGE'>"
p6380
sS'LOAD'
p6381
S'<function LOAD>'
p6382
sS'CODE'
p6383
S"<class 'gluon.html.CODE'>"
p6384
sS'HTTP'
p6385
S"<class 'gluon.http.HTTP'>"
p6386
sS'HR'
p6387
S"<class 'gluon.html.HR'>"
p6388
sS'IS_DATETIME'
p6389
S"<class 'gluon.validators.IS_DATETIME'>"
p6390
sS'HEAD'
p6391
S"<class 'gluon.html.HEAD'>"
p6392
sS'LABEL'
p6393
S"<class 'gluon.html.LABEL'>"
p6394
sS'META'
p6395
S"<class 'gluon.html.META'>"
p6396
sS'plugins'
p6397
S'<gluon.tools.PluginManager object>'
p6398
sS'images'
p6399
S'None'
p6400
sS'SELECT'
p6401
S"<class 'gluon.html.SELECT'>"
p6402
sS'use_janrain'
p6403
S'<function use_janrain>'
p6404
sS'CENTER'
p6405
S"<class 'gluon.html.CENTER'>"
p6406
sS'prettydate'
p6407
S'<function prettydate>'
p6408
sS'Crud'
p6409
S"<class 'gluon.tools.Crud'>"
p6410
sS'Auth'
p6411
S"<class 'gluon.tools.Auth'>"
p6412
sS'IS_EQUAL_TO'
p6413
S"<class 'gluon.validators.IS_EQUAL_TO'>"
p6414
sS'HTML'
p6415
S"<class 'gluon.html.HTML'>"
p6416
sS'SQLFORM'
p6417
S"<class 'gluon.sqlhtml.SQLFORM'>"
p6418
sS'EM'
p6419
S"<class 'gluon.html.EM'>"
p6420
sS'redirect'
p6421
S'<function redirect>'
p6422
sS'FIELDSET'
p6423
S"<class 'gluon.html.FIELDSET'>"
p6424
sS'__builtins__'
p6425
S"{'ArithmeticError': <type 'exceptions.ArithmeticError'>, 'AssertionError': <type 'exceptions.AssertionError'>, 'AttributeError': <type 'exceptions.AttributeError'>, 'BaseException': <type 'exceptions.BaseException'>, 'BufferError': <type 'exceptions.BufferError'>, 'BytesWarning': <type 'exceptions.BytesWarning'>, 'DeprecationWarning': <type 'exceptions.DeprecationWarning'>, 'EOFError': <type 'exceptions.EOFError'>, 'Ellipsis': Ellipsis, 'EnvironmentError': <type 'exceptions.EnvironmentError'>, ...}"
p6426
sS'algin'
p6427
S"['Rohit', 'Sanjeet']"
p6428
sS'embed64'
p6429
S'<function embed64>'
p6430
sS'IS_LIST_OF'
p6431
S"<class 'gluon.validators.IS_LIST_OF'>"
p6432
sS'get_emp_name'
p6433
S'<function get_emp_name>'
p6434
sS'__name__'
p6435
S"'__restricted__'"
p6436
sS'EMBED'
p6437
S"<class 'gluon.html.EMBED'>"
p6438
sS'_'
S'<function _>'
p6439
sS'H2'
p6440
S"<class 'gluon.html.H2'>"
p6441
sS'H3'
p6442
S"<class 'gluon.html.H3'>"
p6443
sS'BUTTON'
p6444
S"<class 'gluon.html.BUTTON'>"
p6445
sS'H1'
p6446
S"<class 'gluon.html.H1'>"
p6447
sS'H6'
p6448
S"<class 'gluon.html.H6'>"
p6449
sS'H4'
p6450
S"<class 'gluon.html.H4'>"
p6451
sS'H5'
p6452
S"<class 'gluon.html.H5'>"
p6453
sS'UL'
p6454
S"<class 'gluon.html.UL'>"
p6455
sS'IS_UPPER'
p6456
S"<class 'gluon.validators.IS_UPPER'>"
p6457
sS'xmlescape'
p6458
S'<function xmlescape>'
p6459
sS'IS_TIME'
p6460
S"<class 'gluon.validators.IS_TIME'>"
p6461
sS'os'
p6462
S"<module 'os' from '/usr/lib/python2.6/os.pyc'>"
p6463
sS'OPTION'
p6464
S"<class 'gluon.html.OPTION'>"
p6465
sS'TITLE'
p6466
S"<class 'gluon.html.TITLE'>"
p6467
sS'CRYPT'
p6468
S"<class 'gluon.validators.CRYPT'>"
p6469
sS'IS_EMPTY_OR'
p6470
S"<class 'gluon.validators.IS_EMPTY_OR'>"
p6471
sS'MARKMIN'
p6472
S"<class 'gluon.html.MARKMIN'>"
p6473
sS'INPUT'
p6474
S"<class 'gluon.html.INPUT'>"
p6475
sS'COL'
p6476
S"<class 'gluon.html.COL'>"
p6477
sS'service'
p6478
S'<gluon.tools.Service object>'
p6479
sS'SCRIPT'
p6480
S"<class 'gluon.html.SCRIPT'>"
p6481
sS'TABLE'
p6482
S"<class 'gluon.html.TABLE'>"
p6483
sS'IS_IPV4'
p6484
S"<class 'gluon.validators.IS_IPV4'>"
p6485
sS'IS_LENGTH'
p6486
S"<class 'gluon.validators.IS_LENGTH'>"
p6487
sS'XML'
p6488
S"<class 'gluon.html.XML'>"
p6489
sS'B'
S"<class 'gluon.html.B'>"
p6490
sS'IMG'
p6491
S"<class 'gluon.html.IMG'>"
p6492
sS'SQLTABLE'
p6493
S"<class 'gluon.sqlhtml.SQLTABLE'>"
p6494
sS'IS_MATCH'
p6495
S"<class 'gluon.validators.IS_MATCH'>"
p6496
sS'IS_ALPHANUMERIC'
p6497
S"<class 'gluon.validators.IS_ALPHANUMERIC'>"
p6498
sS'SPAN'
p6499
S"<class 'gluon.html.SPAN'>"
p6500
sS'IS_SLUG'
p6501
S"<class 'gluon.validators.IS_SLUG'>"
p6502
sS'CLEANUP'
p6503
S"<class 'gluon.validators.CLEANUP'>"
p6504
sS'IS_DATE'
p6505
S"<class 'gluon.validators.IS_DATE'>"
p6506
sS'IS_EMAIL'
p6507
S"<class 'gluon.validators.IS_EMAIL'>"
p6508
sS'IS_NOT_EMPTY'
p6509
S"<class 'gluon.validators.IS_NOT_EMPTY'>"
p6510
sg56
S"<Storage {'body': <cStringIO.StringO object at 0..._vars': <Storage {}>, 'post_vars': <Storage {}>}>"
p6511
sS'BEAUTIFY'
p6512
S"<class 'gluon.html.BEAUTIFY'>"
p6513
sS'TBODY'
p6514
S"<class 'gluon.html.TBODY'>"
p6515
sS'CAT'
p6516
S"<class 'gluon.html.CAT'>"
p6517
sS'Field'
p6518
S"<class 'gluon.dal.Field'>"
p6519
sS'DIV'
p6520
S"<class 'gluon.html.DIV'>"
p6521
sS'LEGEND'
p6522
S"<class 'gluon.html.LEGEND'>"
p6523
sS'COLGROUP'
p6524
S"<class 'gluon.html.COLGROUP'>"
p6525
sS'DAL'
p6526
S"<class 'gluon.dal.DAL'>"
p6527
sS'TT'
p6528
S"<class 'gluon.html.TT'>"
p6529
sS'TR'
p6530
S"<class 'gluon.html.TR'>"
p6531
sS'LI'
p6532
S"<class 'gluon.html.LI'>"
p6533
sS'IFRAME'
p6534
S"<class 'gluon.html.IFRAME'>"
p6535
sS'TD'
p6536
S"<class 'gluon.html.TD'>"
p6537
sS'PluginManager'
p6538
S"<class 'gluon.tools.PluginManager'>"
p6539
sS'IS_URL'
p6540
S"<class 'gluon.validators.IS_URL'>"
p6541
sS'A'
S"<class 'gluon.html.A'>"
p6542
sS'STYLE'
p6543
S"<class 'gluon.html.STYLE'>"
p6544
sS'IS_DATETIME_IN_RANGE'
p6545
S"<class 'gluon.validators.IS_DATETIME_IN_RANGE'>"
p6546
sS'FORM'
p6547
S"<class 'gluon.html.FORM'>"
p6548
sS'I'
S"<class 'gluon.html.I'>"
p6549
sS'crud'
p6550
S'<gluon.tools.Crud object>'
p6551
sS'get_project_name'
p6552
S'<function get_project_name>'
p6553
sS'IS_NOT_IN_DB'
p6554
S"<class 'gluon.validators.IS_NOT_IN_DB'>"
p6555
sg4139
S"<Storage {'body': <cStringIO.StringO object at 0...l', [])], 'view': 'default/user_timesheet.html'}>"
p6556
sS'THEAD'
p6557
S"<class 'gluon.html.THEAD'>"
p6558
sS'IS_NULL_OR'
p6559
S"<class 'gluon.validators.IS_EMPTY_OR'>"
p6560
sS'filepath'
p6561
S"'/home/rohitraj/Desktop/web2py/applications/themishrms/uploads'"
p6562
sS'IS_FLOAT_IN_RANGE'
p6563
S"<class 'gluon.validators.IS_FLOAT_IN_RANGE'>"
p6564
sS'IS_EXPR'
p6565
S"<class 'gluon.validators.IS_EXPR'>"
p6566
sS'T'
S'<gluon.languages.translator object>'
p6567
sS'IS_IN_SET'
p6568
S"<class 'gluon.validators.IS_IN_SET'>"
p6569
sS'IS_UPLOAD_FILENAME'
p6570
S"<class 'gluon.validators.IS_UPLOAD_FILENAME'>"
p6571
sS'IS_DECIMAL_IN_RANGE'
p6572
S"<class 'gluon.validators.IS_DECIMAL_IN_RANGE'>"
p6573
sssS'traceback'
p6574
S'Traceback (most recent call last):\n  File "/home/rohitraj/Desktop/web2py/gluon/restricted.py", line 205, in restricted\n    exec ccode in environment\n  File "/home/rohitraj/Desktop/web2py/applications/themishrms/views/default/user_timesheet.html", line 1, in <module>\n    {{left_sidebar_enabled,True}}\nNameError: name \'left_sidebar_enabled\' is not defined\n'
p6575
s.