(dp1
S'output'
p2
S"<type 'exceptions.AttributeError'> 'NoneType' object has no attribute 'organization_name'"
p3
sS'layer'
p4
S'/home/sanjeet/Desktop/install/Development/web2py/applications/themishrms/controllers/default.py'
p5
sS'code'
p6
S'# -*- coding: utf-8 -*-\n# this file is released under public domain and you can use without limitations\n\n#########################################################################\n## This is a samples controller\n## - index is the default action of any application\n## - user is required for authentication and authorization\n## - download is for downloading files uploaded in the db (does streaming)\n## - call exposes all registered services (none by default)\n#########################################################################\n\ndef index():\n    """\n    example action using the internationalization operator T and flash\n    rendered by views/default/index.html or views/generic.html\n    """\n    response.flash = "Welcome to Themis Lexsol"\n    return dict(message=T(\'Hello World\'))\n\t\n\t\ndef tlscareer():\n    return dict()\n\ndef tlsabout():\n    return dict()\n    \ndef rt():\n    return dict()\n\ndef employee():\n    return dict()\n    \ndef tlsservice():\n    return dict()\n\n\ndef tlsoo():\n    return dict()   \n\ndef tlsleads():\n    return dict()   \n\ndef tlsoteam():\t\n\t return dict()\n\t \n\ndef tlscontact(): \r\n    use_recaptcha = True \r\n    form = SQLFORM.factory(Field(\'Name\',requires=IS_NOT_EMPTY()),Field (\'your_email\',requires=IS_EMAIL()),Field(\'your_message\',\'text\')) \r\n    return dict(form=form)\r\n\t\t\r\ndef tlscareer(): \r\n    form = SQLFORM.factory(Field(\'name\',requires=IS_NOT_EMPTY()),\n    \t\t\t\t\t\t\t\tField (\'your_email\',requires=IS_EMAIL()),\n    \t\t\t\t\t\t\t\tSQLField(\'contact_details\',requires=IS_NOT_EMPTY()),\n    \t\t\t\t\t\t\t\tField(\'your_message\',\'text\'),\n    \t\t\t\t\t\t\t\tSQLField(\'looking_for_position\',requires=IS_IN_SET([\'Admin\', \'Legal\', \'Finance\',\'IT\'])),\n    \t\t\t\t\t\t\t\tSQLField(\'your_resume\',\'upload\')) \n    if form.accepts(request,session):\n    \tsession.name = form.vars.name\n    \t#careermail() \r\n    return dict(form=form)\t\r\n\t\t\r\ndef careermail():\n    from gluon.tools import Mail\n    mail = Mail()\n        #specify server\n    mail=auth.settings.mailer\n    mail.settings.server = \'smtp.gmail.com:587\'\n    #specify address to send as\n    mail.settings.sender = \'themisdemo1@gmail.com\'\n    mail.settings.login = \'themisdemo1@gmail.com:123456asdfg\'\n    #send the message                             \n    mail.send(to=[\'sanjeet.tls@gmail.com\',\'prakhar.tls@gmail.com\'],\n            subject=\'Welcome User\',\n            message=\'<html>\'\n                        \'<body>\'\n                            \'<span style="font-family: Bodoni MT Ultra Bold;color:  #000000 ;font-size : 18pt;"><b>Themis </span></h1><span style="font-family: Bodoni MT Ultra Bold;color:#C7A317   ;font-size :18pt;"><b>Lexsol</b></span>\'\n                            \n                            \'<p>Dear &nbsp;\'+session.name+\'</p>\'\n                            \n                            \'<p>I just wanted to drop you a quick message to say thank you for joining the LCM Plus. I appreciate you taking the time to register and really look forward to reading your compliances. Your user name is \'+session.mail+\' and please click below to reset your password.<h1>http://jmdlcmplus.fluxflex.com/jmdlcmplus/default/user/request_reset_password</h1>If you need help at any time, please contact me by replying to this message. Similarly, if you ever have any questions then please do not hesitate to send me a message or email.</p>\'\n                            \'<center><p>_________________________________________________________</p><p style="color:red;font-size :5pt;">This email comes to you since your company has subcribed for LCM Plus. TO unsubcribed please contact to your Compliance Manager</p></center>\'\n                      \n                        \'</body>\'\n                    \'</html>\'\n                    \n  )\n    response.flash=\'mail send\'\n    return \'\'\r\n\ndef user():\n    """\n    exposes:\n    http://..../[app]/default/user/login\n    http://..../[app]/default/user/logout\n    http://..../[app]/default/user/register\n    http://..../[app]/default/user/profile\n    http://..../[app]/default/user/retrieve_password\n    http://..../[app]/default/user/change_password\n    use @auth.requires_login()\n        @auth.requires_membership(\'group name\')\n        @auth.requires_permission(\'read\',\'table name\',record_id)\n    to decorate functions that need access control\n    """\n    return dict(form=auth())\n\n\ndef download():\n    """\n    allows downloading of uploaded files\n    http://..../[app]/default/download/[filename]\n    """\n    return response.download(request,db)\n\n\ndef call():\n    """\n    exposes services. for example:\n    http://..../[app]/default/call/jsonrpc\n    decorate with @services.jsonrpc the functions to expose\n    supports xml, json, xmlrpc, jsonrpc, amfrpc, rss, csv\n    """\n    return service()\n\n\n@auth.requires_signature()\ndef data():\n    """\n    http://..../[app]/default/data/tables\n    http://..../[app]/default/data/create/[table]\n    http://..../[app]/default/data/read/[table]/[id]\n    http://..../[app]/default/data/update/[table]/[id]\n    http://..../[app]/default/data/delete/[table]/[id]\n    http://..../[app]/default/data/select/[table]\n    http://..../[app]/default/data/search/[table]\n    but URLs must be signed, i.e. linked with\n      A(\'table\',_href=URL(\'data/tables\',user_signature=True))\n    or with the signed load operator\n      LOAD(\'default\',\'data.load\',args=\'tables\',ajax=True,user_signature=True)\n    """\n    return dict(form=crud())\n    \ndef welcome():\n\t""" First page to be visited after installation. Will create necessary roles and permissions for admin and redirects to index."""\n\tcreate_user()\n\tcreate_group()\n\tcreate_membership()\n\tcreate_permission()\n\tsession.flash = "Welcome to Themis"\n\tredirect(URL(c=\'default\', f=\'index\'))\n\t\ndef create_user():\n\t username = \'admin\'\n\t password = username\n\t if \'username\' in auth.settings.table_user.fields():\n\t \tuserkey = \'username\'\n\t elif \'email\' in auth.settings.table_user.fields():\n\t \tuserkey = \'email\'\n\t \tusername = username + \'@themislexsol.com\'\n\t passfield = auth.settings.password_field \n\t user = db(auth.settings.table_user[userkey] == username).select().first()\n\t if not user:\n\t \tuser_id = db.auth_user.insert(**{\'first_name\':\'Admin\',userkey:username,passfield:CRYPT(auth.settings.hmac_key)(password)[0],\'organization_name\':1,\'department\':1})\n\t \tuser = auth.settings.table_user(user_id)\n\t return user\n\t \ndef create_group():\n    group = db(auth.settings.table_group.role == \'Admin\').select().first()\n    if not group:\n        group_id = auth.add_group(role = \'Admin\', description = \'All Permissions\')\n        group = auth.settings.table_group(group_id)\n    return group\n    \ndef create_membership():\n\tgroup = db(db.auth_group.role == \'Admin\').select().first()\n\tuser = db(db.auth_user.email == \'admin@themislexsol.com\').select().first()\n\tmembership = db(auth.settings.table_membership.group_id == group.id).select().first()\n\tif not membership:\n\t\tmembership_id = auth.add_membership(group_id = group.id, user_id = user.id)\n\t\tmembership = auth.settings.table_membership(membership_id)\n\treturn membership\n\t\ndef create_permission():\n\ttables = list(db.tables)\n\tfor table in tables:\n\t\tgroup = db(db.auth_group.role == \'Admin\').select().first()\n\t\tquery = auth.settings.table_permission.group_id == group.id\n\t\tquery = query & (auth.settings.table_permission.name == \'CRUD\')\n\t\tquery = query & (auth.settings.table_permission.table_name == table)\n\t\tpermission = db(query).select().first()\n\t\tif not permission:\n\t\t\tpermission_id = auth.add_permission(group_id = group.id, name = \'CRUD\', table_name = table)\n\t\t\tpermission = auth.settings.table_permission(permission_id)\n\treturn permission\n\t\ndef lgin(form):\n\tif auth.user.email == \'admin@themislexsol.com\':\n\t\tadmin=db(db.image.email==auth.user.email).select().first()\n\t\tif not admin:\n\t\t\tdb.image.insert(email=auth.user.email)\n\t\t\tredirect(URL(c=\'default\', f=\'admindash\'))\n\t\telse:\n\t\t\tredirect(URL(c=\'default\', f=\'admindash\'))\t\t\t\n\telse:\n\t\tredirect(URL(c=\'default\', f=\'emp_time\'))\n\treturn dict()\n\t\ndef lgout(usr):\n\tif auth.user.email == \'admin@themislexsol.com\':\n\t\tpass\n\telse:\n\t\timport datetime\n\t\timport time, os\n\t\tos.environ[\'TZ\'] = \'Asia/Kolkata\'\n\t\ttime.tzset()\n\t\tcurrentdate=datetime.date.today()\n\t\tnow = time.localtime(time.time())\n\t\tendtime=datetime.datetime.now()\n\t\tstarttime = session.starttime\n\t\tdelta = (endtime - starttime)\n\t\ttotalminutes = str(delta.seconds / 60)\n\t\ttotalhours = str(delta.seconds / 3600)\n\t\ttotmin = totalminutes + \'\\t min\'\n\t\ttothr = totalhours + \'\\t hrs\'\n\t\tcurrenttime = time.strftime("%H:%M:%S", now)\n\t\tdb((db.employee_login_detail.employee_email == auth.user.email) & (db.employee_login_detail.employee_login_date == currentdate) & (db.employee_login_detail.employee_login_time == session.cutime)).update(employee_logout_date=currentdate, employee_logout_time=currenttime, total_minutes=totmin, toal_hours=tothr)\n\t\tdb.commit()\n\treturn dict()\n\n#### Admin Controller Starts from here ####\t\n\t\n@auth.requires(auth.login() and auth.has_permission(\'CRUD\', \'auth_user\'))    \ndef admindash():\n\tfor row in db(db.image.email == auth.user.email).select():\n\t\timages=row.image\n\treturn dict(images=images)\t \n\n@auth.requires_permission(\'CRUD\', \'auth_user\')\t\t\ndef admin_organization():\n\tfor row in db(db.image.email == auth.user.email).select():\n\t\timages=row.image\n\tdb.add_new_organization.id.readable = False\n\tform=SQLFORM.grid(db.add_new_organization, selectable = lambda ids: del_org(ids))\n\treturn dict(images=images,form=form)\n\t\n@auth.requires_permission(\'CRUD\', \'auth_user\')\t\ndef del_org(ids):\n\tif not ids:\n\t\tresponse.flash=\'Please Select the Check-box to Delete\'\n\telse:\n\t\tfor row in ids:\n\t\t\tdb(db.add_new_organization.id == row).delete()\n\t\tpass\n\tpass\n\treturn \'\'\n\t\n@auth.requires_permission(\'CRUD\', \'auth_user\')\t\t\ndef admin_location():\n\tfor row in db(db.image.email == auth.user.email).select():\n\t\timages=row.image\n\tdb.add_new_location.id.readable = False\n\tform=SQLFORM.grid(db.add_new_location, selectable = lambda ids: del_loc(ids))\n\treturn dict(images=images,form=form)\n\t\n@auth.requires_permission(\'CRUD\', \'auth_user\')\t\ndef del_loc(ids):\n\tif not ids:\n\t\tresponse.flash=\'Please Select the Check-box to Delete\'\n\telse:\n\t\tfor row in ids:\n\t\t\tdb(db.add_new_location.id == row).delete()\n\t\tpass\n\tpass\n\treturn \'\'\n\t\n@auth.requires_permission(\'CRUD\', \'auth_user\')\t\t\ndef admin_department():\n\tfor row in db(db.image.email == auth.user.email).select():\n\t\timages=row.image\n\tdb.add_new_department.id.readable = False\n\tform=SQLFORM.grid(db.add_new_department, selectable = lambda ids: del_dpt(ids))\n\treturn dict(images=images,form=form)\n\t\n@auth.requires_permission(\'CRUD\', \'auth_user\')\t\ndef del_dpt(ids):\n\tif not ids:\n\t\tresponse.flash=\'Please Select the Check-box to Delete\'\n\telse:\n\t\tfor row in ids:\n\t\t\tdb(db.add_new_department.id == row).delete()\n\t\tpass\n\tpass\n\treturn \'\'\n\n@auth.requires_permission(\'CRUD\', \'auth_user\')\t\ndef locn(): \n\torg = request.vars.org\n\tloc = db(db.add_new_location.organization_name == org).select()\n\treturn SELECT(_id="locn",_name="locn",*[OPTION(loc [i].location, _value=str (loc[i].location)) for i in range(len(loc))])\n\n@auth.requires_permission(\'CRUD\', \'auth_user\')\t  \ndef admin_newuser():\n\tfor row in db(db.image.email == auth.user.email).select():\n\t\timages=row.image\n\tdb.auth_user.id.readable = False\n\tform=SQLFORM.grid(db.auth_user, create=False, selectable = lambda ids: del_emp(ids))\n\treturn dict(images=images,form=form)\n\t\n@auth.requires_permission(\'CRUD\', \'auth_user\')\t\ndef del_emp(ids):\n\tif not ids:\n\t\tresponse.flash=\'Please Select the Check-box to Delete\'\n\telse:\n\t\tfor row in ids:\n\t\t\tdb(db.auth_user.id == row).delete()\n\t\tpass\n\tpass\n\treturn \'\'\n\n@auth.requires_permission(\'CRUD\', \'auth_user\')\t\ndef admin_create_new_user():\n\tfor row in db(db.image.email == auth.user.email).select():\n\t\timages=row.image\n\t\n\tadmin_create_new_user.count=0\n\tdef counting():\n\t\tfor row in db(db.auth_user.id >= 1).select():\n\t\t\tadmin_create_new_user.count += 1\n\tcounting()\n\tcount=admin_create_new_user.count\n\tprefix=\'00\'\n\tpre=\'0\'\n\tpr=\'\'\n\tif count < 10:\n\t\tid=prefix+str(count)\n\telif count >= 10 and count <= 99:\n\t\tid=pre+str(count)\n\telse:\n\t\tid=pr+str(count)\n\t\t\n\torg = db().select(db.add_new_organization.ALL)\n\tdpt = db().select(db.add_new_department.ALL)\n\trmgr = db().select(db.auth_user.ALL)\n\tstat = [\'Active\',\'Terminated\',\'Resigned\',\'Leave-of-Absence\',\'Deceased\']\n\t\n\tif request.vars.mailerror:\n\t\tvar = \'This email (\'+request.vars.mailerror+\') is allready taken. Please choose another email address.\'\n\telif request.vars.mailerr:\n\t\tvar = \'This email (\'+request.vars.mailerr+\') is Successfully Registered with HRMS.\'\n\telse:\n\t\tvar = \'Add New Employee\'\n\treturn dict(images=images, org=org, dpt=dpt, stat=stat, id=id, var=var,rmgr=rmgr)\n\t\n@auth.requires_permission(\'CRUD\', \'auth_user\')\t\ndef admin_submit_newuser():\n\tfor row in db(db.auth_user.email==request.vars.orgemail).select():\n\t\tsession.regmail=row.email\n\t\tpass\n\tif session.regmail == request.vars.orgemail:\n\t\tredirect(URL(c=\'default\', f=\'admin_create_new_user\', vars={\'mailerror\' :request.vars.orgemail}))\n\telse:\n\t\tsession.mail = request.vars.orgemail\n\t\tsession.pmail = request.vars.pemail\n\t\tsession.fname = request.vars.fname\n\t\tsession.mgr = request.vars.rmgr\n\t\tfor row1 in db(db.add_new_organization.id==request.vars.org).select():\n\t\t\tpr = row1.organization_prefix\n\t\t\t#cmpny = row1.organization_name\n\t\tprefix = str(pr+request.vars.empcode)\n\t\tdb.auth_user.bulk_insert([{\'first_name\' : session.fname,\'last_name\' : request.vars.lname,\'email\' : session.mail,\'password\' : db.auth_user.password.validate(\'1234\')[0],\'organization_name\' : request.vars.org, \'location\' : request.vars.locn, \'department\' : request.vars.dpt, \'employee_code\' : prefix, \'personal_email\' : session.pmail, \'date_of_joining\' : request.vars.doj, \'reporting_manager\' : request.vars.rmgr, \'designation\' : request.vars.dgn, \'employee_status\' : request.vars.stat}])\n\t\tcreate_emp_group()\n\t\tcreate_emp_membership()\n\t\tcreate_emp_permission()\n\t\tcreate_mgr_group()\n\t\tcreate_mgr_membership()\n\t\tcreate_mgr_permission()\n\t\tdb.personal_information.insert(email=session.mail,employee_code=prefix)\n\t\tdb.qualification.insert(email=session.mail,employee_code=prefix)\n\t\tdb.document.insert(email=session.mail,employee_code=prefix)\n\t\tdb.image.insert(email=session.mail,employee_code=prefix)\n\t\t\n\t\ttotvacationleave=18\n\t\ttotmedicalleave=6\n\t\ttotcasualleave=6\n\t\timport datetime\n\t\tmonth = datetime.datetime.now().month\n\t\ttotmonth = 12\n\t\tcurmnth = totmonth - month\n\t\tvacleave = int(curmnth * 1.5)\n\t\tmedleave = int(curmnth * 0.5)\n\t\tcasulleave = int(curmnth * 0.5)\n\t\ttackenvacleave = 0\n\t\ttackenmedleave = 0\n\t\ttakencasulleave = 0\n\t\tdb.employee_leave.insert(employee_code=prefix,email=session.mail,taken_vacation_leave=tackenvacleave,taken_medical_leave=tackenmedleave,taken_casual_leave=takencasulleave,left_vacation_leave=vacleave,left_medical_leave=medleave,left_casual_leave=casulleave)\n\t\tdb.commit()\n\t\twelcome_mail()\n\t\tredirect(URL(c=\'default\', f=\'admin_create_new_user\', vars={\'mailerr\' :request.vars.orgemail}))\n\treturn dict()\n\t\n@auth.requires_permission(\'CRUD\', \'auth_user\')\r\ndef welcome_mail():\r\n    from gluon.tools import Mail\r\n    mail=Mail()\r\n    #specify server\n    \n    mail=auth.settings.mailer\r\n    mail.settings.server=\'smtp.gmail.com:587\'\r\n    mail.settings.login=\'themisdemo1@gmail.com:123456asdfg\'\r\n    #specify address to send as\r\n    mail.settings.sender=\'themisdemo1@gmail.com\'\r\n    #send the message                             \r\n    mail.send(to=[session.mail, session.pmail],\r\n            subject=\'Welcome User\',\r\n            message=\'<html>\'\r\n                        \'<body>\'\r\n                            \'<span style="font-family: Bodoni MT Ultra Bold;color:  #000000 ;font-size : 18pt;"><b>Themis </span></h1><span style="font-family: Bodoni MT Ultra Bold;color:#C7A317   ;font-size :18pt;"><b>Lexsol</b></span>\'\r\n                            \r\n                            \'<p>Dear &nbsp;\'+session.fname+\'</p>\'\r\n                            \r\n                            \'<p>I just wanted to drop you a quick message to say thank you for joining the Themis Lexsol.Your user name is \'+session.mail+\' and please click below to reset your password.<h1>http://jmdlcmplus.fluxflex.com/jmdlcmplus/default/user/request_reset_password</h1>If you need help at any time, please contact me by replying to this message. Similarly, if you ever have any questions then please do not hesitate to send me a message or email.</p>\'\r\n                            \'<center><p>_________________________________________________________</p><p style="color:red;font-size :5pt;">This email comes to you since your company has subcribed for LCM Plus. TO unsubcribed please contact to Themis Lexsol</p></center>\'\r\n                      \r\n                        \'</body>\'\r\n                    \'</html>\'\r\n                    \r\n  )\r\n    response.flash=\'mail send\'\r\n    return \'\'\t\n\t\n@auth.requires_permission(\'CRUD\', \'auth_user\')    \ndef create_emp_group():\r\n    group = db(auth.settings.table_group.role == \'Emp\').select().first()\r\n    if not group:\r\n        group_id = auth.add_group(role = \'Emp\', description = \'Only Employee Permissions\')\r\n        group = auth.settings.table_group(group_id)\r\n    return group\n\n@auth.requires_permission(\'CRUD\', \'auth_user\')    \ndef create_emp_membership():\r\n\tgroup = db(db.auth_group.role == \'Emp\').select().first()\r\n\tuser = db(db.auth_user.email == session.mail).select().first()\r\n\tmembership = db((auth.settings.table_membership.group_id == group.id) & (auth.settings.table_membership.user_id == user.id)).select().first()\r\n\tif not membership:\r\n\t\tmembership_id = auth.add_membership(group_id = group.id, user_id = user.id)\r\n\t\tmembership = auth.settings.table_membership(membership_id)\r\n\treturn membership\n\n@auth.requires_permission(\'CRUD\', \'auth_user\')\t\ndef create_emp_permission():\r\n\tgroup = db(db.auth_group.role == \'Emp\').select().first()\n\tquery = auth.settings.table_permission.group_id == group.id\n\tquery = query & (auth.settings.table_permission.name == \'Emp\')\n\tpermission = db(query).select().first()\n\tif not permission:\n\t\tpermission_id = auth.add_permission(group_id = group.id, name = \'Emp\', table_name = \'auth_user\')\n\t\tpermission = auth.settings.table_permission(permission_id)\n\treturn permission\n\t\n@auth.requires_permission(\'CRUD\', \'auth_user\')    \ndef create_mgr_group():\n    group = db(auth.settings.table_group.role == \'Mgr\').select().first()\n    if not group:\n        group_id = auth.add_group(role = \'Mgr\', description = \'Only Manager Permissions\')\n        group = auth.settings.table_group(group_id)\n    return group\n\n@auth.requires_permission(\'CRUD\', \'auth_user\')    \ndef create_mgr_membership():\n\tgroup = db(db.auth_group.role == \'Mgr\').select().first()\n\tuser = db(db.auth_user.email == session.mgr).select().first()\n\tmembership = db((auth.settings.table_membership.group_id == group.id) & (auth.settings.table_membership.user_id == user.id)).select().first()\n\tif not membership:\n\t\tmembership_id = auth.add_membership(group_id = group.id, user_id = user.id)\n\t\tmembership = auth.settings.table_membership(membership_id)\n\treturn membership\n\n@auth.requires_permission(\'CRUD\', \'auth_user\')\t\ndef create_mgr_permission():\n\tgroup = db(db.auth_group.role == \'Mgr\').select().first()\n\tquery = auth.settings.table_permission.group_id == group.id\n\tquery = query & (auth.settings.table_permission.name == \'Mgr\')\n\tpermission = db(query).select().first()\n\tif not permission:\n\t\tpermission_id = auth.add_permission(group_id = group.id, name = \'Mgr\', table_name = \'auth_user\')\n\t\tpermission = auth.settings.table_permission(permission_id)\n\treturn permission\n\n@auth.requires_permission(\'CRUD\', \'auth_user\')\t\ndef admin_newholiday():\n\tfor row in db(db.image.email == auth.user.email).select():\n\t\timages=row.image\n\tdb.holiday_list.id.readable=False\n\tform=SQLFORM.grid(db.holiday_list, selectable = lambda ids: del_hlist(ids))\n\treturn dict(images=images,form=form)\n\t\n@auth.requires_permission(\'CRUD\', \'auth_user\')\t\ndef del_hlist(ids):\n\tif not ids:\n\t\tresponse.flash=\'Please Select the Check-box to Delete\'\n\telse:\n\t\tfor row in ids:\n\t\t\tdb(db.holiday_list.id == row).delete()\n\t\tpass\n\tpass\n\treturn \'\'\n\n@auth.requires_permission(\'CRUD\', \'auth_user\')    \ndef addthemis():\n\tfor row in db(db.image.email == auth.user.email).select():\n\t\timages=row.image\n\treturn dict(images=images)\n\n@auth.requires_permission(\'CRUD\', \'auth_user\')\t\ndef admin_timesheet():\n\tfor row in db(db.image.email == auth.user.email).select():\n\t\timages=row.image\n\treturn dict(images=images)\n\t\n@auth.requires_permission(\'CRUD\', \'auth_user\')\t\ndef admin_attendance():\n\tfor row in db(db.image.email == auth.user.email).select():\n\t\timages=row.image\n\tdb.employee_login_detail.id.readable=False\n\tform=SQLFORM.grid(db.employee_login_detail, selectable = lambda ids: del_att(ids))\n\treturn dict(form=form,images=images)\n\t\n@auth.requires_permission(\'CRUD\', \'auth_user\')\t\ndef del_att(ids):\n\tif not ids:\n\t\tresponse.flash=\'Please Select the Check-box to Delete\'\n\telse:\n\t\tfor row in ids:\n\t\t\tdb(db.employee_login_detail.id == row).delete()\n\t\tpass\n\tpass\n\treturn \'\'\n\n@auth.requires_permission(\'CRUD\', \'auth_user\')\t\t\ndef admin_report():\n\tfor row in db(db.image.email == auth.user.email).select():\n\t\timages=row.image\n\treturn dict(images=images)\n\n@auth.requires_permission(\'CRUD\', \'auth_user\')    \ndef admin_mydoc():\n\tfor row in db(db.image.email == auth.user.email).select():\n\t\timages=row.image\n\treturn dict(images=images)\n\n@auth.requires_permission(\'CRUD\', \'auth_user\')\t\t\ndef admin_salary():\n\tfor row in db(db.image.email == auth.user.email).select():\n\t\timages=row.image\n\treturn dict(images=images)\n\t\n@auth.requires_permission(\'CRUD\', \'auth_user\')\ndef admin_update_image():\n\tfor row in db(db.image.email == auth.user.email).select():\n\t\timages=row.image\n\tfor row1 in db(db.image.email == auth.user.email).select():\n\t\tmail=row.email\n\t\tecode=row.employee_code\n\t\t\n\tdb.image.email.writable=False\n\tdb.image.employee_code.writable=db.image.employee_code.readable=False\n\tdb.image.email.default=mail\n\tform=SQLFORM(db.image)\n\tif form.accepts(request.vars, session):\n\t\timg = form.vars.image\n\t\tdb(db.image.email == auth.user.email).update(image=img)\n\t\tredirect(URL(c=\'default\', f=\'admindash\'))\n\treturn dict(images=images,form=form)\n\n@auth.requires_permission(\'CRUD\', \'auth_user\')\t\ndef admin_calendar():\n\tfor row in db(db.image.email == auth.user.email).select():\n\t\timages=row.image\n\tcaland=db().select(db.holiday_list.ALL)\r\n\treturn dict(images=images,rows=caland)\n\n@auth.requires_permission(\'CRUD\', \'auth_user\')\t\ndef admin_calread():\n\tfor row in db(db.image.email == auth.user.email).select():\n\t\timages=row.image\n\trecord = db.holiday_list(request.args(0)) or redirect(URL(\'error\'))\n\tform=crud.read(db.holiday_list,record)\n\treturn dict(form=form,images=images)\n    \n@auth.requires_permission(\'CRUD\', \'auth_user\')\t\ndef admin_leave_stat():\n\tfor row in db(db.image.email == auth.user.email).select():\n\t\timages=row.image\n\tadminleave=db().select(db.apply_leave.ALL)\n\treturn dict(images=images,adminleave=adminleave)\n\n@auth.requires_permission(\'CRUD\', \'auth_user\')\t\t\ndef admin_edit_leave():\n\tfor row in db(db.image.email == auth.user.email).select():\n\t\timages=row.image\n\tfor row in db(db.apply_leave.id==request.args(0)).select():\n\t\tid=row.id\n\t\teid=row.employee_code\n\t\testat=row.status\n\t\teltype=row.leave_type\n\t\tefrom=row.from_leave\n\t\teto=row.to_leave\n\t\tereason=row.reason_for_leave\n\t\tetotday=row.total_day\n\treturn dict(id=id,images=images,eid=eid,estat=estat,eltype=eltype,efrom=efrom,eto=eto,ereason=ereason,etotday=etotday)\n\n@auth.requires_permission(\'CRUD\', \'auth_user\')\t\ndef admin_approve_leave():\n\tfor row in db(db.apply_leave.id==request.args(0)).select():\n\t\tsession.lmail=row.email\n\t\tsession.empname=row.name\n\t\tsession.efrom=row.from_leave\n\t\tsession.eto=row.to_leave\n\t\tsession.status=request.vars.status\n\t\tsession.ltype=row.leave_type\n\t\tsession.tday=row.total_day\n\tif session.status == \'Approved\':\n\t\tif session.ltype == \'Casual Leave\':\n\t\t\tfor row in db(db.employee_leave.email==session.lmail).select():\n\t\t\t\ttotday=row.left_casual_leave - session.tday\n\t\t\tdb(db.apply_leave.id==request.args(0)).update(status=session.status, approved_by=\'Administrator\')\n\t\t\tdb(db.employee_leave.email==session.lmail).update(taken_casual_leave=session.tday,left_casual_leave=totday)\n\t\t\tdb.commit()\n\t\t\tredirect(URL(c=\'default\', f=\'admin_leave_mail\'))\n\t\telif session.ltype == \'Medical Leave\':\n\t\t\tfor row in db(db.employee_leave.email==session.lmail).select():\n\t\t\t\ttotday=row.left_medical_leave - session.tday\n\t\t\tdb(db.apply_leave.id==request.args(0)).update(status=session.status, approved_by=\'Administrator\')\n\t\t\tdb(db.employee_leave.email==session.lmail).update(taken_medical_leave=session.tday,left_medical_leave=totday)\n\t\t\tdb.commit()\n\t\t\tredirect(URL(c=\'default\', f=\'admin_leave_mail\'))\n\t\telif session.ltype == \'Vacation Leave\':\n\t\t\tfor row in db(db.employee_leave.email==session.lmail).select():\n\t\t\t\ttotday=row.left_vacation_leave - session.tday\n\t\t\tdb(db.apply_leave.id==request.args(0)).update(status=session.status, approved_by=\'Administrator\')\n\t\t\tdb(db.employee_leave.email==session.lmail).update(taken_vacation_leave=session.tday,left_vacation_leave=totday)\n\t\t\tdb.commit()\n\t\t\tredirect(URL(c=\'default\', f=\'admin_leave_mail\'))\n\t\telse:\n\t\t\tpass\n\telse:\n\t\tdb(db.apply_leave.id==request.args(0)).update(status=session.status, approved_by=\'Administrator\')\n\t\tdb.commit()\n\t\tredirect(URL(c=\'default\', f=\'admin_leave_mail\'))\n\treturn \'\'\n\n@auth.requires_permission(\'CRUD\', \'auth_user\')\ndef admin_edit_leave_status():\n\tfor row2 in db(db.image.email == auth.user.email).select():\n\t\timages=row2.image\n\tltype=[\'Casual Leave\',\'Medical Leave\',\'Vacation Leave\']\n\tsession.eleaveid=request.args(0)\n\tfor row in db(db.apply_leave.id==session.eleaveid).select():\n\t\tecode=row.employee_code\n\t\tname=row.name\n\t\tfle=row.from_leave\n\t\ttle=row.to_leave\n\t\ttday=row.total_day\n\t\trle=row.reason_for_leave\n\t\teltype=row.leave_type\n\treturn dict(ltype=ltype,images=images,ecode=ecode,name=name,fle=fle,tle=tle,tday=tday,rle=rle,eltype=eltype)\n\n@auth.requires_permission(\'CRUD\', \'auth_user\')\t\ndef admin_submit_edit_leave_status():\n\tdb(db.apply_leave.id == session.eleaveid).update(name=request.vars.name, leave_type=request.vars.ltype, from_leave=request.vars.fleave, to_leave=request.vars.tleave, total_day=request.vars.tday, reason_for_leave=request.vars.rleave)\n\tdb.commit()\n\tredirect(URL(c=\'default\',f=\'admin_leave_stat\'))\n\treturn \'\'\n\n@auth.requires_permission(\'CRUD\', \'auth_user\')\ndef admin_leave_mail():\n    from gluon.tools import Mail\n    mail=Mail()\n    #specify server\n    mail=auth.settings.mailer\n    mail.settings.server=\'smtp.gmail.com:587\'\n    mail.settings.login=\'themisdemo1@gmail.com:123456asdfg\'\n    #specify address to send as\n    mail.settings.sender=\'themisdemo1@gmail.com\'\n    #send the message                             \n    mail.send(to=[session.lmail],\n            subject=\'Leave Status\',\n            message=\'<html>\'\n                        \'<body>\'\n                            \'<span style="font-family: Bodoni MT Ultra Bold;color:  #000000 ;font-size : 18pt;"><b>Themis </span></h1><span style="font-family: Bodoni MT Ultra Bold;color:#C7A317   ;font-size :18pt;"><b>Lexsol</b></span>\'\n                            \n                            \'<p>Dear &nbsp;\'+session.empname+\'</p>\'\n                            \n                            \'<p>I just wanted to drop you a quick message to say Your leave request from \'+str(session.efrom)+\' to \'+str(session.eto)+\' is \'+session.status+\' If you need help at any time, please contact me by replying to this message. Similarly, if you ever have any questions then please do not hesitate to send me a message or email.</p>\'\n                            \'<center><p>_________________________________________________________</p><p style="color:red;font-size :5pt;">This email comes to you since you are subcribed for HRMS. TO unsubcribed please contact to Themis Lexsol</p></center>\'\n                      \n                        \'</body>\'\n                    \'</html>\'\n                    \n  )\n    redirect(URL(c=\'default\', f=\'admin_cnf_leave\'))\t\n    return \'\'\n    \n@auth.requires_permission(\'CRUD\', \'auth_user\')\t\ndef admin_cnf_leave():\n\tfor row2 in db(db.image.email == auth.user.email).select():\n\t\timages=row2.image\n\treturn dict(images=images,status=session.status,efrom=session.efrom,eto=session.eto,empname=session.empname)\n\t\n@auth.requires_permission(\'CRUD\', \'auth_user\')\t\ndef admin_contact_detail():\n\tfor row2 in db(db.image.email == auth.user.email).select():\n\t\timages=row2.image\n\treturn dict(images=images)\n\n@auth.requires_permission(\'CRUD\', \'auth_user\')\t\ndef admin_add_project():\n\tfor row2 in db(db.image.email == auth.user.email).select():\n\t\timages=row2.image\n\t\n\tdb.project.id.readable = False\n\tform=SQLFORM.grid(db.project,selectable = lambda ids: del_pro(ids))\n\treturn dict(images=images,form=form)\n\t\n@auth.requires_permission(\'CRUD\', \'auth_user\')\t\ndef del_pro(ids):\n\tif not ids:\n\t\tresponse.flash=\'Please Select the Check-box to Delete\'\n\telse:\n\t\tfor row in ids:\n\t\t\tdb(db.project.id == row).delete()\n\t\tpass\n\tpass\n\treturn \'\'\n\t\n@auth.requires_permission(\'CRUD\', \'auth_user\')\t\ndef admin_activity():\n\tfor row2 in db(db.image.email == auth.user.email).select():\n\t\timages=row2.image\n\t\n\tdb.activity.id.readable = False\n\tform=SQLFORM.grid(db.activity,selectable = lambda ids: del_activity(ids))\n\treturn dict(images=images,form=form)\n\t\n@auth.requires_permission(\'CRUD\', \'auth_user\')\t\ndef del_activity(ids):\n\tif not ids:\n\t\tresponse.flash=\'Please Select the Check-box to Delete\'\n\telse:\n\t\tfor row in ids:\n\t\t\tdb(db.activity.id == row).delete()\n\t\tpass\n\tpass\n\treturn \'\'\n\t\n@auth.requires_permission(\'CRUD\', \'auth_user\')\ndef admin_assign_project():\n\tfor row2 in db(db.image.email == auth.user.email).select():\n\t\timages=row2.image\n\tproj=db().select(db.project.ALL)\n\torzn=db().select(db.add_new_organization.ALL)\n\tdept=db().select(db.add_new_department.ALL)\n\treturn dict(images=images,proj=proj,orzn=orzn,dept=dept)\n\n@auth.requires_permission(\'CRUD\', \'auth_user\')\t\ndef admin_orz():\n\tusr=[]\n\tfor row in db((db.auth_user.department == request.vars.dp) & (db.auth_user.organization_name == request.vars.orz)).select():\n\t\tusr.append(row.email)\n\treturn SELECT(_id="usr",_name="usr",*[OPTION((emp), _value=str (emp)) for emp in usr])\n\t\n@auth.requires_permission(\'CRUD\', \'auth_user\')\t\ndef admin_submit_project():\n\tfor row2 in db(db.image.email == auth.user.email).select():\n\t\timages=row2.image\n\t\n\treturn dict(images=images)\n\t\n#### Employee Controller Starts from here ####\n\ndef emp_time():\n\timport datetime\n\timport time, os\n\tos.environ[\'TZ\'] = \'Asia/Kolkata\'\n\ttime.tzset()\n\tnow = time.localtime(time.time())\n\tsession.cutime = time.strftime("%H:%M:%S", now)\t\n\tredirect(URL(c=\'default\',f=\'employee\'))\n\treturn \'\'\n\n@auth.requires(auth.login() and auth.has_permission(\'Emp\', \'auth_user\'))\ndef employee():\n\tresponse.flash = "Welcome to Employee Lgoin"\n\tfor row in db(db.image.email == auth.user.email).select():\n\t\timages=row.image\n\tllgin=[]\n\tfor log in db(db.employee_login_detail.employee_logout_date==\'Logged in\').select():\n\t\tllgin.append(log.employee_name)\n\tblgin=set(llgin)\n\talgin=list(blgin)\n\t\t\n\tipa = request.env.remote_addr\n\tipaddr = str(ipa[33:])\n\timport datetime\n\timport time, os\n\tos.environ[\'TZ\'] = \'Asia/Kolkata\'\n\ttime.tzset()\n\tcurrentdate=datetime.date.today()\n\tnow = time.localtime(time.time())\n\tstarttime = datetime.datetime.now()\n\tsession.starttime = starttime\n\tcurrenttime = time.strftime("%H:%M:%S", now)\n\tsession.time = currenttime\n\tif session.cutime == session.time:\n\t\tfor row in db(db.auth_user.email == auth.user.email).select(db.auth_user.first_name, db.auth_user.employee_code):\n\t\t\tfirstname=row.first_name\n\t\t\tempcode=row.employee_code\n\t\tdb.employee_login_detail.insert(employee_code = empcode, employee_email = auth.user.email, employee_name=firstname, employee_login_date=currentdate, employee_login_time=currenttime, ip_address=ipaddr)\n\t\tdb.commit()\n\telse:\n\t\tpass\n\treturn dict(algin=algin,images=images)\t\n\n@auth.requires_permission(\'Emp\', \'auth_user\')\t\ndef emp_mydoc():\n\tfor row in db(db.image.email == auth.user.email).select():\n\t\timages=row.image\n\t\n\tllgin=[]\n\tfor log in db(db.employee_login_detail.employee_logout_date==\'Logged in\').select():\n\t\tllgin.append(log.employee_name)\n\tblgin=set(llgin)\n\talgin=list(blgin)\t\n\tfor row in db(db.auth_user.email==auth.user.email).select(db.auth_user.employee_code):\r\n\t\t\tecode=row.employee_code\n\t\t\t\n\tdb.document.id.readable=False\t\n\tdb.document.email.writable=False\n\tdb.document.email.default=auth.user.email\n\tdb.document.employee_code.writable=False\n\tdb.document.employee_code.default=ecode\n\ttable=SQLFORM.grid(db.document.email==auth.user.email)\n\treturn dict(algin=algin,images=images,table=table)\n\n@auth.requires_permission(\'Emp\', \'auth_user\')\t\ndef emp_compliance():\n\tfor row in db(db.image.email == auth.user.email).select():\n\t\timages=row.image\n\t\t\n\tllgin=[]\n\tfor log in db(db.employee_login_detail.employee_logout_date==\'Logged in\').select():\n\t\tllgin.append(log.employee_name)\n\tblgin=set(llgin)\n\talgin=list(blgin)\n\treturn dict(algin=algin,images=images)\n\n@auth.requires_permission(\'Emp\', \'auth_user\')\t\ndef emp_all():\n\tfor row in db(db.image.email == auth.user.email).select():\n\t\timages=row.image\n\tllgin=[]\n\tfor log in db(db.employee_login_detail.employee_logout_date==\'Logged in\').select():\n\t\tllgin.append(log.employee_name)\n\tblgin=set(llgin)\n\talgin=list(blgin)\n\treturn dict(algin=algin,images=images)\n\n@auth.requires_permission(\'Emp\', \'auth_user\')   \ndef emp_myprofile():\n\tfor row2 in db(db.image.email == auth.user.email).select():\n\t\timages=row2.image\n\t\t\n\tllgin=[]\n\tfor log in db(db.employee_login_detail.employee_logout_date==\'Logged in\').select():\n\t\tllgin.append(log.employee_name)\n\tblgin=set(llgin)\n\talgin=list(blgin)\n\tfor row in db(db.auth_user.email == auth.user.email).select():\n\t\tempcode=row.employee_code\n\t\tempfname=row.first_name\n\t\templname=row.last_name\n\t\tempemail=auth.user.email \n\t\temppemail=row.personal_email\n\t\tempdoj=row.date_of_joining\n\t\tempdpt=row.department\n\t\temprptmgr=row.reporting_manager\n\t\tempdgn=row.designation\n\t\t\n\tfor row1 in db(db.personal_information.email == auth.user.email).select():\n\t\tsession.empdob=row1.date_of_birth\n\t\tsession.empgndr=row1.gender\n\t\tsession.empstatus=row1.marital_status\n\t\tsession.empgrp=row1.blood_group\n\t\tsession.empmbl=row1.mobile\n\t\tsession.empphone=row1.phone\n\t\tsession.emppaddr=row1.present_address\n\t\tsession.empperaddr=row1.permanent_address\n\t\tsession.empctz=row1.citizenship\n\t\tsession.empst=row1.state\n\t\tsession.emppassno=row1.passport_no\n\t\tsession.empbank=row1.bank_account_no\n\t\tsession.emppancard=row1.pan_card_no\r\n\tedtable = db(db.qualification.email==auth.user.email).select(db.qualification.ALL) \n\treturn dict(algin=algin,images=images,empcode=empcode,empfname=empfname,emplname=emplname,empemail=empemail,emppemail=emppemail,empdoj=empdoj,empdpt=empdpt,emprptmgr=emprptmgr,empdgn=empdgn,empdob=session.empdob,empgndr=session.empgndr,empstatus=session.empstatus,empgrp=session.empgrp,empmbl=session.empmbl,empphone=session.empphone,emppaddr=session.emppaddr,empperaddr=session.empperaddr,empctz=session.empctz,empst=session.empst,emppassno=session.emppassno,empbank=session.empbank,emppancard=session.emppancard,edtable=edtable)\n\n@auth.requires_permission(\'Emp\', \'auth_user\')\t\ndef emp_update_edu_info():\n\tfor row in db(db.image.email == auth.user.email).select():\n\t\timages=row.image\n\tllgin=[]\n\tfor log in db(db.employee_login_detail.employee_logout_date==\'Logged in\').select():\n\t\tllgin.append(log.employee_name)\n\tblgin=set(llgin)\n\talgin=list(blgin)\n\t\t\n\tfor row in db(db.auth_user.email==auth.user.email).select(db.auth_user.employee_code):\r\n\t\t\tecode=row.employee_code\n\t\t\t\n\tdb.qualification.id.readable=False\t\n\tdb.qualification.email.writable=False\n\tdb.qualification.email.default=auth.user.email\n\tdb.qualification.employee_code.writable=False\n\tdb.qualification.employee_code.default=ecode\n\ttable=SQLFORM.grid(db.qualification.email==auth.user.email)\n\treturn dict(algin=algin,images=images,table=table)\n\n@auth.requires_permission(\'Emp\', \'auth_user\')\ndef emp_update_personal_info():\n\tfor row1 in db(db.image.email == auth.user.email).select():\n\t\timages=row1.image\n\tllgin=[]\n\tfor log in db(db.employee_login_detail.employee_logout_date==\'Logged in\').select():\n\t\tllgin.append(log.employee_name)\n\tblgin=set(llgin)\n\talgin=list(blgin)\n\t\n\tfor row in db(db.personal_information.email == auth.user.email).select():\n\t\tecode=row.employee_code\n\t\tdbr=row.date_of_birth\n\t\tgndr=row.gender\n\t\tmstat=row.marital_status\n\t\tbgrp=row.blood_group\n\t\tmbl=row.mobile\n\t\tph=row.phone\n\t\tpaddr=row.present_address\n\t\tperaddr=row.permanent_address\n\t\tctz=row.citizenship\n\t\tst=row.state\n\t\tpno=row.passport_no\n\t\tbno=row.bank_account_no\n\t\tpcard=row.pan_card_no\t\t\n\t\t\n\tdb.personal_information.email.writable=False\n\tdb.personal_information.employee_code.writable=False\n\tdb.personal_information.email.default=auth.user.email\n\tdb.personal_information.employee_code.default=ecode\n\t\n\tdb.personal_information.date_of_birth.default=dbr \n\tdb.personal_information.gender.default=gndr\n\tdb.personal_information.marital_status.default=mstat\n\tdb.personal_information.blood_group.default=bgrp\n\tdb.personal_information.mobile.default=mbl\n\tdb.personal_information.phone.default=ph\n\tdb.personal_information.present_address.default=paddr \n\tdb.personal_information.permanent_address.default=peraddr\n\tdb.personal_information.citizenship.default=ctz\n\tdb.personal_information.state.default=st\n\tdb.personal_information.passport_no.default=pno\n\tdb.personal_information.bank_account_no.default=bno\n\tdb.personal_information.pan_card_no.default=pcard \n\t\n\tform = SQLFORM(db.personal_information)\n\tif form.accepts(request.vars, session):\n\t\tdob = form.vars.date_of_birth\n\t\tgndr = form.vars.gender\n\t\tmstatus = form.vars.marital_status\n\t\tbgrp = form.vars.blood_group\n\t\tmbl = form.vars.mobile\n\t\tphone = form.vars.phone\n\t\tpaddr = form.vars.present_address\n\t\tperaddr = form.vars.permanent_address\n\t\tctz = form.vars.citizenship\n\t\tst = form.vars.state\n\t\tpno = form.vars.passport_no\n\t\tbaccno = form.vars.bank_account_no\n\t\tpcard = form.vars.pan_card_no\n\t\timg = form.vars.image\n\t\tdb(db.personal_information.email == auth.user.email).update(date_of_birth=dob, gender=gndr, marital_status=mstatus, blood_group=bgrp, mobile=mbl, phone=phone, present_address=paddr, permanent_address=peraddr, citizenship=ctz, state=st, passport_no=pno, bank_account_no=baccno, pan_card_no=pcard)\n\t\tredirect(URL(c=\'default\', f=\'emp_myprofile\'))\n\treturn dict(algin=algin,form=form,images=images)\n\n@auth.requires_permission(\'Emp\', \'auth_user\')\ndef emp_update_image():\n\tfor row in db(db.image.email == auth.user.email).select():\n\t\timages=row.image\n\t\t\n\tllgin=[]\n\tfor log in db(db.employee_login_detail.employee_logout_date==\'Logged in\').select():\n\t\tllgin.append(log.employee_name)\n\tblgin=set(llgin)\n\talgin=list(blgin)\n\tfor row1 in db(db.image.email == auth.user.email).select():\n\t\tmail=row.email\n\t\tecode=row.employee_code\n\t\t\n\tdb.image.email.writable=False\n\tdb.image.employee_code.writable=db.image.employee_code.readable=False\n\tdb.image.email.default=mail\n\tform=SQLFORM(db.image)\n\tif form.accepts(request.vars, session):\n\t\timg = form.vars.image\n\t\tdb(db.image.email == auth.user.email).update(image=img)\n\t\tredirect(URL(c=\'default\', f=\'emp_myprofile\'))\n\treturn dict(algin=algin,images=images,form=form)\n\n@auth.requires_permission(\'Emp\', \'auth_user\')\ndef emp_company():\n\tfor row in db(db.image.email == auth.user.email).select():\n\t\timages=row.image\n\t\t\n\tllgin=[]\n\tfor log in db(db.employee_login_detail.employee_logout_date==\'Logged in\').select():\n\t\tllgin.append(log.employee_name)\n\tblgin=set(llgin)\n\talgin=list(blgin)\n\treturn dict(algin=algin,images=images)\n\n@auth.requires_permission(\'Emp\', \'auth_user\')\t\ndef emp_organization():\n\tfor row in db(db.image.email == auth.user.email).select():\n\t\timages=row.image\n\tllgin=[]\n\tfor log in db(db.employee_login_detail.employee_logout_date==\'Logged in\').select():\n\t\tllgin.append(log.employee_name)\n\tblgin=set(llgin)\n\talgin=list(blgin)\n\treturn dict(algin=algin,images=images)\n\n@auth.requires_permission(\'Emp\', \'auth_user\')\t\ndef emp_leavecalendar():\n\tfor row in db(db.image.email == auth.user.email).select():\n\t\timages=row.image\n\t\n\tllgin=[]\n\tfor log in db(db.employee_login_detail.employee_logout_date==\'Logged in\').select():\n\t\tllgin.append(log.employee_name)\n\tblgin=set(llgin)\n\talgin=list(blgin)\n\ttotvacationleave=18\n\ttotmedicalleave=6\n\ttotcasualleave=6\n\templeave = db(db.employee_leave.email==auth.user.email).select(db.employee_leave.ALL)\n\tempstat = db(db.apply_leave.email==auth.user.email).select(db.apply_leave.ALL)\n\treturn dict(algin=algin,empstat=empstat,images=images,empleave=empleave,totvacationleave=totvacationleave,totmedicalleave=totmedicalleave,totcasualleave=totcasualleave)\n\t\ndef cron_leave():\n\ttotvacationleave=18\n\ttotmedicalleave=6\n\ttotcasualleave=6\n\ttvl=0\n\ttml=0\n\ttcl=0\n\tfor row in db(db.employee_leave.id>0).select():\n\t\tfor row1 in db(db.employee_leave.id==row.id).select():\n\t\t\ttotvacleave = totvacationleave + row1.left_vacation_leave\n\t\t\tdb(db.employee_leave.id==row.id).update(taken_vacation_leave=tvl, taken_medical_leave=tml, taken_casual_leave=tcl, left_vacation_leave=totvacleave, left_medical_leave=totmedicalleave, left_casual_leave=totcasualleave)\n\t\t\tdb.commit()\n\treturn \'\'\t\n\t\n@auth.requires_permission(\'Emp\', \'auth_user\')\t\ndef emp_calendar():\n\tfor row in db(db.image.email == auth.user.email).select():\n\t\timages=row.image\n\t\t\n\tllgin=[]\n\tfor log in db(db.employee_login_detail.employee_logout_date==\'Logged in\').select():\n\t\tllgin.append(log.employee_name)\n\tblgin=set(llgin)\n\talgin=list(blgin)\n\tcaland=db().select(db.holiday_list.ALL)\r\n\treturn dict(algin=algin,images=images,rows=caland)\n\n@auth.requires_permission(\'Emp\', \'auth_user\')\t\ndef emp_calread():\n\tfor row in db(db.image.email == auth.user.email).select():\n\t\timages=row.image\n\tllgin=[]\n\tfor log in db(db.employee_login_detail.employee_logout_date==\'Logged in\').select():\n\t\tllgin.append(log.employee_name)\n\tblgin=set(llgin)\n\talgin=list(blgin)\n\trecord = db.holiday_list(request.args(0)) or redirect(URL(\'error\'))\n\tform=crud.read(db.holiday_list,record)\n\treturn dict(form=form,images=images,algin=algin)\n    \n@auth.requires_permission(\'Emp\', \'auth_user\')\t\ndef emp_apply_leave():\n\tfor row in db(db.image.email == auth.user.email).select():\n\t\timages=row.image\n\tllgin=[]\n\tfor log in db(db.employee_login_detail.employee_logout_date==\'Logged in\').select():\n\t\tllgin.append(log.employee_name)\n\tblgin=set(llgin)\n\talgin=list(blgin)\n\tfor row in db(db.auth_user.email==auth.user.email).select():\n\t\trptmgr=row.reporting_manager\n\treturn dict(algin=algin,images=images)\n\n@auth.requires_permission(\'Emp\', \'auth_user\')\t\ndef submit_emp_apply_leave():\n\tfor row in db(db.image.email == auth.user.email).select():\n\t\timages=row.image\n\tllgin=[]\n\tfor log in db(db.employee_login_detail.employee_logout_date==\'Logged in\').select():\n\t\tllgin.append(log.employee_name)\n\tblgin=set(llgin)\n\talgin=list(blgin)\n\t\t\n\timport datetime\n\tsession.fromdate=request.vars.fromleave\n\tsession.todate=request.vars.toleave\n\tfdate=datetime.date(*map(int, session.fromdate.split(\'-\')))\n\ttdate=datetime.date(*map(int, session.todate.split(\'-\')))\n\ttotday=tdate-fdate\n\tsession.day=totday.days\n\tif request.vars.apply == \'Casual Leave\':\n\t\tfor row in db(db.employee_leave.email==auth.user.email).select():\n\t\t\tif session.day <= row.left_casual_leave:\n\t\t\t\tfor row in db(db.auth_user.email==auth.user.email).select():\n\t\t\t\t\tsession.rptmgr=row.reporting_manager\n\t\t\t\t\tsession.empcode=row.employee_code\n\t\t\t\t\tsession.fname=row.first_name\n\t\t\t\tdb.apply_leave.insert(employee_code=session.empcode,email=auth.user.email,name=session.fname,leave_type=request.vars.apply,from_leave=session.fromdate,to_leave=session.todate,total_day=session.day,reason_for_leave=request.vars.reason,reporting_manager=session.rptmgr)\n\t\t\t\tdb.commit()\n\t\t\t\tleavemail()\n\t\t\telse:\n\t\t\t\tresponse.flash=\'Your Casual leave is not left\'\n\telif request.vars.apply == \'Medical Leave\':\n\t\tfor row in db(db.employee_leave.email==auth.user.email).select():\n\t\t\tif session.day <= row.left_medical_leave:\n\t\t\t\tfor row in db(db.auth_user.email==auth.user.email).select():\n\t\t\t\t\tsession.rptmgr=row.reporting_manager\n\t\t\t\t\tsession.empcode=row.employee_code\n\t\t\t\t\tsession.fname=row.first_name\n\t\t\t\tdb.apply_leave.insert(employee_code=session.empcode,email=auth.user.email,name=session.fname,leave_type=request.vars.apply,from_leave=session.fromdate,to_leave=session.todate,total_day=session.day,reason_for_leave=request.vars.reason,reporting_manager=session.rptmgr)\n\t\t\t\tdb.commit()\n\t\t\t\tleavemail()\n\t\t\telse:\n\t\t\t\tresponse.flash=\'Your Medical leave is not left\'\n\telif request.vars.apply == \'Vacation Leave\':\n\t\tfor row in db(db.employee_leave.email==auth.user.email).select():\n\t\t\tif session.day <= row.left_vacation_leave:\n\t\t\t\tfor row in db(db.auth_user.email==auth.user.email).select():\n\t\t\t\t\tsession.rptmgr=row.reporting_manager\n\t\t\t\t\tsession.empcode=row.employee_code\n\t\t\t\t\tsession.fname=row.first_name\n\t\t\t\tdb.apply_leave.insert(employee_code=session.empcode,email=auth.user.email,name=session.fname,leave_type=request.vars.apply,from_leave=session.fromdate,to_leave=session.todate,total_day=session.day,reason_for_leave=request.vars.reason,reporting_manager=session.rptmgr)\n\t\t\t\tdb.commit()\n\t\t\t\tleavemail()\n\t\t\telse:\n\t\t\t\tresponse.flash=\'Your Vacation leave is not left\'\n\telse:\n\t\tpass\t\n\treturn dict(algin=algin,images=images)\t\n\n@auth.requires_permission(\'Emp\', \'auth_user\')\t\ndef leavemail():\n    from gluon.tools import Mail\n    mail=Mail()\n    #specify server\n    \n    mail=auth.settings.mailer\n    mail.settings.server=\'smtp.gmail.com:587\'\n    mail.settings.login=\'themisdemo1@gmail.com:123456asdfg\'\n    #specify address to send as\n    mail.settings.sender=\'themisdemo1@gmail.com\'\n    #send the message                             \n    mail.send(to=[session.rptmgr],\n            subject=\'Request for Leave\',\n            message=\'<html>\'\n                        \'<body>\'\n                            \'<span style="font-family: Bodoni MT Ultra Bold;color:  #000000 ;font-size : 18pt;"><b>Themis </span></h1><span style="font-family: Bodoni MT Ultra Bold;color:#C7A317   ;font-size :18pt;"><b>Lexsol</b></span>\'\n                            \n                            \'<p>Dear &nbsp;\'+session.fname+\' applied for leave</p>\'\n                            \'<p>Emp Code &nbsp;\'+session.empcode+\' </p>\'\n                             \'<p>From Date &nbsp;\'+session.fromdate+\' </p>\'\n                              \'<p>To Date &nbsp;\'+session.todate+\' </p>\'\n                               \'<p>Total Day &nbsp;\'+str(session.day)+\' </p>\'\n                            \n                            \'<p></p>\'\n                            \'<center><p>_________________________________________________________</p><p style="color:red;font-size :5pt;">This email comes to you since your company has subcribed for LCM Plus. TO unsubcribed please contact to Themis Lexsol</p></center>\'\n                      \n                        \'</body>\'\n                    \'</html>\'\n                    \n  )\n    response.flash=\'mail send\'\n    redirect(URL(c=\'default\',f=\'emp_leavecalendar\'))\n    return \'\'\t\n\n\t\n@auth.requires_permission(\'Mgr\', \'auth_user\')\t\ndef emp_leave_stat():\n\tfor row in db(db.image.email == auth.user.email).select():\n\t\timages=row.image\n\t\t\n\tllgin=[]\n\tfor log in db(db.employee_login_detail.employee_logout_date==\'Logged in\').select():\n\t\tllgin.append(log.employee_name)\n\tblgin=set(llgin)\n\talgin=list(blgin)\n\templeave=db(db.apply_leave.reporting_manager==auth.user.email).select(db.apply_leave.ALL)\n\treturn dict(algin=algin,images=images,empleave=empleave)\n\t\n@auth.requires_permission(\'Mgr\', \'auth_user\')\t\t\ndef emp_edit_leave():\n\tfor row in db(db.image.email == auth.user.email).select():\n\t\timages=row.image\n\t\t\n\tllgin=[]\n\tfor log in db(db.employee_login_detail.employee_logout_date==\'Logged in\').select():\n\t\tllgin.append(log.employee_name)\n\tblgin=set(llgin)\n\talgin=list(blgin)\n\tfor row in db(db.apply_leave.id==request.args(0)).select():\n\t\tid=row.id\n\t\teid=row.employee_code\n\t\testat=row.status\n\t\teltype=row.leave_type\n\t\tefrom=row.from_leave\n\t\teto=row.to_leave\n\t\tereason=row.reason_for_leave\n\t\tetotday=row.total_day\n\treturn dict(algin=algin,id=id,images=images,eid=eid,estat=estat,eltype=eltype,efrom=efrom,eto=eto,ereason=ereason,etotday=etotday)\n\t\n@auth.requires_permission(\'Mgr\', \'auth_user\')\t\t\ndef emp_approve_leave():\n\tfor row in db(db.apply_leave.id==request.args(0)).select():\n\t\tsession.elmail=row.email\n\t\tsession.eempname=row.name\n\t\tsession.eefrom=row.from_leave\n\t\tsession.eeto=row.to_leave\n\t\tsession.estatus=request.vars.status\n\t\tsession.eltype=row.leave_type\n\t\tsession.etday=row.total_day\n\tif session.estatus == \'Approved\':\n\t\tif session.eltype == \'Casual Leave\':\n\t\t\tfor row in db(db.employee_leave.email==session.elmail).select():\n\t\t\t\ttotday=row.left_casual_leave - session.etday\n\t\t\tdb(db.apply_leave.id==request.args(0)).update(status=session.estatus, approved_by=\'Reporting Manager\')\n\t\t\tdb(db.employee_leave.email==session.elmail).update(taken_casual_leave=session.etday,left_casual_leave=totday)\n\t\t\tdb.commit()\n\t\t\tredirect(URL(c=\'default\', f=\'emp_leave_mail\'))\n\t\telif session.eltype == \'Medical Leave\':\n\t\t\tfor row in db(db.employee_leave.email==session.elmail).select():\n\t\t\t\ttotday=row.left_medical_leave - session.etday\n\t\t\tdb(db.apply_leave.id==request.args(0)).update(status=session.estatus, approved_by=\'Reporting Manager\')\n\t\t\tdb(db.employee_leave.email==session.elmail).update(taken_medical_leave=session.etday,left_medical_leave=totday)\n\t\t\tdb.commit()\n\t\t\tredirect(URL(c=\'default\', f=\'emp_leave_mail\'))\n\t\telif session.eltype == \'Vacation Leave\':\n\t\t\tfor row in db(db.employee_leave.email==session.elmail).select():\n\t\t\t\ttotday=row.left_vacation_leave - session.etday\n\t\t\tdb(db.apply_leave.id==request.args(0)).update(status=session.estatus, approved_by=\'Reporting Manager\')\n\t\t\tdb(db.employee_leave.email==session.elmail).update(taken_vacation_leave=session.etday,left_vacation_leave=totday)\n\t\t\tdb.commit()\n\t\t\tredirect(URL(c=\'default\', f=\'emp_leave_mail\'))\n\t\telse:\n\t\t\tpass\n\telse:\n\t\tdb(db.apply_leave.id==request.args(0)).update(status=session.estatus, approved_by=\'Reporting Manager\')\n\t\tdb.commit()\n\t\tredirect(URL(c=\'default\', f=\'emp_leave_mail\'))\n\treturn \'\'\n\t\n@auth.requires_permission(\'Mgr\', \'auth_user\')\t\ndef emp_leave_mail():\n    from gluon.tools import Mail\n    mail=Mail()\n    #specify server\n    mail=auth.settings.mailer\n    mail.settings.server=\'smtp.gmail.com:587\'\n    mail.settings.login=\'themisdemo1@gmail.com:123456asdfg\'\n    #specify address to send as\n    mail.settings.sender=\'themisdemo1@gmail.com\'\n    #send the message                             \n    mail.send(to=[session.elmail],\n            subject=\'Leave Status\',\n            message=\'<html>\'\n                        \'<body>\'\n                            \'<span style="font-family: Bodoni MT Ultra Bold;color:  #000000 ;font-size : 18pt;"><b>Themis </span></h1><span style="font-family: Bodoni MT Ultra Bold;color:#C7A317   ;font-size :18pt;"><b>Lexsol</b></span>\'\n                            \n                            \'<p>Dear &nbsp;\'+session.eempname+\'</p>\'\n                            \n                            \'<p>I just wanted to drop you a quick message to say Your leave request from \'+str(session.eefrom)+\' to \'+str(session.eeto)+\' is \'+session.estatus+\' If you need help at any time, please contact me by replying to this message. Similarly, if you ever have any questions then please do not hesitate to send me a message or email.</p>\'\n                            \'<center><p>_________________________________________________________</p><p style="color:red;font-size :5pt;">This email comes to you since you are subcribed for HRMS. TO unsubcribed please contact to Themis Lexsol</p></center>\'\n                      \n                        \'</body>\'\n                    \'</html>\'\n                    \n  )\n    redirect(URL(c=\'default\', f=\'emp_cnf_leave\'))\t\n    return \'\'\n    \n@auth.requires_permission(\'Mgr\', \'auth_user\')\t\ndef emp_cnf_leave():\n\tfor row2 in db(db.image.email == auth.user.email).select():\n\t\timages=row2.image\n\t\t\n\tllgin=[]\n\tfor log in db(db.employee_login_detail.employee_logout_date==\'Logged in\').select():\n\t\tllgin.append(log.employee_name)\n\tblgin=set(llgin)\n\talgin=list(blgin)\n\treturn dict(algin=algin,images=images,status=session.estatus,efrom=session.eefrom,eto=session.eeto,empname=session.eempname)\n\t\n@auth.requires_permission(\'Mgr\', \'auth_user\')\ndef emp_edit_leave_status():\n\tfor row2 in db(db.image.email == auth.user.email).select():\n\t\timages=row2.image\n\t\t\n\tllgin=[]\n\tfor log in db(db.employee_login_detail.employee_logout_date==\'Logged in\').select():\n\t\tllgin.append(log.employee_name)\n\tblgin=set(llgin)\n\talgin=list(blgin)\n\tltype=[\'Casual Leave\',\'Medical Leave\',\'Vacation Leave\']\n\tsession.eeleaveid=request.args(0)\n\tfor row in db(db.apply_leave.id==session.eeleaveid).select():\n\t\tecode=row.employee_code\n\t\tname=row.name\n\t\tfle=row.from_leave\n\t\ttle=row.to_leave\n\t\ttday=row.total_day\n\t\trle=row.reason_for_leave\n\t\teltype=row.leave_type\n\treturn dict(algin=algin,ltype=ltype,images=images,ecode=ecode,name=name,fle=fle,tle=tle,tday=tday,rle=rle,eltype=eltype)\n\n@auth.requires_permission(\'Mgr\', \'auth_user\')\t\ndef emp_submit_edit_leave_status():\n\tdb(db.apply_leave.id == session.eeleaveid).update(name=request.vars.name, leave_type=request.vars.ltype, from_leave=request.vars.fleave, to_leave=request.vars.tleave, total_day=request.vars.tday, reason_for_leave=request.vars.rleave)\n\tdb.commit()\n\tredirect(URL(c=\'default\',f=\'emp_leave_stat\'))\n\treturn \'\'\n\n@auth.requires_permission(\'Emp\', \'auth_user\')\ndef user_timesheet():\n\tfor row2 in db(db.image.email == auth.user.email).select():\n\t\timages=row2.image\n\t\t\n\tllgin=[]\n\tfor log in db(db.employee_login_detail.employee_logout_date==\'Logged in\').select():\n\t\tllgin.append(log.employee_name)\n\tblgin=set(llgin)\n\talgin=list(blgin)\n\treturn dict(images=images,algin=algin)\t \n\n@auth.requires_permission(\'Emp\', \'auth_user\')\t\ndef adata():\n\timport datetime\n\tdte=datetime.date.today()\n\tpro=request.vars.proname\n\tptask=request.vars.protask\n\tptime=request.vars.protime\n\tfor row in db(db.auth_user.email==auth.user.email).select():\n\t\trmgr=row.reporting_manager\n\treturn TABLE([TR("Project Name:",INPUT(_type="text",_name="proj",_value=pro,_readonly="readonly")),TR("Client Name:",INPUT(_type="text",_name="client",_value="Client",_readonly="readonly")),TR("Reporting Manager:",INPUT(_type="text",_name="rpm",_value=rmgr,_readonly="readonly")),TR("Project Task:",INPUT(_type="text",_name="protsk",_value=ptask,_readonly="readonly")),TR("Date:",INPUT(_type="text",_name="dte",_value=dte,_readonly="readonly")),TR("Task Discription:",INPUT(_type="text",_name="tskdisc",_value="")),TR("Total Time:",INPUT(_type="text",_name="tottme",_value=ptime))])\n\nresponse._vars=response._caller(admin_newuser)\n'
p7
sS'snapshot'
p8
(dp9
S'exception'
p10
(dp11
S'__hash__'
p12
S"<method-wrapper '__hash__' of exceptions.AttributeError object>"
p13
sS'__setattr__'
p14
S"<method-wrapper '__setattr__' of exceptions.AttributeError object>"
p15
sS'__reduce_ex__'
p16
S'<built-in method __reduce_ex__ of exceptions.AttributeError object>'
p17
sS'__getslice__'
p18
S"<method-wrapper '__getslice__' of exceptions.AttributeError object>"
p19
sS'__getitem__'
p20
S"<method-wrapper '__getitem__' of exceptions.AttributeError object>"
p21
sS'__setstate__'
p22
S'<built-in method __setstate__ of exceptions.AttributeError object>'
p23
sS'__reduce__'
p24
S'<built-in method __reduce__ of exceptions.AttributeError object>'
p25
sS'__str__'
p26
S"<method-wrapper '__str__' of exceptions.AttributeError object>"
p27
sS'__format__'
p28
S'<built-in method __format__ of exceptions.AttributeError object>'
p29
sS'__getattribute__'
p30
S"<method-wrapper '__getattribute__' of exceptions.AttributeError object>"
p31
sS'__class__'
p32
S"<type 'exceptions.AttributeError'>"
p33
sS'__unicode__'
p34
S'<built-in method __unicode__ of exceptions.AttributeError object>'
p35
sS'__delattr__'
p36
S"<method-wrapper '__delattr__' of exceptions.AttributeError object>"
p37
sS'__subclasshook__'
p38
S'<built-in method __subclasshook__ of type object>'
p39
sS'__repr__'
p40
S"<method-wrapper '__repr__' of exceptions.AttributeError object>"
p41
sS'args'
p42
S'("\'NoneType\' object has no attribute \'organization_name\'",)'
p43
sS'__dict__'
p44
S'{}'
p45
sS'__sizeof__'
p46
S'<built-in method __sizeof__ of exceptions.AttributeError object>'
p47
sS'__doc__'
p48
S"'Attribute not found.'"
p49
sS'__init__'
p50
S"<method-wrapper '__init__' of exceptions.AttributeError object>"
p51
sS'__new__'
p52
S'<built-in method __new__ of type object>'
p53
ssS'evalue'
p54
S"'NoneType' object has no attribute 'organization_name'"
p55
sS'request'
p56
ccopy_reg
_reconstructor
p57
(cgluon.html
BEAUTIFY
p58
c__builtin__
object
p59
NtRp60
(dp61
S'attributes'
p62
(dp63
sS'components'
p64
(lp65
g57
(cgluon.html
TABLE
p66
g59
NtRp67
(dp68
g62
(dp69
S'level'
p70
I5
ssS'parent'
p71
Nsg64
(lp72
g57
(cgluon.html
TR
p73
g59
NtRp74
(dp75
g62
(dp76
sg71
g67
sg64
(lp77
g57
(cgluon.html
TD
p78
g59
NtRp79
(dp80
g62
(dp81
S'_style'
p82
S'font-weight:bold;vertical-align:top'
p83
ssg71
g74
sg64
(lp84
S'ajax'
p85
asbag57
(g78
g59
NtRp86
(dp87
g62
(dp88
S'_valign'
p89
S'top'
p90
ssg71
g74
sg64
(lp91
S':'
asbag57
(g78
g59
NtRp92
(dp93
g62
(dp94
sg71
g74
sg64
(lp95
g57
(g58
g59
NtRp96
(dp97
g62
(dp98
g70
I5
ssg71
g92
sg64
(lp99
S'False'
p100
asbasbasbag57
(g73
g59
NtRp101
(dp102
g62
(dp103
sg71
g67
sg64
(lp104
g57
(g78
g59
NtRp105
(dp106
g62
(dp107
g82
g83
ssg71
g101
sg64
(lp108
S'application'
p109
asbag57
(g78
g59
NtRp110
(dp111
g62
(dp112
g89
g90
ssg71
g101
sg64
(lp113
S':'
asbag57
(g78
g59
NtRp114
(dp115
g62
(dp116
sg71
g101
sg64
(lp117
g57
(g58
g59
NtRp118
(dp119
g62
(dp120
g70
I5
ssg71
g114
sg64
(lp121
S'themishrms'
p122
asbasbasbag57
(g73
g59
NtRp123
(dp124
g62
(dp125
sg71
g67
sg64
(lp126
g57
(g78
g59
NtRp127
(dp128
g62
(dp129
g82
g83
ssg71
g123
sg64
(lp130
g42
asbag57
(g78
g59
NtRp131
(dp132
g62
(dp133
g89
g90
ssg71
g123
sg64
(lp134
S':'
asbag57
(g78
g59
NtRp135
(dp136
g62
(dp137
sg71
g123
sg64
(lp138
g57
(g58
g59
NtRp139
(dp140
g62
(dp141
g70
I5
ssg71
g135
sg64
(lp142
g57
(g66
g59
NtRp143
(dp144
g62
(dp145
g70
I4
ssg71
Nsg64
(lp146
sbasbasbasbag57
(g73
g59
NtRp147
(dp148
g62
(dp149
sg71
g67
sg64
(lp150
g57
(g78
g59
NtRp151
(dp152
g62
(dp153
g82
g83
ssg71
g147
sg64
(lp154
S'body'
p155
asbag57
(g78
g59
NtRp156
(dp157
g62
(dp158
g89
g90
ssg71
g147
sg64
(lp159
S':'
asbag57
(g78
g59
NtRp160
(dp161
g62
(dp162
sg71
g147
sg64
(lp163
g57
(g58
g59
NtRp164
(dp165
g62
(dp166
g70
I5
ssg71
g160
sg64
(lp167
S'<cStringIO.StringO object at 0xb4ae180>'
p168
asbasbasbag57
(g73
g59
NtRp169
(dp170
g62
(dp171
sg71
g67
sg64
(lp172
g57
(g78
g59
NtRp173
(dp174
g62
(dp175
g82
g83
ssg71
g169
sg64
(lp176
S'client'
p177
asbag57
(g78
g59
NtRp178
(dp179
g62
(dp180
g89
g90
ssg71
g169
sg64
(lp181
S':'
asbag57
(g78
g59
NtRp182
(dp183
g62
(dp184
sg71
g169
sg64
(lp185
g57
(g58
g59
NtRp186
(dp187
g62
(dp188
g70
I5
ssg71
g182
sg64
(lp189
S'127.0.0.1'
p190
asbasbasbag57
(g73
g59
NtRp191
(dp192
g62
(dp193
sg71
g67
sg64
(lp194
g57
(g78
g59
NtRp195
(dp196
g62
(dp197
g82
g83
ssg71
g191
sg64
(lp198
S'controller'
p199
asbag57
(g78
g59
NtRp200
(dp201
g62
(dp202
g89
g90
ssg71
g191
sg64
(lp203
S':'
asbag57
(g78
g59
NtRp204
(dp205
g62
(dp206
sg71
g191
sg64
(lp207
g57
(g58
g59
NtRp208
(dp209
g62
(dp210
g70
I5
ssg71
g204
sg64
(lp211
S'default'
p212
asbasbasbag57
(g73
g59
NtRp213
(dp214
g62
(dp215
sg71
g67
sg64
(lp216
g57
(g78
g59
NtRp217
(dp218
g62
(dp219
g82
g83
ssg71
g213
sg64
(lp220
S'cookies'
p221
asbag57
(g78
g59
NtRp222
(dp223
g62
(dp224
g89
g90
ssg71
g213
sg64
(lp225
S':'
asbag57
(g78
g59
NtRp226
(dp227
g62
(dp228
sg71
g213
sg64
(lp229
g57
(g58
g59
NtRp230
(dp231
g62
(dp232
g70
I5
ssg71
g226
sg64
(lp233
g57
(g66
g59
NtRp234
(dp235
g62
(dp236
g70
I4
ssg71
Nsg64
(lp237
g57
(g73
g59
NtRp238
(dp239
g62
(dp240
sg71
g234
sg64
(lp241
g57
(g78
g59
NtRp242
(dp243
g62
(dp244
g82
g83
ssg71
g238
sg64
(lp245
S'mypanel'
p246
asbag57
(g78
g59
NtRp247
(dp248
g62
(dp249
g89
g90
ssg71
g238
sg64
(lp250
S':'
asbag57
(g78
g59
NtRp251
(dp252
g62
(dp253
sg71
g238
sg64
(lp254
g57
(g58
g59
NtRp255
(dp256
g62
(dp257
g70
I4
ssg71
g251
sg64
(lp258
g57
(g66
g59
NtRp259
(dp260
g62
(dp261
g70
I3
ssg71
Nsg64
(lp262
g57
(g73
g59
NtRp263
(dp264
g62
(dp265
sg71
g259
sg64
(lp266
g57
(g78
g59
NtRp267
(dp268
g62
(dp269
g82
g83
ssg71
g263
sg64
(lp270
S'comment'
p271
asbag57
(g78
g59
NtRp272
(dp273
g62
(dp274
g89
g90
ssg71
g263
sg64
(lp275
S':'
asbag57
(g78
g59
NtRp276
(dp277
g62
(dp278
sg71
g263
sg64
(lp279
g57
(g58
g59
NtRp280
(dp281
g62
(dp282
g70
I3
ssg71
g276
sg64
(lp283
S''
asbasbasbag57
(g73
g59
NtRp284
(dp285
g62
(dp286
sg71
g259
sg64
(lp287
g57
(g78
g59
NtRp288
(dp289
g62
(dp290
g82
g83
ssg71
g284
sg64
(lp291
S'domain'
p292
asbag57
(g78
g59
NtRp293
(dp294
g62
(dp295
g89
g90
ssg71
g284
sg64
(lp296
S':'
asbag57
(g78
g59
NtRp297
(dp298
g62
(dp299
sg71
g284
sg64
(lp300
g57
(g58
g59
NtRp301
(dp302
g62
(dp303
g70
I3
ssg71
g297
sg64
(lp304
S''
asbasbasbag57
(g73
g59
NtRp305
(dp306
g62
(dp307
sg71
g259
sg64
(lp308
g57
(g78
g59
NtRp309
(dp310
g62
(dp311
g82
g83
ssg71
g305
sg64
(lp312
S'expires'
p313
asbag57
(g78
g59
NtRp314
(dp315
g62
(dp316
g89
g90
ssg71
g305
sg64
(lp317
S':'
asbag57
(g78
g59
NtRp318
(dp319
g62
(dp320
sg71
g305
sg64
(lp321
g57
(g58
g59
NtRp322
(dp323
g62
(dp324
g70
I3
ssg71
g318
sg64
(lp325
S''
asbasbasbag57
(g73
g59
NtRp326
(dp327
g62
(dp328
sg71
g259
sg64
(lp329
g57
(g78
g59
NtRp330
(dp331
g62
(dp332
g82
g83
ssg71
g326
sg64
(lp333
S'httponly'
p334
asbag57
(g78
g59
NtRp335
(dp336
g62
(dp337
g89
g90
ssg71
g326
sg64
(lp338
S':'
asbag57
(g78
g59
NtRp339
(dp340
g62
(dp341
sg71
g326
sg64
(lp342
g57
(g58
g59
NtRp343
(dp344
g62
(dp345
g70
I3
ssg71
g339
sg64
(lp346
S''
asbasbasbag57
(g73
g59
NtRp347
(dp348
g62
(dp349
sg71
g259
sg64
(lp350
g57
(g78
g59
NtRp351
(dp352
g62
(dp353
g82
g83
ssg71
g347
sg64
(lp354
S'max-age'
p355
asbag57
(g78
g59
NtRp356
(dp357
g62
(dp358
g89
g90
ssg71
g347
sg64
(lp359
S':'
asbag57
(g78
g59
NtRp360
(dp361
g62
(dp362
sg71
g347
sg64
(lp363
g57
(g58
g59
NtRp364
(dp365
g62
(dp366
g70
I3
ssg71
g360
sg64
(lp367
S''
asbasbasbag57
(g73
g59
NtRp368
(dp369
g62
(dp370
sg71
g259
sg64
(lp371
g57
(g78
g59
NtRp372
(dp373
g62
(dp374
g82
g83
ssg71
g368
sg64
(lp375
S'path'
p376
asbag57
(g78
g59
NtRp377
(dp378
g62
(dp379
g89
g90
ssg71
g368
sg64
(lp380
S':'
asbag57
(g78
g59
NtRp381
(dp382
g62
(dp383
sg71
g368
sg64
(lp384
g57
(g58
g59
NtRp385
(dp386
g62
(dp387
g70
I3
ssg71
g381
sg64
(lp388
S''
asbasbasbag57
(g73
g59
NtRp389
(dp390
g62
(dp391
sg71
g259
sg64
(lp392
g57
(g78
g59
NtRp393
(dp394
g62
(dp395
g82
g83
ssg71
g389
sg64
(lp396
S'secure'
p397
asbag57
(g78
g59
NtRp398
(dp399
g62
(dp400
g89
g90
ssg71
g389
sg64
(lp401
S':'
asbag57
(g78
g59
NtRp402
(dp403
g62
(dp404
sg71
g389
sg64
(lp405
g57
(g58
g59
NtRp406
(dp407
g62
(dp408
g70
I3
ssg71
g402
sg64
(lp409
S''
asbasbasbag57
(g73
g59
NtRp410
(dp411
g62
(dp412
sg71
g259
sg64
(lp413
g57
(g78
g59
NtRp414
(dp415
g62
(dp416
g82
g83
ssg71
g410
sg64
(lp417
S'version'
p418
asbag57
(g78
g59
NtRp419
(dp420
g62
(dp421
g89
g90
ssg71
g410
sg64
(lp422
S':'
asbag57
(g78
g59
NtRp423
(dp424
g62
(dp425
sg71
g410
sg64
(lp426
g57
(g58
g59
NtRp427
(dp428
g62
(dp429
g70
I3
ssg71
g423
sg64
(lp430
S''
asbasbasbasbasbasbasbag57
(g73
g59
NtRp431
(dp432
g62
(dp433
sg71
g234
sg64
(lp434
g57
(g78
g59
NtRp435
(dp436
g62
(dp437
g82
g83
ssg71
g431
sg64
(lp438
S'session_id_admin'
p439
asbag57
(g78
g59
NtRp440
(dp441
g62
(dp442
g89
g90
ssg71
g431
sg64
(lp443
S':'
asbag57
(g78
g59
NtRp444
(dp445
g62
(dp446
sg71
g431
sg64
(lp447
g57
(g58
g59
NtRp448
(dp449
g62
(dp450
g70
I4
ssg71
g444
sg64
(lp451
g57
(g66
g59
NtRp452
(dp453
g62
(dp454
g70
I3
ssg71
Nsg64
(lp455
g57
(g73
g59
NtRp456
(dp457
g62
(dp458
sg71
g452
sg64
(lp459
g57
(g78
g59
NtRp460
(dp461
g62
(dp462
g82
g83
ssg71
g456
sg64
(lp463
g271
asbag57
(g78
g59
NtRp464
(dp465
g62
(dp466
g89
g90
ssg71
g456
sg64
(lp467
S':'
asbag57
(g78
g59
NtRp468
(dp469
g62
(dp470
sg71
g456
sg64
(lp471
g57
(g58
g59
NtRp472
(dp473
g62
(dp474
g70
I3
ssg71
g468
sg64
(lp475
S''
asbasbasbag57
(g73
g59
NtRp476
(dp477
g62
(dp478
sg71
g452
sg64
(lp479
g57
(g78
g59
NtRp480
(dp481
g62
(dp482
g82
g83
ssg71
g476
sg64
(lp483
g292
asbag57
(g78
g59
NtRp484
(dp485
g62
(dp486
g89
g90
ssg71
g476
sg64
(lp487
S':'
asbag57
(g78
g59
NtRp488
(dp489
g62
(dp490
sg71
g476
sg64
(lp491
g57
(g58
g59
NtRp492
(dp493
g62
(dp494
g70
I3
ssg71
g488
sg64
(lp495
S''
asbasbasbag57
(g73
g59
NtRp496
(dp497
g62
(dp498
sg71
g452
sg64
(lp499
g57
(g78
g59
NtRp500
(dp501
g62
(dp502
g82
g83
ssg71
g496
sg64
(lp503
g313
asbag57
(g78
g59
NtRp504
(dp505
g62
(dp506
g89
g90
ssg71
g496
sg64
(lp507
S':'
asbag57
(g78
g59
NtRp508
(dp509
g62
(dp510
sg71
g496
sg64
(lp511
g57
(g58
g59
NtRp512
(dp513
g62
(dp514
g70
I3
ssg71
g508
sg64
(lp515
S''
asbasbasbag57
(g73
g59
NtRp516
(dp517
g62
(dp518
sg71
g452
sg64
(lp519
g57
(g78
g59
NtRp520
(dp521
g62
(dp522
g82
g83
ssg71
g516
sg64
(lp523
g334
asbag57
(g78
g59
NtRp524
(dp525
g62
(dp526
g89
g90
ssg71
g516
sg64
(lp527
S':'
asbag57
(g78
g59
NtRp528
(dp529
g62
(dp530
sg71
g516
sg64
(lp531
g57
(g58
g59
NtRp532
(dp533
g62
(dp534
g70
I3
ssg71
g528
sg64
(lp535
S''
asbasbasbag57
(g73
g59
NtRp536
(dp537
g62
(dp538
sg71
g452
sg64
(lp539
g57
(g78
g59
NtRp540
(dp541
g62
(dp542
g82
g83
ssg71
g536
sg64
(lp543
g355
asbag57
(g78
g59
NtRp544
(dp545
g62
(dp546
g89
g90
ssg71
g536
sg64
(lp547
S':'
asbag57
(g78
g59
NtRp548
(dp549
g62
(dp550
sg71
g536
sg64
(lp551
g57
(g58
g59
NtRp552
(dp553
g62
(dp554
g70
I3
ssg71
g548
sg64
(lp555
S''
asbasbasbag57
(g73
g59
NtRp556
(dp557
g62
(dp558
sg71
g452
sg64
(lp559
g57
(g78
g59
NtRp560
(dp561
g62
(dp562
g82
g83
ssg71
g556
sg64
(lp563
g376
asbag57
(g78
g59
NtRp564
(dp565
g62
(dp566
g89
g90
ssg71
g556
sg64
(lp567
S':'
asbag57
(g78
g59
NtRp568
(dp569
g62
(dp570
sg71
g556
sg64
(lp571
g57
(g58
g59
NtRp572
(dp573
g62
(dp574
g70
I3
ssg71
g568
sg64
(lp575
S''
asbasbasbag57
(g73
g59
NtRp576
(dp577
g62
(dp578
sg71
g452
sg64
(lp579
g57
(g78
g59
NtRp580
(dp581
g62
(dp582
g82
g83
ssg71
g576
sg64
(lp583
g397
asbag57
(g78
g59
NtRp584
(dp585
g62
(dp586
g89
g90
ssg71
g576
sg64
(lp587
S':'
asbag57
(g78
g59
NtRp588
(dp589
g62
(dp590
sg71
g576
sg64
(lp591
g57
(g58
g59
NtRp592
(dp593
g62
(dp594
g70
I3
ssg71
g588
sg64
(lp595
S''
asbasbasbag57
(g73
g59
NtRp596
(dp597
g62
(dp598
sg71
g452
sg64
(lp599
g57
(g78
g59
NtRp600
(dp601
g62
(dp602
g82
g83
ssg71
g596
sg64
(lp603
g418
asbag57
(g78
g59
NtRp604
(dp605
g62
(dp606
g89
g90
ssg71
g596
sg64
(lp607
S':'
asbag57
(g78
g59
NtRp608
(dp609
g62
(dp610
sg71
g596
sg64
(lp611
g57
(g58
g59
NtRp612
(dp613
g62
(dp614
g70
I3
ssg71
g608
sg64
(lp615
S''
asbasbasbasbasbasbasbag57
(g73
g59
NtRp616
(dp617
g62
(dp618
sg71
g234
sg64
(lp619
g57
(g78
g59
NtRp620
(dp621
g62
(dp622
g82
g83
ssg71
g616
sg64
(lp623
S'session_id_themishrms'
p624
asbag57
(g78
g59
NtRp625
(dp626
g62
(dp627
g89
g90
ssg71
g616
sg64
(lp628
S':'
asbag57
(g78
g59
NtRp629
(dp630
g62
(dp631
sg71
g616
sg64
(lp632
g57
(g58
g59
NtRp633
(dp634
g62
(dp635
g70
I4
ssg71
g629
sg64
(lp636
g57
(g66
g59
NtRp637
(dp638
g62
(dp639
g70
I3
ssg71
Nsg64
(lp640
g57
(g73
g59
NtRp641
(dp642
g62
(dp643
sg71
g637
sg64
(lp644
g57
(g78
g59
NtRp645
(dp646
g62
(dp647
g82
g83
ssg71
g641
sg64
(lp648
g271
asbag57
(g78
g59
NtRp649
(dp650
g62
(dp651
g89
g90
ssg71
g641
sg64
(lp652
S':'
asbag57
(g78
g59
NtRp653
(dp654
g62
(dp655
sg71
g641
sg64
(lp656
g57
(g58
g59
NtRp657
(dp658
g62
(dp659
g70
I3
ssg71
g653
sg64
(lp660
S''
asbasbasbag57
(g73
g59
NtRp661
(dp662
g62
(dp663
sg71
g637
sg64
(lp664
g57
(g78
g59
NtRp665
(dp666
g62
(dp667
g82
g83
ssg71
g661
sg64
(lp668
g292
asbag57
(g78
g59
NtRp669
(dp670
g62
(dp671
g89
g90
ssg71
g661
sg64
(lp672
S':'
asbag57
(g78
g59
NtRp673
(dp674
g62
(dp675
sg71
g661
sg64
(lp676
g57
(g58
g59
NtRp677
(dp678
g62
(dp679
g70
I3
ssg71
g673
sg64
(lp680
S''
asbasbasbag57
(g73
g59
NtRp681
(dp682
g62
(dp683
sg71
g637
sg64
(lp684
g57
(g78
g59
NtRp685
(dp686
g62
(dp687
g82
g83
ssg71
g681
sg64
(lp688
g313
asbag57
(g78
g59
NtRp689
(dp690
g62
(dp691
g89
g90
ssg71
g681
sg64
(lp692
S':'
asbag57
(g78
g59
NtRp693
(dp694
g62
(dp695
sg71
g681
sg64
(lp696
g57
(g58
g59
NtRp697
(dp698
g62
(dp699
g70
I3
ssg71
g693
sg64
(lp700
S''
asbasbasbag57
(g73
g59
NtRp701
(dp702
g62
(dp703
sg71
g637
sg64
(lp704
g57
(g78
g59
NtRp705
(dp706
g62
(dp707
g82
g83
ssg71
g701
sg64
(lp708
g334
asbag57
(g78
g59
NtRp709
(dp710
g62
(dp711
g89
g90
ssg71
g701
sg64
(lp712
S':'
asbag57
(g78
g59
NtRp713
(dp714
g62
(dp715
sg71
g701
sg64
(lp716
g57
(g58
g59
NtRp717
(dp718
g62
(dp719
g70
I3
ssg71
g713
sg64
(lp720
S''
asbasbasbag57
(g73
g59
NtRp721
(dp722
g62
(dp723
sg71
g637
sg64
(lp724
g57
(g78
g59
NtRp725
(dp726
g62
(dp727
g82
g83
ssg71
g721
sg64
(lp728
g355
asbag57
(g78
g59
NtRp729
(dp730
g62
(dp731
g89
g90
ssg71
g721
sg64
(lp732
S':'
asbag57
(g78
g59
NtRp733
(dp734
g62
(dp735
sg71
g721
sg64
(lp736
g57
(g58
g59
NtRp737
(dp738
g62
(dp739
g70
I3
ssg71
g733
sg64
(lp740
S''
asbasbasbag57
(g73
g59
NtRp741
(dp742
g62
(dp743
sg71
g637
sg64
(lp744
g57
(g78
g59
NtRp745
(dp746
g62
(dp747
g82
g83
ssg71
g741
sg64
(lp748
g376
asbag57
(g78
g59
NtRp749
(dp750
g62
(dp751
g89
g90
ssg71
g741
sg64
(lp752
S':'
asbag57
(g78
g59
NtRp753
(dp754
g62
(dp755
sg71
g741
sg64
(lp756
g57
(g58
g59
NtRp757
(dp758
g62
(dp759
g70
I3
ssg71
g753
sg64
(lp760
S''
asbasbasbag57
(g73
g59
NtRp761
(dp762
g62
(dp763
sg71
g637
sg64
(lp764
g57
(g78
g59
NtRp765
(dp766
g62
(dp767
g82
g83
ssg71
g761
sg64
(lp768
g397
asbag57
(g78
g59
NtRp769
(dp770
g62
(dp771
g89
g90
ssg71
g761
sg64
(lp772
S':'
asbag57
(g78
g59
NtRp773
(dp774
g62
(dp775
sg71
g761
sg64
(lp776
g57
(g58
g59
NtRp777
(dp778
g62
(dp779
g70
I3
ssg71
g773
sg64
(lp780
S''
asbasbasbag57
(g73
g59
NtRp781
(dp782
g62
(dp783
sg71
g637
sg64
(lp784
g57
(g78
g59
NtRp785
(dp786
g62
(dp787
g82
g83
ssg71
g781
sg64
(lp788
g418
asbag57
(g78
g59
NtRp789
(dp790
g62
(dp791
g89
g90
ssg71
g781
sg64
(lp792
S':'
asbag57
(g78
g59
NtRp793
(dp794
g62
(dp795
sg71
g781
sg64
(lp796
g57
(g58
g59
NtRp797
(dp798
g62
(dp799
g70
I3
ssg71
g793
sg64
(lp800
S''
asbasbasbasbasbasbasbag57
(g73
g59
NtRp801
(dp802
g62
(dp803
sg71
g234
sg64
(lp804
g57
(g78
g59
NtRp805
(dp806
g62
(dp807
g82
g83
ssg71
g801
sg64
(lp808
S'session_id_welcome'
p809
asbag57
(g78
g59
NtRp810
(dp811
g62
(dp812
g89
g90
ssg71
g801
sg64
(lp813
S':'
asbag57
(g78
g59
NtRp814
(dp815
g62
(dp816
sg71
g801
sg64
(lp817
g57
(g58
g59
NtRp818
(dp819
g62
(dp820
g70
I4
ssg71
g814
sg64
(lp821
g57
(g66
g59
NtRp822
(dp823
g62
(dp824
g70
I3
ssg71
Nsg64
(lp825
g57
(g73
g59
NtRp826
(dp827
g62
(dp828
sg71
g822
sg64
(lp829
g57
(g78
g59
NtRp830
(dp831
g62
(dp832
g82
g83
ssg71
g826
sg64
(lp833
g271
asbag57
(g78
g59
NtRp834
(dp835
g62
(dp836
g89
g90
ssg71
g826
sg64
(lp837
S':'
asbag57
(g78
g59
NtRp838
(dp839
g62
(dp840
sg71
g826
sg64
(lp841
g57
(g58
g59
NtRp842
(dp843
g62
(dp844
g70
I3
ssg71
g838
sg64
(lp845
S''
asbasbasbag57
(g73
g59
NtRp846
(dp847
g62
(dp848
sg71
g822
sg64
(lp849
g57
(g78
g59
NtRp850
(dp851
g62
(dp852
g82
g83
ssg71
g846
sg64
(lp853
g292
asbag57
(g78
g59
NtRp854
(dp855
g62
(dp856
g89
g90
ssg71
g846
sg64
(lp857
S':'
asbag57
(g78
g59
NtRp858
(dp859
g62
(dp860
sg71
g846
sg64
(lp861
g57
(g58
g59
NtRp862
(dp863
g62
(dp864
g70
I3
ssg71
g858
sg64
(lp865
S''
asbasbasbag57
(g73
g59
NtRp866
(dp867
g62
(dp868
sg71
g822
sg64
(lp869
g57
(g78
g59
NtRp870
(dp871
g62
(dp872
g82
g83
ssg71
g866
sg64
(lp873
g313
asbag57
(g78
g59
NtRp874
(dp875
g62
(dp876
g89
g90
ssg71
g866
sg64
(lp877
S':'
asbag57
(g78
g59
NtRp878
(dp879
g62
(dp880
sg71
g866
sg64
(lp881
g57
(g58
g59
NtRp882
(dp883
g62
(dp884
g70
I3
ssg71
g878
sg64
(lp885
S''
asbasbasbag57
(g73
g59
NtRp886
(dp887
g62
(dp888
sg71
g822
sg64
(lp889
g57
(g78
g59
NtRp890
(dp891
g62
(dp892
g82
g83
ssg71
g886
sg64
(lp893
g334
asbag57
(g78
g59
NtRp894
(dp895
g62
(dp896
g89
g90
ssg71
g886
sg64
(lp897
S':'
asbag57
(g78
g59
NtRp898
(dp899
g62
(dp900
sg71
g886
sg64
(lp901
g57
(g58
g59
NtRp902
(dp903
g62
(dp904
g70
I3
ssg71
g898
sg64
(lp905
S''
asbasbasbag57
(g73
g59
NtRp906
(dp907
g62
(dp908
sg71
g822
sg64
(lp909
g57
(g78
g59
NtRp910
(dp911
g62
(dp912
g82
g83
ssg71
g906
sg64
(lp913
g355
asbag57
(g78
g59
NtRp914
(dp915
g62
(dp916
g89
g90
ssg71
g906
sg64
(lp917
S':'
asbag57
(g78
g59
NtRp918
(dp919
g62
(dp920
sg71
g906
sg64
(lp921
g57
(g58
g59
NtRp922
(dp923
g62
(dp924
g70
I3
ssg71
g918
sg64
(lp925
S''
asbasbasbag57
(g73
g59
NtRp926
(dp927
g62
(dp928
sg71
g822
sg64
(lp929
g57
(g78
g59
NtRp930
(dp931
g62
(dp932
g82
g83
ssg71
g926
sg64
(lp933
g376
asbag57
(g78
g59
NtRp934
(dp935
g62
(dp936
g89
g90
ssg71
g926
sg64
(lp937
S':'
asbag57
(g78
g59
NtRp938
(dp939
g62
(dp940
sg71
g926
sg64
(lp941
g57
(g58
g59
NtRp942
(dp943
g62
(dp944
g70
I3
ssg71
g938
sg64
(lp945
S''
asbasbasbag57
(g73
g59
NtRp946
(dp947
g62
(dp948
sg71
g822
sg64
(lp949
g57
(g78
g59
NtRp950
(dp951
g62
(dp952
g82
g83
ssg71
g946
sg64
(lp953
g397
asbag57
(g78
g59
NtRp954
(dp955
g62
(dp956
g89
g90
ssg71
g946
sg64
(lp957
S':'
asbag57
(g78
g59
NtRp958
(dp959
g62
(dp960
sg71
g946
sg64
(lp961
g57
(g58
g59
NtRp962
(dp963
g62
(dp964
g70
I3
ssg71
g958
sg64
(lp965
S''
asbasbasbag57
(g73
g59
NtRp966
(dp967
g62
(dp968
sg71
g822
sg64
(lp969
g57
(g78
g59
NtRp970
(dp971
g62
(dp972
g82
g83
ssg71
g966
sg64
(lp973
g418
asbag57
(g78
g59
NtRp974
(dp975
g62
(dp976
g89
g90
ssg71
g966
sg64
(lp977
S':'
asbag57
(g78
g59
NtRp978
(dp979
g62
(dp980
sg71
g966
sg64
(lp981
g57
(g58
g59
NtRp982
(dp983
g62
(dp984
g70
I3
ssg71
g978
sg64
(lp985
S''
asbasbasbasbasbasbasbag57
(g73
g59
NtRp986
(dp987
g62
(dp988
sg71
g234
sg64
(lp989
g57
(g78
g59
NtRp990
(dp991
g62
(dp992
g82
g83
ssg71
g986
sg64
(lp993
S'tls'
p994
asbag57
(g78
g59
NtRp995
(dp996
g62
(dp997
g89
g90
ssg71
g986
sg64
(lp998
S':'
asbag57
(g78
g59
NtRp999
(dp1000
g62
(dp1001
sg71
g986
sg64
(lp1002
g57
(g58
g59
NtRp1003
(dp1004
g62
(dp1005
g70
I4
ssg71
g999
sg64
(lp1006
g57
(g66
g59
NtRp1007
(dp1008
g62
(dp1009
g70
I3
ssg71
Nsg64
(lp1010
g57
(g73
g59
NtRp1011
(dp1012
g62
(dp1013
sg71
g1007
sg64
(lp1014
g57
(g78
g59
NtRp1015
(dp1016
g62
(dp1017
g82
g83
ssg71
g1011
sg64
(lp1018
g271
asbag57
(g78
g59
NtRp1019
(dp1020
g62
(dp1021
g89
g90
ssg71
g1011
sg64
(lp1022
S':'
asbag57
(g78
g59
NtRp1023
(dp1024
g62
(dp1025
sg71
g1011
sg64
(lp1026
g57
(g58
g59
NtRp1027
(dp1028
g62
(dp1029
g70
I3
ssg71
g1023
sg64
(lp1030
S''
asbasbasbag57
(g73
g59
NtRp1031
(dp1032
g62
(dp1033
sg71
g1007
sg64
(lp1034
g57
(g78
g59
NtRp1035
(dp1036
g62
(dp1037
g82
g83
ssg71
g1031
sg64
(lp1038
g292
asbag57
(g78
g59
NtRp1039
(dp1040
g62
(dp1041
g89
g90
ssg71
g1031
sg64
(lp1042
S':'
asbag57
(g78
g59
NtRp1043
(dp1044
g62
(dp1045
sg71
g1031
sg64
(lp1046
g57
(g58
g59
NtRp1047
(dp1048
g62
(dp1049
g70
I3
ssg71
g1043
sg64
(lp1050
S''
asbasbasbag57
(g73
g59
NtRp1051
(dp1052
g62
(dp1053
sg71
g1007
sg64
(lp1054
g57
(g78
g59
NtRp1055
(dp1056
g62
(dp1057
g82
g83
ssg71
g1051
sg64
(lp1058
g313
asbag57
(g78
g59
NtRp1059
(dp1060
g62
(dp1061
g89
g90
ssg71
g1051
sg64
(lp1062
S':'
asbag57
(g78
g59
NtRp1063
(dp1064
g62
(dp1065
sg71
g1051
sg64
(lp1066
g57
(g58
g59
NtRp1067
(dp1068
g62
(dp1069
g70
I3
ssg71
g1063
sg64
(lp1070
S''
asbasbasbag57
(g73
g59
NtRp1071
(dp1072
g62
(dp1073
sg71
g1007
sg64
(lp1074
g57
(g78
g59
NtRp1075
(dp1076
g62
(dp1077
g82
g83
ssg71
g1071
sg64
(lp1078
g334
asbag57
(g78
g59
NtRp1079
(dp1080
g62
(dp1081
g89
g90
ssg71
g1071
sg64
(lp1082
S':'
asbag57
(g78
g59
NtRp1083
(dp1084
g62
(dp1085
sg71
g1071
sg64
(lp1086
g57
(g58
g59
NtRp1087
(dp1088
g62
(dp1089
g70
I3
ssg71
g1083
sg64
(lp1090
S''
asbasbasbag57
(g73
g59
NtRp1091
(dp1092
g62
(dp1093
sg71
g1007
sg64
(lp1094
g57
(g78
g59
NtRp1095
(dp1096
g62
(dp1097
g82
g83
ssg71
g1091
sg64
(lp1098
g355
asbag57
(g78
g59
NtRp1099
(dp1100
g62
(dp1101
g89
g90
ssg71
g1091
sg64
(lp1102
S':'
asbag57
(g78
g59
NtRp1103
(dp1104
g62
(dp1105
sg71
g1091
sg64
(lp1106
g57
(g58
g59
NtRp1107
(dp1108
g62
(dp1109
g70
I3
ssg71
g1103
sg64
(lp1110
S''
asbasbasbag57
(g73
g59
NtRp1111
(dp1112
g62
(dp1113
sg71
g1007
sg64
(lp1114
g57
(g78
g59
NtRp1115
(dp1116
g62
(dp1117
g82
g83
ssg71
g1111
sg64
(lp1118
g376
asbag57
(g78
g59
NtRp1119
(dp1120
g62
(dp1121
g89
g90
ssg71
g1111
sg64
(lp1122
S':'
asbag57
(g78
g59
NtRp1123
(dp1124
g62
(dp1125
sg71
g1111
sg64
(lp1126
g57
(g58
g59
NtRp1127
(dp1128
g62
(dp1129
g70
I3
ssg71
g1123
sg64
(lp1130
S''
asbasbasbag57
(g73
g59
NtRp1131
(dp1132
g62
(dp1133
sg71
g1007
sg64
(lp1134
g57
(g78
g59
NtRp1135
(dp1136
g62
(dp1137
g82
g83
ssg71
g1131
sg64
(lp1138
g397
asbag57
(g78
g59
NtRp1139
(dp1140
g62
(dp1141
g89
g90
ssg71
g1131
sg64
(lp1142
S':'
asbag57
(g78
g59
NtRp1143
(dp1144
g62
(dp1145
sg71
g1131
sg64
(lp1146
g57
(g58
g59
NtRp1147
(dp1148
g62
(dp1149
g70
I3
ssg71
g1143
sg64
(lp1150
S''
asbasbasbag57
(g73
g59
NtRp1151
(dp1152
g62
(dp1153
sg71
g1007
sg64
(lp1154
g57
(g78
g59
NtRp1155
(dp1156
g62
(dp1157
g82
g83
ssg71
g1151
sg64
(lp1158
g418
asbag57
(g78
g59
NtRp1159
(dp1160
g62
(dp1161
g89
g90
ssg71
g1151
sg64
(lp1162
S':'
asbag57
(g78
g59
NtRp1163
(dp1164
g62
(dp1165
sg71
g1151
sg64
(lp1166
g57
(g58
g59
NtRp1167
(dp1168
g62
(dp1169
g70
I3
ssg71
g1163
sg64
(lp1170
S''
asbasbasbasbasbasbasbasbasbasbasbag57
(g73
g59
NtRp1171
(dp1172
g62
(dp1173
sg71
g67
sg64
(lp1174
g57
(g78
g59
NtRp1175
(dp1176
g62
(dp1177
g82
g83
ssg71
g1171
sg64
(lp1178
S'env'
p1179
asbag57
(g78
g59
NtRp1180
(dp1181
g62
(dp1182
g89
g90
ssg71
g1171
sg64
(lp1183
S':'
asbag57
(g78
g59
NtRp1184
(dp1185
g62
(dp1186
sg71
g1171
sg64
(lp1187
g57
(g58
g59
NtRp1188
(dp1189
g62
(dp1190
g70
I5
ssg71
g1184
sg64
(lp1191
g57
(g66
g59
NtRp1192
(dp1193
g62
(dp1194
g70
I4
ssg71
Nsg64
(lp1195
g57
(g73
g59
NtRp1196
(dp1197
g62
(dp1198
sg71
g1192
sg64
(lp1199
g57
(g78
g59
NtRp1200
(dp1201
g62
(dp1202
g82
g83
ssg71
g1196
sg64
(lp1203
S'app_folders'
p1204
asbag57
(g78
g59
NtRp1205
(dp1206
g62
(dp1207
g89
g90
ssg71
g1196
sg64
(lp1208
S':'
asbag57
(g78
g59
NtRp1209
(dp1210
g62
(dp1211
sg71
g1196
sg64
(lp1212
g57
(g58
g59
NtRp1213
(dp1214
g62
(dp1215
g70
I4
ssg71
g1209
sg64
(lp1216
S"set(['/home/sanjeet/Desktop/install/Development/web2py/applications/admin/', '/home/sanjeet/Desktop/install/Development/web2py/applications/themishrms/'])"
p1217
asbasbasbag57
(g73
g59
NtRp1218
(dp1219
g62
(dp1220
sg71
g1192
sg64
(lp1221
g57
(g78
g59
NtRp1222
(dp1223
g62
(dp1224
g82
g83
ssg71
g1218
sg64
(lp1225
S'applications_parent'
p1226
asbag57
(g78
g59
NtRp1227
(dp1228
g62
(dp1229
g89
g90
ssg71
g1218
sg64
(lp1230
S':'
asbag57
(g78
g59
NtRp1231
(dp1232
g62
(dp1233
sg71
g1218
sg64
(lp1234
g57
(g58
g59
NtRp1235
(dp1236
g62
(dp1237
g70
I4
ssg71
g1231
sg64
(lp1238
S'/home/sanjeet/Desktop/install/Development/web2py'
p1239
asbasbasbag57
(g73
g59
NtRp1240
(dp1241
g62
(dp1242
sg71
g1192
sg64
(lp1243
g57
(g78
g59
NtRp1244
(dp1245
g62
(dp1246
g82
g83
ssg71
g1240
sg64
(lp1247
S'cmd_args'
p1248
asbag57
(g78
g59
NtRp1249
(dp1250
g62
(dp1251
g89
g90
ssg71
g1240
sg64
(lp1252
S':'
asbag57
(g78
g59
NtRp1253
(dp1254
g62
(dp1255
sg71
g1240
sg64
(lp1256
g57
(g58
g59
NtRp1257
(dp1258
g62
(dp1259
g70
I4
ssg71
g1253
sg64
(lp1260
g57
(g66
g59
NtRp1261
(dp1262
g62
(dp1263
g70
I3
ssg71
Nsg64
(lp1264
sbasbasbasbag57
(g73
g59
NtRp1265
(dp1266
g62
(dp1267
sg71
g1192
sg64
(lp1268
g57
(g78
g59
NtRp1269
(dp1270
g62
(dp1271
g82
g83
ssg71
g1265
sg64
(lp1272
S'cmd_options'
p1273
asbag57
(g78
g59
NtRp1274
(dp1275
g62
(dp1276
g89
g90
ssg71
g1265
sg64
(lp1277
S':'
asbag57
(g78
g59
NtRp1278
(dp1279
g62
(dp1280
sg71
g1265
sg64
(lp1281
g57
(g58
g59
NtRp1282
(dp1283
g62
(dp1284
g70
I4
ssg71
g1278
sg64
(lp1285
S"<Values at 0xa4df68c: {'verbose': False, 'ip': '127.0.0.1', 'shutdown_timeout': 5, 'taskbar': False, 'nocron': False, 'pid_filename': 'httpserver.pid', 'maxthreads': None, 'softcron': False, 'server_name': 'sanjeet-laptop', 'bpython': False, 'nogui': False, 'port': 8000, 'extcron': False, 'debuglevel': 30, 'test': None, 'folder': '/home/sanjeet/Desktop/install/Development/web2py', 'config': '', 'import_models': False, 'winservice': '', 'shell': None, 'run': '', 'log_filename': 'httpserver.log', 'args': [''], 'socket_timeout': 5, 'ssl_ca_certificate': None, 'scheduler': None, 'profiler_filename': None, 'ssl_private_key': '', 'password': 'a', 'request_queue_size': 5, 'ssl_certificate': '', 'cronjob': False, 'numthreads': None, 'quiet': False, 'interfaces': None, 'minthreads': None, 'timeout': 10, 'plain': False, 'nobanner': False}>"
p1286
asbasbasbag57
(g73
g59
NtRp1287
(dp1288
g62
(dp1289
sg71
g1192
sg64
(lp1290
g57
(g78
g59
NtRp1291
(dp1292
g62
(dp1293
g82
g83
ssg71
g1287
sg64
(lp1294
S'db_sessions'
p1295
asbag57
(g78
g59
NtRp1296
(dp1297
g62
(dp1298
g89
g90
ssg71
g1287
sg64
(lp1299
S':'
asbag57
(g78
g59
NtRp1300
(dp1301
g62
(dp1302
sg71
g1287
sg64
(lp1303
g57
(g58
g59
NtRp1304
(dp1305
g62
(dp1306
g70
I4
ssg71
g1300
sg64
(lp1307
S'set([])'
p1308
asbasbasbag57
(g73
g59
NtRp1309
(dp1310
g62
(dp1311
sg71
g1192
sg64
(lp1312
g57
(g78
g59
NtRp1313
(dp1314
g62
(dp1315
g82
g83
ssg71
g1309
sg64
(lp1316
S'debugging'
p1317
asbag57
(g78
g59
NtRp1318
(dp1319
g62
(dp1320
g89
g90
ssg71
g1309
sg64
(lp1321
S':'
asbag57
(g78
g59
NtRp1322
(dp1323
g62
(dp1324
sg71
g1309
sg64
(lp1325
g57
(g58
g59
NtRp1326
(dp1327
g62
(dp1328
g70
I4
ssg71
g1322
sg64
(lp1329
g100
asbasbasbag57
(g73
g59
NtRp1330
(dp1331
g62
(dp1332
sg71
g1192
sg64
(lp1333
g57
(g78
g59
NtRp1334
(dp1335
g62
(dp1336
g82
g83
ssg71
g1330
sg64
(lp1337
S'gluon_parent'
p1338
asbag57
(g78
g59
NtRp1339
(dp1340
g62
(dp1341
g89
g90
ssg71
g1330
sg64
(lp1342
S':'
asbag57
(g78
g59
NtRp1343
(dp1344
g62
(dp1345
sg71
g1330
sg64
(lp1346
g57
(g58
g59
NtRp1347
(dp1348
g62
(dp1349
g70
I4
ssg71
g1343
sg64
(lp1350
S'/home/sanjeet/Desktop/install/Development/web2py'
p1351
asbasbasbag57
(g73
g59
NtRp1352
(dp1353
g62
(dp1354
sg71
g1192
sg64
(lp1355
g57
(g78
g59
NtRp1356
(dp1357
g62
(dp1358
g82
g83
ssg71
g1352
sg64
(lp1359
S'http_accept'
p1360
asbag57
(g78
g59
NtRp1361
(dp1362
g62
(dp1363
g89
g90
ssg71
g1352
sg64
(lp1364
S':'
asbag57
(g78
g59
NtRp1365
(dp1366
g62
(dp1367
sg71
g1352
sg64
(lp1368
g57
(g58
g59
NtRp1369
(dp1370
g62
(dp1371
g70
I4
ssg71
g1365
sg64
(lp1372
S'text/html,application/xhtml+xml,application/xml;q=0.9,*/*;q=0.8'
p1373
asbasbasbag57
(g73
g59
NtRp1374
(dp1375
g62
(dp1376
sg71
g1192
sg64
(lp1377
g57
(g78
g59
NtRp1378
(dp1379
g62
(dp1380
g82
g83
ssg71
g1374
sg64
(lp1381
S'http_accept_charset'
p1382
asbag57
(g78
g59
NtRp1383
(dp1384
g62
(dp1385
g89
g90
ssg71
g1374
sg64
(lp1386
S':'
asbag57
(g78
g59
NtRp1387
(dp1388
g62
(dp1389
sg71
g1374
sg64
(lp1390
g57
(g58
g59
NtRp1391
(dp1392
g62
(dp1393
g70
I4
ssg71
g1387
sg64
(lp1394
S'ISO-8859-1,utf-8;q=0.7,*;q=0.3'
p1395
asbasbasbag57
(g73
g59
NtRp1396
(dp1397
g62
(dp1398
sg71
g1192
sg64
(lp1399
g57
(g78
g59
NtRp1400
(dp1401
g62
(dp1402
g82
g83
ssg71
g1396
sg64
(lp1403
S'http_accept_encoding'
p1404
asbag57
(g78
g59
NtRp1405
(dp1406
g62
(dp1407
g89
g90
ssg71
g1396
sg64
(lp1408
S':'
asbag57
(g78
g59
NtRp1409
(dp1410
g62
(dp1411
sg71
g1396
sg64
(lp1412
g57
(g58
g59
NtRp1413
(dp1414
g62
(dp1415
g70
I4
ssg71
g1409
sg64
(lp1416
S'gzip,deflate,sdch'
p1417
asbasbasbag57
(g73
g59
NtRp1418
(dp1419
g62
(dp1420
sg71
g1192
sg64
(lp1421
g57
(g78
g59
NtRp1422
(dp1423
g62
(dp1424
g82
g83
ssg71
g1418
sg64
(lp1425
S'http_accept_language'
p1426
asbag57
(g78
g59
NtRp1427
(dp1428
g62
(dp1429
g89
g90
ssg71
g1418
sg64
(lp1430
S':'
asbag57
(g78
g59
NtRp1431
(dp1432
g62
(dp1433
sg71
g1418
sg64
(lp1434
g57
(g58
g59
NtRp1435
(dp1436
g62
(dp1437
g70
I4
ssg71
g1431
sg64
(lp1438
S'en-US,en;q=0.8'
p1439
asbasbasbag57
(g73
g59
NtRp1440
(dp1441
g62
(dp1442
sg71
g1192
sg64
(lp1443
g57
(g78
g59
NtRp1444
(dp1445
g62
(dp1446
g82
g83
ssg71
g1440
sg64
(lp1447
S'http_connection'
p1448
asbag57
(g78
g59
NtRp1449
(dp1450
g62
(dp1451
g89
g90
ssg71
g1440
sg64
(lp1452
S':'
asbag57
(g78
g59
NtRp1453
(dp1454
g62
(dp1455
sg71
g1440
sg64
(lp1456
g57
(g58
g59
NtRp1457
(dp1458
g62
(dp1459
g70
I4
ssg71
g1453
sg64
(lp1460
S'keep-alive'
p1461
asbasbasbag57
(g73
g59
NtRp1462
(dp1463
g62
(dp1464
sg71
g1192
sg64
(lp1465
g57
(g78
g59
NtRp1466
(dp1467
g62
(dp1468
g82
g83
ssg71
g1462
sg64
(lp1469
S'http_cookie'
p1470
asbag57
(g78
g59
NtRp1471
(dp1472
g62
(dp1473
g89
g90
ssg71
g1462
sg64
(lp1474
S':'
asbag57
(g78
g59
NtRp1475
(dp1476
g62
(dp1477
sg71
g1462
sg64
(lp1478
g57
(g58
g59
NtRp1479
(dp1480
g62
(dp1481
g70
I4
ssg71
g1475
sg64
(lp1482
S'session_id_welcome=127.0.0.1-e0750298-c47b-4ad3-8fa1-bd643fa5a28f; session_id_admin=127.0.0.1-75e4db98-aa79-4a05-8648-34391db54a18; mypanel=up; tls=up; session_id_themishrms=127.0.0.1-913348ed-faee-4729-b907-4c2b418541cb'
p1483
asbasbasbag57
(g73
g59
NtRp1484
(dp1485
g62
(dp1486
sg71
g1192
sg64
(lp1487
g57
(g78
g59
NtRp1488
(dp1489
g62
(dp1490
g82
g83
ssg71
g1484
sg64
(lp1491
S'http_host'
p1492
asbag57
(g78
g59
NtRp1493
(dp1494
g62
(dp1495
g89
g90
ssg71
g1484
sg64
(lp1496
S':'
asbag57
(g78
g59
NtRp1497
(dp1498
g62
(dp1499
sg71
g1484
sg64
(lp1500
g57
(g58
g59
NtRp1501
(dp1502
g62
(dp1503
g70
I4
ssg71
g1497
sg64
(lp1504
S'127.0.0.1:8000'
p1505
asbasbasbag57
(g73
g59
NtRp1506
(dp1507
g62
(dp1508
sg71
g1192
sg64
(lp1509
g57
(g78
g59
NtRp1510
(dp1511
g62
(dp1512
g82
g83
ssg71
g1506
sg64
(lp1513
S'http_referer'
p1514
asbag57
(g78
g59
NtRp1515
(dp1516
g62
(dp1517
g89
g90
ssg71
g1506
sg64
(lp1518
S':'
asbag57
(g78
g59
NtRp1519
(dp1520
g62
(dp1521
sg71
g1506
sg64
(lp1522
g57
(g58
g59
NtRp1523
(dp1524
g62
(dp1525
g70
I4
ssg71
g1519
sg64
(lp1526
S'http://127.0.0.1:8000/themishrms/default/admin_department'
p1527
asbasbasbag57
(g73
g59
NtRp1528
(dp1529
g62
(dp1530
sg71
g1192
sg64
(lp1531
g57
(g78
g59
NtRp1532
(dp1533
g62
(dp1534
g82
g83
ssg71
g1528
sg64
(lp1535
S'http_user_agent'
p1536
asbag57
(g78
g59
NtRp1537
(dp1538
g62
(dp1539
g89
g90
ssg71
g1528
sg64
(lp1540
S':'
asbag57
(g78
g59
NtRp1541
(dp1542
g62
(dp1543
sg71
g1528
sg64
(lp1544
g57
(g58
g59
NtRp1545
(dp1546
g62
(dp1547
g70
I4
ssg71
g1541
sg64
(lp1548
S'Mozilla/5.0 (X11; Linux i686) AppleWebKit/535.19 (KHTML, like Gecko) Chrome/18.0.1025.168 Safari/535.19'
p1549
asbasbasbag57
(g73
g59
NtRp1550
(dp1551
g62
(dp1552
sg71
g1192
sg64
(lp1553
g57
(g78
g59
NtRp1554
(dp1555
g62
(dp1556
g82
g83
ssg71
g1550
sg64
(lp1557
S'is_jython'
p1558
asbag57
(g78
g59
NtRp1559
(dp1560
g62
(dp1561
g89
g90
ssg71
g1550
sg64
(lp1562
S':'
asbag57
(g78
g59
NtRp1563
(dp1564
g62
(dp1565
sg71
g1550
sg64
(lp1566
g57
(g58
g59
NtRp1567
(dp1568
g62
(dp1569
g70
I4
ssg71
g1563
sg64
(lp1570
g100
asbasbasbag57
(g73
g59
NtRp1571
(dp1572
g62
(dp1573
sg71
g1192
sg64
(lp1574
g57
(g78
g59
NtRp1575
(dp1576
g62
(dp1577
g82
g83
ssg71
g1571
sg64
(lp1578
S'is_pypy'
p1579
asbag57
(g78
g59
NtRp1580
(dp1581
g62
(dp1582
g89
g90
ssg71
g1571
sg64
(lp1583
S':'
asbag57
(g78
g59
NtRp1584
(dp1585
g62
(dp1586
sg71
g1571
sg64
(lp1587
g57
(g58
g59
NtRp1588
(dp1589
g62
(dp1590
g70
I4
ssg71
g1584
sg64
(lp1591
g100
asbasbasbag57
(g73
g59
NtRp1592
(dp1593
g62
(dp1594
sg71
g1192
sg64
(lp1595
g57
(g78
g59
NtRp1596
(dp1597
g62
(dp1598
g82
g83
ssg71
g1592
sg64
(lp1599
S'path_info'
p1600
asbag57
(g78
g59
NtRp1601
(dp1602
g62
(dp1603
g89
g90
ssg71
g1592
sg64
(lp1604
S':'
asbag57
(g78
g59
NtRp1605
(dp1606
g62
(dp1607
sg71
g1592
sg64
(lp1608
g57
(g58
g59
NtRp1609
(dp1610
g62
(dp1611
g70
I4
ssg71
g1605
sg64
(lp1612
S'/themishrms/default/admin_newuser'
p1613
asbasbasbag57
(g73
g59
NtRp1614
(dp1615
g62
(dp1616
sg71
g1192
sg64
(lp1617
g57
(g78
g59
NtRp1618
(dp1619
g62
(dp1620
g82
g83
ssg71
g1614
sg64
(lp1621
S'query_string'
p1622
asbag57
(g78
g59
NtRp1623
(dp1624
g62
(dp1625
g89
g90
ssg71
g1614
sg64
(lp1626
S':'
asbag57
(g78
g59
NtRp1627
(dp1628
g62
(dp1629
sg71
g1614
sg64
(lp1630
g57
(g58
g59
NtRp1631
(dp1632
g62
(dp1633
g70
I4
ssg71
g1627
sg64
(lp1634
S''
asbasbasbag57
(g73
g59
NtRp1635
(dp1636
g62
(dp1637
sg71
g1192
sg64
(lp1638
g57
(g78
g59
NtRp1639
(dp1640
g62
(dp1641
g82
g83
ssg71
g1635
sg64
(lp1642
S'remote_addr'
p1643
asbag57
(g78
g59
NtRp1644
(dp1645
g62
(dp1646
g89
g90
ssg71
g1635
sg64
(lp1647
S':'
asbag57
(g78
g59
NtRp1648
(dp1649
g62
(dp1650
sg71
g1635
sg64
(lp1651
g57
(g58
g59
NtRp1652
(dp1653
g62
(dp1654
g70
I4
ssg71
g1648
sg64
(lp1655
g190
asbasbasbag57
(g73
g59
NtRp1656
(dp1657
g62
(dp1658
sg71
g1192
sg64
(lp1659
g57
(g78
g59
NtRp1660
(dp1661
g62
(dp1662
g82
g83
ssg71
g1656
sg64
(lp1663
S'remote_port'
p1664
asbag57
(g78
g59
NtRp1665
(dp1666
g62
(dp1667
g89
g90
ssg71
g1656
sg64
(lp1668
S':'
asbag57
(g78
g59
NtRp1669
(dp1670
g62
(dp1671
sg71
g1656
sg64
(lp1672
g57
(g58
g59
NtRp1673
(dp1674
g62
(dp1675
g70
I4
ssg71
g1669
sg64
(lp1676
S'39121'
p1677
asbasbasbag57
(g73
g59
NtRp1678
(dp1679
g62
(dp1680
sg71
g1192
sg64
(lp1681
g57
(g78
g59
NtRp1682
(dp1683
g62
(dp1684
g82
g83
ssg71
g1678
sg64
(lp1685
S'request_method'
p1686
asbag57
(g78
g59
NtRp1687
(dp1688
g62
(dp1689
g89
g90
ssg71
g1678
sg64
(lp1690
S':'
asbag57
(g78
g59
NtRp1691
(dp1692
g62
(dp1693
sg71
g1678
sg64
(lp1694
g57
(g58
g59
NtRp1695
(dp1696
g62
(dp1697
g70
I4
ssg71
g1691
sg64
(lp1698
S'GET'
p1699
asbasbasbag57
(g73
g59
NtRp1700
(dp1701
g62
(dp1702
sg71
g1192
sg64
(lp1703
g57
(g78
g59
NtRp1704
(dp1705
g62
(dp1706
g82
g83
ssg71
g1700
sg64
(lp1707
S'script_name'
p1708
asbag57
(g78
g59
NtRp1709
(dp1710
g62
(dp1711
g89
g90
ssg71
g1700
sg64
(lp1712
S':'
asbag57
(g78
g59
NtRp1713
(dp1714
g62
(dp1715
sg71
g1700
sg64
(lp1716
g57
(g58
g59
NtRp1717
(dp1718
g62
(dp1719
g70
I4
ssg71
g1713
sg64
(lp1720
S''
asbasbasbag57
(g73
g59
NtRp1721
(dp1722
g62
(dp1723
sg71
g1192
sg64
(lp1724
g57
(g78
g59
NtRp1725
(dp1726
g62
(dp1727
g82
g83
ssg71
g1721
sg64
(lp1728
S'server_name'
p1729
asbag57
(g78
g59
NtRp1730
(dp1731
g62
(dp1732
g89
g90
ssg71
g1721
sg64
(lp1733
S':'
asbag57
(g78
g59
NtRp1734
(dp1735
g62
(dp1736
sg71
g1721
sg64
(lp1737
g57
(g58
g59
NtRp1738
(dp1739
g62
(dp1740
g70
I4
ssg71
g1734
sg64
(lp1741
S'sanjeet-laptop'
p1742
asbasbasbag57
(g73
g59
NtRp1743
(dp1744
g62
(dp1745
sg71
g1192
sg64
(lp1746
g57
(g78
g59
NtRp1747
(dp1748
g62
(dp1749
g82
g83
ssg71
g1743
sg64
(lp1750
S'server_port'
p1751
asbag57
(g78
g59
NtRp1752
(dp1753
g62
(dp1754
g89
g90
ssg71
g1743
sg64
(lp1755
S':'
asbag57
(g78
g59
NtRp1756
(dp1757
g62
(dp1758
sg71
g1743
sg64
(lp1759
g57
(g58
g59
NtRp1760
(dp1761
g62
(dp1762
g70
I4
ssg71
g1756
sg64
(lp1763
S'8000'
p1764
asbasbasbag57
(g73
g59
NtRp1765
(dp1766
g62
(dp1767
sg71
g1192
sg64
(lp1768
g57
(g78
g59
NtRp1769
(dp1770
g62
(dp1771
g82
g83
ssg71
g1765
sg64
(lp1772
S'server_protocol'
p1773
asbag57
(g78
g59
NtRp1774
(dp1775
g62
(dp1776
g89
g90
ssg71
g1765
sg64
(lp1777
S':'
asbag57
(g78
g59
NtRp1778
(dp1779
g62
(dp1780
sg71
g1765
sg64
(lp1781
g57
(g58
g59
NtRp1782
(dp1783
g62
(dp1784
g70
I4
ssg71
g1778
sg64
(lp1785
S'HTTP/1.1'
p1786
asbasbasbag57
(g73
g59
NtRp1787
(dp1788
g62
(dp1789
sg71
g1192
sg64
(lp1790
g57
(g78
g59
NtRp1791
(dp1792
g62
(dp1793
g82
g83
ssg71
g1787
sg64
(lp1794
S'server_software'
p1795
asbag57
(g78
g59
NtRp1796
(dp1797
g62
(dp1798
g89
g90
ssg71
g1787
sg64
(lp1799
S':'
asbag57
(g78
g59
NtRp1800
(dp1801
g62
(dp1802
sg71
g1787
sg64
(lp1803
g57
(g58
g59
NtRp1804
(dp1805
g62
(dp1806
g70
I4
ssg71
g1800
sg64
(lp1807
S'Rocket 1.2.4'
p1808
asbasbasbag57
(g73
g59
NtRp1809
(dp1810
g62
(dp1811
sg71
g1192
sg64
(lp1812
g57
(g78
g59
NtRp1813
(dp1814
g62
(dp1815
g82
g83
ssg71
g1809
sg64
(lp1816
S'web2py_crontype'
p1817
asbag57
(g78
g59
NtRp1818
(dp1819
g62
(dp1820
g89
g90
ssg71
g1809
sg64
(lp1821
S':'
asbag57
(g78
g59
NtRp1822
(dp1823
g62
(dp1824
sg71
g1809
sg64
(lp1825
g57
(g58
g59
NtRp1826
(dp1827
g62
(dp1828
g70
I4
ssg71
g1822
sg64
(lp1829
S'hard'
p1830
asbasbasbag57
(g73
g59
NtRp1831
(dp1832
g62
(dp1833
sg71
g1192
sg64
(lp1834
g57
(g78
g59
NtRp1835
(dp1836
g62
(dp1837
g82
g83
ssg71
g1831
sg64
(lp1838
S'web2py_path'
p1839
asbag57
(g78
g59
NtRp1840
(dp1841
g62
(dp1842
g89
g90
ssg71
g1831
sg64
(lp1843
S':'
asbag57
(g78
g59
NtRp1844
(dp1845
g62
(dp1846
sg71
g1831
sg64
(lp1847
g57
(g58
g59
NtRp1848
(dp1849
g62
(dp1850
g70
I4
ssg71
g1844
sg64
(lp1851
g1239
asbasbasbag57
(g73
g59
NtRp1852
(dp1853
g62
(dp1854
sg71
g1192
sg64
(lp1855
g57
(g78
g59
NtRp1856
(dp1857
g62
(dp1858
g82
g83
ssg71
g1852
sg64
(lp1859
S'web2py_version'
p1860
asbag57
(g78
g59
NtRp1861
(dp1862
g62
(dp1863
g89
g90
ssg71
g1852
sg64
(lp1864
S':'
asbag57
(g78
g59
NtRp1865
(dp1866
g62
(dp1867
sg71
g1852
sg64
(lp1868
g57
(g58
g59
NtRp1869
(dp1870
g62
(dp1871
g70
I4
ssg71
g1865
sg64
(lp1872
g57
(g66
g59
NtRp1873
(dp1874
g62
(dp1875
g70
I3
ssg71
Nsg64
(lp1876
g57
(g73
g59
NtRp1877
(dp1878
g62
(dp1879
sg71
g1873
sg64
(lp1880
g57
(g78
g59
NtRp1881
(dp1882
g62
(dp1883
sg71
g1877
sg64
(lp1884
g57
(g58
g59
NtRp1885
(dp1886
g62
(dp1887
g70
I3
ssg71
g1881
sg64
(lp1888
S'1'
asbasbasbag57
(g73
g59
NtRp1889
(dp1890
g62
(dp1891
sg71
g1873
sg64
(lp1892
g57
(g78
g59
NtRp1893
(dp1894
g62
(dp1895
sg71
g1889
sg64
(lp1896
g57
(g58
g59
NtRp1897
(dp1898
g62
(dp1899
g70
I3
ssg71
g1893
sg64
(lp1900
S'99'
p1901
asbasbasbag57
(g73
g59
NtRp1902
(dp1903
g62
(dp1904
sg71
g1873
sg64
(lp1905
g57
(g78
g59
NtRp1906
(dp1907
g62
(dp1908
sg71
g1902
sg64
(lp1909
g57
(g58
g59
NtRp1910
(dp1911
g62
(dp1912
g70
I3
ssg71
g1906
sg64
(lp1913
S'7'
asbasbasbag57
(g73
g59
NtRp1914
(dp1915
g62
(dp1916
sg71
g1873
sg64
(lp1917
g57
(g78
g59
NtRp1918
(dp1919
g62
(dp1920
sg71
g1914
sg64
(lp1921
g57
(g58
g59
NtRp1922
(dp1923
g62
(dp1924
g70
I3
ssg71
g1918
sg64
(lp1925
S'datetime.datetime(2012, 3, 4, 22, 12, 8)'
p1926
asbasbasbag57
(g73
g59
NtRp1927
(dp1928
g62
(dp1929
sg71
g1873
sg64
(lp1930
g57
(g78
g59
NtRp1931
(dp1932
g62
(dp1933
sg71
g1927
sg64
(lp1934
g57
(g58
g59
NtRp1935
(dp1936
g62
(dp1937
g70
I3
ssg71
g1931
sg64
(lp1938
S'stable'
p1939
asbasbasbasbasbasbasbag57
(g73
g59
NtRp1940
(dp1941
g62
(dp1942
sg71
g1192
sg64
(lp1943
g57
(g78
g59
NtRp1944
(dp1945
g62
(dp1946
g82
g83
ssg71
g1940
sg64
(lp1947
S'wsgi_errors'
p1948
asbag57
(g78
g59
NtRp1949
(dp1950
g62
(dp1951
g89
g90
ssg71
g1940
sg64
(lp1952
S':'
asbag57
(g78
g59
NtRp1953
(dp1954
g62
(dp1955
sg71
g1940
sg64
(lp1956
g57
(g58
g59
NtRp1957
(dp1958
g62
(dp1959
g70
I4
ssg71
g1953
sg64
(lp1960
S"<open file '<stderr>', mode 'w' at 0xb77920d0>"
p1961
asbasbasbag57
(g73
g59
NtRp1962
(dp1963
g62
(dp1964
sg71
g1192
sg64
(lp1965
g57
(g78
g59
NtRp1966
(dp1967
g62
(dp1968
g82
g83
ssg71
g1962
sg64
(lp1969
S'wsgi_file_wrapper'
p1970
asbag57
(g78
g59
NtRp1971
(dp1972
g62
(dp1973
g89
g90
ssg71
g1962
sg64
(lp1974
S':'
asbag57
(g78
g59
NtRp1975
(dp1976
g62
(dp1977
sg71
g1962
sg64
(lp1978
g57
(g58
g59
NtRp1979
(dp1980
g62
(dp1981
g70
I4
ssg71
g1975
sg64
(lp1982
S'<class wsgiref.util.FileWrapper at 0xa475a1c>'
p1983
asbasbasbag57
(g73
g59
NtRp1984
(dp1985
g62
(dp1986
sg71
g1192
sg64
(lp1987
g57
(g78
g59
NtRp1988
(dp1989
g62
(dp1990
g82
g83
ssg71
g1984
sg64
(lp1991
S'wsgi_input'
p1992
asbag57
(g78
g59
NtRp1993
(dp1994
g62
(dp1995
g89
g90
ssg71
g1984
sg64
(lp1996
S':'
asbag57
(g78
g59
NtRp1997
(dp1998
g62
(dp1999
sg71
g1984
sg64
(lp2000
g57
(g58
g59
NtRp2001
(dp2002
g62
(dp2003
g70
I4
ssg71
g1997
sg64
(lp2004
S'<socket._fileobject object at 0xa79faac>'
p2005
asbasbasbag57
(g73
g59
NtRp2006
(dp2007
g62
(dp2008
sg71
g1192
sg64
(lp2009
g57
(g78
g59
NtRp2010
(dp2011
g62
(dp2012
g82
g83
ssg71
g2006
sg64
(lp2013
S'wsgi_multiprocess'
p2014
asbag57
(g78
g59
NtRp2015
(dp2016
g62
(dp2017
g89
g90
ssg71
g2006
sg64
(lp2018
S':'
asbag57
(g78
g59
NtRp2019
(dp2020
g62
(dp2021
sg71
g2006
sg64
(lp2022
g57
(g58
g59
NtRp2023
(dp2024
g62
(dp2025
g70
I4
ssg71
g2019
sg64
(lp2026
g100
asbasbasbag57
(g73
g59
NtRp2027
(dp2028
g62
(dp2029
sg71
g1192
sg64
(lp2030
g57
(g78
g59
NtRp2031
(dp2032
g62
(dp2033
g82
g83
ssg71
g2027
sg64
(lp2034
S'wsgi_multithread'
p2035
asbag57
(g78
g59
NtRp2036
(dp2037
g62
(dp2038
g89
g90
ssg71
g2027
sg64
(lp2039
S':'
asbag57
(g78
g59
NtRp2040
(dp2041
g62
(dp2042
sg71
g2027
sg64
(lp2043
g57
(g58
g59
NtRp2044
(dp2045
g62
(dp2046
g70
I4
ssg71
g2040
sg64
(lp2047
S'True'
p2048
asbasbasbag57
(g73
g59
NtRp2049
(dp2050
g62
(dp2051
sg71
g1192
sg64
(lp2052
g57
(g78
g59
NtRp2053
(dp2054
g62
(dp2055
g82
g83
ssg71
g2049
sg64
(lp2056
S'wsgi_run_once'
p2057
asbag57
(g78
g59
NtRp2058
(dp2059
g62
(dp2060
g89
g90
ssg71
g2049
sg64
(lp2061
S':'
asbag57
(g78
g59
NtRp2062
(dp2063
g62
(dp2064
sg71
g2049
sg64
(lp2065
g57
(g58
g59
NtRp2066
(dp2067
g62
(dp2068
g70
I4
ssg71
g2062
sg64
(lp2069
g100
asbasbasbag57
(g73
g59
NtRp2070
(dp2071
g62
(dp2072
sg71
g1192
sg64
(lp2073
g57
(g78
g59
NtRp2074
(dp2075
g62
(dp2076
g82
g83
ssg71
g2070
sg64
(lp2077
S'wsgi_url_scheme'
p2078
asbag57
(g78
g59
NtRp2079
(dp2080
g62
(dp2081
g89
g90
ssg71
g2070
sg64
(lp2082
S':'
asbag57
(g78
g59
NtRp2083
(dp2084
g62
(dp2085
sg71
g2070
sg64
(lp2086
g57
(g58
g59
NtRp2087
(dp2088
g62
(dp2089
g70
I4
ssg71
g2083
sg64
(lp2090
S'http'
p2091
asbasbasbag57
(g73
g59
NtRp2092
(dp2093
g62
(dp2094
sg71
g1192
sg64
(lp2095
g57
(g78
g59
NtRp2096
(dp2097
g62
(dp2098
g82
g83
ssg71
g2092
sg64
(lp2099
S'wsgi_version'
p2100
asbag57
(g78
g59
NtRp2101
(dp2102
g62
(dp2103
g89
g90
ssg71
g2092
sg64
(lp2104
S':'
asbag57
(g78
g59
NtRp2105
(dp2106
g62
(dp2107
sg71
g2092
sg64
(lp2108
g57
(g58
g59
NtRp2109
(dp2110
g62
(dp2111
g70
I4
ssg71
g2105
sg64
(lp2112
g57
(g66
g59
NtRp2113
(dp2114
g62
(dp2115
g70
I3
ssg71
Nsg64
(lp2116
g57
(g73
g59
NtRp2117
(dp2118
g62
(dp2119
sg71
g2113
sg64
(lp2120
g57
(g78
g59
NtRp2121
(dp2122
g62
(dp2123
sg71
g2117
sg64
(lp2124
g57
(g58
g59
NtRp2125
(dp2126
g62
(dp2127
g70
I3
ssg71
g2121
sg64
(lp2128
S'1'
asbasbasbag57
(g73
g59
NtRp2129
(dp2130
g62
(dp2131
sg71
g2113
sg64
(lp2132
g57
(g78
g59
NtRp2133
(dp2134
g62
(dp2135
sg71
g2129
sg64
(lp2136
g57
(g58
g59
NtRp2137
(dp2138
g62
(dp2139
g70
I3
ssg71
g2133
sg64
(lp2140
S'0'
asbasbasbasbasbasbasbasbasbasbasbag57
(g73
g59
NtRp2141
(dp2142
g62
(dp2143
sg71
g67
sg64
(lp2144
g57
(g78
g59
NtRp2145
(dp2146
g62
(dp2147
g82
g83
ssg71
g2141
sg64
(lp2148
S'extension'
p2149
asbag57
(g78
g59
NtRp2150
(dp2151
g62
(dp2152
g89
g90
ssg71
g2141
sg64
(lp2153
S':'
asbag57
(g78
g59
NtRp2154
(dp2155
g62
(dp2156
sg71
g2141
sg64
(lp2157
g57
(g58
g59
NtRp2158
(dp2159
g62
(dp2160
g70
I5
ssg71
g2154
sg64
(lp2161
S'html'
p2162
asbasbasbag57
(g73
g59
NtRp2163
(dp2164
g62
(dp2165
sg71
g67
sg64
(lp2166
g57
(g78
g59
NtRp2167
(dp2168
g62
(dp2169
g82
g83
ssg71
g2163
sg64
(lp2170
S'folder'
p2171
asbag57
(g78
g59
NtRp2172
(dp2173
g62
(dp2174
g89
g90
ssg71
g2163
sg64
(lp2175
S':'
asbag57
(g78
g59
NtRp2176
(dp2177
g62
(dp2178
sg71
g2163
sg64
(lp2179
g57
(g58
g59
NtRp2180
(dp2181
g62
(dp2182
g70
I5
ssg71
g2176
sg64
(lp2183
S'/home/sanjeet/Desktop/install/Development/web2py/applications/themishrms/'
p2184
asbasbasbag57
(g73
g59
NtRp2185
(dp2186
g62
(dp2187
sg71
g67
sg64
(lp2188
g57
(g78
g59
NtRp2189
(dp2190
g62
(dp2191
g82
g83
ssg71
g2185
sg64
(lp2192
S'function'
p2193
asbag57
(g78
g59
NtRp2194
(dp2195
g62
(dp2196
g89
g90
ssg71
g2185
sg64
(lp2197
S':'
asbag57
(g78
g59
NtRp2198
(dp2199
g62
(dp2200
sg71
g2185
sg64
(lp2201
g57
(g58
g59
NtRp2202
(dp2203
g62
(dp2204
g70
I5
ssg71
g2198
sg64
(lp2205
S'admin_newuser'
p2206
asbasbasbag57
(g73
g59
NtRp2207
(dp2208
g62
(dp2209
sg71
g67
sg64
(lp2210
g57
(g78
g59
NtRp2211
(dp2212
g62
(dp2213
g82
g83
ssg71
g2207
sg64
(lp2214
S'get_vars'
p2215
asbag57
(g78
g59
NtRp2216
(dp2217
g62
(dp2218
g89
g90
ssg71
g2207
sg64
(lp2219
S':'
asbag57
(g78
g59
NtRp2220
(dp2221
g62
(dp2222
sg71
g2207
sg64
(lp2223
g57
(g58
g59
NtRp2224
(dp2225
g62
(dp2226
g70
I5
ssg71
g2220
sg64
(lp2227
g57
(g66
g59
NtRp2228
(dp2229
g62
(dp2230
g70
I4
ssg71
Nsg64
(lp2231
sbasbasbasbag57
(g73
g59
NtRp2232
(dp2233
g62
(dp2234
sg71
g67
sg64
(lp2235
g57
(g78
g59
NtRp2236
(dp2237
g62
(dp2238
g82
g83
ssg71
g2232
sg64
(lp2239
S'global_settings'
p2240
asbag57
(g78
g59
NtRp2241
(dp2242
g62
(dp2243
g89
g90
ssg71
g2232
sg64
(lp2244
S':'
asbag57
(g78
g59
NtRp2245
(dp2246
g62
(dp2247
sg71
g2232
sg64
(lp2248
g57
(g58
g59
NtRp2249
(dp2250
g62
(dp2251
g70
I5
ssg71
g2245
sg64
(lp2252
g57
(g66
g59
NtRp2253
(dp2254
g62
(dp2255
g70
I4
ssg71
Nsg64
(lp2256
g57
(g73
g59
NtRp2257
(dp2258
g62
(dp2259
sg71
g2253
sg64
(lp2260
g57
(g78
g59
NtRp2261
(dp2262
g62
(dp2263
g82
g83
ssg71
g2257
sg64
(lp2264
g1204
asbag57
(g78
g59
NtRp2265
(dp2266
g62
(dp2267
g89
g90
ssg71
g2257
sg64
(lp2268
S':'
asbag57
(g78
g59
NtRp2269
(dp2270
g62
(dp2271
sg71
g2257
sg64
(lp2272
g57
(g58
g59
NtRp2273
(dp2274
g62
(dp2275
g70
I4
ssg71
g2269
sg64
(lp2276
S"set(['/home/sanjeet/Desktop/install/Development/web2py/applications/admin/', '/home/sanjeet/Desktop/install/Development/web2py/applications/themishrms/'])"
p2277
asbasbasbag57
(g73
g59
NtRp2278
(dp2279
g62
(dp2280
sg71
g2253
sg64
(lp2281
g57
(g78
g59
NtRp2282
(dp2283
g62
(dp2284
g82
g83
ssg71
g2278
sg64
(lp2285
g1226
asbag57
(g78
g59
NtRp2286
(dp2287
g62
(dp2288
g89
g90
ssg71
g2278
sg64
(lp2289
S':'
asbag57
(g78
g59
NtRp2290
(dp2291
g62
(dp2292
sg71
g2278
sg64
(lp2293
g57
(g58
g59
NtRp2294
(dp2295
g62
(dp2296
g70
I4
ssg71
g2290
sg64
(lp2297
g1239
asbasbasbag57
(g73
g59
NtRp2298
(dp2299
g62
(dp2300
sg71
g2253
sg64
(lp2301
g57
(g78
g59
NtRp2302
(dp2303
g62
(dp2304
g82
g83
ssg71
g2298
sg64
(lp2305
g1248
asbag57
(g78
g59
NtRp2306
(dp2307
g62
(dp2308
g89
g90
ssg71
g2298
sg64
(lp2309
S':'
asbag57
(g78
g59
NtRp2310
(dp2311
g62
(dp2312
sg71
g2298
sg64
(lp2313
g57
(g58
g59
NtRp2314
(dp2315
g62
(dp2316
g70
I4
ssg71
g2310
sg64
(lp2317
g57
(g66
g59
NtRp2318
(dp2319
g62
(dp2320
g70
I3
ssg71
Nsg64
(lp2321
sbasbasbasbag57
(g73
g59
NtRp2322
(dp2323
g62
(dp2324
sg71
g2253
sg64
(lp2325
g57
(g78
g59
NtRp2326
(dp2327
g62
(dp2328
g82
g83
ssg71
g2322
sg64
(lp2329
g1273
asbag57
(g78
g59
NtRp2330
(dp2331
g62
(dp2332
g89
g90
ssg71
g2322
sg64
(lp2333
S':'
asbag57
(g78
g59
NtRp2334
(dp2335
g62
(dp2336
sg71
g2322
sg64
(lp2337
g57
(g58
g59
NtRp2338
(dp2339
g62
(dp2340
g70
I4
ssg71
g2334
sg64
(lp2341
S"<Values at 0xa4df68c: {'verbose': False, 'ip': '127.0.0.1', 'shutdown_timeout': 5, 'taskbar': False, 'nocron': False, 'pid_filename': 'httpserver.pid', 'maxthreads': None, 'softcron': False, 'server_name': 'sanjeet-laptop', 'bpython': False, 'nogui': False, 'port': 8000, 'extcron': False, 'debuglevel': 30, 'test': None, 'folder': '/home/sanjeet/Desktop/install/Development/web2py', 'config': '', 'import_models': False, 'winservice': '', 'shell': None, 'run': '', 'log_filename': 'httpserver.log', 'args': [''], 'socket_timeout': 5, 'ssl_ca_certificate': None, 'scheduler': None, 'profiler_filename': None, 'ssl_private_key': '', 'password': 'a', 'request_queue_size': 5, 'ssl_certificate': '', 'cronjob': False, 'numthreads': None, 'quiet': False, 'interfaces': None, 'minthreads': None, 'timeout': 10, 'plain': False, 'nobanner': False}>"
p2342
asbasbasbag57
(g73
g59
NtRp2343
(dp2344
g62
(dp2345
sg71
g2253
sg64
(lp2346
g57
(g78
g59
NtRp2347
(dp2348
g62
(dp2349
g82
g83
ssg71
g2343
sg64
(lp2350
g1295
asbag57
(g78
g59
NtRp2351
(dp2352
g62
(dp2353
g89
g90
ssg71
g2343
sg64
(lp2354
S':'
asbag57
(g78
g59
NtRp2355
(dp2356
g62
(dp2357
sg71
g2343
sg64
(lp2358
g57
(g58
g59
NtRp2359
(dp2360
g62
(dp2361
g70
I4
ssg71
g2355
sg64
(lp2362
S'set([])'
p2363
asbasbasbag57
(g73
g59
NtRp2364
(dp2365
g62
(dp2366
sg71
g2253
sg64
(lp2367
g57
(g78
g59
NtRp2368
(dp2369
g62
(dp2370
g82
g83
ssg71
g2364
sg64
(lp2371
g1317
asbag57
(g78
g59
NtRp2372
(dp2373
g62
(dp2374
g89
g90
ssg71
g2364
sg64
(lp2375
S':'
asbag57
(g78
g59
NtRp2376
(dp2377
g62
(dp2378
sg71
g2364
sg64
(lp2379
g57
(g58
g59
NtRp2380
(dp2381
g62
(dp2382
g70
I4
ssg71
g2376
sg64
(lp2383
g100
asbasbasbag57
(g73
g59
NtRp2384
(dp2385
g62
(dp2386
sg71
g2253
sg64
(lp2387
g57
(g78
g59
NtRp2388
(dp2389
g62
(dp2390
g82
g83
ssg71
g2384
sg64
(lp2391
g1338
asbag57
(g78
g59
NtRp2392
(dp2393
g62
(dp2394
g89
g90
ssg71
g2384
sg64
(lp2395
S':'
asbag57
(g78
g59
NtRp2396
(dp2397
g62
(dp2398
sg71
g2384
sg64
(lp2399
g57
(g58
g59
NtRp2400
(dp2401
g62
(dp2402
g70
I4
ssg71
g2396
sg64
(lp2403
g1351
asbasbasbag57
(g73
g59
NtRp2404
(dp2405
g62
(dp2406
sg71
g2253
sg64
(lp2407
g57
(g78
g59
NtRp2408
(dp2409
g62
(dp2410
g82
g83
ssg71
g2404
sg64
(lp2411
g1558
asbag57
(g78
g59
NtRp2412
(dp2413
g62
(dp2414
g89
g90
ssg71
g2404
sg64
(lp2415
S':'
asbag57
(g78
g59
NtRp2416
(dp2417
g62
(dp2418
sg71
g2404
sg64
(lp2419
g57
(g58
g59
NtRp2420
(dp2421
g62
(dp2422
g70
I4
ssg71
g2416
sg64
(lp2423
g100
asbasbasbag57
(g73
g59
NtRp2424
(dp2425
g62
(dp2426
sg71
g2253
sg64
(lp2427
g57
(g78
g59
NtRp2428
(dp2429
g62
(dp2430
g82
g83
ssg71
g2424
sg64
(lp2431
g1579
asbag57
(g78
g59
NtRp2432
(dp2433
g62
(dp2434
g89
g90
ssg71
g2424
sg64
(lp2435
S':'
asbag57
(g78
g59
NtRp2436
(dp2437
g62
(dp2438
sg71
g2424
sg64
(lp2439
g57
(g58
g59
NtRp2440
(dp2441
g62
(dp2442
g70
I4
ssg71
g2436
sg64
(lp2443
g100
asbasbasbag57
(g73
g59
NtRp2444
(dp2445
g62
(dp2446
sg71
g2253
sg64
(lp2447
g57
(g78
g59
NtRp2448
(dp2449
g62
(dp2450
g82
g83
ssg71
g2444
sg64
(lp2451
g1817
asbag57
(g78
g59
NtRp2452
(dp2453
g62
(dp2454
g89
g90
ssg71
g2444
sg64
(lp2455
S':'
asbag57
(g78
g59
NtRp2456
(dp2457
g62
(dp2458
sg71
g2444
sg64
(lp2459
g57
(g58
g59
NtRp2460
(dp2461
g62
(dp2462
g70
I4
ssg71
g2456
sg64
(lp2463
g1830
asbasbasbag57
(g73
g59
NtRp2464
(dp2465
g62
(dp2466
sg71
g2253
sg64
(lp2467
g57
(g78
g59
NtRp2468
(dp2469
g62
(dp2470
g82
g83
ssg71
g2464
sg64
(lp2471
g1860
asbag57
(g78
g59
NtRp2472
(dp2473
g62
(dp2474
g89
g90
ssg71
g2464
sg64
(lp2475
S':'
asbag57
(g78
g59
NtRp2476
(dp2477
g62
(dp2478
sg71
g2464
sg64
(lp2479
g57
(g58
g59
NtRp2480
(dp2481
g62
(dp2482
g70
I4
ssg71
g2476
sg64
(lp2483
g57
(g66
g59
NtRp2484
(dp2485
g62
(dp2486
g70
I3
ssg71
Nsg64
(lp2487
g57
(g73
g59
NtRp2488
(dp2489
g62
(dp2490
sg71
g2484
sg64
(lp2491
g57
(g78
g59
NtRp2492
(dp2493
g62
(dp2494
sg71
g2488
sg64
(lp2495
g57
(g58
g59
NtRp2496
(dp2497
g62
(dp2498
g70
I3
ssg71
g2492
sg64
(lp2499
S'1'
asbasbasbag57
(g73
g59
NtRp2500
(dp2501
g62
(dp2502
sg71
g2484
sg64
(lp2503
g57
(g78
g59
NtRp2504
(dp2505
g62
(dp2506
sg71
g2500
sg64
(lp2507
g57
(g58
g59
NtRp2508
(dp2509
g62
(dp2510
g70
I3
ssg71
g2504
sg64
(lp2511
S'99'
p2512
asbasbasbag57
(g73
g59
NtRp2513
(dp2514
g62
(dp2515
sg71
g2484
sg64
(lp2516
g57
(g78
g59
NtRp2517
(dp2518
g62
(dp2519
sg71
g2513
sg64
(lp2520
g57
(g58
g59
NtRp2521
(dp2522
g62
(dp2523
g70
I3
ssg71
g2517
sg64
(lp2524
S'7'
asbasbasbag57
(g73
g59
NtRp2525
(dp2526
g62
(dp2527
sg71
g2484
sg64
(lp2528
g57
(g78
g59
NtRp2529
(dp2530
g62
(dp2531
sg71
g2525
sg64
(lp2532
g57
(g58
g59
NtRp2533
(dp2534
g62
(dp2535
g70
I3
ssg71
g2529
sg64
(lp2536
S'datetime.datetime(2012, 3, 4, 22, 12, 8)'
p2537
asbasbasbag57
(g73
g59
NtRp2538
(dp2539
g62
(dp2540
sg71
g2484
sg64
(lp2541
g57
(g78
g59
NtRp2542
(dp2543
g62
(dp2544
sg71
g2538
sg64
(lp2545
g57
(g58
g59
NtRp2546
(dp2547
g62
(dp2548
g70
I3
ssg71
g2542
sg64
(lp2549
g1939
asbasbasbasbasbasbasbasbasbasbasbag57
(g73
g59
NtRp2550
(dp2551
g62
(dp2552
sg71
g67
sg64
(lp2553
g57
(g78
g59
NtRp2554
(dp2555
g62
(dp2556
g82
g83
ssg71
g2550
sg64
(lp2557
S'is_https'
p2558
asbag57
(g78
g59
NtRp2559
(dp2560
g62
(dp2561
g89
g90
ssg71
g2550
sg64
(lp2562
S':'
asbag57
(g78
g59
NtRp2563
(dp2564
g62
(dp2565
sg71
g2550
sg64
(lp2566
g57
(g58
g59
NtRp2567
(dp2568
g62
(dp2569
g70
I5
ssg71
g2563
sg64
(lp2570
g100
asbasbasbag57
(g73
g59
NtRp2571
(dp2572
g62
(dp2573
sg71
g67
sg64
(lp2574
g57
(g78
g59
NtRp2575
(dp2576
g62
(dp2577
g82
g83
ssg71
g2571
sg64
(lp2578
S'is_local'
p2579
asbag57
(g78
g59
NtRp2580
(dp2581
g62
(dp2582
g89
g90
ssg71
g2571
sg64
(lp2583
S':'
asbag57
(g78
g59
NtRp2584
(dp2585
g62
(dp2586
sg71
g2571
sg64
(lp2587
g57
(g58
g59
NtRp2588
(dp2589
g62
(dp2590
g70
I5
ssg71
g2584
sg64
(lp2591
g2048
asbasbasbag57
(g73
g59
NtRp2592
(dp2593
g62
(dp2594
sg71
g67
sg64
(lp2595
g57
(g78
g59
NtRp2596
(dp2597
g62
(dp2598
g82
g83
ssg71
g2592
sg64
(lp2599
S'is_restful'
p2600
asbag57
(g78
g59
NtRp2601
(dp2602
g62
(dp2603
g89
g90
ssg71
g2592
sg64
(lp2604
S':'
asbag57
(g78
g59
NtRp2605
(dp2606
g62
(dp2607
sg71
g2592
sg64
(lp2608
g57
(g58
g59
NtRp2609
(dp2610
g62
(dp2611
g70
I5
ssg71
g2605
sg64
(lp2612
g100
asbasbasbag57
(g73
g59
NtRp2613
(dp2614
g62
(dp2615
sg71
g67
sg64
(lp2616
g57
(g78
g59
NtRp2617
(dp2618
g62
(dp2619
g82
g83
ssg71
g2613
sg64
(lp2620
S'now'
p2621
asbag57
(g78
g59
NtRp2622
(dp2623
g62
(dp2624
g89
g90
ssg71
g2613
sg64
(lp2625
S':'
asbag57
(g78
g59
NtRp2626
(dp2627
g62
(dp2628
sg71
g2613
sg64
(lp2629
g57
(g58
g59
NtRp2630
(dp2631
g62
(dp2632
g70
I5
ssg71
g2626
sg64
(lp2633
S'datetime.datetime(2012, 5, 5, 22, 58, 35, 992063)'
p2634
asbasbasbag57
(g73
g59
NtRp2635
(dp2636
g62
(dp2637
sg71
g67
sg64
(lp2638
g57
(g78
g59
NtRp2639
(dp2640
g62
(dp2641
g82
g83
ssg71
g2635
sg64
(lp2642
S'post_vars'
p2643
asbag57
(g78
g59
NtRp2644
(dp2645
g62
(dp2646
g89
g90
ssg71
g2635
sg64
(lp2647
S':'
asbag57
(g78
g59
NtRp2648
(dp2649
g62
(dp2650
sg71
g2635
sg64
(lp2651
g57
(g58
g59
NtRp2652
(dp2653
g62
(dp2654
g70
I5
ssg71
g2648
sg64
(lp2655
g57
(g66
g59
NtRp2656
(dp2657
g62
(dp2658
g70
I4
ssg71
Nsg64
(lp2659
sbasbasbasbag57
(g73
g59
NtRp2660
(dp2661
g62
(dp2662
sg71
g67
sg64
(lp2663
g57
(g78
g59
NtRp2664
(dp2665
g62
(dp2666
g82
g83
ssg71
g2660
sg64
(lp2667
S'url'
p2668
asbag57
(g78
g59
NtRp2669
(dp2670
g62
(dp2671
g89
g90
ssg71
g2660
sg64
(lp2672
S':'
asbag57
(g78
g59
NtRp2673
(dp2674
g62
(dp2675
sg71
g2660
sg64
(lp2676
g57
(g58
g59
NtRp2677
(dp2678
g62
(dp2679
g70
I5
ssg71
g2673
sg64
(lp2680
S'/themishrms/default/admin_newuser'
p2681
asbasbasbag57
(g73
g59
NtRp2682
(dp2683
g62
(dp2684
sg71
g67
sg64
(lp2685
g57
(g78
g59
NtRp2686
(dp2687
g62
(dp2688
g82
g83
ssg71
g2682
sg64
(lp2689
S'utcnow'
p2690
asbag57
(g78
g59
NtRp2691
(dp2692
g62
(dp2693
g89
g90
ssg71
g2682
sg64
(lp2694
S':'
asbag57
(g78
g59
NtRp2695
(dp2696
g62
(dp2697
sg71
g2682
sg64
(lp2698
g57
(g58
g59
NtRp2699
(dp2700
g62
(dp2701
g70
I5
ssg71
g2695
sg64
(lp2702
S'datetime.datetime(2012, 5, 5, 17, 28, 35, 992123)'
p2703
asbasbasbag57
(g73
g59
NtRp2704
(dp2705
g62
(dp2706
sg71
g67
sg64
(lp2707
g57
(g78
g59
NtRp2708
(dp2709
g62
(dp2710
g82
g83
ssg71
g2704
sg64
(lp2711
S'uuid'
p2712
asbag57
(g78
g59
NtRp2713
(dp2714
g62
(dp2715
g89
g90
ssg71
g2704
sg64
(lp2716
S':'
asbag57
(g78
g59
NtRp2717
(dp2718
g62
(dp2719
sg71
g2704
sg64
(lp2720
g57
(g58
g59
NtRp2721
(dp2722
g62
(dp2723
g70
I5
ssg71
g2717
sg64
(lp2724
S'themishrms/127.0.0.1.2012-05-05.22-58-35.b4bda093-549e-4d4c-9f23-891e3fdd2535'
p2725
asbasbasbag57
(g73
g59
NtRp2726
(dp2727
g62
(dp2728
sg71
g67
sg64
(lp2729
g57
(g78
g59
NtRp2730
(dp2731
g62
(dp2732
g82
g83
ssg71
g2726
sg64
(lp2733
S'vars'
p2734
asbag57
(g78
g59
NtRp2735
(dp2736
g62
(dp2737
g89
g90
ssg71
g2726
sg64
(lp2738
S':'
asbag57
(g78
g59
NtRp2739
(dp2740
g62
(dp2741
sg71
g2726
sg64
(lp2742
g57
(g58
g59
NtRp2743
(dp2744
g62
(dp2745
g70
I5
ssg71
g2739
sg64
(lp2746
g57
(g66
g59
NtRp2747
(dp2748
g62
(dp2749
g70
I4
ssg71
Nsg64
(lp2750
g57
(g73
g59
NtRp2751
(dp2752
g62
(dp2753
sg71
g2747
sg64
(lp2754
g57
(g78
g59
NtRp2755
(dp2756
g62
(dp2757
g82
g83
ssg71
g2751
sg64
(lp2758
S'records'
p2759
asbag57
(g78
g59
NtRp2760
(dp2761
g62
(dp2762
g89
g90
ssg71
g2751
sg64
(lp2763
S':'
asbag57
(g78
g59
NtRp2764
(dp2765
g62
(dp2766
sg71
g2751
sg64
(lp2767
g57
(g58
g59
NtRp2768
(dp2769
g62
(dp2770
g70
I4
ssg71
g2764
sg64
(lp2771
g57
(g66
g59
NtRp2772
(dp2773
g62
(dp2774
g70
I3
ssg71
Nsg64
(lp2775
sbasbasbasbasbasbasbasbag57
(g73
g59
NtRp2776
(dp2777
g62
(dp2778
sg71
g67
sg64
(lp2779
g57
(g78
g59
NtRp2780
(dp2781
g62
(dp2782
g82
g83
ssg71
g2776
sg64
(lp2783
S'wsgi'
p2784
asbag57
(g78
g59
NtRp2785
(dp2786
g62
(dp2787
g89
g90
ssg71
g2776
sg64
(lp2788
S':'
asbag57
(g78
g59
NtRp2789
(dp2790
g62
(dp2791
sg71
g2776
sg64
(lp2792
g57
(g58
g59
NtRp2793
(dp2794
g62
(dp2795
g70
I5
ssg71
g2789
sg64
(lp2796
g57
(g66
g59
NtRp2797
(dp2798
g62
(dp2799
g70
I4
ssg71
Nsg64
(lp2800
g57
(g73
g59
NtRp2801
(dp2802
g62
(dp2803
sg71
g2797
sg64
(lp2804
g57
(g78
g59
NtRp2805
(dp2806
g62
(dp2807
g82
g83
ssg71
g2801
sg64
(lp2808
S'environ'
p2809
asbag57
(g78
g59
NtRp2810
(dp2811
g62
(dp2812
g89
g90
ssg71
g2801
sg64
(lp2813
S':'
asbag57
(g78
g59
NtRp2814
(dp2815
g62
(dp2816
sg71
g2801
sg64
(lp2817
g57
(g58
g59
NtRp2818
(dp2819
g62
(dp2820
g70
I4
ssg71
g2814
sg64
(lp2821
g57
(g66
g59
NtRp2822
(dp2823
g62
(dp2824
g70
I3
ssg71
Nsg64
(lp2825
g57
(g73
g59
NtRp2826
(dp2827
g62
(dp2828
sg71
g2822
sg64
(lp2829
g57
(g78
g59
NtRp2830
(dp2831
g62
(dp2832
g82
g83
ssg71
g2826
sg64
(lp2833
S'HTTP_ACCEPT'
p2834
asbag57
(g78
g59
NtRp2835
(dp2836
g62
(dp2837
g89
g90
ssg71
g2826
sg64
(lp2838
S':'
asbag57
(g78
g59
NtRp2839
(dp2840
g62
(dp2841
sg71
g2826
sg64
(lp2842
g57
(g58
g59
NtRp2843
(dp2844
g62
(dp2845
g70
I3
ssg71
g2839
sg64
(lp2846
g1373
asbasbasbag57
(g73
g59
NtRp2847
(dp2848
g62
(dp2849
sg71
g2822
sg64
(lp2850
g57
(g78
g59
NtRp2851
(dp2852
g62
(dp2853
g82
g83
ssg71
g2847
sg64
(lp2854
S'HTTP_ACCEPT_CHARSET'
p2855
asbag57
(g78
g59
NtRp2856
(dp2857
g62
(dp2858
g89
g90
ssg71
g2847
sg64
(lp2859
S':'
asbag57
(g78
g59
NtRp2860
(dp2861
g62
(dp2862
sg71
g2847
sg64
(lp2863
g57
(g58
g59
NtRp2864
(dp2865
g62
(dp2866
g70
I3
ssg71
g2860
sg64
(lp2867
g1395
asbasbasbag57
(g73
g59
NtRp2868
(dp2869
g62
(dp2870
sg71
g2822
sg64
(lp2871
g57
(g78
g59
NtRp2872
(dp2873
g62
(dp2874
g82
g83
ssg71
g2868
sg64
(lp2875
S'HTTP_ACCEPT_ENCODING'
p2876
asbag57
(g78
g59
NtRp2877
(dp2878
g62
(dp2879
g89
g90
ssg71
g2868
sg64
(lp2880
S':'
asbag57
(g78
g59
NtRp2881
(dp2882
g62
(dp2883
sg71
g2868
sg64
(lp2884
g57
(g58
g59
NtRp2885
(dp2886
g62
(dp2887
g70
I3
ssg71
g2881
sg64
(lp2888
g1417
asbasbasbag57
(g73
g59
NtRp2889
(dp2890
g62
(dp2891
sg71
g2822
sg64
(lp2892
g57
(g78
g59
NtRp2893
(dp2894
g62
(dp2895
g82
g83
ssg71
g2889
sg64
(lp2896
S'HTTP_ACCEPT_LANGUAGE'
p2897
asbag57
(g78
g59
NtRp2898
(dp2899
g62
(dp2900
g89
g90
ssg71
g2889
sg64
(lp2901
S':'
asbag57
(g78
g59
NtRp2902
(dp2903
g62
(dp2904
sg71
g2889
sg64
(lp2905
g57
(g58
g59
NtRp2906
(dp2907
g62
(dp2908
g70
I3
ssg71
g2902
sg64
(lp2909
g1439
asbasbasbag57
(g73
g59
NtRp2910
(dp2911
g62
(dp2912
sg71
g2822
sg64
(lp2913
g57
(g78
g59
NtRp2914
(dp2915
g62
(dp2916
g82
g83
ssg71
g2910
sg64
(lp2917
S'HTTP_CONNECTION'
p2918
asbag57
(g78
g59
NtRp2919
(dp2920
g62
(dp2921
g89
g90
ssg71
g2910
sg64
(lp2922
S':'
asbag57
(g78
g59
NtRp2923
(dp2924
g62
(dp2925
sg71
g2910
sg64
(lp2926
g57
(g58
g59
NtRp2927
(dp2928
g62
(dp2929
g70
I3
ssg71
g2923
sg64
(lp2930
g1461
asbasbasbag57
(g73
g59
NtRp2931
(dp2932
g62
(dp2933
sg71
g2822
sg64
(lp2934
g57
(g78
g59
NtRp2935
(dp2936
g62
(dp2937
g82
g83
ssg71
g2931
sg64
(lp2938
S'HTTP_COOKIE'
p2939
asbag57
(g78
g59
NtRp2940
(dp2941
g62
(dp2942
g89
g90
ssg71
g2931
sg64
(lp2943
S':'
asbag57
(g78
g59
NtRp2944
(dp2945
g62
(dp2946
sg71
g2931
sg64
(lp2947
g57
(g58
g59
NtRp2948
(dp2949
g62
(dp2950
g70
I3
ssg71
g2944
sg64
(lp2951
g1483
asbasbasbag57
(g73
g59
NtRp2952
(dp2953
g62
(dp2954
sg71
g2822
sg64
(lp2955
g57
(g78
g59
NtRp2956
(dp2957
g62
(dp2958
g82
g83
ssg71
g2952
sg64
(lp2959
S'HTTP_HOST'
p2960
asbag57
(g78
g59
NtRp2961
(dp2962
g62
(dp2963
g89
g90
ssg71
g2952
sg64
(lp2964
S':'
asbag57
(g78
g59
NtRp2965
(dp2966
g62
(dp2967
sg71
g2952
sg64
(lp2968
g57
(g58
g59
NtRp2969
(dp2970
g62
(dp2971
g70
I3
ssg71
g2965
sg64
(lp2972
g1505
asbasbasbag57
(g73
g59
NtRp2973
(dp2974
g62
(dp2975
sg71
g2822
sg64
(lp2976
g57
(g78
g59
NtRp2977
(dp2978
g62
(dp2979
g82
g83
ssg71
g2973
sg64
(lp2980
S'HTTP_REFERER'
p2981
asbag57
(g78
g59
NtRp2982
(dp2983
g62
(dp2984
g89
g90
ssg71
g2973
sg64
(lp2985
S':'
asbag57
(g78
g59
NtRp2986
(dp2987
g62
(dp2988
sg71
g2973
sg64
(lp2989
g57
(g58
g59
NtRp2990
(dp2991
g62
(dp2992
g70
I3
ssg71
g2986
sg64
(lp2993
g1527
asbasbasbag57
(g73
g59
NtRp2994
(dp2995
g62
(dp2996
sg71
g2822
sg64
(lp2997
g57
(g78
g59
NtRp2998
(dp2999
g62
(dp3000
g82
g83
ssg71
g2994
sg64
(lp3001
S'HTTP_USER_AGENT'
p3002
asbag57
(g78
g59
NtRp3003
(dp3004
g62
(dp3005
g89
g90
ssg71
g2994
sg64
(lp3006
S':'
asbag57
(g78
g59
NtRp3007
(dp3008
g62
(dp3009
sg71
g2994
sg64
(lp3010
g57
(g58
g59
NtRp3011
(dp3012
g62
(dp3013
g70
I3
ssg71
g3007
sg64
(lp3014
g1549
asbasbasbag57
(g73
g59
NtRp3015
(dp3016
g62
(dp3017
sg71
g2822
sg64
(lp3018
g57
(g78
g59
NtRp3019
(dp3020
g62
(dp3021
g82
g83
ssg71
g3015
sg64
(lp3022
S'PATH_INFO'
p3023
asbag57
(g78
g59
NtRp3024
(dp3025
g62
(dp3026
g89
g90
ssg71
g3015
sg64
(lp3027
S':'
asbag57
(g78
g59
NtRp3028
(dp3029
g62
(dp3030
sg71
g3015
sg64
(lp3031
g57
(g58
g59
NtRp3032
(dp3033
g62
(dp3034
g70
I3
ssg71
g3028
sg64
(lp3035
g1613
asbasbasbag57
(g73
g59
NtRp3036
(dp3037
g62
(dp3038
sg71
g2822
sg64
(lp3039
g57
(g78
g59
NtRp3040
(dp3041
g62
(dp3042
g82
g83
ssg71
g3036
sg64
(lp3043
S'QUERY_STRING'
p3044
asbag57
(g78
g59
NtRp3045
(dp3046
g62
(dp3047
g89
g90
ssg71
g3036
sg64
(lp3048
S':'
asbag57
(g78
g59
NtRp3049
(dp3050
g62
(dp3051
sg71
g3036
sg64
(lp3052
g57
(g58
g59
NtRp3053
(dp3054
g62
(dp3055
g70
I3
ssg71
g3049
sg64
(lp3056
S''
asbasbasbag57
(g73
g59
NtRp3057
(dp3058
g62
(dp3059
sg71
g2822
sg64
(lp3060
g57
(g78
g59
NtRp3061
(dp3062
g62
(dp3063
g82
g83
ssg71
g3057
sg64
(lp3064
S'REMOTE_ADDR'
p3065
asbag57
(g78
g59
NtRp3066
(dp3067
g62
(dp3068
g89
g90
ssg71
g3057
sg64
(lp3069
S':'
asbag57
(g78
g59
NtRp3070
(dp3071
g62
(dp3072
sg71
g3057
sg64
(lp3073
g57
(g58
g59
NtRp3074
(dp3075
g62
(dp3076
g70
I3
ssg71
g3070
sg64
(lp3077
g190
asbasbasbag57
(g73
g59
NtRp3078
(dp3079
g62
(dp3080
sg71
g2822
sg64
(lp3081
g57
(g78
g59
NtRp3082
(dp3083
g62
(dp3084
g82
g83
ssg71
g3078
sg64
(lp3085
S'REMOTE_PORT'
p3086
asbag57
(g78
g59
NtRp3087
(dp3088
g62
(dp3089
g89
g90
ssg71
g3078
sg64
(lp3090
S':'
asbag57
(g78
g59
NtRp3091
(dp3092
g62
(dp3093
sg71
g3078
sg64
(lp3094
g57
(g58
g59
NtRp3095
(dp3096
g62
(dp3097
g70
I3
ssg71
g3091
sg64
(lp3098
g1677
asbasbasbag57
(g73
g59
NtRp3099
(dp3100
g62
(dp3101
sg71
g2822
sg64
(lp3102
g57
(g78
g59
NtRp3103
(dp3104
g62
(dp3105
g82
g83
ssg71
g3099
sg64
(lp3106
S'REQUEST_METHOD'
p3107
asbag57
(g78
g59
NtRp3108
(dp3109
g62
(dp3110
g89
g90
ssg71
g3099
sg64
(lp3111
S':'
asbag57
(g78
g59
NtRp3112
(dp3113
g62
(dp3114
sg71
g3099
sg64
(lp3115
g57
(g58
g59
NtRp3116
(dp3117
g62
(dp3118
g70
I3
ssg71
g3112
sg64
(lp3119
g1699
asbasbasbag57
(g73
g59
NtRp3120
(dp3121
g62
(dp3122
sg71
g2822
sg64
(lp3123
g57
(g78
g59
NtRp3124
(dp3125
g62
(dp3126
g82
g83
ssg71
g3120
sg64
(lp3127
S'SCRIPT_NAME'
p3128
asbag57
(g78
g59
NtRp3129
(dp3130
g62
(dp3131
g89
g90
ssg71
g3120
sg64
(lp3132
S':'
asbag57
(g78
g59
NtRp3133
(dp3134
g62
(dp3135
sg71
g3120
sg64
(lp3136
g57
(g58
g59
NtRp3137
(dp3138
g62
(dp3139
g70
I3
ssg71
g3133
sg64
(lp3140
S''
asbasbasbag57
(g73
g59
NtRp3141
(dp3142
g62
(dp3143
sg71
g2822
sg64
(lp3144
g57
(g78
g59
NtRp3145
(dp3146
g62
(dp3147
g82
g83
ssg71
g3141
sg64
(lp3148
S'SERVER_NAME'
p3149
asbag57
(g78
g59
NtRp3150
(dp3151
g62
(dp3152
g89
g90
ssg71
g3141
sg64
(lp3153
S':'
asbag57
(g78
g59
NtRp3154
(dp3155
g62
(dp3156
sg71
g3141
sg64
(lp3157
g57
(g58
g59
NtRp3158
(dp3159
g62
(dp3160
g70
I3
ssg71
g3154
sg64
(lp3161
g1742
asbasbasbag57
(g73
g59
NtRp3162
(dp3163
g62
(dp3164
sg71
g2822
sg64
(lp3165
g57
(g78
g59
NtRp3166
(dp3167
g62
(dp3168
g82
g83
ssg71
g3162
sg64
(lp3169
S'SERVER_PORT'
p3170
asbag57
(g78
g59
NtRp3171
(dp3172
g62
(dp3173
g89
g90
ssg71
g3162
sg64
(lp3174
S':'
asbag57
(g78
g59
NtRp3175
(dp3176
g62
(dp3177
sg71
g3162
sg64
(lp3178
g57
(g58
g59
NtRp3179
(dp3180
g62
(dp3181
g70
I3
ssg71
g3175
sg64
(lp3182
g1764
asbasbasbag57
(g73
g59
NtRp3183
(dp3184
g62
(dp3185
sg71
g2822
sg64
(lp3186
g57
(g78
g59
NtRp3187
(dp3188
g62
(dp3189
g82
g83
ssg71
g3183
sg64
(lp3190
S'SERVER_PROTOCOL'
p3191
asbag57
(g78
g59
NtRp3192
(dp3193
g62
(dp3194
g89
g90
ssg71
g3183
sg64
(lp3195
S':'
asbag57
(g78
g59
NtRp3196
(dp3197
g62
(dp3198
sg71
g3183
sg64
(lp3199
g57
(g58
g59
NtRp3200
(dp3201
g62
(dp3202
g70
I3
ssg71
g3196
sg64
(lp3203
g1786
asbasbasbag57
(g73
g59
NtRp3204
(dp3205
g62
(dp3206
sg71
g2822
sg64
(lp3207
g57
(g78
g59
NtRp3208
(dp3209
g62
(dp3210
g82
g83
ssg71
g3204
sg64
(lp3211
S'SERVER_SOFTWARE'
p3212
asbag57
(g78
g59
NtRp3213
(dp3214
g62
(dp3215
g89
g90
ssg71
g3204
sg64
(lp3216
S':'
asbag57
(g78
g59
NtRp3217
(dp3218
g62
(dp3219
sg71
g3204
sg64
(lp3220
g57
(g58
g59
NtRp3221
(dp3222
g62
(dp3223
g70
I3
ssg71
g3217
sg64
(lp3224
g1808
asbasbasbag57
(g73
g59
NtRp3225
(dp3226
g62
(dp3227
sg71
g2822
sg64
(lp3228
g57
(g78
g59
NtRp3229
(dp3230
g62
(dp3231
g82
g83
ssg71
g3225
sg64
(lp3232
S'wsgi.errors'
p3233
asbag57
(g78
g59
NtRp3234
(dp3235
g62
(dp3236
g89
g90
ssg71
g3225
sg64
(lp3237
S':'
asbag57
(g78
g59
NtRp3238
(dp3239
g62
(dp3240
sg71
g3225
sg64
(lp3241
g57
(g58
g59
NtRp3242
(dp3243
g62
(dp3244
g70
I3
ssg71
g3238
sg64
(lp3245
S"<open file '<stderr>', mode 'w' at 0xb77920d0>"
p3246
asbasbasbag57
(g73
g59
NtRp3247
(dp3248
g62
(dp3249
sg71
g2822
sg64
(lp3250
g57
(g78
g59
NtRp3251
(dp3252
g62
(dp3253
g82
g83
ssg71
g3247
sg64
(lp3254
S'wsgi.file_wrapper'
p3255
asbag57
(g78
g59
NtRp3256
(dp3257
g62
(dp3258
g89
g90
ssg71
g3247
sg64
(lp3259
S':'
asbag57
(g78
g59
NtRp3260
(dp3261
g62
(dp3262
sg71
g3247
sg64
(lp3263
g57
(g58
g59
NtRp3264
(dp3265
g62
(dp3266
g70
I3
ssg71
g3260
sg64
(lp3267
S'<class wsgiref.util.FileWrapper at 0xa475a1c>'
p3268
asbasbasbag57
(g73
g59
NtRp3269
(dp3270
g62
(dp3271
sg71
g2822
sg64
(lp3272
g57
(g78
g59
NtRp3273
(dp3274
g62
(dp3275
g82
g83
ssg71
g3269
sg64
(lp3276
S'wsgi.input'
p3277
asbag57
(g78
g59
NtRp3278
(dp3279
g62
(dp3280
g89
g90
ssg71
g3269
sg64
(lp3281
S':'
asbag57
(g78
g59
NtRp3282
(dp3283
g62
(dp3284
sg71
g3269
sg64
(lp3285
g57
(g58
g59
NtRp3286
(dp3287
g62
(dp3288
g70
I3
ssg71
g3282
sg64
(lp3289
S'<cStringIO.StringO object at 0xb4ae180>'
p3290
asbasbasbag57
(g73
g59
NtRp3291
(dp3292
g62
(dp3293
sg71
g2822
sg64
(lp3294
g57
(g78
g59
NtRp3295
(dp3296
g62
(dp3297
g82
g83
ssg71
g3291
sg64
(lp3298
S'wsgi.multiprocess'
p3299
asbag57
(g78
g59
NtRp3300
(dp3301
g62
(dp3302
g89
g90
ssg71
g3291
sg64
(lp3303
S':'
asbag57
(g78
g59
NtRp3304
(dp3305
g62
(dp3306
sg71
g3291
sg64
(lp3307
g57
(g58
g59
NtRp3308
(dp3309
g62
(dp3310
g70
I3
ssg71
g3304
sg64
(lp3311
g100
asbasbasbag57
(g73
g59
NtRp3312
(dp3313
g62
(dp3314
sg71
g2822
sg64
(lp3315
g57
(g78
g59
NtRp3316
(dp3317
g62
(dp3318
g82
g83
ssg71
g3312
sg64
(lp3319
S'wsgi.multithread'
p3320
asbag57
(g78
g59
NtRp3321
(dp3322
g62
(dp3323
g89
g90
ssg71
g3312
sg64
(lp3324
S':'
asbag57
(g78
g59
NtRp3325
(dp3326
g62
(dp3327
sg71
g3312
sg64
(lp3328
g57
(g58
g59
NtRp3329
(dp3330
g62
(dp3331
g70
I3
ssg71
g3325
sg64
(lp3332
g2048
asbasbasbag57
(g73
g59
NtRp3333
(dp3334
g62
(dp3335
sg71
g2822
sg64
(lp3336
g57
(g78
g59
NtRp3337
(dp3338
g62
(dp3339
g82
g83
ssg71
g3333
sg64
(lp3340
S'wsgi.run_once'
p3341
asbag57
(g78
g59
NtRp3342
(dp3343
g62
(dp3344
g89
g90
ssg71
g3333
sg64
(lp3345
S':'
asbag57
(g78
g59
NtRp3346
(dp3347
g62
(dp3348
sg71
g3333
sg64
(lp3349
g57
(g58
g59
NtRp3350
(dp3351
g62
(dp3352
g70
I3
ssg71
g3346
sg64
(lp3353
g100
asbasbasbag57
(g73
g59
NtRp3354
(dp3355
g62
(dp3356
sg71
g2822
sg64
(lp3357
g57
(g78
g59
NtRp3358
(dp3359
g62
(dp3360
g82
g83
ssg71
g3354
sg64
(lp3361
S'wsgi.url_scheme'
p3362
asbag57
(g78
g59
NtRp3363
(dp3364
g62
(dp3365
g89
g90
ssg71
g3354
sg64
(lp3366
S':'
asbag57
(g78
g59
NtRp3367
(dp3368
g62
(dp3369
sg71
g3354
sg64
(lp3370
g57
(g58
g59
NtRp3371
(dp3372
g62
(dp3373
g70
I3
ssg71
g3367
sg64
(lp3374
g2091
asbasbasbag57
(g73
g59
NtRp3375
(dp3376
g62
(dp3377
sg71
g2822
sg64
(lp3378
g57
(g78
g59
NtRp3379
(dp3380
g62
(dp3381
g82
g83
ssg71
g3375
sg64
(lp3382
S'wsgi.version'
p3383
asbag57
(g78
g59
NtRp3384
(dp3385
g62
(dp3386
g89
g90
ssg71
g3375
sg64
(lp3387
S':'
asbag57
(g78
g59
NtRp3388
(dp3389
g62
(dp3390
sg71
g3375
sg64
(lp3391
g57
(g58
g59
NtRp3392
(dp3393
g62
(dp3394
g70
I3
ssg71
g3388
sg64
(lp3395
S'1'
asbasbasbasbasbasbasbasbasbasbasbasbasbsS'frames'
p3396
(lp3397
(dp3398
S'file'
p3399
S'/home/sanjeet/Desktop/install/Development/web2py/gluon/restricted.py'
p3400
sS'dump'
p3401
(dp3402
S'environment'
p3403
S"{'A': <class 'gluon.html.A'>, 'Auth': <class 'gluon.tools.Auth'>, 'B': <class 'gluon.html.B'>, 'BEAUTIFY': <class 'gluon.html.BEAUTIFY'>, 'BODY': <class 'gluon.html.BODY'>, 'BR': <class 'gluon.html.BR'>, 'BUTTON': <class 'gluon.html.BUTTON'>, 'CAT': <class 'gluon.html.CAT'>, 'CENTER': <class 'gluon.html.CENTER'>, 'CLEANUP': <class 'gluon.validators.CLEANUP'>, ...}"
p3404
sS'ccode'
p3405
S'<code object <module> at 0xacb9068, file "/home/...ions/themishrms/controllers/default.py", line 12>'
p3406
ssS'lnum'
p3407
I205
sS'lines'
p3408
(dp3409
I200
S'    try:'
p3410
sI201
S'        if type(code) == types.CodeType:'
p3411
sI202
S'            ccode = code'
p3412
sI203
S'        else:'
p3413
sI204
S'            ccode = compile2(code,layer)'
p3414
sI205
S'        exec ccode in environment'
p3415
sI206
S'    except HTTP:'
p3416
sI207
S'        raise'
p3417
sI208
S'    except RestrictedError:'
p3418
sI209
S'        # do not encapsulate (obfuscate) the original RestrictedError'
p3419
ssS'call'
p3420
S"(code='# -*- coding: utf-8 -*-\\n# this file is released ...\\n\\nresponse._vars=response._caller(admin_newuser)\\n', environment={'A': <class 'gluon.html.A'>, 'Auth': <class 'gluon.tools.Auth'>, 'B': <class 'gluon.html.B'>, 'BEAUTIFY': <class 'gluon.html.BEAUTIFY'>, 'BODY': <class 'gluon.html.BODY'>, 'BR': <class 'gluon.html.BR'>, 'BUTTON': <class 'gluon.html.BUTTON'>, 'CAT': <class 'gluon.html.CAT'>, 'CENTER': <class 'gluon.html.CENTER'>, 'CLEANUP': <class 'gluon.validators.CLEANUP'>, ...}, layer='/home/sanjeet/Desktop/install/Development/web2py/applications/themishrms/controllers/default.py')"
p3421
sS'func'
p3422
S'restricted'
p3423
sa(dp3424
g3399
S'/home/sanjeet/Desktop/install/Development/web2py/applications/themishrms/controllers/default.py'
p3425
sg3401
(dp3426
sg3407
I1370
sg3408
(dp3427
I1359
S"@auth.requires_permission('Emp', 'auth_user')"
p3428
sI1360
S'def adata():'
p3429
sI1361
S'\timport datetime'
p3430
sI1362
S'\tdte=datetime.date.today()'
p3431
sI1363
S'\tpro=request.vars.proname'
p3432
sI1364
S'\tptask=request.vars.protask'
p3433
sI1365
S'\tptime=request.vars.protime'
p3434
sI1366
S'\tfor row in db(db.auth_user.email==auth.user.email).select():'
p3435
sI1367
S'\t\trmgr=row.reporting_manager'
p3436
sI1368
S'\treturn TABLE([TR("Project Name:",INPUT(_type="text",_name="proj",_value=pro,_readonly="readonly")),TR("Client Name:",INPUT(_type="text",_name="client",_value="Client",_readonly="readonly")),TR("Reporting Manager:",INPUT(_type="text",_name="rpm",_value=rmgr,_readonly="readonly")),TR("Project Task:",INPUT(_type="text",_name="protsk",_value=ptask,_readonly="readonly")),TR("Date:",INPUT(_type="text",_name="dte",_value=dte,_readonly="readonly")),TR("Task Discription:",INPUT(_type="text",_name="tskdisc",_value="")),TR("Total Time:",INPUT(_type="text",_name="tottme",_value=ptime))])'
p3437
ssg3420
S'()'
p3438
sg3422
S'<module>'
p3439
sa(dp3440
g3399
S'/home/sanjeet/Desktop/install/Development/web2py/gluon/globals.py'
p3441
sg3401
(dp3442
S'self'
p3443
S'undefined'
p3444
sS'f'
S'<function admin_newuser>'
p3445
ssg3407
I173
sg3408
(dp3446
I168
S'        self.menu = []             # used by the default view layout'
p3447
sI169
S'        self.files = []            # used by web2py_ajax.html'
p3448
sI170
S'        self.generic_patterns = [] # patterns to allow generic views'
p3449
sI171
S"        self.delimiters = ('{{','}}')"
p3450
sI172
S'        self._vars = None'
p3451
sI173
S'        self._caller = lambda f: f()'
p3452
sI174
S'        self._view_environment = None'
p3453
sI175
S'        self._custom_commit = None'
p3454
sI176
S'        self._custom_rollback = None'
p3455
sI177
S''
ssg3420
S'(f=<function admin_newuser>)'
p3456
sg3422
S'<lambda>'
p3457
sa(dp3458
g3399
S'/home/sanjeet/Desktop/install/Development/web2py/gluon/tools.py'
p3459
sg3401
(dp3460
S'action'
p3461
S'<function admin_newuser>'
p3462
sS'a'
S'()'
p3463
sS'b'
g45
ssg3407
I2575
sg3408
(dp3464
I2570
S'                    flag = condition'
p3465
sI2571
S'                if not flag:'
p3466
sI2572
S'                    current.session.flash = self.messages.access_denied'
p3467
sI2573
S'                    return call_or_redirect('
p3468
sI2574
S'                        self.settings.on_failed_authorization)'
p3469
sI2575
S'                return action(*a, **b)'
p3470
sI2576
S'            f.__doc__ = action.__doc__'
p3471
sI2577
S'            f.__name__ = action.__name__'
p3472
sI2578
S'            f.__dict__.update(action.__dict__)'
p3473
sI2579
S'            return f'
p3474
ssg3420
S'(*a=(), **b={})'
p3475
sg3422
S'f'
sa(dp3476
g3399
S'/home/sanjeet/Desktop/install/Development/web2py/applications/themishrms/controllers/default.py'
p3477
sg3401
(dp3478
S'builtinFalse'
p3479
g100
sS'form'
p3480
g3444
sS'SQLFORM.grid'
p3481
S'<function grid>'
p3482
sS'global SQLFORM'
p3483
S"<class 'gluon.sqlhtml.SQLFORM'>"
p3484
sS'create'
p3485
g3444
sS'ids'
p3486
g3444
sS'global db'
p3487
S"<DAL {'auth_event': <Table {'origin': <gluon.dal...a92912c>, '_singular': 'Add new organization'}>}>"
p3488
sS'global del_emp'
p3489
S'<function del_emp>'
p3490
sS'db.auth_user'
p3491
S"<Table {'employee_status': <gluon.dal.Field obje...ion_key': <gluon.dal.Field object at 0xa8648ac>}>"
p3492
sS'selectable'
p3493
g3444
ssg3407
I307
sg3408
(dp3494
I302
S"@auth.requires_permission('CRUD', 'auth_user')"
p3495
sI303
S'def admin_newuser():'
p3496
sI304
S'\tfor row in db(db.image.email == auth.user.email).select():'
p3497
sI305
S'\t\timages=row.image'
p3498
sI306
S'\tdb.auth_user.id.readable = False'
p3499
sI307
S'\tform=SQLFORM.grid(db.auth_user, create=False, selectable = lambda ids: del_emp(ids))'
p3500
sI308
S'\treturn dict(images=images,form=form)'
p3501
sI309
S''
sI310
S"@auth.requires_permission('CRUD', 'auth_user')"
p3502
sI311
S'def del_emp(ids):'
p3503
ssg3420
S'()'
p3504
sg3422
S'admin_newuser'
p3505
sa(dp3506
g3399
S'/home/sanjeet/Desktop/install/Development/web2py/gluon/sqlhtml.py'
p3507
sg3401
(dp3508
S'field'
p3509
S'<gluon.dal.Field object>'
p3510
sS'row'
p3511
S"<Row {'auth_event': <gluon.dal.Set object at 0xa...embership': <gluon.dal.Set object at 0xaaec64c>}>"
p3512
sS'value'
p3513
S'1'
sS'field.represent'
p3514
S'<function <lambda>>'
p3515
ssg3407
I1805
sg3408
(dp3516
I1800
S"                    if field.type=='blob': continue"
p3517
sI1801
S'                    value = row[field]'
p3518
sI1802
S'                    maxlength = maxtextlengths.get(str(field),maxtextlength)'
p3519
sI1803
S'                    if field.represent:'
p3520
sI1804
S'                        try:'
p3521
sI1805
S'                            value=field.represent(value,row)'
p3522
sI1806
S'                        except KeyError:'
p3523
sI1807
S'                            try:'
p3524
sI1808
S'                                value=field.represent(value,row[field._tablename])'
p3525
sI1809
S'                            except KeyError:'
p3526
ssg3420
S"(query=<Table {'employee_status': <gluon.dal.Field obje...ion_key': <gluon.dal.Field object at 0xa8648ac>}>, fields=[<gluon.dal.Field object>, <gluon.dal.Field object>, <gluon.dal.Field object>, <gluon.dal.Field object>, <gluon.dal.Field object>, <gluon.dal.Field object>, <gluon.dal.Field object>, <gluon.dal.Field object>, <gluon.dal.Field object>, <gluon.dal.Field object>, <gluon.dal.Field object>, <gluon.dal.Field object>, <gluon.dal.Field object>, <gluon.dal.Field object>, <gluon.dal.Field object>, <gluon.dal.Field object>, <gluon.dal.Field object>, <gluon.dal.Field object>, <gluon.dal.Field object>], field_id=<gluon.dal.Field object>, left=None, headers={}, orderby=None, searchable=True, sortable=True, paginate=20, deletable=True, editable=True, details=True, selectable=<function <lambda>>, create=False, csv=True, links=None, links_in_grid=True, upload=<function <lambda>>, args=[], user_signature=True, maxtextlengths={}, maxtextlength=20, onvalidation=None, oncreate=None, onupdate=None, ondelete=None, sorter_icons=(<gluon.html.XML object>, <gluon.html.XML object>), ui={'button': 'button', 'buttonadd': 'icon plus', 'buttonback': 'icon leftarrow', 'buttondelete': 'icon trash', 'buttonedit': 'icon pen', 'buttonexport': 'icon downarrow', 'buttontable': 'icon rightarrow', 'buttontext': 'buttontext button', 'buttonview': 'icon magnifier', 'content': '', ...}, showbuttontext=True, _class='web2py_grid', formname='web2py_grid', search_widget=<function <lambda>>, ignore_rw=False, formstyle='table3cols')"
p3527
sg3422
S'grid'
p3528
sa(dp3529
g3399
S'/home/sanjeet/Desktop/install/Development/web2py/applications/themishrms/models/db.py'
p3530
sg3401
(dp3531
S'represent'
p3532
g3444
sS'c'
S'1'
sS'db.add_new_organization'
p3533
S"<Table {'organization_name': <gluon.dal.Field ob...0xa92912c>, '_singular': 'Add new organization'}>"
p3534
sS'global Field'
p3535
S"<class 'gluon.dal.Field'>"
p3536
sS'global get_org_name'
p3537
S'<function get_org_name>'
p3538
sS'global IS_IN_DB'
p3539
S"<class 'gluon.validators.IS_IN_DB'>"
p3540
sS'global db'
p3541
S"<DAL {'auth_event': <Table {'origin': <gluon.dal...a92912c>, '_singular': 'Add new organization'}>}>"
p3542
sS'requires'
p3543
g3444
sS'row'
p3544
S"<Row {'auth_event': <gluon.dal.Set object at 0xa...embership': <gluon.dal.Set object at 0xaaec64c>}>"
p3545
ssg3407
I59
sg3408
(dp3546
I54
S"db.define_table('add_new_department',"
p3547
sI55
S"\t\t\t\tField('department','string',requires=IS_NOT_EMPTY(error_message='Please add the Department Name')),"
p3548
sI56
S"\t\t\t\tField('description','string',requires=IS_NOT_EMPTY(error_message='Please add the Description of the Department Name')))"
p3549
sI57
S''
sI58
S"auth.settings.extra_fields['auth_user']= ["
p3550
sI59
S"\tField('organization_name',db.add_new_organization, represent=lambda c, row:get_org_name(c), requires = IS_IN_DB(db,'add_new_organization.id','%(organization_name)s')),"
p3551
sI60
S"\tField('location', 'string', requires=IS_NOT_EMPTY(error_message='Location name cannot be empty')),"
p3552
sI61
S"\tField('department',db.add_new_department, represent=lambda c, row:get_dpt_name(c), requires = IS_IN_DB(db,'add_new_department.id','%(department)s')),"
p3553
sI62
S"\tField('employee_code', 'string', unique=True, requires=IS_NOT_EMPTY(error_message='Employee code cannot be empty')),"
p3554
sI63
S"\tField('personal_email', requires=IS_EMAIL(error_message='Invalid personal email-id')),"
p3555
ssg3420
S"(c=1, row=<Row {'auth_event': <gluon.dal.Set object at 0xa...embership': <gluon.dal.Set object at 0xaaec64c>}>)"
p3556
sg3422
g3457
sa(dp3557
g3399
S'/home/sanjeet/Desktop/install/Development/web2py/applications/themishrms/models/db.py'
p3558
sg3401
(dp3559
S'row.organization_name'
p3560
g3444
sS'row'
p3561
S'None'
p3562
ssg3407
I113
sg3408
(dp3563
I108
S'## >>> for row in rows: print row.id, row.myfield'
p3564
sI109
S'#########################################################################'
p3565
sI110
S''
sI111
S'def get_org_name(c):'
p3566
sI112
S'\trow = db(db.add_new_organization.id == c).select(db.add_new_organization.organization_name).first()'
p3567
sI113
S'\treturn row.organization_name'
p3568
sI114
S''
sI115
S'def get_dpt_name(c):'
p3569
sI116
S'\trow = db(db.add_new_department.id == c).select(db.add_new_department.department).first()'
p3570
sI117
S'\treturn row.department'
p3571
ssg3420
S'(c=1)'
p3572
sg3422
S'get_org_name'
p3573
sasS'pyver'
p3574
S'Python 2.6.5: /usr/bin/python'
p3575
sS'session'
p3576
g57
(g58
g59
NtRp3577
(dp3578
g62
(dp3579
sg64
(lp3580
g57
(g66
g59
NtRp3581
(dp3582
g62
(dp3583
g70
I5
ssg71
Nsg64
(lp3584
g57
(g73
g59
NtRp3585
(dp3586
g62
(dp3587
sg71
g3581
sg64
(lp3588
g57
(g78
g59
NtRp3589
(dp3590
g62
(dp3591
g82
g83
ssg71
g3585
sg64
(lp3592
S'auth'
p3593
asbag57
(g78
g59
NtRp3594
(dp3595
g62
(dp3596
g89
g90
ssg71
g3585
sg64
(lp3597
S':'
asbag57
(g78
g59
NtRp3598
(dp3599
g62
(dp3600
sg71
g3585
sg64
(lp3601
g57
(g58
g59
NtRp3602
(dp3603
g62
(dp3604
g70
I5
ssg71
g3598
sg64
(lp3605
g57
(g66
g59
NtRp3606
(dp3607
g62
(dp3608
g70
I4
ssg71
Nsg64
(lp3609
g57
(g73
g59
NtRp3610
(dp3611
g62
(dp3612
sg71
g3606
sg64
(lp3613
g57
(g78
g59
NtRp3614
(dp3615
g62
(dp3616
g82
g83
ssg71
g3610
sg64
(lp3617
S'expiration'
p3618
asbag57
(g78
g59
NtRp3619
(dp3620
g62
(dp3621
g89
g90
ssg71
g3610
sg64
(lp3622
S':'
asbag57
(g78
g59
NtRp3623
(dp3624
g62
(dp3625
sg71
g3610
sg64
(lp3626
g57
(g58
g59
NtRp3627
(dp3628
g62
(dp3629
g70
I4
ssg71
g3623
sg64
(lp3630
S'3600'
p3631
asbasbasbag57
(g73
g59
NtRp3632
(dp3633
g62
(dp3634
sg71
g3606
sg64
(lp3635
g57
(g78
g59
NtRp3636
(dp3637
g62
(dp3638
g82
g83
ssg71
g3632
sg64
(lp3639
S'hmac_key'
p3640
asbag57
(g78
g59
NtRp3641
(dp3642
g62
(dp3643
g89
g90
ssg71
g3632
sg64
(lp3644
S':'
asbag57
(g78
g59
NtRp3645
(dp3646
g62
(dp3647
sg71
g3632
sg64
(lp3648
g57
(g58
g59
NtRp3649
(dp3650
g62
(dp3651
g70
I4
ssg71
g3645
sg64
(lp3652
S'1ee26a47-5022-48e5-b8eb-6e93dfe4d119'
p3653
asbasbasbag57
(g73
g59
NtRp3654
(dp3655
g62
(dp3656
sg71
g3606
sg64
(lp3657
g57
(g78
g59
NtRp3658
(dp3659
g62
(dp3660
g82
g83
ssg71
g3654
sg64
(lp3661
S'last_visit'
p3662
asbag57
(g78
g59
NtRp3663
(dp3664
g62
(dp3665
g89
g90
ssg71
g3654
sg64
(lp3666
S':'
asbag57
(g78
g59
NtRp3667
(dp3668
g62
(dp3669
sg71
g3654
sg64
(lp3670
g57
(g58
g59
NtRp3671
(dp3672
g62
(dp3673
g70
I4
ssg71
g3667
sg64
(lp3674
S'datetime.datetime(2012, 5, 5, 22, 58, 26, 504792)'
p3675
asbasbasbag57
(g73
g59
NtRp3676
(dp3677
g62
(dp3678
sg71
g3606
sg64
(lp3679
g57
(g78
g59
NtRp3680
(dp3681
g62
(dp3682
g82
g83
ssg71
g3676
sg64
(lp3683
S'remember'
p3684
asbag57
(g78
g59
NtRp3685
(dp3686
g62
(dp3687
g89
g90
ssg71
g3676
sg64
(lp3688
S':'
asbag57
(g78
g59
NtRp3689
(dp3690
g62
(dp3691
sg71
g3676
sg64
(lp3692
g57
(g58
g59
NtRp3693
(dp3694
g62
(dp3695
g70
I4
ssg71
g3689
sg64
(lp3696
g100
asbasbasbag57
(g73
g59
NtRp3697
(dp3698
g62
(dp3699
sg71
g3606
sg64
(lp3700
g57
(g78
g59
NtRp3701
(dp3702
g62
(dp3703
g82
g83
ssg71
g3697
sg64
(lp3704
S'user'
p3705
asbag57
(g78
g59
NtRp3706
(dp3707
g62
(dp3708
g89
g90
ssg71
g3697
sg64
(lp3709
S':'
asbag57
(g78
g59
NtRp3710
(dp3711
g62
(dp3712
sg71
g3697
sg64
(lp3713
g57
(g58
g59
NtRp3714
(dp3715
g62
(dp3716
g70
I4
ssg71
g3710
sg64
(lp3717
g57
(g66
g59
NtRp3718
(dp3719
g62
(dp3720
g70
I3
ssg71
Nsg64
(lp3721
g57
(g73
g59
NtRp3722
(dp3723
g62
(dp3724
sg71
g3718
sg64
(lp3725
g57
(g78
g59
NtRp3726
(dp3727
g62
(dp3728
g82
g83
ssg71
g3722
sg64
(lp3729
S'date_of_exit'
p3730
asbag57
(g78
g59
NtRp3731
(dp3732
g62
(dp3733
g89
g90
ssg71
g3722
sg64
(lp3734
S':'
asbag57
(g78
g59
NtRp3735
(dp3736
g62
(dp3737
sg71
g3722
sg64
(lp3738
g57
(g58
g59
NtRp3739
(dp3740
g62
(dp3741
g70
I3
ssg71
g3735
sg64
(lp3742
S'None'
p3743
asbasbasbag57
(g73
g59
NtRp3744
(dp3745
g62
(dp3746
sg71
g3718
sg64
(lp3747
g57
(g78
g59
NtRp3748
(dp3749
g62
(dp3750
g82
g83
ssg71
g3744
sg64
(lp3751
S'date_of_joining'
p3752
asbag57
(g78
g59
NtRp3753
(dp3754
g62
(dp3755
g89
g90
ssg71
g3744
sg64
(lp3756
S':'
asbag57
(g78
g59
NtRp3757
(dp3758
g62
(dp3759
sg71
g3744
sg64
(lp3760
g57
(g58
g59
NtRp3761
(dp3762
g62
(dp3763
g70
I3
ssg71
g3757
sg64
(lp3764
S'None'
p3765
asbasbasbag57
(g73
g59
NtRp3766
(dp3767
g62
(dp3768
sg71
g3718
sg64
(lp3769
g57
(g78
g59
NtRp3770
(dp3771
g62
(dp3772
g82
g83
ssg71
g3766
sg64
(lp3773
S'department'
p3774
asbag57
(g78
g59
NtRp3775
(dp3776
g62
(dp3777
g89
g90
ssg71
g3766
sg64
(lp3778
S':'
asbag57
(g78
g59
NtRp3779
(dp3780
g62
(dp3781
sg71
g3766
sg64
(lp3782
g57
(g58
g59
NtRp3783
(dp3784
g62
(dp3785
g70
I3
ssg71
g3779
sg64
(lp3786
S'1'
asbasbasbag57
(g73
g59
NtRp3787
(dp3788
g62
(dp3789
sg71
g3718
sg64
(lp3790
g57
(g78
g59
NtRp3791
(dp3792
g62
(dp3793
g82
g83
ssg71
g3787
sg64
(lp3794
S'designation'
p3795
asbag57
(g78
g59
NtRp3796
(dp3797
g62
(dp3798
g89
g90
ssg71
g3787
sg64
(lp3799
S':'
asbag57
(g78
g59
NtRp3800
(dp3801
g62
(dp3802
sg71
g3787
sg64
(lp3803
g57
(g58
g59
NtRp3804
(dp3805
g62
(dp3806
g70
I3
ssg71
g3800
sg64
(lp3807
S'None'
p3808
asbasbasbag57
(g73
g59
NtRp3809
(dp3810
g62
(dp3811
sg71
g3718
sg64
(lp3812
g57
(g78
g59
NtRp3813
(dp3814
g62
(dp3815
g82
g83
ssg71
g3809
sg64
(lp3816
S'email'
p3817
asbag57
(g78
g59
NtRp3818
(dp3819
g62
(dp3820
g89
g90
ssg71
g3809
sg64
(lp3821
S':'
asbag57
(g78
g59
NtRp3822
(dp3823
g62
(dp3824
sg71
g3809
sg64
(lp3825
g57
(g58
g59
NtRp3826
(dp3827
g62
(dp3828
g70
I3
ssg71
g3822
sg64
(lp3829
S'admin@themislexsol.com'
p3830
asbasbasbag57
(g73
g59
NtRp3831
(dp3832
g62
(dp3833
sg71
g3718
sg64
(lp3834
g57
(g78
g59
NtRp3835
(dp3836
g62
(dp3837
g82
g83
ssg71
g3831
sg64
(lp3838
S'employee_code'
p3839
asbag57
(g78
g59
NtRp3840
(dp3841
g62
(dp3842
g89
g90
ssg71
g3831
sg64
(lp3843
S':'
asbag57
(g78
g59
NtRp3844
(dp3845
g62
(dp3846
sg71
g3831
sg64
(lp3847
g57
(g58
g59
NtRp3848
(dp3849
g62
(dp3850
g70
I3
ssg71
g3844
sg64
(lp3851
S'None'
p3852
asbasbasbag57
(g73
g59
NtRp3853
(dp3854
g62
(dp3855
sg71
g3718
sg64
(lp3856
g57
(g78
g59
NtRp3857
(dp3858
g62
(dp3859
g82
g83
ssg71
g3853
sg64
(lp3860
S'employee_status'
p3861
asbag57
(g78
g59
NtRp3862
(dp3863
g62
(dp3864
g89
g90
ssg71
g3853
sg64
(lp3865
S':'
asbag57
(g78
g59
NtRp3866
(dp3867
g62
(dp3868
sg71
g3853
sg64
(lp3869
g57
(g58
g59
NtRp3870
(dp3871
g62
(dp3872
g70
I3
ssg71
g3866
sg64
(lp3873
S'None'
p3874
asbasbasbag57
(g73
g59
NtRp3875
(dp3876
g62
(dp3877
sg71
g3718
sg64
(lp3878
g57
(g78
g59
NtRp3879
(dp3880
g62
(dp3881
g82
g83
ssg71
g3875
sg64
(lp3882
S'exit_remark'
p3883
asbag57
(g78
g59
NtRp3884
(dp3885
g62
(dp3886
g89
g90
ssg71
g3875
sg64
(lp3887
S':'
asbag57
(g78
g59
NtRp3888
(dp3889
g62
(dp3890
sg71
g3875
sg64
(lp3891
g57
(g58
g59
NtRp3892
(dp3893
g62
(dp3894
g70
I3
ssg71
g3888
sg64
(lp3895
S'None'
p3896
asbasbasbag57
(g73
g59
NtRp3897
(dp3898
g62
(dp3899
sg71
g3718
sg64
(lp3900
g57
(g78
g59
NtRp3901
(dp3902
g62
(dp3903
g82
g83
ssg71
g3897
sg64
(lp3904
S'first_name'
p3905
asbag57
(g78
g59
NtRp3906
(dp3907
g62
(dp3908
g89
g90
ssg71
g3897
sg64
(lp3909
S':'
asbag57
(g78
g59
NtRp3910
(dp3911
g62
(dp3912
sg71
g3897
sg64
(lp3913
g57
(g58
g59
NtRp3914
(dp3915
g62
(dp3916
g70
I3
ssg71
g3910
sg64
(lp3917
S'Admin'
p3918
asbasbasbag57
(g73
g59
NtRp3919
(dp3920
g62
(dp3921
sg71
g3718
sg64
(lp3922
g57
(g78
g59
NtRp3923
(dp3924
g62
(dp3925
g82
g83
ssg71
g3919
sg64
(lp3926
S'id'
p3927
asbag57
(g78
g59
NtRp3928
(dp3929
g62
(dp3930
g89
g90
ssg71
g3919
sg64
(lp3931
S':'
asbag57
(g78
g59
NtRp3932
(dp3933
g62
(dp3934
sg71
g3919
sg64
(lp3935
g57
(g58
g59
NtRp3936
(dp3937
g62
(dp3938
g70
I3
ssg71
g3932
sg64
(lp3939
S'3'
asbasbasbag57
(g73
g59
NtRp3940
(dp3941
g62
(dp3942
sg71
g3718
sg64
(lp3943
g57
(g78
g59
NtRp3944
(dp3945
g62
(dp3946
g82
g83
ssg71
g3940
sg64
(lp3947
S'last_name'
p3948
asbag57
(g78
g59
NtRp3949
(dp3950
g62
(dp3951
g89
g90
ssg71
g3940
sg64
(lp3952
S':'
asbag57
(g78
g59
NtRp3953
(dp3954
g62
(dp3955
sg71
g3940
sg64
(lp3956
g57
(g58
g59
NtRp3957
(dp3958
g62
(dp3959
g70
I3
ssg71
g3953
sg64
(lp3960
S''
asbasbasbag57
(g73
g59
NtRp3961
(dp3962
g62
(dp3963
sg71
g3718
sg64
(lp3964
g57
(g78
g59
NtRp3965
(dp3966
g62
(dp3967
g82
g83
ssg71
g3961
sg64
(lp3968
S'location'
p3969
asbag57
(g78
g59
NtRp3970
(dp3971
g62
(dp3972
g89
g90
ssg71
g3961
sg64
(lp3973
S':'
asbag57
(g78
g59
NtRp3974
(dp3975
g62
(dp3976
sg71
g3961
sg64
(lp3977
g57
(g58
g59
NtRp3978
(dp3979
g62
(dp3980
g70
I3
ssg71
g3974
sg64
(lp3981
S'None'
p3982
asbasbasbag57
(g73
g59
NtRp3983
(dp3984
g62
(dp3985
sg71
g3718
sg64
(lp3986
g57
(g78
g59
NtRp3987
(dp3988
g62
(dp3989
g82
g83
ssg71
g3983
sg64
(lp3990
S'organization_name'
p3991
asbag57
(g78
g59
NtRp3992
(dp3993
g62
(dp3994
g89
g90
ssg71
g3983
sg64
(lp3995
S':'
asbag57
(g78
g59
NtRp3996
(dp3997
g62
(dp3998
sg71
g3983
sg64
(lp3999
g57
(g58
g59
NtRp4000
(dp4001
g62
(dp4002
g70
I3
ssg71
g3996
sg64
(lp4003
S'1'
asbasbasbag57
(g73
g59
NtRp4004
(dp4005
g62
(dp4006
sg71
g3718
sg64
(lp4007
g57
(g78
g59
NtRp4008
(dp4009
g62
(dp4010
g82
g83
ssg71
g4004
sg64
(lp4011
S'password'
p4012
asbag57
(g78
g59
NtRp4013
(dp4014
g62
(dp4015
g89
g90
ssg71
g4004
sg64
(lp4016
S':'
asbag57
(g78
g59
NtRp4017
(dp4018
g62
(dp4019
sg71
g4004
sg64
(lp4020
g57
(g58
g59
NtRp4021
(dp4022
g62
(dp4023
g70
I3
ssg71
g4017
sg64
(lp4024
S'd9112a75303bdd71a94bf896ec050b70'
p4025
asbasbasbag57
(g73
g59
NtRp4026
(dp4027
g62
(dp4028
sg71
g3718
sg64
(lp4029
g57
(g78
g59
NtRp4030
(dp4031
g62
(dp4032
g82
g83
ssg71
g4026
sg64
(lp4033
S'personal_email'
p4034
asbag57
(g78
g59
NtRp4035
(dp4036
g62
(dp4037
g89
g90
ssg71
g4026
sg64
(lp4038
S':'
asbag57
(g78
g59
NtRp4039
(dp4040
g62
(dp4041
sg71
g4026
sg64
(lp4042
g57
(g58
g59
NtRp4043
(dp4044
g62
(dp4045
g70
I3
ssg71
g4039
sg64
(lp4046
S'None'
p4047
asbasbasbag57
(g73
g59
NtRp4048
(dp4049
g62
(dp4050
sg71
g3718
sg64
(lp4051
g57
(g78
g59
NtRp4052
(dp4053
g62
(dp4054
g82
g83
ssg71
g4048
sg64
(lp4055
S'registration_id'
p4056
asbag57
(g78
g59
NtRp4057
(dp4058
g62
(dp4059
g89
g90
ssg71
g4048
sg64
(lp4060
S':'
asbag57
(g78
g59
NtRp4061
(dp4062
g62
(dp4063
sg71
g4048
sg64
(lp4064
g57
(g58
g59
NtRp4065
(dp4066
g62
(dp4067
g70
I3
ssg71
g4061
sg64
(lp4068
S''
asbasbasbag57
(g73
g59
NtRp4069
(dp4070
g62
(dp4071
sg71
g3718
sg64
(lp4072
g57
(g78
g59
NtRp4073
(dp4074
g62
(dp4075
g82
g83
ssg71
g4069
sg64
(lp4076
S'registration_key'
p4077
asbag57
(g78
g59
NtRp4078
(dp4079
g62
(dp4080
g89
g90
ssg71
g4069
sg64
(lp4081
S':'
asbag57
(g78
g59
NtRp4082
(dp4083
g62
(dp4084
sg71
g4069
sg64
(lp4085
g57
(g58
g59
NtRp4086
(dp4087
g62
(dp4088
g70
I3
ssg71
g4082
sg64
(lp4089
S''
asbasbasbag57
(g73
g59
NtRp4090
(dp4091
g62
(dp4092
sg71
g3718
sg64
(lp4093
g57
(g78
g59
NtRp4094
(dp4095
g62
(dp4096
g82
g83
ssg71
g4090
sg64
(lp4097
S'reporting_manager'
p4098
asbag57
(g78
g59
NtRp4099
(dp4100
g62
(dp4101
g89
g90
ssg71
g4090
sg64
(lp4102
S':'
asbag57
(g78
g59
NtRp4103
(dp4104
g62
(dp4105
sg71
g4090
sg64
(lp4106
g57
(g58
g59
NtRp4107
(dp4108
g62
(dp4109
g70
I3
ssg71
g4103
sg64
(lp4110
S'None'
p4111
asbasbasbag57
(g73
g59
NtRp4112
(dp4113
g62
(dp4114
sg71
g3718
sg64
(lp4115
g57
(g78
g59
NtRp4116
(dp4117
g62
(dp4118
g82
g83
ssg71
g4112
sg64
(lp4119
S'reset_password_key'
p4120
asbag57
(g78
g59
NtRp4121
(dp4122
g62
(dp4123
g89
g90
ssg71
g4112
sg64
(lp4124
S':'
asbag57
(g78
g59
NtRp4125
(dp4126
g62
(dp4127
sg71
g4112
sg64
(lp4128
g57
(g58
g59
NtRp4129
(dp4130
g62
(dp4131
g70
I3
ssg71
g4125
sg64
(lp4132
S''
asbasbasbasbasbasbasbag57
(g73
g59
NtRp4133
(dp4134
g62
(dp4135
sg71
g3606
sg64
(lp4136
g57
(g78
g59
NtRp4137
(dp4138
g62
(dp4139
g82
g83
ssg71
g4133
sg64
(lp4140
S'user_groups'
p4141
asbag57
(g78
g59
NtRp4142
(dp4143
g62
(dp4144
g89
g90
ssg71
g4133
sg64
(lp4145
S':'
asbag57
(g78
g59
NtRp4146
(dp4147
g62
(dp4148
sg71
g4133
sg64
(lp4149
g57
(g58
g59
NtRp4150
(dp4151
g62
(dp4152
g70
I4
ssg71
g4146
sg64
(lp4153
g57
(g66
g59
NtRp4154
(dp4155
g62
(dp4156
g70
I3
ssg71
Nsg64
(lp4157
g57
(g73
g59
NtRp4158
(dp4159
g62
(dp4160
sg71
g4154
sg64
(lp4161
g57
(g78
g59
NtRp4162
(dp4163
g62
(dp4164
g82
g83
ssg71
g4158
sg64
(lp4165
S'1'
asbag57
(g78
g59
NtRp4166
(dp4167
g62
(dp4168
g89
g90
ssg71
g4158
sg64
(lp4169
S':'
asbag57
(g78
g59
NtRp4170
(dp4171
g62
(dp4172
sg71
g4158
sg64
(lp4173
g57
(g58
g59
NtRp4174
(dp4175
g62
(dp4176
g70
I3
ssg71
g4170
sg64
(lp4177
S'Admin'
p4178
asbasbasbasbasbasbasbasbasbasbasbag57
(g73
g59
NtRp4179
(dp4180
g62
(dp4181
sg71
g3581
sg64
(lp4182
g57
(g78
g59
NtRp4183
(dp4184
g62
(dp4185
g82
g83
ssg71
g4179
sg64
(lp4186
S'last_query'
p4187
asbag57
(g78
g59
NtRp4188
(dp4189
g62
(dp4190
g89
g90
ssg71
g4179
sg64
(lp4191
S':'
asbag57
(g78
g59
NtRp4192
(dp4193
g62
(dp4194
sg71
g4179
sg64
(lp4195
g57
(g58
g59
NtRp4196
(dp4197
g62
(dp4198
g70
I5
ssg71
g4192
sg64
(lp4199
S'db.auth_user.id>0'
p4200
asbasbasbasbasbsS'etype'
p4201
S"<type 'exceptions.AttributeError'>"
p4202
sS'date'
p4203
S'Sat May  5 22:58:36 2012'
p4204
sS'response'
p4205
g57
(g58
g59
NtRp4206
(dp4207
g62
(dp4208
sg64
(lp4209
g57
(g66
g59
NtRp4210
(dp4211
g62
(dp4212
g70
I5
ssg71
Nsg64
(lp4213
g57
(g73
g59
NtRp4214
(dp4215
g62
(dp4216
sg71
g4210
sg64
(lp4217
g57
(g78
g59
NtRp4218
(dp4219
g62
(dp4220
g82
g83
ssg71
g4214
sg64
(lp4221
S'atlsmenu'
p4222
asbag57
(g78
g59
NtRp4223
(dp4224
g62
(dp4225
g89
g90
ssg71
g4214
sg64
(lp4226
S':'
asbag57
(g78
g59
NtRp4227
(dp4228
g62
(dp4229
sg71
g4214
sg64
(lp4230
g57
(g58
g59
NtRp4231
(dp4232
g62
(dp4233
g70
I5
ssg71
g4227
sg64
(lp4234
g57
(g66
g59
NtRp4235
(dp4236
g62
(dp4237
g70
I4
ssg71
Nsg64
(lp4238
g57
(g73
g59
NtRp4239
(dp4240
g62
(dp4241
sg71
g4235
sg64
(lp4242
g57
(g78
g59
NtRp4243
(dp4244
g62
(dp4245
sg71
g4239
sg64
(lp4246
g57
(g58
g59
NtRp4247
(dp4248
g62
(dp4249
g70
I4
ssg71
g4243
sg64
(lp4250
g57
(g66
g59
NtRp4251
(dp4252
g62
(dp4253
g70
I3
ssg71
Nsg64
(lp4254
g57
(g73
g59
NtRp4255
(dp4256
g62
(dp4257
sg71
g4251
sg64
(lp4258
g57
(g78
g59
NtRp4259
(dp4260
g62
(dp4261
sg71
g4255
sg64
(lp4262
g57
(g58
g59
NtRp4263
(dp4264
g62
(dp4265
g70
I3
ssg71
g4259
sg64
(lp4266
cgluon.languages
lazyT_unpickle
p4267
(S's\x07\x00\x00\x00Website'
tRp4268
asbasbasbag57
(g73
g59
NtRp4269
(dp4270
g62
(dp4271
sg71
g4251
sg64
(lp4272
g57
(g78
g59
NtRp4273
(dp4274
g62
(dp4275
sg71
g4269
sg64
(lp4276
g57
(g58
g59
NtRp4277
(dp4278
g62
(dp4279
g70
I3
ssg71
g4273
sg64
(lp4280
g100
asbasbasbag57
(g73
g59
NtRp4281
(dp4282
g62
(dp4283
sg71
g4251
sg64
(lp4284
g57
(g78
g59
NtRp4285
(dp4286
g62
(dp4287
sg71
g4281
sg64
(lp4288
g57
(g58
g59
NtRp4289
(dp4290
g62
(dp4291
g70
I3
ssg71
g4285
sg64
(lp4292
S'/themishrms/default/index'
p4293
asbasbasbag57
(g73
g59
NtRp4294
(dp4295
g62
(dp4296
sg71
g4251
sg64
(lp4297
g57
(g78
g59
NtRp4298
(dp4299
g62
(dp4300
sg71
g4294
sg64
(lp4301
g57
(g58
g59
NtRp4302
(dp4303
g62
(dp4304
g70
I3
ssg71
g4298
sg64
(lp4305
g57
(g66
g59
NtRp4306
(dp4307
g62
(dp4308
g70
I2
ssg71
Nsg64
(lp4309
sbasbasbasbasbasbasbasbag57
(g73
g59
NtRp4310
(dp4311
g62
(dp4312
sg71
g4235
sg64
(lp4313
g57
(g78
g59
NtRp4314
(dp4315
g62
(dp4316
sg71
g4310
sg64
(lp4317
g57
(g58
g59
NtRp4318
(dp4319
g62
(dp4320
g70
I4
ssg71
g4314
sg64
(lp4321
g57
(g66
g59
NtRp4322
(dp4323
g62
(dp4324
g70
I3
ssg71
Nsg64
(lp4325
g57
(g73
g59
NtRp4326
(dp4327
g62
(dp4328
sg71
g4322
sg64
(lp4329
g57
(g78
g59
NtRp4330
(dp4331
g62
(dp4332
sg71
g4326
sg64
(lp4333
g57
(g58
g59
NtRp4334
(dp4335
g62
(dp4336
g70
I3
ssg71
g4330
sg64
(lp4337
g4267
(S's\x07\x00\x00\x00Webmail'
tRp4338
asbasbasbag57
(g73
g59
NtRp4339
(dp4340
g62
(dp4341
sg71
g4322
sg64
(lp4342
g57
(g78
g59
NtRp4343
(dp4344
g62
(dp4345
sg71
g4339
sg64
(lp4346
g57
(g58
g59
NtRp4347
(dp4348
g62
(dp4349
g70
I3
ssg71
g4343
sg64
(lp4350
g100
asbasbasbag57
(g73
g59
NtRp4351
(dp4352
g62
(dp4353
sg71
g4322
sg64
(lp4354
g57
(g78
g59
NtRp4355
(dp4356
g62
(dp4357
sg71
g4351
sg64
(lp4358
g57
(g58
g59
NtRp4359
(dp4360
g62
(dp4361
g70
I3
ssg71
g4355
sg64
(lp4362
S'/themishrms/default/#'
p4363
asbasbasbag57
(g73
g59
NtRp4364
(dp4365
g62
(dp4366
sg71
g4322
sg64
(lp4367
g57
(g78
g59
NtRp4368
(dp4369
g62
(dp4370
sg71
g4364
sg64
(lp4371
g57
(g58
g59
NtRp4372
(dp4373
g62
(dp4374
g70
I3
ssg71
g4368
sg64
(lp4375
g57
(g66
g59
NtRp4376
(dp4377
g62
(dp4378
g70
I2
ssg71
Nsg64
(lp4379
sbasbasbasbasbasbasbasbag57
(g73
g59
NtRp4380
(dp4381
g62
(dp4382
sg71
g4235
sg64
(lp4383
g57
(g78
g59
NtRp4384
(dp4385
g62
(dp4386
sg71
g4380
sg64
(lp4387
g57
(g58
g59
NtRp4388
(dp4389
g62
(dp4390
g70
I4
ssg71
g4384
sg64
(lp4391
g57
(g66
g59
NtRp4392
(dp4393
g62
(dp4394
g70
I3
ssg71
Nsg64
(lp4395
g57
(g73
g59
NtRp4396
(dp4397
g62
(dp4398
sg71
g4392
sg64
(lp4399
g57
(g78
g59
NtRp4400
(dp4401
g62
(dp4402
sg71
g4396
sg64
(lp4403
g57
(g58
g59
NtRp4404
(dp4405
g62
(dp4406
g70
I3
ssg71
g4400
sg64
(lp4407
g4267
(S's\r\x00\x00\x00Themis Portal'
tRp4408
asbasbasbag57
(g73
g59
NtRp4409
(dp4410
g62
(dp4411
sg71
g4392
sg64
(lp4412
g57
(g78
g59
NtRp4413
(dp4414
g62
(dp4415
sg71
g4409
sg64
(lp4416
g57
(g58
g59
NtRp4417
(dp4418
g62
(dp4419
g70
I3
ssg71
g4413
sg64
(lp4420
g100
asbasbasbag57
(g73
g59
NtRp4421
(dp4422
g62
(dp4423
sg71
g4392
sg64
(lp4424
g57
(g78
g59
NtRp4425
(dp4426
g62
(dp4427
sg71
g4421
sg64
(lp4428
g57
(g58
g59
NtRp4429
(dp4430
g62
(dp4431
g70
I3
ssg71
g4425
sg64
(lp4432
S'/themishrms/default/#'
p4433
asbasbasbag57
(g73
g59
NtRp4434
(dp4435
g62
(dp4436
sg71
g4392
sg64
(lp4437
g57
(g78
g59
NtRp4438
(dp4439
g62
(dp4440
sg71
g4434
sg64
(lp4441
g57
(g58
g59
NtRp4442
(dp4443
g62
(dp4444
g70
I3
ssg71
g4438
sg64
(lp4445
g57
(g66
g59
NtRp4446
(dp4447
g62
(dp4448
g70
I2
ssg71
Nsg64
(lp4449
sbasbasbasbasbasbasbasbag57
(g73
g59
NtRp4450
(dp4451
g62
(dp4452
sg71
g4235
sg64
(lp4453
g57
(g78
g59
NtRp4454
(dp4455
g62
(dp4456
sg71
g4450
sg64
(lp4457
g57
(g58
g59
NtRp4458
(dp4459
g62
(dp4460
g70
I4
ssg71
g4454
sg64
(lp4461
g57
(g66
g59
NtRp4462
(dp4463
g62
(dp4464
g70
I3
ssg71
Nsg64
(lp4465
g57
(g73
g59
NtRp4466
(dp4467
g62
(dp4468
sg71
g4462
sg64
(lp4469
g57
(g78
g59
NtRp4470
(dp4471
g62
(dp4472
sg71
g4466
sg64
(lp4473
g57
(g58
g59
NtRp4474
(dp4475
g62
(dp4476
g70
I3
ssg71
g4470
sg64
(lp4477
g4267
(S's\x0f\x00\x00\x00Themis Policies'
tRp4478
asbasbasbag57
(g73
g59
NtRp4479
(dp4480
g62
(dp4481
sg71
g4462
sg64
(lp4482
g57
(g78
g59
NtRp4483
(dp4484
g62
(dp4485
sg71
g4479
sg64
(lp4486
g57
(g58
g59
NtRp4487
(dp4488
g62
(dp4489
g70
I3
ssg71
g4483
sg64
(lp4490
g100
asbasbasbag57
(g73
g59
NtRp4491
(dp4492
g62
(dp4493
sg71
g4462
sg64
(lp4494
g57
(g78
g59
NtRp4495
(dp4496
g62
(dp4497
sg71
g4491
sg64
(lp4498
g57
(g58
g59
NtRp4499
(dp4500
g62
(dp4501
g70
I3
ssg71
g4495
sg64
(lp4502
S'/themishrms/default/add_project'
p4503
asbasbasbag57
(g73
g59
NtRp4504
(dp4505
g62
(dp4506
sg71
g4462
sg64
(lp4507
g57
(g78
g59
NtRp4508
(dp4509
g62
(dp4510
sg71
g4504
sg64
(lp4511
g57
(g58
g59
NtRp4512
(dp4513
g62
(dp4514
g70
I3
ssg71
g4508
sg64
(lp4515
g57
(g66
g59
NtRp4516
(dp4517
g62
(dp4518
g70
I2
ssg71
Nsg64
(lp4519
sbasbasbasbasbasbasbasbag57
(g73
g59
NtRp4520
(dp4521
g62
(dp4522
sg71
g4235
sg64
(lp4523
g57
(g78
g59
NtRp4524
(dp4525
g62
(dp4526
sg71
g4520
sg64
(lp4527
g57
(g58
g59
NtRp4528
(dp4529
g62
(dp4530
g70
I4
ssg71
g4524
sg64
(lp4531
g57
(g66
g59
NtRp4532
(dp4533
g62
(dp4534
g70
I3
ssg71
Nsg64
(lp4535
g57
(g73
g59
NtRp4536
(dp4537
g62
(dp4538
sg71
g4532
sg64
(lp4539
g57
(g78
g59
NtRp4540
(dp4541
g62
(dp4542
sg71
g4536
sg64
(lp4543
g57
(g58
g59
NtRp4544
(dp4545
g62
(dp4546
g70
I3
ssg71
g4540
sg64
(lp4547
g4267
(S's\x0f\x00\x00\x00Contact Details'
tRp4548
asbasbasbag57
(g73
g59
NtRp4549
(dp4550
g62
(dp4551
sg71
g4532
sg64
(lp4552
g57
(g78
g59
NtRp4553
(dp4554
g62
(dp4555
sg71
g4549
sg64
(lp4556
g57
(g58
g59
NtRp4557
(dp4558
g62
(dp4559
g70
I3
ssg71
g4553
sg64
(lp4560
g100
asbasbasbag57
(g73
g59
NtRp4561
(dp4562
g62
(dp4563
sg71
g4532
sg64
(lp4564
g57
(g78
g59
NtRp4565
(dp4566
g62
(dp4567
sg71
g4561
sg64
(lp4568
g57
(g58
g59
NtRp4569
(dp4570
g62
(dp4571
g70
I3
ssg71
g4565
sg64
(lp4572
S'/themishrms/default/admin_contact_detail'
p4573
asbasbasbag57
(g73
g59
NtRp4574
(dp4575
g62
(dp4576
sg71
g4532
sg64
(lp4577
g57
(g78
g59
NtRp4578
(dp4579
g62
(dp4580
sg71
g4574
sg64
(lp4581
g57
(g58
g59
NtRp4582
(dp4583
g62
(dp4584
g70
I3
ssg71
g4578
sg64
(lp4585
g57
(g66
g59
NtRp4586
(dp4587
g62
(dp4588
g70
I2
ssg71
Nsg64
(lp4589
sbasbasbasbasbasbasbasbasbasbasbasbag57
(g73
g59
NtRp4590
(dp4591
g62
(dp4592
sg71
g4210
sg64
(lp4593
g57
(g78
g59
NtRp4594
(dp4595
g62
(dp4596
g82
g83
ssg71
g4590
sg64
(lp4597
g155
asbag57
(g78
g59
NtRp4598
(dp4599
g62
(dp4600
g89
g90
ssg71
g4590
sg64
(lp4601
S':'
asbag57
(g78
g59
NtRp4602
(dp4603
g62
(dp4604
sg71
g4590
sg64
(lp4605
g57
(g58
g59
NtRp4606
(dp4607
g62
(dp4608
g70
I5
ssg71
g4602
sg64
(lp4609
S'<cStringIO.StringO object at 0xa78e160>'
p4610
asbasbasbag57
(g73
g59
NtRp4611
(dp4612
g62
(dp4613
sg71
g4210
sg64
(lp4614
g57
(g78
g59
NtRp4615
(dp4616
g62
(dp4617
g82
g83
ssg71
g4611
sg64
(lp4618
g221
asbag57
(g78
g59
NtRp4619
(dp4620
g62
(dp4621
g89
g90
ssg71
g4611
sg64
(lp4622
S':'
asbag57
(g78
g59
NtRp4623
(dp4624
g62
(dp4625
sg71
g4611
sg64
(lp4626
g57
(g58
g59
NtRp4627
(dp4628
g62
(dp4629
g70
I5
ssg71
g4623
sg64
(lp4630
g57
(g66
g59
NtRp4631
(dp4632
g62
(dp4633
g70
I4
ssg71
Nsg64
(lp4634
g57
(g73
g59
NtRp4635
(dp4636
g62
(dp4637
sg71
g4631
sg64
(lp4638
g57
(g78
g59
NtRp4639
(dp4640
g62
(dp4641
g82
g83
ssg71
g4635
sg64
(lp4642
S'session_id_themishrms'
p4643
asbag57
(g78
g59
NtRp4644
(dp4645
g62
(dp4646
g89
g90
ssg71
g4635
sg64
(lp4647
S':'
asbag57
(g78
g59
NtRp4648
(dp4649
g62
(dp4650
sg71
g4635
sg64
(lp4651
g57
(g58
g59
NtRp4652
(dp4653
g62
(dp4654
g70
I4
ssg71
g4648
sg64
(lp4655
g57
(g66
g59
NtRp4656
(dp4657
g62
(dp4658
g70
I3
ssg71
Nsg64
(lp4659
g57
(g73
g59
NtRp4660
(dp4661
g62
(dp4662
sg71
g4656
sg64
(lp4663
g57
(g78
g59
NtRp4664
(dp4665
g62
(dp4666
g82
g83
ssg71
g4660
sg64
(lp4667
g271
asbag57
(g78
g59
NtRp4668
(dp4669
g62
(dp4670
g89
g90
ssg71
g4660
sg64
(lp4671
S':'
asbag57
(g78
g59
NtRp4672
(dp4673
g62
(dp4674
sg71
g4660
sg64
(lp4675
g57
(g58
g59
NtRp4676
(dp4677
g62
(dp4678
g70
I3
ssg71
g4672
sg64
(lp4679
S''
asbasbasbag57
(g73
g59
NtRp4680
(dp4681
g62
(dp4682
sg71
g4656
sg64
(lp4683
g57
(g78
g59
NtRp4684
(dp4685
g62
(dp4686
g82
g83
ssg71
g4680
sg64
(lp4687
g292
asbag57
(g78
g59
NtRp4688
(dp4689
g62
(dp4690
g89
g90
ssg71
g4680
sg64
(lp4691
S':'
asbag57
(g78
g59
NtRp4692
(dp4693
g62
(dp4694
sg71
g4680
sg64
(lp4695
g57
(g58
g59
NtRp4696
(dp4697
g62
(dp4698
g70
I3
ssg71
g4692
sg64
(lp4699
S''
asbasbasbag57
(g73
g59
NtRp4700
(dp4701
g62
(dp4702
sg71
g4656
sg64
(lp4703
g57
(g78
g59
NtRp4704
(dp4705
g62
(dp4706
g82
g83
ssg71
g4700
sg64
(lp4707
g313
asbag57
(g78
g59
NtRp4708
(dp4709
g62
(dp4710
g89
g90
ssg71
g4700
sg64
(lp4711
S':'
asbag57
(g78
g59
NtRp4712
(dp4713
g62
(dp4714
sg71
g4700
sg64
(lp4715
g57
(g58
g59
NtRp4716
(dp4717
g62
(dp4718
g70
I3
ssg71
g4712
sg64
(lp4719
S''
asbasbasbag57
(g73
g59
NtRp4720
(dp4721
g62
(dp4722
sg71
g4656
sg64
(lp4723
g57
(g78
g59
NtRp4724
(dp4725
g62
(dp4726
g82
g83
ssg71
g4720
sg64
(lp4727
g334
asbag57
(g78
g59
NtRp4728
(dp4729
g62
(dp4730
g89
g90
ssg71
g4720
sg64
(lp4731
S':'
asbag57
(g78
g59
NtRp4732
(dp4733
g62
(dp4734
sg71
g4720
sg64
(lp4735
g57
(g58
g59
NtRp4736
(dp4737
g62
(dp4738
g70
I3
ssg71
g4732
sg64
(lp4739
S''
asbasbasbag57
(g73
g59
NtRp4740
(dp4741
g62
(dp4742
sg71
g4656
sg64
(lp4743
g57
(g78
g59
NtRp4744
(dp4745
g62
(dp4746
g82
g83
ssg71
g4740
sg64
(lp4747
g355
asbag57
(g78
g59
NtRp4748
(dp4749
g62
(dp4750
g89
g90
ssg71
g4740
sg64
(lp4751
S':'
asbag57
(g78
g59
NtRp4752
(dp4753
g62
(dp4754
sg71
g4740
sg64
(lp4755
g57
(g58
g59
NtRp4756
(dp4757
g62
(dp4758
g70
I3
ssg71
g4752
sg64
(lp4759
S''
asbasbasbag57
(g73
g59
NtRp4760
(dp4761
g62
(dp4762
sg71
g4656
sg64
(lp4763
g57
(g78
g59
NtRp4764
(dp4765
g62
(dp4766
g82
g83
ssg71
g4760
sg64
(lp4767
g376
asbag57
(g78
g59
NtRp4768
(dp4769
g62
(dp4770
g89
g90
ssg71
g4760
sg64
(lp4771
S':'
asbag57
(g78
g59
NtRp4772
(dp4773
g62
(dp4774
sg71
g4760
sg64
(lp4775
g57
(g58
g59
NtRp4776
(dp4777
g62
(dp4778
g70
I3
ssg71
g4772
sg64
(lp4779
S'/'
asbasbasbag57
(g73
g59
NtRp4780
(dp4781
g62
(dp4782
sg71
g4656
sg64
(lp4783
g57
(g78
g59
NtRp4784
(dp4785
g62
(dp4786
g82
g83
ssg71
g4780
sg64
(lp4787
g397
asbag57
(g78
g59
NtRp4788
(dp4789
g62
(dp4790
g89
g90
ssg71
g4780
sg64
(lp4791
S':'
asbag57
(g78
g59
NtRp4792
(dp4793
g62
(dp4794
sg71
g4780
sg64
(lp4795
g57
(g58
g59
NtRp4796
(dp4797
g62
(dp4798
g70
I3
ssg71
g4792
sg64
(lp4799
S''
asbasbasbag57
(g73
g59
NtRp4800
(dp4801
g62
(dp4802
sg71
g4656
sg64
(lp4803
g57
(g78
g59
NtRp4804
(dp4805
g62
(dp4806
g82
g83
ssg71
g4800
sg64
(lp4807
g418
asbag57
(g78
g59
NtRp4808
(dp4809
g62
(dp4810
g89
g90
ssg71
g4800
sg64
(lp4811
S':'
asbag57
(g78
g59
NtRp4812
(dp4813
g62
(dp4814
sg71
g4800
sg64
(lp4815
g57
(g58
g59
NtRp4816
(dp4817
g62
(dp4818
g70
I3
ssg71
g4812
sg64
(lp4819
S''
asbasbasbasbasbasbasbasbasbasbasbag57
(g73
g59
NtRp4820
(dp4821
g62
(dp4822
sg71
g4210
sg64
(lp4823
g57
(g78
g59
NtRp4824
(dp4825
g62
(dp4826
g82
g83
ssg71
g4820
sg64
(lp4827
S'delimiters'
p4828
asbag57
(g78
g59
NtRp4829
(dp4830
g62
(dp4831
g89
g90
ssg71
g4820
sg64
(lp4832
S':'
asbag57
(g78
g59
NtRp4833
(dp4834
g62
(dp4835
sg71
g4820
sg64
(lp4836
g57
(g58
g59
NtRp4837
(dp4838
g62
(dp4839
g70
I5
ssg71
g4833
sg64
(lp4840
g57
(g66
g59
NtRp4841
(dp4842
g62
(dp4843
g70
I4
ssg71
Nsg64
(lp4844
g57
(g73
g59
NtRp4845
(dp4846
g62
(dp4847
sg71
g4841
sg64
(lp4848
g57
(g78
g59
NtRp4849
(dp4850
g62
(dp4851
sg71
g4845
sg64
(lp4852
g57
(g58
g59
NtRp4853
(dp4854
g62
(dp4855
g70
I4
ssg71
g4849
sg64
(lp4856
S'{{'
p4857
asbasbasbag57
(g73
g59
NtRp4858
(dp4859
g62
(dp4860
sg71
g4841
sg64
(lp4861
g57
(g78
g59
NtRp4862
(dp4863
g62
(dp4864
sg71
g4858
sg64
(lp4865
g57
(g58
g59
NtRp4866
(dp4867
g62
(dp4868
g70
I4
ssg71
g4862
sg64
(lp4869
S'}}'
p4870
asbasbasbasbasbasbasbag57
(g73
g59
NtRp4871
(dp4872
g62
(dp4873
sg71
g4210
sg64
(lp4874
g57
(g78
g59
NtRp4875
(dp4876
g62
(dp4877
g82
g83
ssg71
g4871
sg64
(lp4878
S'files'
p4879
asbag57
(g78
g59
NtRp4880
(dp4881
g62
(dp4882
g89
g90
ssg71
g4871
sg64
(lp4883
S':'
asbag57
(g78
g59
NtRp4884
(dp4885
g62
(dp4886
sg71
g4871
sg64
(lp4887
g57
(g58
g59
NtRp4888
(dp4889
g62
(dp4890
g70
I5
ssg71
g4884
sg64
(lp4891
g57
(g66
g59
NtRp4892
(dp4893
g62
(dp4894
g70
I4
ssg71
Nsg64
(lp4895
sbasbasbasbag57
(g73
g59
NtRp4896
(dp4897
g62
(dp4898
sg71
g4210
sg64
(lp4899
g57
(g78
g59
NtRp4900
(dp4901
g62
(dp4902
g82
g83
ssg71
g4896
sg64
(lp4903
S'flash'
p4904
asbag57
(g78
g59
NtRp4905
(dp4906
g62
(dp4907
g89
g90
ssg71
g4896
sg64
(lp4908
S':'
asbag57
(g78
g59
NtRp4909
(dp4910
g62
(dp4911
sg71
g4896
sg64
(lp4912
g57
(g58
g59
NtRp4913
(dp4914
g62
(dp4915
g70
I5
ssg71
g4909
sg64
(lp4916
S''
asbasbasbag57
(g73
g59
NtRp4917
(dp4918
g62
(dp4919
sg71
g4210
sg64
(lp4920
g57
(g78
g59
NtRp4921
(dp4922
g62
(dp4923
g82
g83
ssg71
g4917
sg64
(lp4924
S'generic_patterns'
p4925
asbag57
(g78
g59
NtRp4926
(dp4927
g62
(dp4928
g89
g90
ssg71
g4917
sg64
(lp4929
S':'
asbag57
(g78
g59
NtRp4930
(dp4931
g62
(dp4932
sg71
g4917
sg64
(lp4933
g57
(g58
g59
NtRp4934
(dp4935
g62
(dp4936
g70
I5
ssg71
g4930
sg64
(lp4937
g57
(g66
g59
NtRp4938
(dp4939
g62
(dp4940
g70
I4
ssg71
Nsg64
(lp4941
g57
(g73
g59
NtRp4942
(dp4943
g62
(dp4944
sg71
g4938
sg64
(lp4945
g57
(g78
g59
NtRp4946
(dp4947
g62
(dp4948
sg71
g4942
sg64
(lp4949
g57
(g58
g59
NtRp4950
(dp4951
g62
(dp4952
g70
I4
ssg71
g4946
sg64
(lp4953
S'*'
asbasbasbasbasbasbasbag57
(g73
g59
NtRp4954
(dp4955
g62
(dp4956
sg71
g4210
sg64
(lp4957
g57
(g78
g59
NtRp4958
(dp4959
g62
(dp4960
g82
g83
ssg71
g4954
sg64
(lp4961
S'headers'
p4962
asbag57
(g78
g59
NtRp4963
(dp4964
g62
(dp4965
g89
g90
ssg71
g4954
sg64
(lp4966
S':'
asbag57
(g78
g59
NtRp4967
(dp4968
g62
(dp4969
sg71
g4954
sg64
(lp4970
g57
(g58
g59
NtRp4971
(dp4972
g62
(dp4973
g70
I5
ssg71
g4967
sg64
(lp4974
g57
(g66
g59
NtRp4975
(dp4976
g62
(dp4977
g70
I4
ssg71
Nsg64
(lp4978
g57
(g73
g59
NtRp4979
(dp4980
g62
(dp4981
sg71
g4975
sg64
(lp4982
g57
(g78
g59
NtRp4983
(dp4984
g62
(dp4985
g82
g83
ssg71
g4979
sg64
(lp4986
S'Cache-Control'
p4987
asbag57
(g78
g59
NtRp4988
(dp4989
g62
(dp4990
g89
g90
ssg71
g4979
sg64
(lp4991
S':'
asbag57
(g78
g59
NtRp4992
(dp4993
g62
(dp4994
sg71
g4979
sg64
(lp4995
g57
(g58
g59
NtRp4996
(dp4997
g62
(dp4998
g70
I4
ssg71
g4992
sg64
(lp4999
S'no-store, no-cache, must-revalidate, post-check=0, pre-check=0'
p5000
asbasbasbag57
(g73
g59
NtRp5001
(dp5002
g62
(dp5003
sg71
g4975
sg64
(lp5004
g57
(g78
g59
NtRp5005
(dp5006
g62
(dp5007
g82
g83
ssg71
g5001
sg64
(lp5008
S'Content-Type'
p5009
asbag57
(g78
g59
NtRp5010
(dp5011
g62
(dp5012
g89
g90
ssg71
g5001
sg64
(lp5013
S':'
asbag57
(g78
g59
NtRp5014
(dp5015
g62
(dp5016
sg71
g5001
sg64
(lp5017
g57
(g58
g59
NtRp5018
(dp5019
g62
(dp5020
g70
I4
ssg71
g5014
sg64
(lp5021
S'text/html; charset=utf-8'
p5022
asbasbasbag57
(g73
g59
NtRp5023
(dp5024
g62
(dp5025
sg71
g4975
sg64
(lp5026
g57
(g78
g59
NtRp5027
(dp5028
g62
(dp5029
g82
g83
ssg71
g5023
sg64
(lp5030
S'Expires'
p5031
asbag57
(g78
g59
NtRp5032
(dp5033
g62
(dp5034
g89
g90
ssg71
g5023
sg64
(lp5035
S':'
asbag57
(g78
g59
NtRp5036
(dp5037
g62
(dp5038
sg71
g5023
sg64
(lp5039
g57
(g58
g59
NtRp5040
(dp5041
g62
(dp5042
g70
I4
ssg71
g5036
sg64
(lp5043
S'Sat, 05 May 2012 17:28:36 GMT'
p5044
asbasbasbag57
(g73
g59
NtRp5045
(dp5046
g62
(dp5047
sg71
g4975
sg64
(lp5048
g57
(g78
g59
NtRp5049
(dp5050
g62
(dp5051
g82
g83
ssg71
g5045
sg64
(lp5052
S'Pragma'
p5053
asbag57
(g78
g59
NtRp5054
(dp5055
g62
(dp5056
g89
g90
ssg71
g5045
sg64
(lp5057
S':'
asbag57
(g78
g59
NtRp5058
(dp5059
g62
(dp5060
sg71
g5045
sg64
(lp5061
g57
(g58
g59
NtRp5062
(dp5063
g62
(dp5064
g70
I4
ssg71
g5058
sg64
(lp5065
S'no-cache'
p5066
asbasbasbag57
(g73
g59
NtRp5067
(dp5068
g62
(dp5069
sg71
g4975
sg64
(lp5070
g57
(g78
g59
NtRp5071
(dp5072
g62
(dp5073
g82
g83
ssg71
g5067
sg64
(lp5074
S'X-Powered-By'
p5075
asbag57
(g78
g59
NtRp5076
(dp5077
g62
(dp5078
g89
g90
ssg71
g5067
sg64
(lp5079
S':'
asbag57
(g78
g59
NtRp5080
(dp5081
g62
(dp5082
sg71
g5067
sg64
(lp5083
g57
(g58
g59
NtRp5084
(dp5085
g62
(dp5086
g70
I4
ssg71
g5080
sg64
(lp5087
S'web2py'
p5088
asbasbasbasbasbasbasbag57
(g73
g59
NtRp5089
(dp5090
g62
(dp5091
sg71
g4210
sg64
(lp5092
g57
(g78
g59
NtRp5093
(dp5094
g62
(dp5095
g82
g83
ssg71
g5089
sg64
(lp5096
S'menu'
p5097
asbag57
(g78
g59
NtRp5098
(dp5099
g62
(dp5100
g89
g90
ssg71
g5089
sg64
(lp5101
S':'
asbag57
(g78
g59
NtRp5102
(dp5103
g62
(dp5104
sg71
g5089
sg64
(lp5105
g57
(g58
g59
NtRp5106
(dp5107
g62
(dp5108
g70
I5
ssg71
g5102
sg64
(lp5109
g57
(g66
g59
NtRp5110
(dp5111
g62
(dp5112
g70
I4
ssg71
Nsg64
(lp5113
g57
(g73
g59
NtRp5114
(dp5115
g62
(dp5116
sg71
g5110
sg64
(lp5117
g57
(g78
g59
NtRp5118
(dp5119
g62
(dp5120
sg71
g5114
sg64
(lp5121
g57
(g58
g59
NtRp5122
(dp5123
g62
(dp5124
g70
I4
ssg71
g5118
sg64
(lp5125
g57
(g66
g59
NtRp5126
(dp5127
g62
(dp5128
g70
I3
ssg71
Nsg64
(lp5129
g57
(g73
g59
NtRp5130
(dp5131
g62
(dp5132
sg71
g5126
sg64
(lp5133
g57
(g78
g59
NtRp5134
(dp5135
g62
(dp5136
sg71
g5130
sg64
(lp5137
g57
(g58
g59
NtRp5138
(dp5139
g62
(dp5140
g70
I3
ssg71
g5134
sg64
(lp5141
g4267
(S's\x04\x00\x00\x00HOME'
tRp5142
asbasbasbag57
(g73
g59
NtRp5143
(dp5144
g62
(dp5145
sg71
g5126
sg64
(lp5146
g57
(g78
g59
NtRp5147
(dp5148
g62
(dp5149
sg71
g5143
sg64
(lp5150
g57
(g58
g59
NtRp5151
(dp5152
g62
(dp5153
g70
I3
ssg71
g5147
sg64
(lp5154
g100
asbasbasbag57
(g73
g59
NtRp5155
(dp5156
g62
(dp5157
sg71
g5126
sg64
(lp5158
g57
(g78
g59
NtRp5159
(dp5160
g62
(dp5161
sg71
g5155
sg64
(lp5162
g57
(g58
g59
NtRp5163
(dp5164
g62
(dp5165
g70
I3
ssg71
g5159
sg64
(lp5166
S'/themishrms/default/index'
p5167
asbasbasbag57
(g73
g59
NtRp5168
(dp5169
g62
(dp5170
sg71
g5126
sg64
(lp5171
g57
(g78
g59
NtRp5172
(dp5173
g62
(dp5174
sg71
g5168
sg64
(lp5175
g57
(g58
g59
NtRp5176
(dp5177
g62
(dp5178
g70
I3
ssg71
g5172
sg64
(lp5179
g57
(g66
g59
NtRp5180
(dp5181
g62
(dp5182
g70
I2
ssg71
Nsg64
(lp5183
sbasbasbasbasbasbasbasbag57
(g73
g59
NtRp5184
(dp5185
g62
(dp5186
sg71
g5110
sg64
(lp5187
g57
(g78
g59
NtRp5188
(dp5189
g62
(dp5190
sg71
g5184
sg64
(lp5191
g57
(g58
g59
NtRp5192
(dp5193
g62
(dp5194
g70
I4
ssg71
g5188
sg64
(lp5195
g57
(g66
g59
NtRp5196
(dp5197
g62
(dp5198
g70
I3
ssg71
Nsg64
(lp5199
g57
(g73
g59
NtRp5200
(dp5201
g62
(dp5202
sg71
g5196
sg64
(lp5203
g57
(g78
g59
NtRp5204
(dp5205
g62
(dp5206
sg71
g5200
sg64
(lp5207
g57
(g58
g59
NtRp5208
(dp5209
g62
(dp5210
g70
I3
ssg71
g5204
sg64
(lp5211
g4267
(S's\t\x00\x00\x00ABOUT US '
tRp5212
asbasbasbag57
(g73
g59
NtRp5213
(dp5214
g62
(dp5215
sg71
g5196
sg64
(lp5216
g57
(g78
g59
NtRp5217
(dp5218
g62
(dp5219
sg71
g5213
sg64
(lp5220
g57
(g58
g59
NtRp5221
(dp5222
g62
(dp5223
g70
I3
ssg71
g5217
sg64
(lp5224
g100
asbasbasbag57
(g73
g59
NtRp5225
(dp5226
g62
(dp5227
sg71
g5196
sg64
(lp5228
g57
(g78
g59
NtRp5229
(dp5230
g62
(dp5231
sg71
g5225
sg64
(lp5232
g57
(g58
g59
NtRp5233
(dp5234
g62
(dp5235
g70
I3
ssg71
g5229
sg64
(lp5236
S'/themishrms/default/tlsabout'
p5237
asbasbasbag57
(g73
g59
NtRp5238
(dp5239
g62
(dp5240
sg71
g5196
sg64
(lp5241
g57
(g78
g59
NtRp5242
(dp5243
g62
(dp5244
sg71
g5238
sg64
(lp5245
g57
(g58
g59
NtRp5246
(dp5247
g62
(dp5248
g70
I3
ssg71
g5242
sg64
(lp5249
g57
(g66
g59
NtRp5250
(dp5251
g62
(dp5252
g70
I2
ssg71
Nsg64
(lp5253
sbasbasbasbasbasbasbasbag57
(g73
g59
NtRp5254
(dp5255
g62
(dp5256
sg71
g5110
sg64
(lp5257
g57
(g78
g59
NtRp5258
(dp5259
g62
(dp5260
sg71
g5254
sg64
(lp5261
g57
(g58
g59
NtRp5262
(dp5263
g62
(dp5264
g70
I4
ssg71
g5258
sg64
(lp5265
g57
(g66
g59
NtRp5266
(dp5267
g62
(dp5268
g70
I3
ssg71
Nsg64
(lp5269
g57
(g73
g59
NtRp5270
(dp5271
g62
(dp5272
sg71
g5266
sg64
(lp5273
g57
(g78
g59
NtRp5274
(dp5275
g62
(dp5276
sg71
g5270
sg64
(lp5277
g57
(g58
g59
NtRp5278
(dp5279
g62
(dp5280
g70
I3
ssg71
g5274
sg64
(lp5281
g4267
(S's\x0f\x00\x00\x00OUR EXPERTISE  '
tRp5282
asbasbasbag57
(g73
g59
NtRp5283
(dp5284
g62
(dp5285
sg71
g5266
sg64
(lp5286
g57
(g78
g59
NtRp5287
(dp5288
g62
(dp5289
sg71
g5283
sg64
(lp5290
g57
(g58
g59
NtRp5291
(dp5292
g62
(dp5293
g70
I3
ssg71
g5287
sg64
(lp5294
g100
asbasbasbag57
(g73
g59
NtRp5295
(dp5296
g62
(dp5297
sg71
g5266
sg64
(lp5298
g57
(g78
g59
NtRp5299
(dp5300
g62
(dp5301
sg71
g5295
sg64
(lp5302
g57
(g58
g59
NtRp5303
(dp5304
g62
(dp5305
g70
I3
ssg71
g5299
sg64
(lp5306
S'/themishrms/default/tlsservice'
p5307
asbasbasbag57
(g73
g59
NtRp5308
(dp5309
g62
(dp5310
sg71
g5266
sg64
(lp5311
g57
(g78
g59
NtRp5312
(dp5313
g62
(dp5314
sg71
g5308
sg64
(lp5315
g57
(g58
g59
NtRp5316
(dp5317
g62
(dp5318
g70
I3
ssg71
g5312
sg64
(lp5319
g57
(g66
g59
NtRp5320
(dp5321
g62
(dp5322
g70
I2
ssg71
Nsg64
(lp5323
sbasbasbasbasbasbasbasbag57
(g73
g59
NtRp5324
(dp5325
g62
(dp5326
sg71
g5110
sg64
(lp5327
g57
(g78
g59
NtRp5328
(dp5329
g62
(dp5330
sg71
g5324
sg64
(lp5331
g57
(g58
g59
NtRp5332
(dp5333
g62
(dp5334
g70
I4
ssg71
g5328
sg64
(lp5335
g57
(g66
g59
NtRp5336
(dp5337
g62
(dp5338
g70
I3
ssg71
Nsg64
(lp5339
g57
(g73
g59
NtRp5340
(dp5341
g62
(dp5342
sg71
g5336
sg64
(lp5343
g57
(g78
g59
NtRp5344
(dp5345
g62
(dp5346
sg71
g5340
sg64
(lp5347
g57
(g58
g59
NtRp5348
(dp5349
g62
(dp5350
g70
I3
ssg71
g5344
sg64
(lp5351
g4267
(S's\x08\x00\x00\x00OUR TEAM'
tRp5352
asbasbasbag57
(g73
g59
NtRp5353
(dp5354
g62
(dp5355
sg71
g5336
sg64
(lp5356
g57
(g78
g59
NtRp5357
(dp5358
g62
(dp5359
sg71
g5353
sg64
(lp5360
g57
(g58
g59
NtRp5361
(dp5362
g62
(dp5363
g70
I3
ssg71
g5357
sg64
(lp5364
g100
asbasbasbag57
(g73
g59
NtRp5365
(dp5366
g62
(dp5367
sg71
g5336
sg64
(lp5368
g57
(g78
g59
NtRp5369
(dp5370
g62
(dp5371
sg71
g5365
sg64
(lp5372
g57
(g58
g59
NtRp5373
(dp5374
g62
(dp5375
g70
I3
ssg71
g5369
sg64
(lp5376
S'/themishrms/default/tlsoteam'
p5377
asbasbasbag57
(g73
g59
NtRp5378
(dp5379
g62
(dp5380
sg71
g5336
sg64
(lp5381
g57
(g78
g59
NtRp5382
(dp5383
g62
(dp5384
sg71
g5378
sg64
(lp5385
g57
(g58
g59
NtRp5386
(dp5387
g62
(dp5388
g70
I3
ssg71
g5382
sg64
(lp5389
g57
(g66
g59
NtRp5390
(dp5391
g62
(dp5392
g70
I2
ssg71
Nsg64
(lp5393
sbasbasbasbasbasbasbasbag57
(g73
g59
NtRp5394
(dp5395
g62
(dp5396
sg71
g5110
sg64
(lp5397
g57
(g78
g59
NtRp5398
(dp5399
g62
(dp5400
sg71
g5394
sg64
(lp5401
g57
(g58
g59
NtRp5402
(dp5403
g62
(dp5404
g70
I4
ssg71
g5398
sg64
(lp5405
g57
(g66
g59
NtRp5406
(dp5407
g62
(dp5408
g70
I3
ssg71
Nsg64
(lp5409
g57
(g73
g59
NtRp5410
(dp5411
g62
(dp5412
sg71
g5406
sg64
(lp5413
g57
(g78
g59
NtRp5414
(dp5415
g62
(dp5416
sg71
g5410
sg64
(lp5417
g57
(g58
g59
NtRp5418
(dp5419
g62
(dp5420
g70
I3
ssg71
g5414
sg64
(lp5421
g4267
(S's\n\x00\x00\x00OPERATIONS'
tRp5422
asbasbasbag57
(g73
g59
NtRp5423
(dp5424
g62
(dp5425
sg71
g5406
sg64
(lp5426
g57
(g78
g59
NtRp5427
(dp5428
g62
(dp5429
sg71
g5423
sg64
(lp5430
g57
(g58
g59
NtRp5431
(dp5432
g62
(dp5433
g70
I3
ssg71
g5427
sg64
(lp5434
g100
asbasbasbag57
(g73
g59
NtRp5435
(dp5436
g62
(dp5437
sg71
g5406
sg64
(lp5438
g57
(g78
g59
NtRp5439
(dp5440
g62
(dp5441
sg71
g5435
sg64
(lp5442
g57
(g58
g59
NtRp5443
(dp5444
g62
(dp5445
g70
I3
ssg71
g5439
sg64
(lp5446
S'/themishrms/default/tlsoo'
p5447
asbasbasbag57
(g73
g59
NtRp5448
(dp5449
g62
(dp5450
sg71
g5406
sg64
(lp5451
g57
(g78
g59
NtRp5452
(dp5453
g62
(dp5454
sg71
g5448
sg64
(lp5455
g57
(g58
g59
NtRp5456
(dp5457
g62
(dp5458
g70
I3
ssg71
g5452
sg64
(lp5459
g57
(g66
g59
NtRp5460
(dp5461
g62
(dp5462
g70
I2
ssg71
Nsg64
(lp5463
sbasbasbasbasbasbasbasbag57
(g73
g59
NtRp5464
(dp5465
g62
(dp5466
sg71
g5110
sg64
(lp5467
g57
(g78
g59
NtRp5468
(dp5469
g62
(dp5470
sg71
g5464
sg64
(lp5471
g57
(g58
g59
NtRp5472
(dp5473
g62
(dp5474
g70
I4
ssg71
g5468
sg64
(lp5475
g57
(g66
g59
NtRp5476
(dp5477
g62
(dp5478
g70
I3
ssg71
Nsg64
(lp5479
g57
(g73
g59
NtRp5480
(dp5481
g62
(dp5482
sg71
g5476
sg64
(lp5483
g57
(g78
g59
NtRp5484
(dp5485
g62
(dp5486
sg71
g5480
sg64
(lp5487
g57
(g58
g59
NtRp5488
(dp5489
g62
(dp5490
g70
I3
ssg71
g5484
sg64
(lp5491
g4267
(S's\x07\x00\x00\x00JOIN US'
tRp5492
asbasbasbag57
(g73
g59
NtRp5493
(dp5494
g62
(dp5495
sg71
g5476
sg64
(lp5496
g57
(g78
g59
NtRp5497
(dp5498
g62
(dp5499
sg71
g5493
sg64
(lp5500
g57
(g58
g59
NtRp5501
(dp5502
g62
(dp5503
g70
I3
ssg71
g5497
sg64
(lp5504
g100
asbasbasbag57
(g73
g59
NtRp5505
(dp5506
g62
(dp5507
sg71
g5476
sg64
(lp5508
g57
(g78
g59
NtRp5509
(dp5510
g62
(dp5511
sg71
g5505
sg64
(lp5512
g57
(g58
g59
NtRp5513
(dp5514
g62
(dp5515
g70
I3
ssg71
g5509
sg64
(lp5516
S'/themishrms/default/tlscareer'
p5517
asbasbasbag57
(g73
g59
NtRp5518
(dp5519
g62
(dp5520
sg71
g5476
sg64
(lp5521
g57
(g78
g59
NtRp5522
(dp5523
g62
(dp5524
sg71
g5518
sg64
(lp5525
g57
(g58
g59
NtRp5526
(dp5527
g62
(dp5528
g70
I3
ssg71
g5522
sg64
(lp5529
g57
(g66
g59
NtRp5530
(dp5531
g62
(dp5532
g70
I2
ssg71
Nsg64
(lp5533
sbasbasbasbasbasbasbasbag57
(g73
g59
NtRp5534
(dp5535
g62
(dp5536
sg71
g5110
sg64
(lp5537
g57
(g78
g59
NtRp5538
(dp5539
g62
(dp5540
sg71
g5534
sg64
(lp5541
g57
(g58
g59
NtRp5542
(dp5543
g62
(dp5544
g70
I4
ssg71
g5538
sg64
(lp5545
g57
(g66
g59
NtRp5546
(dp5547
g62
(dp5548
g70
I3
ssg71
Nsg64
(lp5549
g57
(g73
g59
NtRp5550
(dp5551
g62
(dp5552
sg71
g5546
sg64
(lp5553
g57
(g78
g59
NtRp5554
(dp5555
g62
(dp5556
sg71
g5550
sg64
(lp5557
g57
(g58
g59
NtRp5558
(dp5559
g62
(dp5560
g70
I3
ssg71
g5554
sg64
(lp5561
g4267
(S's\n\x00\x00\x00CONTACT US'
tRp5562
asbasbasbag57
(g73
g59
NtRp5563
(dp5564
g62
(dp5565
sg71
g5546
sg64
(lp5566
g57
(g78
g59
NtRp5567
(dp5568
g62
(dp5569
sg71
g5563
sg64
(lp5570
g57
(g58
g59
NtRp5571
(dp5572
g62
(dp5573
g70
I3
ssg71
g5567
sg64
(lp5574
g100
asbasbasbag57
(g73
g59
NtRp5575
(dp5576
g62
(dp5577
sg71
g5546
sg64
(lp5578
g57
(g78
g59
NtRp5579
(dp5580
g62
(dp5581
sg71
g5575
sg64
(lp5582
g57
(g58
g59
NtRp5583
(dp5584
g62
(dp5585
g70
I3
ssg71
g5579
sg64
(lp5586
S'/themishrms/default/tlscontact'
p5587
asbasbasbag57
(g73
g59
NtRp5588
(dp5589
g62
(dp5590
sg71
g5546
sg64
(lp5591
g57
(g78
g59
NtRp5592
(dp5593
g62
(dp5594
sg71
g5588
sg64
(lp5595
g57
(g58
g59
NtRp5596
(dp5597
g62
(dp5598
g70
I3
ssg71
g5592
sg64
(lp5599
g57
(g66
g59
NtRp5600
(dp5601
g62
(dp5602
g70
I2
ssg71
Nsg64
(lp5603
sbasbasbasbasbasbasbasbasbasbasbasbag57
(g73
g59
NtRp5604
(dp5605
g62
(dp5606
sg71
g4210
sg64
(lp5607
g57
(g78
g59
NtRp5608
(dp5609
g62
(dp5610
g82
g83
ssg71
g5604
sg64
(lp5611
S'meta'
p5612
asbag57
(g78
g59
NtRp5613
(dp5614
g62
(dp5615
g89
g90
ssg71
g5604
sg64
(lp5616
S':'
asbag57
(g78
g59
NtRp5617
(dp5618
g62
(dp5619
sg71
g5604
sg64
(lp5620
g57
(g58
g59
NtRp5621
(dp5622
g62
(dp5623
g70
I5
ssg71
g5617
sg64
(lp5624
g57
(g66
g59
NtRp5625
(dp5626
g62
(dp5627
g70
I4
ssg71
Nsg64
(lp5628
g57
(g73
g59
NtRp5629
(dp5630
g62
(dp5631
sg71
g5625
sg64
(lp5632
g57
(g78
g59
NtRp5633
(dp5634
g62
(dp5635
g82
g83
ssg71
g5629
sg64
(lp5636
S'author'
p5637
asbag57
(g78
g59
NtRp5638
(dp5639
g62
(dp5640
g89
g90
ssg71
g5629
sg64
(lp5641
S':'
asbag57
(g78
g59
NtRp5642
(dp5643
g62
(dp5644
sg71
g5629
sg64
(lp5645
g57
(g58
g59
NtRp5646
(dp5647
g62
(dp5648
g70
I4
ssg71
g5642
sg64
(lp5649
S'Your Name <you@example.com>'
p5650
asbasbasbag57
(g73
g59
NtRp5651
(dp5652
g62
(dp5653
sg71
g5625
sg64
(lp5654
g57
(g78
g59
NtRp5655
(dp5656
g62
(dp5657
g82
g83
ssg71
g5651
sg64
(lp5658
S'copyright'
p5659
asbag57
(g78
g59
NtRp5660
(dp5661
g62
(dp5662
g89
g90
ssg71
g5651
sg64
(lp5663
S':'
asbag57
(g78
g59
NtRp5664
(dp5665
g62
(dp5666
sg71
g5651
sg64
(lp5667
g57
(g58
g59
NtRp5668
(dp5669
g62
(dp5670
g70
I4
ssg71
g5664
sg64
(lp5671
S'Copyright 2011'
p5672
asbasbasbag57
(g73
g59
NtRp5673
(dp5674
g62
(dp5675
sg71
g5625
sg64
(lp5676
g57
(g78
g59
NtRp5677
(dp5678
g62
(dp5679
g82
g83
ssg71
g5673
sg64
(lp5680
S'description'
p5681
asbag57
(g78
g59
NtRp5682
(dp5683
g62
(dp5684
g89
g90
ssg71
g5673
sg64
(lp5685
S':'
asbag57
(g78
g59
NtRp5686
(dp5687
g62
(dp5688
sg71
g5673
sg64
(lp5689
g57
(g58
g59
NtRp5690
(dp5691
g62
(dp5692
g70
I4
ssg71
g5686
sg64
(lp5693
S'a cool new app'
p5694
asbasbasbag57
(g73
g59
NtRp5695
(dp5696
g62
(dp5697
sg71
g5625
sg64
(lp5698
g57
(g78
g59
NtRp5699
(dp5700
g62
(dp5701
g82
g83
ssg71
g5695
sg64
(lp5702
S'generator'
p5703
asbag57
(g78
g59
NtRp5704
(dp5705
g62
(dp5706
g89
g90
ssg71
g5695
sg64
(lp5707
S':'
asbag57
(g78
g59
NtRp5708
(dp5709
g62
(dp5710
sg71
g5695
sg64
(lp5711
g57
(g58
g59
NtRp5712
(dp5713
g62
(dp5714
g70
I4
ssg71
g5708
sg64
(lp5715
S'Web2py Web Framework'
p5716
asbasbasbag57
(g73
g59
NtRp5717
(dp5718
g62
(dp5719
sg71
g5625
sg64
(lp5720
g57
(g78
g59
NtRp5721
(dp5722
g62
(dp5723
g82
g83
ssg71
g5717
sg64
(lp5724
S'keywords'
p5725
asbag57
(g78
g59
NtRp5726
(dp5727
g62
(dp5728
g89
g90
ssg71
g5717
sg64
(lp5729
S':'
asbag57
(g78
g59
NtRp5730
(dp5731
g62
(dp5732
sg71
g5717
sg64
(lp5733
g57
(g58
g59
NtRp5734
(dp5735
g62
(dp5736
g70
I4
ssg71
g5730
sg64
(lp5737
S'web2py, python, framework'
p5738
asbasbasbasbasbasbasbag57
(g73
g59
NtRp5739
(dp5740
g62
(dp5741
sg71
g4210
sg64
(lp5742
g57
(g78
g59
NtRp5743
(dp5744
g62
(dp5745
g82
g83
ssg71
g5739
sg64
(lp5746
S'postprocessing'
p5747
asbag57
(g78
g59
NtRp5748
(dp5749
g62
(dp5750
g89
g90
ssg71
g5739
sg64
(lp5751
S':'
asbag57
(g78
g59
NtRp5752
(dp5753
g62
(dp5754
sg71
g5739
sg64
(lp5755
g57
(g58
g59
NtRp5756
(dp5757
g62
(dp5758
g70
I5
ssg71
g5752
sg64
(lp5759
g57
(g66
g59
NtRp5760
(dp5761
g62
(dp5762
g70
I4
ssg71
Nsg64
(lp5763
sbasbasbasbag57
(g73
g59
NtRp5764
(dp5765
g62
(dp5766
sg71
g4210
sg64
(lp5767
g57
(g78
g59
NtRp5768
(dp5769
g62
(dp5770
g82
g83
ssg71
g5764
sg64
(lp5771
S'session_file'
p5772
asbag57
(g78
g59
NtRp5773
(dp5774
g62
(dp5775
g89
g90
ssg71
g5764
sg64
(lp5776
S':'
asbag57
(g78
g59
NtRp5777
(dp5778
g62
(dp5779
sg71
g5764
sg64
(lp5780
g57
(g58
g59
NtRp5781
(dp5782
g62
(dp5783
g70
I5
ssg71
g5777
sg64
(lp5784
S"<open file '/home/sanjeet/Desktop/install/Development/web2py/applications/themishrms/sessions/127.0.0.1-913348ed-faee-4729-b907-4c2b418541cb', mode 'rb+' at 0xa78f8b8>"
p5785
asbasbasbag57
(g73
g59
NtRp5786
(dp5787
g62
(dp5788
sg71
g4210
sg64
(lp5789
g57
(g78
g59
NtRp5790
(dp5791
g62
(dp5792
g82
g83
ssg71
g5786
sg64
(lp5793
S'session_filename'
p5794
asbag57
(g78
g59
NtRp5795
(dp5796
g62
(dp5797
g89
g90
ssg71
g5786
sg64
(lp5798
S':'
asbag57
(g78
g59
NtRp5799
(dp5800
g62
(dp5801
sg71
g5786
sg64
(lp5802
g57
(g58
g59
NtRp5803
(dp5804
g62
(dp5805
g70
I5
ssg71
g5799
sg64
(lp5806
S'/home/sanjeet/Desktop/install/Development/web2py/applications/themishrms/sessions/127.0.0.1-913348ed-faee-4729-b907-4c2b418541cb'
p5807
asbasbasbag57
(g73
g59
NtRp5808
(dp5809
g62
(dp5810
sg71
g4210
sg64
(lp5811
g57
(g78
g59
NtRp5812
(dp5813
g62
(dp5814
g82
g83
ssg71
g5808
sg64
(lp5815
S'session_id'
p5816
asbag57
(g78
g59
NtRp5817
(dp5818
g62
(dp5819
g89
g90
ssg71
g5808
sg64
(lp5820
S':'
asbag57
(g78
g59
NtRp5821
(dp5822
g62
(dp5823
sg71
g5808
sg64
(lp5824
g57
(g58
g59
NtRp5825
(dp5826
g62
(dp5827
g70
I5
ssg71
g5821
sg64
(lp5828
S'127.0.0.1-913348ed-faee-4729-b907-4c2b418541cb'
p5829
asbasbasbag57
(g73
g59
NtRp5830
(dp5831
g62
(dp5832
sg71
g4210
sg64
(lp5833
g57
(g78
g59
NtRp5834
(dp5835
g62
(dp5836
g82
g83
ssg71
g5830
sg64
(lp5837
S'session_id_name'
p5838
asbag57
(g78
g59
NtRp5839
(dp5840
g62
(dp5841
g89
g90
ssg71
g5830
sg64
(lp5842
S':'
asbag57
(g78
g59
NtRp5843
(dp5844
g62
(dp5845
sg71
g5830
sg64
(lp5846
g57
(g58
g59
NtRp5847
(dp5848
g62
(dp5849
g70
I5
ssg71
g5843
sg64
(lp5850
g4643
asbasbasbag57
(g73
g59
NtRp5851
(dp5852
g62
(dp5853
sg71
g4210
sg64
(lp5854
g57
(g78
g59
NtRp5855
(dp5856
g62
(dp5857
g82
g83
ssg71
g5851
sg64
(lp5858
S'session_locked'
p5859
asbag57
(g78
g59
NtRp5860
(dp5861
g62
(dp5862
g89
g90
ssg71
g5851
sg64
(lp5863
S':'
asbag57
(g78
g59
NtRp5864
(dp5865
g62
(dp5866
sg71
g5851
sg64
(lp5867
g57
(g58
g59
NtRp5868
(dp5869
g62
(dp5870
g70
I5
ssg71
g5864
sg64
(lp5871
g2048
asbasbasbag57
(g73
g59
NtRp5872
(dp5873
g62
(dp5874
sg71
g4210
sg64
(lp5875
g57
(g78
g59
NtRp5876
(dp5877
g62
(dp5878
g82
g83
ssg71
g5872
sg64
(lp5879
S'session_new'
p5880
asbag57
(g78
g59
NtRp5881
(dp5882
g62
(dp5883
g89
g90
ssg71
g5872
sg64
(lp5884
S':'
asbag57
(g78
g59
NtRp5885
(dp5886
g62
(dp5887
sg71
g5872
sg64
(lp5888
g57
(g58
g59
NtRp5889
(dp5890
g62
(dp5891
g70
I5
ssg71
g5885
sg64
(lp5892
g100
asbasbasbag57
(g73
g59
NtRp5893
(dp5894
g62
(dp5895
sg71
g4210
sg64
(lp5896
g57
(g78
g59
NtRp5897
(dp5898
g62
(dp5899
g82
g83
ssg71
g5893
sg64
(lp5900
S'status'
p5901
asbag57
(g78
g59
NtRp5902
(dp5903
g62
(dp5904
g89
g90
ssg71
g5893
sg64
(lp5905
S':'
asbag57
(g78
g59
NtRp5906
(dp5907
g62
(dp5908
sg71
g5893
sg64
(lp5909
g57
(g58
g59
NtRp5910
(dp5911
g62
(dp5912
g70
I5
ssg71
g5906
sg64
(lp5913
S'200'
p5914
asbasbasbag57
(g73
g59
NtRp5915
(dp5916
g62
(dp5917
sg71
g4210
sg64
(lp5918
g57
(g78
g59
NtRp5919
(dp5920
g62
(dp5921
g82
g83
ssg71
g5915
sg64
(lp5922
S'subtitle'
p5923
asbag57
(g78
g59
NtRp5924
(dp5925
g62
(dp5926
g89
g90
ssg71
g5915
sg64
(lp5927
S':'
asbag57
(g78
g59
NtRp5928
(dp5929
g62
(dp5930
sg71
g5915
sg64
(lp5931
g57
(g58
g59
NtRp5932
(dp5933
g62
(dp5934
g70
I5
ssg71
g5928
sg64
(lp5935
g4267
(S's\r\x00\x00\x00customize me!'
tRp5936
asbasbasbag57
(g73
g59
NtRp5937
(dp5938
g62
(dp5939
sg71
g4210
sg64
(lp5940
g57
(g78
g59
NtRp5941
(dp5942
g62
(dp5943
g82
g83
ssg71
g5937
sg64
(lp5944
S'title'
p5945
asbag57
(g78
g59
NtRp5946
(dp5947
g62
(dp5948
g89
g90
ssg71
g5937
sg64
(lp5949
S':'
asbag57
(g78
g59
NtRp5950
(dp5951
g62
(dp5952
sg71
g5937
sg64
(lp5953
g57
(g58
g59
NtRp5954
(dp5955
g62
(dp5956
g70
I5
ssg71
g5950
sg64
(lp5957
S'Themishrms'
p5958
asbasbasbag57
(g73
g59
NtRp5959
(dp5960
g62
(dp5961
sg71
g4210
sg64
(lp5962
g57
(g78
g59
NtRp5963
(dp5964
g62
(dp5965
g82
g83
ssg71
g5959
sg64
(lp5966
S'tlsmenu'
p5967
asbag57
(g78
g59
NtRp5968
(dp5969
g62
(dp5970
g89
g90
ssg71
g5959
sg64
(lp5971
S':'
asbag57
(g78
g59
NtRp5972
(dp5973
g62
(dp5974
sg71
g5959
sg64
(lp5975
g57
(g58
g59
NtRp5976
(dp5977
g62
(dp5978
g70
I5
ssg71
g5972
sg64
(lp5979
g57
(g66
g59
NtRp5980
(dp5981
g62
(dp5982
g70
I4
ssg71
Nsg64
(lp5983
g57
(g73
g59
NtRp5984
(dp5985
g62
(dp5986
sg71
g5980
sg64
(lp5987
g57
(g78
g59
NtRp5988
(dp5989
g62
(dp5990
sg71
g5984
sg64
(lp5991
g57
(g58
g59
NtRp5992
(dp5993
g62
(dp5994
g70
I4
ssg71
g5988
sg64
(lp5995
g57
(g66
g59
NtRp5996
(dp5997
g62
(dp5998
g70
I3
ssg71
Nsg64
(lp5999
g57
(g73
g59
NtRp6000
(dp6001
g62
(dp6002
sg71
g5996
sg64
(lp6003
g57
(g78
g59
NtRp6004
(dp6005
g62
(dp6006
sg71
g6000
sg64
(lp6007
g57
(g58
g59
NtRp6008
(dp6009
g62
(dp6010
g70
I3
ssg71
g6004
sg64
(lp6011
g4267
(S's\x07\x00\x00\x00Website'
tRp6012
asbasbasbag57
(g73
g59
NtRp6013
(dp6014
g62
(dp6015
sg71
g5996
sg64
(lp6016
g57
(g78
g59
NtRp6017
(dp6018
g62
(dp6019
sg71
g6013
sg64
(lp6020
g57
(g58
g59
NtRp6021
(dp6022
g62
(dp6023
g70
I3
ssg71
g6017
sg64
(lp6024
g100
asbasbasbag57
(g73
g59
NtRp6025
(dp6026
g62
(dp6027
sg71
g5996
sg64
(lp6028
g57
(g78
g59
NtRp6029
(dp6030
g62
(dp6031
sg71
g6025
sg64
(lp6032
g57
(g58
g59
NtRp6033
(dp6034
g62
(dp6035
g70
I3
ssg71
g6029
sg64
(lp6036
S'/themishrms/default/index'
p6037
asbasbasbag57
(g73
g59
NtRp6038
(dp6039
g62
(dp6040
sg71
g5996
sg64
(lp6041
g57
(g78
g59
NtRp6042
(dp6043
g62
(dp6044
sg71
g6038
sg64
(lp6045
g57
(g58
g59
NtRp6046
(dp6047
g62
(dp6048
g70
I3
ssg71
g6042
sg64
(lp6049
g57
(g66
g59
NtRp6050
(dp6051
g62
(dp6052
g70
I2
ssg71
Nsg64
(lp6053
sbasbasbasbasbasbasbasbag57
(g73
g59
NtRp6054
(dp6055
g62
(dp6056
sg71
g5980
sg64
(lp6057
g57
(g78
g59
NtRp6058
(dp6059
g62
(dp6060
sg71
g6054
sg64
(lp6061
g57
(g58
g59
NtRp6062
(dp6063
g62
(dp6064
g70
I4
ssg71
g6058
sg64
(lp6065
g57
(g66
g59
NtRp6066
(dp6067
g62
(dp6068
g70
I3
ssg71
Nsg64
(lp6069
g57
(g73
g59
NtRp6070
(dp6071
g62
(dp6072
sg71
g6066
sg64
(lp6073
g57
(g78
g59
NtRp6074
(dp6075
g62
(dp6076
sg71
g6070
sg64
(lp6077
g57
(g58
g59
NtRp6078
(dp6079
g62
(dp6080
g70
I3
ssg71
g6074
sg64
(lp6081
g4267
(S's\x07\x00\x00\x00WebMail'
tRp6082
asbasbasbag57
(g73
g59
NtRp6083
(dp6084
g62
(dp6085
sg71
g6066
sg64
(lp6086
g57
(g78
g59
NtRp6087
(dp6088
g62
(dp6089
sg71
g6083
sg64
(lp6090
g57
(g58
g59
NtRp6091
(dp6092
g62
(dp6093
g70
I3
ssg71
g6087
sg64
(lp6094
g100
asbasbasbag57
(g73
g59
NtRp6095
(dp6096
g62
(dp6097
sg71
g6066
sg64
(lp6098
g57
(g78
g59
NtRp6099
(dp6100
g62
(dp6101
sg71
g6095
sg64
(lp6102
g57
(g58
g59
NtRp6103
(dp6104
g62
(dp6105
g70
I3
ssg71
g6099
sg64
(lp6106
S'/themishrms/default/webmail'
p6107
asbasbasbag57
(g73
g59
NtRp6108
(dp6109
g62
(dp6110
sg71
g6066
sg64
(lp6111
g57
(g78
g59
NtRp6112
(dp6113
g62
(dp6114
sg71
g6108
sg64
(lp6115
g57
(g58
g59
NtRp6116
(dp6117
g62
(dp6118
g70
I3
ssg71
g6112
sg64
(lp6119
g57
(g66
g59
NtRp6120
(dp6121
g62
(dp6122
g70
I2
ssg71
Nsg64
(lp6123
sbasbasbasbasbasbasbasbag57
(g73
g59
NtRp6124
(dp6125
g62
(dp6126
sg71
g5980
sg64
(lp6127
g57
(g78
g59
NtRp6128
(dp6129
g62
(dp6130
sg71
g6124
sg64
(lp6131
g57
(g58
g59
NtRp6132
(dp6133
g62
(dp6134
g70
I4
ssg71
g6128
sg64
(lp6135
g57
(g66
g59
NtRp6136
(dp6137
g62
(dp6138
g70
I3
ssg71
Nsg64
(lp6139
g57
(g73
g59
NtRp6140
(dp6141
g62
(dp6142
sg71
g6136
sg64
(lp6143
g57
(g78
g59
NtRp6144
(dp6145
g62
(dp6146
sg71
g6140
sg64
(lp6147
g57
(g58
g59
NtRp6148
(dp6149
g62
(dp6150
g70
I3
ssg71
g6144
sg64
(lp6151
g4267
(S's\r\x00\x00\x00Themis Portal'
tRp6152
asbasbasbag57
(g73
g59
NtRp6153
(dp6154
g62
(dp6155
sg71
g6136
sg64
(lp6156
g57
(g78
g59
NtRp6157
(dp6158
g62
(dp6159
sg71
g6153
sg64
(lp6160
g57
(g58
g59
NtRp6161
(dp6162
g62
(dp6163
g70
I3
ssg71
g6157
sg64
(lp6164
g100
asbasbasbag57
(g73
g59
NtRp6165
(dp6166
g62
(dp6167
sg71
g6136
sg64
(lp6168
g57
(g78
g59
NtRp6169
(dp6170
g62
(dp6171
sg71
g6165
sg64
(lp6172
g57
(g58
g59
NtRp6173
(dp6174
g62
(dp6175
g70
I3
ssg71
g6169
sg64
(lp6176
S'/themishrms/default/portal'
p6177
asbasbasbag57
(g73
g59
NtRp6178
(dp6179
g62
(dp6180
sg71
g6136
sg64
(lp6181
g57
(g78
g59
NtRp6182
(dp6183
g62
(dp6184
sg71
g6178
sg64
(lp6185
g57
(g58
g59
NtRp6186
(dp6187
g62
(dp6188
g70
I3
ssg71
g6182
sg64
(lp6189
g57
(g66
g59
NtRp6190
(dp6191
g62
(dp6192
g70
I2
ssg71
Nsg64
(lp6193
sbasbasbasbasbasbasbasbag57
(g73
g59
NtRp6194
(dp6195
g62
(dp6196
sg71
g5980
sg64
(lp6197
g57
(g78
g59
NtRp6198
(dp6199
g62
(dp6200
sg71
g6194
sg64
(lp6201
g57
(g58
g59
NtRp6202
(dp6203
g62
(dp6204
g70
I4
ssg71
g6198
sg64
(lp6205
g57
(g66
g59
NtRp6206
(dp6207
g62
(dp6208
g70
I3
ssg71
Nsg64
(lp6209
g57
(g73
g59
NtRp6210
(dp6211
g62
(dp6212
sg71
g6206
sg64
(lp6213
g57
(g78
g59
NtRp6214
(dp6215
g62
(dp6216
sg71
g6210
sg64
(lp6217
g57
(g58
g59
NtRp6218
(dp6219
g62
(dp6220
g70
I3
ssg71
g6214
sg64
(lp6221
g4267
(S's\x0f\x00\x00\x00Themis Policies'
tRp6222
asbasbasbag57
(g73
g59
NtRp6223
(dp6224
g62
(dp6225
sg71
g6206
sg64
(lp6226
g57
(g78
g59
NtRp6227
(dp6228
g62
(dp6229
sg71
g6223
sg64
(lp6230
g57
(g58
g59
NtRp6231
(dp6232
g62
(dp6233
g70
I3
ssg71
g6227
sg64
(lp6234
g100
asbasbasbag57
(g73
g59
NtRp6235
(dp6236
g62
(dp6237
sg71
g6206
sg64
(lp6238
g57
(g78
g59
NtRp6239
(dp6240
g62
(dp6241
sg71
g6235
sg64
(lp6242
g57
(g58
g59
NtRp6243
(dp6244
g62
(dp6245
g70
I3
ssg71
g6239
sg64
(lp6246
S'/themishrms/default/ourtrem'
p6247
asbasbasbag57
(g73
g59
NtRp6248
(dp6249
g62
(dp6250
sg71
g6206
sg64
(lp6251
g57
(g78
g59
NtRp6252
(dp6253
g62
(dp6254
sg71
g6248
sg64
(lp6255
g57
(g58
g59
NtRp6256
(dp6257
g62
(dp6258
g70
I3
ssg71
g6252
sg64
(lp6259
g57
(g66
g59
NtRp6260
(dp6261
g62
(dp6262
g70
I2
ssg71
Nsg64
(lp6263
sbasbasbasbasbasbasbasbag57
(g73
g59
NtRp6264
(dp6265
g62
(dp6266
sg71
g5980
sg64
(lp6267
g57
(g78
g59
NtRp6268
(dp6269
g62
(dp6270
sg71
g6264
sg64
(lp6271
g57
(g58
g59
NtRp6272
(dp6273
g62
(dp6274
g70
I4
ssg71
g6268
sg64
(lp6275
g57
(g66
g59
NtRp6276
(dp6277
g62
(dp6278
g70
I3
ssg71
Nsg64
(lp6279
g57
(g73
g59
NtRp6280
(dp6281
g62
(dp6282
sg71
g6276
sg64
(lp6283
g57
(g78
g59
NtRp6284
(dp6285
g62
(dp6286
sg71
g6280
sg64
(lp6287
g57
(g58
g59
NtRp6288
(dp6289
g62
(dp6290
g70
I3
ssg71
g6284
sg64
(lp6291
g4267
(S's\x0f\x00\x00\x00Contact Details'
tRp6292
asbasbasbag57
(g73
g59
NtRp6293
(dp6294
g62
(dp6295
sg71
g6276
sg64
(lp6296
g57
(g78
g59
NtRp6297
(dp6298
g62
(dp6299
sg71
g6293
sg64
(lp6300
g57
(g58
g59
NtRp6301
(dp6302
g62
(dp6303
g70
I3
ssg71
g6297
sg64
(lp6304
g100
asbasbasbag57
(g73
g59
NtRp6305
(dp6306
g62
(dp6307
sg71
g6276
sg64
(lp6308
g57
(g78
g59
NtRp6309
(dp6310
g62
(dp6311
sg71
g6305
sg64
(lp6312
g57
(g58
g59
NtRp6313
(dp6314
g62
(dp6315
g70
I3
ssg71
g6309
sg64
(lp6316
S'/themishrms/default/emp_contact_detail'
p6317
asbasbasbag57
(g73
g59
NtRp6318
(dp6319
g62
(dp6320
sg71
g6276
sg64
(lp6321
g57
(g78
g59
NtRp6322
(dp6323
g62
(dp6324
sg71
g6318
sg64
(lp6325
g57
(g58
g59
NtRp6326
(dp6327
g62
(dp6328
g70
I3
ssg71
g6322
sg64
(lp6329
g57
(g66
g59
NtRp6330
(dp6331
g62
(dp6332
g70
I2
ssg71
Nsg64
(lp6333
sbasbasbasbasbasbasbasbasbasbasbasbag57
(g73
g59
NtRp6334
(dp6335
g62
(dp6336
sg71
g4210
sg64
(lp6337
g57
(g78
g59
NtRp6338
(dp6339
g62
(dp6340
g82
g83
ssg71
g6334
sg64
(lp6341
g2712
asbag57
(g78
g59
NtRp6342
(dp6343
g62
(dp6344
g89
g90
ssg71
g6334
sg64
(lp6345
S':'
asbag57
(g78
g59
NtRp6346
(dp6347
g62
(dp6348
sg71
g6334
sg64
(lp6349
g57
(g58
g59
NtRp6350
(dp6351
g62
(dp6352
g70
I5
ssg71
g6346
sg64
(lp6353
g2725
asbasbasbag57
(g73
g59
NtRp6354
(dp6355
g62
(dp6356
sg71
g4210
sg64
(lp6357
g57
(g78
g59
NtRp6358
(dp6359
g62
(dp6360
g82
g83
ssg71
g6354
sg64
(lp6361
S'view'
p6362
asbag57
(g78
g59
NtRp6363
(dp6364
g62
(dp6365
g89
g90
ssg71
g6354
sg64
(lp6366
S':'
asbag57
(g78
g59
NtRp6367
(dp6368
g62
(dp6369
sg71
g6354
sg64
(lp6370
g57
(g58
g59
NtRp6371
(dp6372
g62
(dp6373
g70
I5
ssg71
g6367
sg64
(lp6374
S'default/admin_newuser.html'
p6375
asbasbasbasbasbsS'locals'
p6376
(dp6377
S'c'
S'1'
sS'row'
p6378
S'None'
p6379
sssS'traceback'
p6380
S'Traceback (most recent call last):\n  File "/home/sanjeet/Desktop/install/Development/web2py/gluon/restricted.py", line 205, in restricted\n    exec ccode in environment\n  File "/home/sanjeet/Desktop/install/Development/web2py/applications/themishrms/controllers/default.py", line 1370, in <module>\n  File "/home/sanjeet/Desktop/install/Development/web2py/gluon/globals.py", line 173, in <lambda>\n    self._caller = lambda f: f()\n  File "/home/sanjeet/Desktop/install/Development/web2py/gluon/tools.py", line 2575, in f\n    return action(*a, **b)\n  File "/home/sanjeet/Desktop/install/Development/web2py/applications/themishrms/controllers/default.py", line 307, in admin_newuser\n    form=SQLFORM.grid(db.auth_user, create=False, selectable = lambda ids: del_emp(ids))\n  File "/home/sanjeet/Desktop/install/Development/web2py/gluon/sqlhtml.py", line 1805, in grid\n    value=field.represent(value,row)\n  File "/home/sanjeet/Desktop/install/Development/web2py/applications/themishrms/models/db.py", line 59, in <lambda>\n    Field(\'organization_name\',db.add_new_organization, represent=lambda c, row:get_org_name(c), requires = IS_IN_DB(db,\'add_new_organization.id\',\'%(organization_name)s\')),\n  File "/home/sanjeet/Desktop/install/Development/web2py/applications/themishrms/models/db.py", line 113, in get_org_name\n    return row.organization_name\nAttributeError: \'NoneType\' object has no attribute \'organization_name\'\n'
p6381
s.