(dp1
S'output'
p2
S"<type 'exceptions.AttributeError'> 'NoneType' object has no attribute 'email'"
p3
sS'layer'
p4
S'/home/rohitraj/Desktop/web2py/applications/themishrms/controllers/default.py'
p5
sS'code'
p6
S'# -*- coding: utf-8 -*-\n# this file is released under public domain and you can use without limitations\n\n#########################################################################\n## This is a samples controller\n## - index is the default action of any application\n## - user is required for authentication and authorization\n## - download is for downloading files uploaded in the db (does streaming)\n## - call exposes all registered services (none by default)\n#########################################################################\n\ndef index():\n    """\n    example action using the internationalization operator T and flash\n    rendered by views/default/index.html or views/generic.html\n    """\n    response.flash = "Welcome to Themis Lexsol"\n    return dict(message=T(\'Hello World\'))\n\t\n\t\ndef tlscareer():\n    return dict()\n\ndef tlsabout():\n    return dict()\n    \ndef rt():\n    return dict()\n\ndef employee():\n    return dict()\n    \ndef tlsservice():\n    return dict()\n\n\ndef tlsoo():\n    return dict()   \n\ndef tlsleads():\n    return dict()   \n\ndef tlsoteam():\t\n\t return dict()\n\t \n\ndef tlscontact(): \r\n    use_recaptcha = True \r\n    form = SQLFORM.factory(Field(\'Name\',requires=IS_NOT_EMPTY()),Field (\'your_email\',requires=IS_EMAIL()),Field(\'your_message\',\'text\')) \r\n    return dict(form=form)\r\n\t\t\r\ndef tlscareer(): \r\n    form = SQLFORM.factory(Field(\'name\',requires=IS_NOT_EMPTY()),\n    \t\t\t\t\t\t\t\tField (\'your_email\',requires=IS_EMAIL()),\n    \t\t\t\t\t\t\t\tSQLField(\'contact_details\',requires=IS_NOT_EMPTY()),\n    \t\t\t\t\t\t\t\tField(\'your_message\',\'text\'),\n    \t\t\t\t\t\t\t\tSQLField(\'looking_for_position\',requires=IS_IN_SET([\'Admin\', \'Legal\', \'Finance\',\'IT\'])),\n    \t\t\t\t\t\t\t\tSQLField(\'your_resume\',\'upload\')) \n    if form.accepts(request,session):\n    \tsession.name = form.vars.name\n    \t#careermail() \r\n    return dict(form=form)\t\r\n\t\t\r\ndef careermail():\n    from gluon.tools import Mail\n    mail = Mail()\n        #specify server\n    mail=auth.settings.mailer\n    mail.settings.server = \'smtp.gmail.com:587\'\n    #specify address to send as\n    mail.settings.sender = \'themisdemo1@gmail.com\'\n    mail.settings.login = \'themisdemo1@gmail.com:123456asdfg\'\n    #send the message                             \n    mail.send(to=[\'sanjeet.tls@gmail.com\',\'prakhar.tls@gmail.com\'],\n            subject=\'Welcome User\',\n            message=\'<html>\'\n                        \'<body>\'\n                            \'<span style="font-family: Bodoni MT Ultra Bold;color:  #000000 ;font-size : 18pt;"><b>Themis </span></h1><span style="font-family: Bodoni MT Ultra Bold;color:#C7A317   ;font-size :18pt;"><b>Lexsol</b></span>\'\n                            \n                            \'<p>Dear &nbsp;\'+session.name+\'</p>\'\n                            \n                            \'<p>I just wanted to drop you a quick message to say thank you for joining the LCM Plus. I appreciate you taking the time to register and really look forward to reading your compliances. Your user name is \'+session.mail+\' and please click below to reset your password.<h1>http://jmdlcmplus.fluxflex.com/jmdlcmplus/default/user/request_reset_password</h1>If you need help at any time, please contact me by replying to this message. Similarly, if you ever have any questions then please do not hesitate to send me a message or email.</p>\'\n                            \'<center><p>_________________________________________________________</p><p style="color:red;font-size :5pt;">This email comes to you since your company has subcribed for LCM Plus. TO unsubcribed please contact to your Compliance Manager</p></center>\'\n                      \n                        \'</body>\'\n                    \'</html>\'\n                    \n  )\n    response.flash=\'mail send\'\n    return \'\'\r\n\ndef user():\n    """\n    exposes:\n    http://..../[app]/default/user/login\n    http://..../[app]/default/user/logout\n    http://..../[app]/default/user/register\n    http://..../[app]/default/user/profile\n    http://..../[app]/default/user/retrieve_password\n    http://..../[app]/default/user/change_password\n    use @auth.requires_login()\n        @auth.requires_membership(\'group name\')\n        @auth.requires_permission(\'read\',\'table name\',record_id)\n    to decorate functions that need access control\n    """\n    return dict(form=auth())\n\n\ndef download():\n    """\n    allows downloading of uploaded files\n    http://..../[app]/default/download/[filename]\n    """\n    return response.download(request,db)\n\n\ndef call():\n    """\n    exposes services. for example:\n    http://..../[app]/default/call/jsonrpc\n    decorate with @services.jsonrpc the functions to expose\n    supports xml, json, xmlrpc, jsonrpc, amfrpc, rss, csv\n    """\n    return service()\n\n\n@auth.requires_signature()\ndef data():\n    """\n    http://..../[app]/default/data/tables\n    http://..../[app]/default/data/create/[table]\n    http://..../[app]/default/data/read/[table]/[id]\n    http://..../[app]/default/data/update/[table]/[id]\n    http://..../[app]/default/data/delete/[table]/[id]\n    http://..../[app]/default/data/select/[table]\n    http://..../[app]/default/data/search/[table]\n    but URLs must be signed, i.e. linked with\n      A(\'table\',_href=URL(\'data/tables\',user_signature=True))\n    or with the signed load operator\n      LOAD(\'default\',\'data.load\',args=\'tables\',ajax=True,user_signature=True)\n    """\n    return dict(form=crud())\n    \ndef welcome():\n\t""" First page to be visited after installation. Will create necessary roles and permissions for admin and redirects to index."""\n\tcreate_user()\n\tcreate_group()\n\tcreate_membership()\n\tcreate_permission()\n\tsession.flash = "Welcome to Themis"\n\tredirect(URL(c=\'default\', f=\'index\'))\n\t\ndef create_user():\n\t username = \'admin\'\n\t password = username\n\t if \'username\' in auth.settings.table_user.fields():\n\t \tuserkey = \'username\'\n\t elif \'email\' in auth.settings.table_user.fields():\n\t \tuserkey = \'email\'\n\t \tusername = username + \'@themislexsol.com\'\n\t passfield = auth.settings.password_field \n\t user = db(auth.settings.table_user[userkey] == username).select().first()\n\t if not user:\n\t \tuser_id = db.auth_user.insert(**{userkey:username,passfield:CRYPT(auth.settings.hmac_key)(password)[0]})\n\t \tuser = auth.settings.table_user(user_id)\n\t return user\n\t \ndef create_group():\n    group = db(auth.settings.table_group.role == \'Admin\').select().first()\n    if not group:\n        group_id = auth.add_group(role = \'Admin\', description = \'All Permissions\')\n        group = auth.settings.table_group(group_id)\n    return group\n    \ndef create_membership():\n\tgroup = db(db.auth_group.role == \'Admin\').select().first()\n\tuser = db(db.auth_user.email == \'admin@themislexsol.com\').select().first()\n\tmembership = db(auth.settings.table_membership.group_id == group.id).select().first()\n\tif not membership:\n\t\tmembership_id = auth.add_membership(group_id = group.id, user_id = user.id)\n\t\tmembership = auth.settings.table_membership(membership_id)\n\treturn membership\n\t\ndef create_permission():\n\ttables = list(db.tables)\n\tfor table in tables:\n\t\tgroup = db(db.auth_group.role == \'Admin\').select().first()\n\t\tquery = auth.settings.table_permission.group_id == group.id\n\t\tquery = query & (auth.settings.table_permission.name == \'CRUD\')\n\t\tquery = query & (auth.settings.table_permission.table_name == table)\n\t\tpermission = db(query).select().first()\n\t\tif not permission:\n\t\t\tpermission_id = auth.add_permission(group_id = group.id, name = \'CRUD\', table_name = table)\n\t\t\tpermission = auth.settings.table_permission(permission_id)\n\treturn permission\n\t\ndef lgin(form):\n\tif auth.user.email == \'admin@themislexsol.com\':\n\t\tadmin=db(db.image.email==auth.user.email).select().first()\n\t\tif not admin:\n\t\t\tdb.image.insert(email=auth.user.email)\n\t\t\tredirect(URL(c=\'default\', f=\'admindash\'))\n\t\telse:\n\t\t\tredirect(URL(c=\'default\', f=\'admindash\'))\t\t\t\n\telse:\n\t\tredirect(URL(c=\'default\', f=\'emp_time\'))\n\treturn dict()\n\t\ndef lgout(usr):\n\tif auth.user.email == \'admin@themislexsol.com\':\n\t\tpass\n\telse:\n\t\timport datetime\n\t\timport time, os\n\t\tos.environ[\'TZ\'] = \'Asia/Kolkata\'\n\t\ttime.tzset()\n\t\tcurrentdate=datetime.date.today()\n\t\tnow = time.localtime(time.time())\n\t\tendtime=datetime.datetime.now()\n\t\tstarttime = session.starttime\n\t\tdelta = (endtime - starttime)\n\t\ttotalminutes = str(delta.seconds / 60)\n\t\ttotalhours = str(delta.seconds / 3600)\n\t\ttotmin = totalminutes + \'\\t min\'\n\t\ttothr = totalhours + \'\\t hrs\'\n\t\tcurrenttime = time.strftime("%H:%M:%S", now)\n\t\tdb((db.employee_login_detail.employee_email == auth.user.email) & (db.employee_login_detail.employee_login_date == currentdate) & (db.employee_login_detail.employee_login_time == session.cutime)).update(employee_logout_date=currentdate, employee_logout_time=currenttime, total_minutes=totmin, toal_hours=tothr)\n\t\tdb.commit()\n\treturn dict()\n\n#### Admin Controller Starts from here ####\t\n\t\n@auth.requires(auth.login() and auth.has_permission(\'CRUD\', \'auth_user\'))    \ndef admindash():\n\tfor row in db(db.image.email == auth.user.email).select():\n\t\timages=row.image\n\treturn dict(images=images)\t \n\n@auth.requires_permission(\'CRUD\', \'auth_user\')\t\t\ndef admin_organization():\n\tfor row in db(db.image.email == auth.user.email).select():\n\t\timages=row.image\n\tdb.add_new_organization.id.readable = False\n\tform=SQLFORM.grid(db.add_new_organization, selectable = lambda ids: del_org(ids))\n\treturn dict(images=images,form=form)\n\t\n@auth.requires_permission(\'CRUD\', \'auth_user\')\t\ndef del_org(ids):\n\tif not ids:\n\t\tresponse.flash=\'Please Select the Check-box to Delete\'\n\telse:\n\t\tfor row in ids:\n\t\t\tdb(db.add_new_organization.id == row).delete()\n\t\tpass\n\tpass\n\treturn \'\'\n\t\n@auth.requires_permission(\'CRUD\', \'auth_user\')\t\t\ndef admin_location():\n\tfor row in db(db.image.email == auth.user.email).select():\n\t\timages=row.image\n\tdb.add_new_location.id.readable = False\n\tform=SQLFORM.grid(db.add_new_location, selectable = lambda ids: del_loc(ids))\n\treturn dict(images=images,form=form)\n\t\n@auth.requires_permission(\'CRUD\', \'auth_user\')\t\ndef del_loc(ids):\n\tif not ids:\n\t\tresponse.flash=\'Please Select the Check-box to Delete\'\n\telse:\n\t\tfor row in ids:\n\t\t\tdb(db.add_new_location.id == row).delete()\n\t\tpass\n\tpass\n\treturn \'\'\n\t\n@auth.requires_permission(\'CRUD\', \'auth_user\')\t\t\ndef admin_department():\n\tfor row in db(db.image.email == auth.user.email).select():\n\t\timages=row.image\n\tdb.add_new_department.id.readable = False\n\tform=SQLFORM.grid(db.add_new_department, selectable = lambda ids: del_dpt(ids))\n\treturn dict(images=images,form=form)\n\t\n@auth.requires_permission(\'CRUD\', \'auth_user\')\t\ndef del_dpt(ids):\n\tif not ids:\n\t\tresponse.flash=\'Please Select the Check-box to Delete\'\n\telse:\n\t\tfor row in ids:\n\t\t\tdb(db.add_new_department.id == row).delete()\n\t\tpass\n\tpass\n\treturn \'\'\n\n@auth.requires_permission(\'CRUD\', \'auth_user\')\t\ndef locn(): \n\torg = request.vars.org\n\tloc = db(db.add_new_location.organization_name == org).select()\n\treturn SELECT(_id="locn",_name="locn",*[OPTION(loc [i].location, _value=str (loc[i].location)) for i in range(len(loc))])\n\n@auth.requires_permission(\'CRUD\', \'auth_user\')\t  \ndef admin_newuser():\n\tfor row in db(db.image.email == auth.user.email).select():\n\t\timages=row.image\n\tdb.auth_user.id.readable = False\n\tform=SQLFORM.grid(db.auth_user, create=False, selectable = lambda ids: del_emp(ids))\n\treturn dict(images=images,form=form)\n\t\n@auth.requires_permission(\'CRUD\', \'auth_user\')\t\ndef del_emp(ids):\n\tif not ids:\n\t\tresponse.flash=\'Please Select the Check-box to Delete\'\n\telse:\n\t\tfor row in ids:\n\t\t\tdb(db.auth_user.id == row).delete()\n\t\tpass\n\tpass\n\treturn \'\'\n\n@auth.requires_permission(\'CRUD\', \'auth_user\')\t\ndef admin_create_new_user():\n\tfor row in db(db.image.email == auth.user.email).select():\n\t\timages=row.image\n\t\n\tadmin_create_new_user.count=0\n\tdef counting():\n\t\tfor row in db(db.auth_user.id >= 1).select():\n\t\t\tadmin_create_new_user.count += 1\n\tcounting()\n\tcount=admin_create_new_user.count\n\tprefix=\'00\'\n\tpre=\'0\'\n\tpr=\'\'\n\tif count < 10:\n\t\tid=prefix+str(count)\n\telif count >= 10 and count <= 99:\n\t\tid=pre+str(count)\n\telse:\n\t\tid=pr+str(count)\n\t\t\n\torg = db().select(db.add_new_organization.ALL)\n\tdpt = db().select(db.add_new_department.ALL)\n\trmgr = db().select(db.auth_user.ALL)\n\tstat = [\'Active\',\'Terminated\',\'Resigned\',\'Leave-of-Absence\',\'Deceased\']\n\t\n\tif request.vars.mailerror:\n\t\tvar = \'This email (\'+request.vars.mailerror+\') is allready taken. Please choose another email address.\'\n\telif request.vars.mailerr:\n\t\tvar = \'This email (\'+request.vars.mailerr+\') is Successfully Registered with HRMS.\'\n\telse:\n\t\tvar = \'Add New Employee\'\n\treturn dict(images=images, org=org, dpt=dpt, stat=stat, id=id, var=var,rmgr=rmgr)\n\t\n@auth.requires_permission(\'CRUD\', \'auth_user\')\t\ndef admin_submit_newuser():\n\tfor row in db(db.auth_user.email==request.vars.orgemail).select():\n\t\tsession.regmail=row.email\n\t\tpass\n\tif session.regmail == request.vars.orgemail:\n\t\tredirect(URL(c=\'default\', f=\'admin_create_new_user\', vars={\'mailerror\' :request.vars.orgemail}))\n\telse:\n\t\tsession.mail = request.vars.orgemail\n\t\tsession.pmail = request.vars.pemail\n\t\tsession.fname = request.vars.fname\n\t\tsession.mgr = request.vars.rmgr\n\t\tfor row1 in db(db.add_new_organization.id==request.vars.org).select():\n\t\t\tpr = row1.organization_prefix\n\t\t\tcmpny = row1.organization_name\n\t\tprefix = str(pr+request.vars.empcode)\n\t\tdb.auth_user.bulk_insert([{\'first_name\' : session.fname,\'last_name\' : request.vars.lname,\'email\' : session.mail,\'password\' : db.auth_user.password.validate(\'1234\')[0],\'organization_name\' : cmpny, \'location\' : request.vars.locn, \'department\' : request.vars.dpt, \'employee_code\' : prefix, \'personal_email\' : session.pmail, \'date_of_joining\' : request.vars.doj, \'reporting_manager\' : request.vars.rmgr, \'designation\' : request.vars.dgn, \'employee_status\' : request.vars.stat}])\n\t\tcreate_emp_group()\n\t\tcreate_emp_membership()\n\t\tcreate_emp_permission()\n\t\tcreate_mgr_group()\n\t\tcreate_mgr_membership()\n\t\tcreate_mgr_permission()\n\t\tdb.personal_information.insert(email=session.mail,employee_code=prefix)\n\t\tdb.qualification.insert(email=session.mail,employee_code=prefix)\n\t\tdb.document.insert(email=session.mail,employee_code=prefix)\n\t\tdb.image.insert(email=session.mail,employee_code=prefix)\n\t\t\n\t\ttotvacationleave=18\n\t\ttotmedicalleave=6\n\t\ttotcasualleave=6\n\t\timport datetime\n\t\tmonth = datetime.datetime.now().month\n\t\ttotmonth = 12\n\t\tcurmnth = totmonth - month\n\t\tvacleave = int(curmnth * 1.5)\n\t\tmedleave = int(curmnth * 0.5)\n\t\tcasulleave = int(curmnth * 0.5)\n\t\ttackenvacleave = 0\n\t\ttackenmedleave = 0\n\t\ttakencasulleave = 0\n\t\tdb.employee_leave.insert(employee_code=prefix,email=session.mail,taken_vacation_leave=tackenvacleave,taken_medical_leave=tackenmedleave,taken_casual_leave=takencasulleave,left_vacation_leave=vacleave,left_medical_leave=medleave,left_casual_leave=casulleave)\n\t\tdb.commit()\n\t\twelcome_mail()\n\t\tredirect(URL(c=\'default\', f=\'admin_create_new_user\', vars={\'mailerr\' :request.vars.orgemail}))\n\treturn dict()\n\t\n@auth.requires_permission(\'CRUD\', \'auth_user\')\r\ndef welcome_mail():\r\n    from gluon.tools import Mail\r\n    mail=Mail()\r\n    #specify server\n    \n    mail=auth.settings.mailer\r\n    mail.settings.server=\'smtp.gmail.com:587\'\r\n    mail.settings.login=\'themisdemo1@gmail.com:123456asdfg\'\r\n    #specify address to send as\r\n    mail.settings.sender=\'themisdemo1@gmail.com\'\r\n    #send the message                             \r\n    mail.send(to=[session.mail, session.pmail],\r\n            subject=\'Welcome User\',\r\n            message=\'<html>\'\r\n                        \'<body>\'\r\n                            \'<span style="font-family: Bodoni MT Ultra Bold;color:  #000000 ;font-size : 18pt;"><b>Themis </span></h1><span style="font-family: Bodoni MT Ultra Bold;color:#C7A317   ;font-size :18pt;"><b>Lexsol</b></span>\'\r\n                            \r\n                            \'<p>Dear &nbsp;\'+session.fname+\'</p>\'\r\n                            \r\n                            \'<p>I just wanted to drop you a quick message to say thank you for joining the Themis Lexsol.Your user name is \'+session.mail+\' and please click below to reset your password.<h1>http://jmdlcmplus.fluxflex.com/jmdlcmplus/default/user/request_reset_password</h1>If you need help at any time, please contact me by replying to this message. Similarly, if you ever have any questions then please do not hesitate to send me a message or email.</p>\'\r\n                            \'<center><p>_________________________________________________________</p><p style="color:red;font-size :5pt;">This email comes to you since your company has subcribed for LCM Plus. TO unsubcribed please contact to Themis Lexsol</p></center>\'\r\n                      \r\n                        \'</body>\'\r\n                    \'</html>\'\r\n                    \r\n  )\r\n    response.flash=\'mail send\'\r\n    return \'\'\t\n\t\n@auth.requires_permission(\'CRUD\', \'auth_user\')    \ndef create_emp_group():\r\n    group = db(auth.settings.table_group.role == \'Emp\').select().first()\r\n    if not group:\r\n        group_id = auth.add_group(role = \'Emp\', description = \'Only Employee Permissions\')\r\n        group = auth.settings.table_group(group_id)\r\n    return group\n\n@auth.requires_permission(\'CRUD\', \'auth_user\')    \ndef create_emp_membership():\r\n\tgroup = db(db.auth_group.role == \'Emp\').select().first()\r\n\tuser = db(db.auth_user.email == session.mail).select().first()\r\n\tmembership = db((auth.settings.table_membership.group_id == group.id) & (auth.settings.table_membership.user_id == user.id)).select().first()\r\n\tif not membership:\r\n\t\tmembership_id = auth.add_membership(group_id = group.id, user_id = user.id)\r\n\t\tmembership = auth.settings.table_membership(membership_id)\r\n\treturn membership\n\n@auth.requires_permission(\'CRUD\', \'auth_user\')\t\ndef create_emp_permission():\r\n\tgroup = db(db.auth_group.role == \'Emp\').select().first()\n\tquery = auth.settings.table_permission.group_id == group.id\n\tquery = query & (auth.settings.table_permission.name == \'Emp\')\n\tpermission = db(query).select().first()\n\tif not permission:\n\t\tpermission_id = auth.add_permission(group_id = group.id, name = \'Emp\', table_name = \'auth_user\')\n\t\tpermission = auth.settings.table_permission(permission_id)\n\treturn permission\n\t\n@auth.requires_permission(\'CRUD\', \'auth_user\')    \ndef create_mgr_group():\n    group = db(auth.settings.table_group.role == \'Mgr\').select().first()\n    if not group:\n        group_id = auth.add_group(role = \'Mgr\', description = \'Only Manager Permissions\')\n        group = auth.settings.table_group(group_id)\n    return group\n\n@auth.requires_permission(\'CRUD\', \'auth_user\')    \ndef create_mgr_membership():\n\tgroup = db(db.auth_group.role == \'Mgr\').select().first()\n\tuser = db(db.auth_user.email == session.mgr).select().first()\n\tmembership = db((auth.settings.table_membership.group_id == group.id) & (auth.settings.table_membership.user_id == user.id)).select().first()\n\tif not membership:\n\t\tmembership_id = auth.add_membership(group_id = group.id, user_id = user.id)\n\t\tmembership = auth.settings.table_membership(membership_id)\n\treturn membership\n\n@auth.requires_permission(\'CRUD\', \'auth_user\')\t\ndef create_mgr_permission():\n\tgroup = db(db.auth_group.role == \'Mgr\').select().first()\n\tquery = auth.settings.table_permission.group_id == group.id\n\tquery = query & (auth.settings.table_permission.name == \'Mgr\')\n\tpermission = db(query).select().first()\n\tif not permission:\n\t\tpermission_id = auth.add_permission(group_id = group.id, name = \'Mgr\', table_name = \'auth_user\')\n\t\tpermission = auth.settings.table_permission(permission_id)\n\treturn permission\n\n@auth.requires_permission(\'CRUD\', \'auth_user\')\t\ndef admin_newholiday():\n\tfor row in db(db.image.email == auth.user.email).select():\n\t\timages=row.image\n\tdb.holiday_list.id.readable=False\n\tform=SQLFORM.grid(db.holiday_list, selectable = lambda ids: del_hlist(ids))\n\treturn dict(images=images,form=form)\n\t\n@auth.requires_permission(\'CRUD\', \'auth_user\')\t\ndef del_hlist(ids):\n\tif not ids:\n\t\tresponse.flash=\'Please Select the Check-box to Delete\'\n\telse:\n\t\tfor row in ids:\n\t\t\tdb(db.holiday_list.id == row).delete()\n\t\tpass\n\tpass\n\treturn \'\'\n\n@auth.requires_permission(\'CRUD\', \'auth_user\')    \ndef addthemis():\n\tfor row in db(db.image.email == auth.user.email).select():\n\t\timages=row.image\n\treturn dict(images=images)\n\n@auth.requires_permission(\'CRUD\', \'auth_user\')\t\ndef admin_timesheet():\n\tfor row in db(db.image.email == auth.user.email).select():\n\t\timages=row.image\n\treturn dict(images=images)\n\t\n@auth.requires_permission(\'CRUD\', \'auth_user\')\t\ndef admin_attendance():\n\tfor row in db(db.image.email == auth.user.email).select():\n\t\timages=row.image\n\tdb.employee_login_detail.id.readable=False\n\tform=SQLFORM.grid(db.employee_login_detail, selectable = lambda ids: del_att(ids))\n\treturn dict(form=form,images=images)\n\t\n@auth.requires_permission(\'CRUD\', \'auth_user\')\t\ndef del_att(ids):\n\tif not ids:\n\t\tresponse.flash=\'Please Select the Check-box to Delete\'\n\telse:\n\t\tfor row in ids:\n\t\t\tdb(db.employee_login_detail.id == row).delete()\n\t\tpass\n\tpass\n\treturn \'\'\n\n@auth.requires_permission(\'CRUD\', \'auth_user\')\t\t\ndef admin_report():\n\tfor row in db(db.image.email == auth.user.email).select():\n\t\timages=row.image\n\treturn dict(images=images)\n\n@auth.requires_permission(\'CRUD\', \'auth_user\')    \ndef admin_mydoc():\n\tfor row in db(db.image.email == auth.user.email).select():\n\t\timages=row.image\n\treturn dict(images=images)\n\n@auth.requires_permission(\'CRUD\', \'auth_user\')\t\t\ndef admin_salary():\n\tfor row in db(db.image.email == auth.user.email).select():\n\t\timages=row.image\n\treturn dict(images=images)\n\t\n@auth.requires_permission(\'CRUD\', \'auth_user\')\ndef admin_update_image():\n\tfor row in db(db.image.email == auth.user.email).select():\n\t\timages=row.image\n\tfor row1 in db(db.image.email == auth.user.email).select():\n\t\tmail=row.email\n\t\tecode=row.employee_code\n\t\t\n\tdb.image.email.writable=False\n\tdb.image.employee_code.writable=db.image.employee_code.readable=False\n\tdb.image.email.default=mail\n\tform=SQLFORM(db.image)\n\tif form.accepts(request.vars, session):\n\t\timg = form.vars.image\n\t\tdb(db.image.email == auth.user.email).update(image=img)\n\t\tredirect(URL(c=\'default\', f=\'admindash\'))\n\treturn dict(images=images,form=form)\n\n@auth.requires_permission(\'CRUD\', \'auth_user\')\t\ndef admin_calendar():\n\tfor row in db(db.image.email == auth.user.email).select():\n\t\timages=row.image\n\tcaland=db().select(db.holiday_list.ALL)\r\n\treturn dict(images=images,rows=caland)\n\n@auth.requires_permission(\'CRUD\', \'auth_user\')\t\ndef admin_calread():\r\n    record = db.holiday_list(request.args(0)) or redirect(URL(\'error\'))\r\n    form=crud.read(db.holiday_list,record)\r\n    return dict(form=form)\n    \n@auth.requires_permission(\'CRUD\', \'auth_user\')\t\ndef admin_leave_stat():\n\tfor row in db(db.image.email == auth.user.email).select():\n\t\timages=row.image\n\tadminleave=db().select(db.apply_leave.ALL)\n\treturn dict(images=images,adminleave=adminleave)\n\n@auth.requires_permission(\'CRUD\', \'auth_user\')\t\t\ndef admin_edit_leave():\n\tfor row in db(db.image.email == auth.user.email).select():\n\t\timages=row.image\n\tfor row in db(db.apply_leave.id==request.args(0)).select():\n\t\tid=row.id\n\t\teid=row.employee_code\n\t\testat=row.status\n\t\teltype=row.leave_type\n\t\tefrom=row.from_leave\n\t\teto=row.to_leave\n\t\tereason=row.reason_for_leave\n\t\tetotday=row.total_day\n\treturn dict(id=id,images=images,eid=eid,estat=estat,eltype=eltype,efrom=efrom,eto=eto,ereason=ereason,etotday=etotday)\n\n@auth.requires_permission(\'CRUD\', \'auth_user\')\t\ndef admin_approve_leave():\n\tfor row in db(db.apply_leave.id==request.args(0)).select():\n\t\tsession.lmail=row.email\n\t\tsession.empname=row.name\n\t\tsession.efrom=row.from_leave\n\t\tsession.eto=row.to_leave\n\t\tsession.status=request.vars.status\n\t\tsession.ltype=row.leave_type\n\t\tsession.tday=row.total_day\n\tif session.status == \'Approved\':\n\t\tif session.ltype == \'Casual Leave\':\n\t\t\tfor row in db(db.employee_leave.email==session.lmail).select():\n\t\t\t\ttotday=row.left_casual_leave - session.tday\n\t\t\tdb(db.apply_leave.id==request.args(0)).update(status=session.status, approved_by=\'Administrator\')\n\t\t\tdb(db.employee_leave.email==session.lmail).update(taken_casual_leave=session.tday,left_casual_leave=totday)\n\t\t\tdb.commit()\n\t\t\tredirect(URL(c=\'default\', f=\'admin_leave_mail\'))\n\t\telif session.ltype == \'Medical Leave\':\n\t\t\tfor row in db(db.employee_leave.email==session.lmail).select():\n\t\t\t\ttotday=row.left_medical_leave - session.tday\n\t\t\tdb(db.apply_leave.id==request.args(0)).update(status=session.status, approved_by=\'Administrator\')\n\t\t\tdb(db.employee_leave.email==session.lmail).update(taken_medical_leave=session.tday,left_medical_leave=totday)\n\t\t\tdb.commit()\n\t\t\tredirect(URL(c=\'default\', f=\'admin_leave_mail\'))\n\t\telif session.ltype == \'Vacation Leave\':\n\t\t\tfor row in db(db.employee_leave.email==session.lmail).select():\n\t\t\t\ttotday=row.left_vacation_leave - session.tday\n\t\t\tdb(db.apply_leave.id==request.args(0)).update(status=session.status, approved_by=\'Administrator\')\n\t\t\tdb(db.employee_leave.email==session.lmail).update(taken_vacation_leave=session.tday,left_vacation_leave=totday)\n\t\t\tdb.commit()\n\t\t\tredirect(URL(c=\'default\', f=\'admin_leave_mail\'))\n\t\telse:\n\t\t\tpass\n\telse:\n\t\tdb(db.apply_leave.id==request.args(0)).update(status=session.status, approved_by=\'Administrator\')\n\t\tdb.commit()\n\t\tredirect(URL(c=\'default\', f=\'admin_leave_mail\'))\n\treturn \'\'\n\n@auth.requires_permission(\'CRUD\', \'auth_user\')\ndef admin_edit_leave_status():\n\tfor row2 in db(db.image.email == auth.user.email).select():\n\t\timages=row2.image\n\tltype=[\'Casual Leave\',\'Medical Leave\',\'Vacation Leave\']\n\tsession.eleaveid=request.args(0)\n\tfor row in db(db.apply_leave.id==session.eleaveid).select():\n\t\tecode=row.employee_code\n\t\tname=row.name\n\t\tfle=row.from_leave\n\t\ttle=row.to_leave\n\t\ttday=row.total_day\n\t\trle=row.reason_for_leave\n\t\teltype=row.leave_type\n\treturn dict(ltype=ltype,images=images,ecode=ecode,name=name,fle=fle,tle=tle,tday=tday,rle=rle,eltype=eltype)\n\n@auth.requires_permission(\'CRUD\', \'auth_user\')\t\ndef admin_submit_edit_leave_status():\n\tdb(db.apply_leave.id == session.eleaveid).update(name=request.vars.name, leave_type=request.vars.ltype, from_leave=request.vars.fleave, to_leave=request.vars.tleave, total_day=request.vars.tday, reason_for_leave=request.vars.rleave)\n\tdb.commit()\n\tredirect(URL(c=\'default\',f=\'admin_leave_stat\'))\n\treturn \'\'\n\n@auth.requires_permission(\'CRUD\', \'auth_user\')\ndef admin_leave_mail():\n    from gluon.tools import Mail\n    mail=Mail()\n    #specify server\n    mail=auth.settings.mailer\n    mail.settings.server=\'smtp.gmail.com:587\'\n    mail.settings.login=\'themisdemo1@gmail.com:123456asdfg\'\n    #specify address to send as\n    mail.settings.sender=\'themisdemo1@gmail.com\'\n    #send the message                             \n    mail.send(to=[session.lmail],\n            subject=\'Leave Status\',\n            message=\'<html>\'\n                        \'<body>\'\n                            \'<span style="font-family: Bodoni MT Ultra Bold;color:  #000000 ;font-size : 18pt;"><b>Themis </span></h1><span style="font-family: Bodoni MT Ultra Bold;color:#C7A317   ;font-size :18pt;"><b>Lexsol</b></span>\'\n                            \n                            \'<p>Dear &nbsp;\'+session.empname+\'</p>\'\n                            \n                            \'<p>I just wanted to drop you a quick message to say Your leave request from \'+str(session.efrom)+\' to \'+str(session.eto)+\' is \'+session.status+\' If you need help at any time, please contact me by replying to this message. Similarly, if you ever have any questions then please do not hesitate to send me a message or email.</p>\'\n                            \'<center><p>_________________________________________________________</p><p style="color:red;font-size :5pt;">This email comes to you since you are subcribed for HRMS. TO unsubcribed please contact to Themis Lexsol</p></center>\'\n                      \n                        \'</body>\'\n                    \'</html>\'\n                    \n  )\n    redirect(URL(c=\'default\', f=\'admin_cnf_leave\'))\t\n    return \'\'\n    \n@auth.requires_permission(\'CRUD\', \'auth_user\')\t\ndef admin_cnf_leave():\n\tfor row2 in db(db.image.email == auth.user.email).select():\n\t\timages=row2.image\n\treturn dict(images=images,status=session.status,efrom=session.efrom,eto=session.eto,empname=session.empname)\n\t\n@auth.requires_permission(\'CRUD\', \'auth_user\')\t\ndef admin_contact_detail():\n\tfor row2 in db(db.image.email == auth.user.email).select():\n\t\timages=row2.image\n\treturn dict(images=images)\n\n@auth.requires_permission(\'CRUD\', \'auth_user\')\t\ndef admin_add_project():\n\tfor row2 in db(db.image.email == auth.user.email).select():\n\t\timages=row2.image\n\t\n\treturn dict(images=images)\n\n@auth.requires_permission(\'CRUD\', \'auth_user\')\t\ndef admin_submit_project():\n\tfor row2 in db(db.image.email == auth.user.email).select():\n\t\timages=row2.image\n\t\n\treturn dict(images=images)\n\t\n@auth.requires_permission(\'CRUD\', \'auth_user\')\ndef admin_assign_project():\n\tfor row2 in db(db.image.email == auth.user.email).select():\n\t\timages=row2.image\n\treturn dict(images=images)\n\t\n\n#### Employee Controller Starts from here ####\n\ndef emp_time():\n\timport datetime\n\timport time, os\n\tos.environ[\'TZ\'] = \'Asia/Kolkata\'\n\ttime.tzset()\n\tnow = time.localtime(time.time())\n\tsession.cutime = time.strftime("%H:%M:%S", now)\t\n\tredirect(URL(c=\'default\',f=\'employee\'))\n\treturn \'\'\n\n@auth.requires(auth.login() and auth.has_permission(\'Emp\', \'auth_user\'))\ndef employee():\n\tresponse.flash = "Welcome to Employee Lgoin"\n\tfor row in db(db.image.email == auth.user.email).select():\n\t\timages=row.image\n\tllgin=[]\n\tfor log in db(db.employee_login_detail.employee_logout_date==\'Logged in\').select():\n\t\tllgin.append(log.employee_name)\n\tblgin=set(llgin)\n\talgin=list(blgin)\n\t\t\n\tipa = request.env.remote_addr\n\tipaddr = str(ipa[33:])\n\timport datetime\n\timport time, os\n\tos.environ[\'TZ\'] = \'Asia/Kolkata\'\n\ttime.tzset()\n\tcurrentdate=datetime.date.today()\n\tnow = time.localtime(time.time())\n\tstarttime = datetime.datetime.now()\n\tsession.starttime = starttime\n\tcurrenttime = time.strftime("%H:%M:%S", now)\n\tsession.time = currenttime\n\tif session.cutime == session.time:\n\t\tfor row in db(db.auth_user.email == auth.user.email).select(db.auth_user.first_name, db.auth_user.employee_code):\n\t\t\tfirstname=row.first_name\n\t\t\tempcode=row.employee_code\n\t\tdb.employee_login_detail.insert(employee_code = empcode, employee_email = auth.user.email, employee_name=firstname, employee_login_date=currentdate, employee_login_time=currenttime, ip_address=ipaddr)\n\t\tdb.commit()\n\telse:\n\t\tpass\n\treturn dict(algin=algin,images=images)\t\n\n@auth.requires_permission(\'Emp\', \'auth_user\')\t\ndef emp_mydoc():\n\tfor row in db(db.image.email == auth.user.email).select():\n\t\timages=row.image\n\t\n\tllgin=[]\n\tfor log in db(db.employee_login_detail.employee_logout_date==\'Logged in\').select():\n\t\tllgin.append(log.employee_name)\n\tblgin=set(llgin)\n\talgin=list(blgin)\t\n\tfor row in db(db.auth_user.email==auth.user.email).select(db.auth_user.employee_code):\r\n\t\t\tecode=row.employee_code\n\t\t\t\n\tdb.document.id.readable=False\t\n\tdb.document.email.writable=False\n\tdb.document.email.default=auth.user.email\n\tdb.document.employee_code.writable=False\n\tdb.document.employee_code.default=ecode\n\ttable=SQLFORM.grid(db.document.email==auth.user.email)\n\treturn dict(algin=algin,images=images,table=table)\n\n@auth.requires_permission(\'Emp\', \'auth_user\')\t\ndef emp_compliance():\n\tfor row in db(db.image.email == auth.user.email).select():\n\t\timages=row.image\n\t\t\n\tllgin=[]\n\tfor log in db(db.employee_login_detail.employee_logout_date==\'Logged in\').select():\n\t\tllgin.append(log.employee_name)\n\tblgin=set(llgin)\n\talgin=list(blgin)\n\treturn dict(algin=algin,images=images)\n\n@auth.requires_permission(\'Emp\', \'auth_user\')\t\ndef emp_all():\n\tfor row in db(db.image.email == auth.user.email).select():\n\t\timages=row.image\n\tllgin=[]\n\tfor log in db(db.employee_login_detail.employee_logout_date==\'Logged in\').select():\n\t\tllgin.append(log.employee_name)\n\tblgin=set(llgin)\n\talgin=list(blgin)\n\treturn dict(algin=algin,images=images)\n\n@auth.requires_permission(\'Emp\', \'auth_user\')   \ndef emp_myprofile():\n\tfor row2 in db(db.image.email == auth.user.email).select():\n\t\timages=row2.image\n\t\t\n\tllgin=[]\n\tfor log in db(db.employee_login_detail.employee_logout_date==\'Logged in\').select():\n\t\tllgin.append(log.employee_name)\n\tblgin=set(llgin)\n\talgin=list(blgin)\n\tfor row in db(db.auth_user.email == auth.user.email).select():\n\t\tempcode=row.employee_code\n\t\tempfname=row.first_name\n\t\templname=row.last_name\n\t\tempemail=auth.user.email \n\t\temppemail=row.personal_email\n\t\tempdoj=row.date_of_joining\n\t\tempdpt=row.department\n\t\temprptmgr=row.reporting_manager\n\t\tempdgn=row.designation\n\t\t\n\tfor row1 in db(db.personal_information.email == auth.user.email).select():\n\t\tsession.empdob=row1.date_of_birth\n\t\tsession.empgndr=row1.gender\n\t\tsession.empstatus=row1.marital_status\n\t\tsession.empgrp=row1.blood_group\n\t\tsession.empmbl=row1.mobile\n\t\tsession.empphone=row1.phone\n\t\tsession.emppaddr=row1.present_address\n\t\tsession.empperaddr=row1.permanent_address\n\t\tsession.empctz=row1.citizenship\n\t\tsession.empst=row1.state\n\t\tsession.emppassno=row1.passport_no\n\t\tsession.empbank=row1.bank_account_no\n\t\tsession.emppancard=row1.pan_card_no\r\n\tedtable = db(db.qualification.email==auth.user.email).select(db.qualification.ALL) \n\treturn dict(algin=algin,images=images,empcode=empcode,empfname=empfname,emplname=emplname,empemail=empemail,emppemail=emppemail,empdoj=empdoj,empdpt=empdpt,emprptmgr=emprptmgr,empdgn=empdgn,empdob=session.empdob,empgndr=session.empgndr,empstatus=session.empstatus,empgrp=session.empgrp,empmbl=session.empmbl,empphone=session.empphone,emppaddr=session.emppaddr,empperaddr=session.empperaddr,empctz=session.empctz,empst=session.empst,emppassno=session.emppassno,empbank=session.empbank,emppancard=session.emppancard,edtable=edtable)\n\n@auth.requires_permission(\'Emp\', \'auth_user\')\t\ndef emp_update_edu_info():\n\tfor row in db(db.image.email == auth.user.email).select():\n\t\timages=row.image\n\tllgin=[]\n\tfor log in db(db.employee_login_detail.employee_logout_date==\'Logged in\').select():\n\t\tllgin.append(log.employee_name)\n\tblgin=set(llgin)\n\talgin=list(blgin)\n\t\t\n\tfor row in db(db.auth_user.email==auth.user.email).select(db.auth_user.employee_code):\r\n\t\t\tecode=row.employee_code\n\t\t\t\n\tdb.qualification.id.readable=False\t\n\tdb.qualification.email.writable=False\n\tdb.qualification.email.default=auth.user.email\n\tdb.qualification.employee_code.writable=False\n\tdb.qualification.employee_code.default=ecode\n\ttable=SQLFORM.grid(db.qualification.email==auth.user.email)\n\treturn dict(algin=algin,images=images,table=table)\n\n@auth.requires_permission(\'Emp\', \'auth_user\')\ndef emp_update_personal_info():\n\tfor row1 in db(db.image.email == auth.user.email).select():\n\t\timages=row1.image\n\tllgin=[]\n\tfor log in db(db.employee_login_detail.employee_logout_date==\'Logged in\').select():\n\t\tllgin.append(log.employee_name)\n\tblgin=set(llgin)\n\talgin=list(blgin)\n\t\n\tfor row in db(db.personal_information.email == auth.user.email).select():\n\t\tecode=row.employee_code\n\t\tdbr=row.date_of_birth\n\t\tgndr=row.gender\n\t\tmstat=row.marital_status\n\t\tbgrp=row.blood_group\n\t\tmbl=row.mobile\n\t\tph=row.phone\n\t\tpaddr=row.present_address\n\t\tperaddr=row.permanent_address\n\t\tctz=row.citizenship\n\t\tst=row.state\n\t\tpno=row.passport_no\n\t\tbno=row.bank_account_no\n\t\tpcard=row.pan_card_no\t\t\n\t\t\n\tdb.personal_information.email.writable=False\n\tdb.personal_information.employee_code.writable=False\n\tdb.personal_information.email.default=auth.user.email\n\tdb.personal_information.employee_code.default=ecode\n\t\n\tdb.personal_information.date_of_birth.default=dbr \n\tdb.personal_information.gender.default=gndr\n\tdb.personal_information.marital_status.default=mstat\n\tdb.personal_information.blood_group.default=bgrp\n\tdb.personal_information.mobile.default=mbl\n\tdb.personal_information.phone.default=ph\n\tdb.personal_information.present_address.default=paddr \n\tdb.personal_information.permanent_address.default=peraddr\n\tdb.personal_information.citizenship.default=ctz\n\tdb.personal_information.state.default=st\n\tdb.personal_information.passport_no.default=pno\n\tdb.personal_information.bank_account_no.default=bno\n\tdb.personal_information.pan_card_no.default=pcard \n\t\n\tform = SQLFORM(db.personal_information)\n\tif form.accepts(request.vars, session):\n\t\tdob = form.vars.date_of_birth\n\t\tgndr = form.vars.gender\n\t\tmstatus = form.vars.marital_status\n\t\tbgrp = form.vars.blood_group\n\t\tmbl = form.vars.mobile\n\t\tphone = form.vars.phone\n\t\tpaddr = form.vars.present_address\n\t\tperaddr = form.vars.permanent_address\n\t\tctz = form.vars.citizenship\n\t\tst = form.vars.state\n\t\tpno = form.vars.passport_no\n\t\tbaccno = form.vars.bank_account_no\n\t\tpcard = form.vars.pan_card_no\n\t\timg = form.vars.image\n\t\tdb(db.personal_information.email == auth.user.email).update(date_of_birth=dob, gender=gndr, marital_status=mstatus, blood_group=bgrp, mobile=mbl, phone=phone, present_address=paddr, permanent_address=peraddr, citizenship=ctz, state=st, passport_no=pno, bank_account_no=baccno, pan_card_no=pcard)\n\t\tredirect(URL(c=\'default\', f=\'emp_myprofile\'))\n\treturn dict(algin=algin,form=form,images=images)\n\n@auth.requires_permission(\'Emp\', \'auth_user\')\ndef emp_update_image():\n\tfor row in db(db.image.email == auth.user.email).select():\n\t\timages=row.image\n\t\t\n\tllgin=[]\n\tfor log in db(db.employee_login_detail.employee_logout_date==\'Logged in\').select():\n\t\tllgin.append(log.employee_name)\n\tblgin=set(llgin)\n\talgin=list(blgin)\n\tfor row1 in db(db.image.email == auth.user.email).select():\n\t\tmail=row.email\n\t\tecode=row.employee_code\n\t\t\n\tdb.image.email.writable=False\n\tdb.image.employee_code.writable=db.image.employee_code.readable=False\n\tdb.image.email.default=mail\n\tform=SQLFORM(db.image)\n\tif form.accepts(request.vars, session):\n\t\timg = form.vars.image\n\t\tdb(db.image.email == auth.user.email).update(image=img)\n\t\tredirect(URL(c=\'default\', f=\'emp_myprofile\'))\n\treturn dict(algin=algin,images=images,form=form)\n\n@auth.requires_permission(\'Emp\', \'auth_user\')\ndef emp_company():\n\tfor row in db(db.image.email == auth.user.email).select():\n\t\timages=row.image\n\t\t\n\tllgin=[]\n\tfor log in db(db.employee_login_detail.employee_logout_date==\'Logged in\').select():\n\t\tllgin.append(log.employee_name)\n\tblgin=set(llgin)\n\talgin=list(blgin)\n\treturn dict(algin=algin,images=images)\n\n@auth.requires_permission(\'Emp\', \'auth_user\')\t\ndef emp_organization():\n\tfor row in db(db.image.email == auth.user.email).select():\n\t\timages=row.image\n\tllgin=[]\n\tfor log in db(db.employee_login_detail.employee_logout_date==\'Logged in\').select():\n\t\tllgin.append(log.employee_name)\n\tblgin=set(llgin)\n\talgin=list(blgin)\n\treturn dict(algin=algin,images=images)\n\n@auth.requires_permission(\'Emp\', \'auth_user\')\t\ndef emp_leavecalendar():\n\tfor row in db(db.image.email == auth.user.email).select():\n\t\timages=row.image\n\t\n\tllgin=[]\n\tfor log in db(db.employee_login_detail.employee_logout_date==\'Logged in\').select():\n\t\tllgin.append(log.employee_name)\n\tblgin=set(llgin)\n\talgin=list(blgin)\n\ttotvacationleave=18\n\ttotmedicalleave=6\n\ttotcasualleave=6\n\templeave = db(db.employee_leave.email==auth.user.email).select(db.employee_leave.ALL)\n\tempstat = db(db.apply_leave.email==auth.user.email).select(db.apply_leave.ALL)\n\treturn dict(algin=algin,empstat=empstat,images=images,empleave=empleave,totvacationleave=totvacationleave,totmedicalleave=totmedicalleave,totcasualleave=totcasualleave)\n\t\ndef cron_leave():\n\ttotvacationleave=18\n\ttotmedicalleave=6\n\ttotcasualleave=6\n\ttvl=0\n\ttml=0\n\ttcl=0\n\tfor row in db(db.employee_leave.id>0).select():\n\t\tfor row1 in db(db.employee_leave.id==row.id).select():\n\t\t\ttotvacleave = totvacationleave + row1.left_vacation_leave\n\t\t\tdb(db.employee_leave.id==row.id).update(taken_vacation_leave=tvl, taken_medical_leave=tml, taken_casual_leave=tcl, left_vacation_leave=totvacleave, left_medical_leave=totmedicalleave, left_casual_leave=totcasualleave)\n\t\t\tdb.commit()\n\treturn \'\'\t\n\t\n@auth.requires_permission(\'Emp\', \'auth_user\')\t\ndef emp_calendar():\n\tfor row in db(db.image.email == auth.user.email).select():\n\t\timages=row.image\n\t\t\n\tllgin=[]\n\tfor log in db(db.employee_login_detail.employee_logout_date==\'Logged in\').select():\n\t\tllgin.append(log.employee_name)\n\tblgin=set(llgin)\n\talgin=list(blgin)\n\tcaland=db().select(db.holiday_list.ALL)\r\n\treturn dict(algin=algin,images=images,rows=caland)\n\n@auth.requires_permission(\'Emp\', \'auth_user\')\t\ndef emp_calread():\r\n    record = db.holiday_list(request.args(0)) or redirect(URL(\'error\'))\r\n    form=crud.read(db.holiday_list,record)\r\n    return dict(form=form)\n    \n@auth.requires_permission(\'Emp\', \'auth_user\')\t\ndef emp_apply_leave():\n\tfor row in db(db.image.email == auth.user.email).select():\n\t\timages=row.image\n\tllgin=[]\n\tfor log in db(db.employee_login_detail.employee_logout_date==\'Logged in\').select():\n\t\tllgin.append(log.employee_name)\n\tblgin=set(llgin)\n\talgin=list(blgin)\n\tfor row in db(db.auth_user.email==auth.user.email).select():\n\t\trptmgr=row.reporting_manager\n\treturn dict(algin=algin,images=images)\n\n@auth.requires_permission(\'Emp\', \'auth_user\')\t\ndef submit_emp_apply_leave():\n\tfor row in db(db.image.email == auth.user.email).select():\n\t\timages=row.image\n\tllgin=[]\n\tfor log in db(db.employee_login_detail.employee_logout_date==\'Logged in\').select():\n\t\tllgin.append(log.employee_name)\n\tblgin=set(llgin)\n\talgin=list(blgin)\n\t\t\n\timport datetime\n\tsession.fromdate=request.vars.fromleave\n\tsession.todate=request.vars.toleave\n\tfdate=datetime.date(*map(int, session.fromdate.split(\'-\')))\n\ttdate=datetime.date(*map(int, session.todate.split(\'-\')))\n\ttotday=tdate-fdate\n\tsession.day=totday.days\n\tif request.vars.apply == \'Casual Leave\':\n\t\tfor row in db(db.employee_leave.email==auth.user.email).select():\n\t\t\tif session.day <= row.left_casual_leave:\n\t\t\t\tfor row in db(db.auth_user.email==auth.user.email).select():\n\t\t\t\t\tsession.rptmgr=row.reporting_manager\n\t\t\t\t\tsession.empcode=row.employee_code\n\t\t\t\t\tsession.fname=row.first_name\n\t\t\t\tdb.apply_leave.insert(employee_code=session.empcode,email=auth.user.email,name=session.fname,leave_type=request.vars.apply,from_leave=session.fromdate,to_leave=session.todate,total_day=session.day,reason_for_leave=request.vars.reason,reporting_manager=session.rptmgr)\n\t\t\t\tdb.commit()\n\t\t\t\tleavemail()\n\t\t\telse:\n\t\t\t\tresponse.flash=\'Your Casual leave is not left\'\n\telif request.vars.apply == \'Medical Leave\':\n\t\tfor row in db(db.employee_leave.email==auth.user.email).select():\n\t\t\tif session.day <= row.left_medical_leave:\n\t\t\t\tfor row in db(db.auth_user.email==auth.user.email).select():\n\t\t\t\t\tsession.rptmgr=row.reporting_manager\n\t\t\t\t\tsession.empcode=row.employee_code\n\t\t\t\t\tsession.fname=row.first_name\n\t\t\t\tdb.apply_leave.insert(employee_code=session.empcode,email=auth.user.email,name=session.fname,leave_type=request.vars.apply,from_leave=session.fromdate,to_leave=session.todate,total_day=session.day,reason_for_leave=request.vars.reason,reporting_manager=session.rptmgr)\n\t\t\t\tdb.commit()\n\t\t\t\tleavemail()\n\t\t\telse:\n\t\t\t\tresponse.flash=\'Your Medical leave is not left\'\n\telif request.vars.apply == \'Vacation Leave\':\n\t\tfor row in db(db.employee_leave.email==auth.user.email).select():\n\t\t\tif session.day <= row.left_vacation_leave:\n\t\t\t\tfor row in db(db.auth_user.email==auth.user.email).select():\n\t\t\t\t\tsession.rptmgr=row.reporting_manager\n\t\t\t\t\tsession.empcode=row.employee_code\n\t\t\t\t\tsession.fname=row.first_name\n\t\t\t\tdb.apply_leave.insert(employee_code=session.empcode,email=auth.user.email,name=session.fname,leave_type=request.vars.apply,from_leave=session.fromdate,to_leave=session.todate,total_day=session.day,reason_for_leave=request.vars.reason,reporting_manager=session.rptmgr)\n\t\t\t\tdb.commit()\n\t\t\t\tleavemail()\n\t\t\telse:\n\t\t\t\tresponse.flash=\'Your Vacation leave is not left\'\n\telse:\n\t\tpass\t\n\treturn dict(algin=algin,images=images)\t\n\n@auth.requires_permission(\'Emp\', \'auth_user\')\t\ndef leavemail():\n    from gluon.tools import Mail\n    mail=Mail()\n    #specify server\n    \n    mail=auth.settings.mailer\n    mail.settings.server=\'smtp.gmail.com:587\'\n    mail.settings.login=\'themisdemo1@gmail.com:123456asdfg\'\n    #specify address to send as\n    mail.settings.sender=\'themisdemo1@gmail.com\'\n    #send the message                             \n    mail.send(to=[session.rptmgr],\n            subject=\'Request for Leave\',\n            message=\'<html>\'\n                        \'<body>\'\n                            \'<span style="font-family: Bodoni MT Ultra Bold;color:  #000000 ;font-size : 18pt;"><b>Themis </span></h1><span style="font-family: Bodoni MT Ultra Bold;color:#C7A317   ;font-size :18pt;"><b>Lexsol</b></span>\'\n                            \n                            \'<p>Dear &nbsp;\'+session.fname+\' applied for leave</p>\'\n                            \'<p>Emp Code &nbsp;\'+session.empcode+\' </p>\'\n                             \'<p>From Date &nbsp;\'+session.fromdate+\' </p>\'\n                              \'<p>To Date &nbsp;\'+session.todate+\' </p>\'\n                               \'<p>Total Day &nbsp;\'+str(session.day)+\' </p>\'\n                            \n                            \'<p></p>\'\n                            \'<center><p>_________________________________________________________</p><p style="color:red;font-size :5pt;">This email comes to you since your company has subcribed for LCM Plus. TO unsubcribed please contact to Themis Lexsol</p></center>\'\n                      \n                        \'</body>\'\n                    \'</html>\'\n                    \n  )\n    response.flash=\'mail send\'\n    redirect(URL(c=\'default\',f=\'emp_leavecalendar\'))\n    return \'\'\t\n\n\t\n@auth.requires_permission(\'Mgr\', \'auth_user\')\t\ndef emp_leave_stat():\n\tfor row in db(db.image.email == auth.user.email).select():\n\t\timages=row.image\n\t\t\n\tllgin=[]\n\tfor log in db(db.employee_login_detail.employee_logout_date==\'Logged in\').select():\n\t\tllgin.append(log.employee_name)\n\tblgin=set(llgin)\n\talgin=list(blgin)\n\templeave=db(db.apply_leave.reporting_manager==auth.user.email).select(db.apply_leave.ALL)\n\treturn dict(algin=algin,images=images,empleave=empleave)\n\t\n@auth.requires_permission(\'Mgr\', \'auth_user\')\t\t\ndef emp_edit_leave():\n\tfor row in db(db.image.email == auth.user.email).select():\n\t\timages=row.image\n\t\t\n\tllgin=[]\n\tfor log in db(db.employee_login_detail.employee_logout_date==\'Logged in\').select():\n\t\tllgin.append(log.employee_name)\n\tblgin=set(llgin)\n\talgin=list(blgin)\n\tfor row in db(db.apply_leave.id==request.args(0)).select():\n\t\tid=row.id\n\t\teid=row.employee_code\n\t\testat=row.status\n\t\teltype=row.leave_type\n\t\tefrom=row.from_leave\n\t\teto=row.to_leave\n\t\tereason=row.reason_for_leave\n\t\tetotday=row.total_day\n\treturn dict(algin=algin,id=id,images=images,eid=eid,estat=estat,eltype=eltype,efrom=efrom,eto=eto,ereason=ereason,etotday=etotday)\n\t\n@auth.requires_permission(\'Mgr\', \'auth_user\')\t\t\ndef emp_approve_leave():\n\tfor row in db(db.apply_leave.id==request.args(0)).select():\n\t\tsession.elmail=row.email\n\t\tsession.eempname=row.name\n\t\tsession.eefrom=row.from_leave\n\t\tsession.eeto=row.to_leave\n\t\tsession.estatus=request.vars.status\n\t\tsession.eltype=row.leave_type\n\t\tsession.etday=row.total_day\n\tif session.estatus == \'Approved\':\n\t\tif session.eltype == \'Casual Leave\':\n\t\t\tfor row in db(db.employee_leave.email==session.elmail).select():\n\t\t\t\ttotday=row.left_casual_leave - session.etday\n\t\t\tdb(db.apply_leave.id==request.args(0)).update(status=session.estatus, approved_by=\'Reporting Manager\')\n\t\t\tdb(db.employee_leave.email==session.elmail).update(taken_casual_leave=session.etday,left_casual_leave=totday)\n\t\t\tdb.commit()\n\t\t\tredirect(URL(c=\'default\', f=\'emp_leave_mail\'))\n\t\telif session.eltype == \'Medical Leave\':\n\t\t\tfor row in db(db.employee_leave.email==session.elmail).select():\n\t\t\t\ttotday=row.left_medical_leave - session.etday\n\t\t\tdb(db.apply_leave.id==request.args(0)).update(status=session.estatus, approved_by=\'Reporting Manager\')\n\t\t\tdb(db.employee_leave.email==session.elmail).update(taken_medical_leave=session.etday,left_medical_leave=totday)\n\t\t\tdb.commit()\n\t\t\tredirect(URL(c=\'default\', f=\'emp_leave_mail\'))\n\t\telif session.eltype == \'Vacation Leave\':\n\t\t\tfor row in db(db.employee_leave.email==session.elmail).select():\n\t\t\t\ttotday=row.left_vacation_leave - session.etday\n\t\t\tdb(db.apply_leave.id==request.args(0)).update(status=session.estatus, approved_by=\'Reporting Manager\')\n\t\t\tdb(db.employee_leave.email==session.elmail).update(taken_vacation_leave=session.etday,left_vacation_leave=totday)\n\t\t\tdb.commit()\n\t\t\tredirect(URL(c=\'default\', f=\'emp_leave_mail\'))\n\t\telse:\n\t\t\tpass\n\telse:\n\t\tdb(db.apply_leave.id==request.args(0)).update(status=session.estatus, approved_by=\'Reporting Manager\')\n\t\tdb.commit()\n\t\tredirect(URL(c=\'default\', f=\'emp_leave_mail\'))\n\treturn \'\'\n\t\n@auth.requires_permission(\'Mgr\', \'auth_user\')\t\ndef emp_leave_mail():\n    from gluon.tools import Mail\n    mail=Mail()\n    #specify server\n    mail=auth.settings.mailer\n    mail.settings.server=\'smtp.gmail.com:587\'\n    mail.settings.login=\'themisdemo1@gmail.com:123456asdfg\'\n    #specify address to send as\n    mail.settings.sender=\'themisdemo1@gmail.com\'\n    #send the message                             \n    mail.send(to=[session.elmail],\n            subject=\'Leave Status\',\n            message=\'<html>\'\n                        \'<body>\'\n                            \'<span style="font-family: Bodoni MT Ultra Bold;color:  #000000 ;font-size : 18pt;"><b>Themis </span></h1><span style="font-family: Bodoni MT Ultra Bold;color:#C7A317   ;font-size :18pt;"><b>Lexsol</b></span>\'\n                            \n                            \'<p>Dear &nbsp;\'+session.eempname+\'</p>\'\n                            \n                            \'<p>I just wanted to drop you a quick message to say Your leave request from \'+str(session.eefrom)+\' to \'+str(session.eeto)+\' is \'+session.estatus+\' If you need help at any time, please contact me by replying to this message. Similarly, if you ever have any questions then please do not hesitate to send me a message or email.</p>\'\n                            \'<center><p>_________________________________________________________</p><p style="color:red;font-size :5pt;">This email comes to you since you are subcribed for HRMS. TO unsubcribed please contact to Themis Lexsol</p></center>\'\n                      \n                        \'</body>\'\n                    \'</html>\'\n                    \n  )\n    redirect(URL(c=\'default\', f=\'emp_cnf_leave\'))\t\n    return \'\'\n    \n@auth.requires_permission(\'Mgr\', \'auth_user\')\t\ndef emp_cnf_leave():\n\tfor row2 in db(db.image.email == auth.user.email).select():\n\t\timages=row2.image\n\t\t\n\tllgin=[]\n\tfor log in db(db.employee_login_detail.employee_logout_date==\'Logged in\').select():\n\t\tllgin.append(log.employee_name)\n\tblgin=set(llgin)\n\talgin=list(blgin)\n\treturn dict(algin=algin,images=images,status=session.estatus,efrom=session.eefrom,eto=session.eeto,empname=session.eempname)\n\t\n@auth.requires_permission(\'Mgr\', \'auth_user\')\ndef emp_edit_leave_status():\n\tfor row2 in db(db.image.email == auth.user.email).select():\n\t\timages=row2.image\n\t\t\n\tllgin=[]\n\tfor log in db(db.employee_login_detail.employee_logout_date==\'Logged in\').select():\n\t\tllgin.append(log.employee_name)\n\tblgin=set(llgin)\n\talgin=list(blgin)\n\tltype=[\'Casual Leave\',\'Medical Leave\',\'Vacation Leave\']\n\tsession.eeleaveid=request.args(0)\n\tfor row in db(db.apply_leave.id==session.eeleaveid).select():\n\t\tecode=row.employee_code\n\t\tname=row.name\n\t\tfle=row.from_leave\n\t\ttle=row.to_leave\n\t\ttday=row.total_day\n\t\trle=row.reason_for_leave\n\t\teltype=row.leave_type\n\treturn dict(algin=algin,ltype=ltype,images=images,ecode=ecode,name=name,fle=fle,tle=tle,tday=tday,rle=rle,eltype=eltype)\n\n@auth.requires_permission(\'Mgr\', \'auth_user\')\t\ndef emp_submit_edit_leave_status():\n\tdb(db.apply_leave.id == session.eeleaveid).update(name=request.vars.name, leave_type=request.vars.ltype, from_leave=request.vars.fleave, to_leave=request.vars.tleave, total_day=request.vars.tday, reason_for_leave=request.vars.rleave)\n\tdb.commit()\n\tredirect(URL(c=\'default\',f=\'emp_leave_stat\'))\n\treturn \'\'\n\n\ndef user_timesheet():\n\tfor row2 in db(db.image.email == auth.user.email).select():\n\t\timages=row2.image\n\t\t\n\tllgin=[]\n\tfor log in db(db.employee_login_detail.employee_logout_date==\'Logged in\').select():\n\t\tllgin.append(log.employee_name)\n\tblgin=set(llgin)\n\talgin=list(blgin)\n\treturn dict(images=images,algin=algin)\t \n\t\n\nresponse._vars=response._caller(user_timesheet)\n'
p7
sS'snapshot'
p8
(dp9
S'exception'
p10
(dp11
S'__hash__'
p12
S"<method-wrapper '__hash__' of exceptions.AttributeError object>"
p13
sS'__setattr__'
p14
S"<method-wrapper '__setattr__' of exceptions.AttributeError object>"
p15
sS'__reduce_ex__'
p16
S'<built-in method __reduce_ex__ of exceptions.AttributeError object>'
p17
sS'__getslice__'
p18
S"<method-wrapper '__getslice__' of exceptions.AttributeError object>"
p19
sS'__getitem__'
p20
S"<method-wrapper '__getitem__' of exceptions.AttributeError object>"
p21
sS'__setstate__'
p22
S'<built-in method __setstate__ of exceptions.AttributeError object>'
p23
sS'args'
p24
S'("\'NoneType\' object has no attribute \'email\'",)'
p25
sS'__reduce__'
p26
S'<built-in method __reduce__ of exceptions.AttributeError object>'
p27
sS'__str__'
p28
S"<method-wrapper '__str__' of exceptions.AttributeError object>"
p29
sS'__format__'
p30
S'<built-in method __format__ of exceptions.AttributeError object>'
p31
sS'__getattribute__'
p32
S"<method-wrapper '__getattribute__' of exceptions.AttributeError object>"
p33
sS'__class__'
p34
S"<type 'exceptions.AttributeError'>"
p35
sS'__unicode__'
p36
S'<built-in method __unicode__ of exceptions.AttributeError object>'
p37
sS'__delattr__'
p38
S"<method-wrapper '__delattr__' of exceptions.AttributeError object>"
p39
sS'__subclasshook__'
p40
S'<built-in method __subclasshook__ of type object>'
p41
sS'__repr__'
p42
S"<method-wrapper '__repr__' of exceptions.AttributeError object>"
p43
sS'__dict__'
p44
S'{}'
p45
sS'__sizeof__'
p46
S'<built-in method __sizeof__ of exceptions.AttributeError object>'
p47
sS'__doc__'
p48
S"'Attribute not found.'"
p49
sS'__init__'
p50
S"<method-wrapper '__init__' of exceptions.AttributeError object>"
p51
sS'__new__'
p52
S'<built-in method __new__ of type object>'
p53
ssS'evalue'
p54
S"'NoneType' object has no attribute 'email'"
p55
sS'request'
p56
ccopy_reg
_reconstructor
p57
(cgluon.html
BEAUTIFY
p58
c__builtin__
object
p59
NtRp60
(dp61
S'attributes'
p62
(dp63
sS'components'
p64
(lp65
g57
(cgluon.html
TABLE
p66
g59
NtRp67
(dp68
g62
(dp69
S'level'
p70
I5
ssS'parent'
p71
Nsg64
(lp72
g57
(cgluon.html
TR
p73
g59
NtRp74
(dp75
g62
(dp76
sg71
g67
sg64
(lp77
g57
(cgluon.html
TD
p78
g59
NtRp79
(dp80
g62
(dp81
S'_style'
p82
S'font-weight:bold;vertical-align:top'
p83
ssg71
g74
sg64
(lp84
S'ajax'
p85
asbag57
(g78
g59
NtRp86
(dp87
g62
(dp88
S'_valign'
p89
S'top'
p90
ssg71
g74
sg64
(lp91
S':'
asbag57
(g78
g59
NtRp92
(dp93
g62
(dp94
sg71
g74
sg64
(lp95
g57
(g58
g59
NtRp96
(dp97
g62
(dp98
g70
I5
ssg71
g92
sg64
(lp99
S'False'
p100
asbasbasbag57
(g73
g59
NtRp101
(dp102
g62
(dp103
sg71
g67
sg64
(lp104
g57
(g78
g59
NtRp105
(dp106
g62
(dp107
g82
g83
ssg71
g101
sg64
(lp108
S'application'
p109
asbag57
(g78
g59
NtRp110
(dp111
g62
(dp112
g89
g90
ssg71
g101
sg64
(lp113
S':'
asbag57
(g78
g59
NtRp114
(dp115
g62
(dp116
sg71
g101
sg64
(lp117
g57
(g58
g59
NtRp118
(dp119
g62
(dp120
g70
I5
ssg71
g114
sg64
(lp121
S'themishrms'
p122
asbasbasbag57
(g73
g59
NtRp123
(dp124
g62
(dp125
sg71
g67
sg64
(lp126
g57
(g78
g59
NtRp127
(dp128
g62
(dp129
g82
g83
ssg71
g123
sg64
(lp130
g24
asbag57
(g78
g59
NtRp131
(dp132
g62
(dp133
g89
g90
ssg71
g123
sg64
(lp134
S':'
asbag57
(g78
g59
NtRp135
(dp136
g62
(dp137
sg71
g123
sg64
(lp138
g57
(g58
g59
NtRp139
(dp140
g62
(dp141
g70
I5
ssg71
g135
sg64
(lp142
g57
(g66
g59
NtRp143
(dp144
g62
(dp145
g70
I4
ssg71
Nsg64
(lp146
sbasbasbasbag57
(g73
g59
NtRp147
(dp148
g62
(dp149
sg71
g67
sg64
(lp150
g57
(g78
g59
NtRp151
(dp152
g62
(dp153
g82
g83
ssg71
g147
sg64
(lp154
S'body'
p155
asbag57
(g78
g59
NtRp156
(dp157
g62
(dp158
g89
g90
ssg71
g147
sg64
(lp159
S':'
asbag57
(g78
g59
NtRp160
(dp161
g62
(dp162
sg71
g147
sg64
(lp163
g57
(g58
g59
NtRp164
(dp165
g62
(dp166
g70
I5
ssg71
g160
sg64
(lp167
S'<cStringIO.StringO object at 0x2c12c38>'
p168
asbasbasbag57
(g73
g59
NtRp169
(dp170
g62
(dp171
sg71
g67
sg64
(lp172
g57
(g78
g59
NtRp173
(dp174
g62
(dp175
g82
g83
ssg71
g169
sg64
(lp176
S'client'
p177
asbag57
(g78
g59
NtRp178
(dp179
g62
(dp180
g89
g90
ssg71
g169
sg64
(lp181
S':'
asbag57
(g78
g59
NtRp182
(dp183
g62
(dp184
sg71
g169
sg64
(lp185
g57
(g58
g59
NtRp186
(dp187
g62
(dp188
g70
I5
ssg71
g182
sg64
(lp189
S'127.0.0.1'
p190
asbasbasbag57
(g73
g59
NtRp191
(dp192
g62
(dp193
sg71
g67
sg64
(lp194
g57
(g78
g59
NtRp195
(dp196
g62
(dp197
g82
g83
ssg71
g191
sg64
(lp198
S'controller'
p199
asbag57
(g78
g59
NtRp200
(dp201
g62
(dp202
g89
g90
ssg71
g191
sg64
(lp203
S':'
asbag57
(g78
g59
NtRp204
(dp205
g62
(dp206
sg71
g191
sg64
(lp207
g57
(g58
g59
NtRp208
(dp209
g62
(dp210
g70
I5
ssg71
g204
sg64
(lp211
S'default'
p212
asbasbasbag57
(g73
g59
NtRp213
(dp214
g62
(dp215
sg71
g67
sg64
(lp216
g57
(g78
g59
NtRp217
(dp218
g62
(dp219
g82
g83
ssg71
g213
sg64
(lp220
S'cookies'
p221
asbag57
(g78
g59
NtRp222
(dp223
g62
(dp224
g89
g90
ssg71
g213
sg64
(lp225
S':'
asbag57
(g78
g59
NtRp226
(dp227
g62
(dp228
sg71
g213
sg64
(lp229
g57
(g58
g59
NtRp230
(dp231
g62
(dp232
g70
I5
ssg71
g226
sg64
(lp233
g57
(g66
g59
NtRp234
(dp235
g62
(dp236
g70
I4
ssg71
Nsg64
(lp237
g57
(g73
g59
NtRp238
(dp239
g62
(dp240
sg71
g234
sg64
(lp241
g57
(g78
g59
NtRp242
(dp243
g62
(dp244
g82
g83
ssg71
g238
sg64
(lp245
S'session_id_themishrms'
p246
asbag57
(g78
g59
NtRp247
(dp248
g62
(dp249
g89
g90
ssg71
g238
sg64
(lp250
S':'
asbag57
(g78
g59
NtRp251
(dp252
g62
(dp253
sg71
g238
sg64
(lp254
g57
(g58
g59
NtRp255
(dp256
g62
(dp257
g70
I4
ssg71
g251
sg64
(lp258
g57
(g66
g59
NtRp259
(dp260
g62
(dp261
g70
I3
ssg71
Nsg64
(lp262
g57
(g73
g59
NtRp263
(dp264
g62
(dp265
sg71
g259
sg64
(lp266
g57
(g78
g59
NtRp267
(dp268
g62
(dp269
g82
g83
ssg71
g263
sg64
(lp270
S'comment'
p271
asbag57
(g78
g59
NtRp272
(dp273
g62
(dp274
g89
g90
ssg71
g263
sg64
(lp275
S':'
asbag57
(g78
g59
NtRp276
(dp277
g62
(dp278
sg71
g263
sg64
(lp279
g57
(g58
g59
NtRp280
(dp281
g62
(dp282
g70
I3
ssg71
g276
sg64
(lp283
S''
asbasbasbag57
(g73
g59
NtRp284
(dp285
g62
(dp286
sg71
g259
sg64
(lp287
g57
(g78
g59
NtRp288
(dp289
g62
(dp290
g82
g83
ssg71
g284
sg64
(lp291
S'domain'
p292
asbag57
(g78
g59
NtRp293
(dp294
g62
(dp295
g89
g90
ssg71
g284
sg64
(lp296
S':'
asbag57
(g78
g59
NtRp297
(dp298
g62
(dp299
sg71
g284
sg64
(lp300
g57
(g58
g59
NtRp301
(dp302
g62
(dp303
g70
I3
ssg71
g297
sg64
(lp304
S''
asbasbasbag57
(g73
g59
NtRp305
(dp306
g62
(dp307
sg71
g259
sg64
(lp308
g57
(g78
g59
NtRp309
(dp310
g62
(dp311
g82
g83
ssg71
g305
sg64
(lp312
S'expires'
p313
asbag57
(g78
g59
NtRp314
(dp315
g62
(dp316
g89
g90
ssg71
g305
sg64
(lp317
S':'
asbag57
(g78
g59
NtRp318
(dp319
g62
(dp320
sg71
g305
sg64
(lp321
g57
(g58
g59
NtRp322
(dp323
g62
(dp324
g70
I3
ssg71
g318
sg64
(lp325
S''
asbasbasbag57
(g73
g59
NtRp326
(dp327
g62
(dp328
sg71
g259
sg64
(lp329
g57
(g78
g59
NtRp330
(dp331
g62
(dp332
g82
g83
ssg71
g326
sg64
(lp333
S'httponly'
p334
asbag57
(g78
g59
NtRp335
(dp336
g62
(dp337
g89
g90
ssg71
g326
sg64
(lp338
S':'
asbag57
(g78
g59
NtRp339
(dp340
g62
(dp341
sg71
g326
sg64
(lp342
g57
(g58
g59
NtRp343
(dp344
g62
(dp345
g70
I3
ssg71
g339
sg64
(lp346
S''
asbasbasbag57
(g73
g59
NtRp347
(dp348
g62
(dp349
sg71
g259
sg64
(lp350
g57
(g78
g59
NtRp351
(dp352
g62
(dp353
g82
g83
ssg71
g347
sg64
(lp354
S'max-age'
p355
asbag57
(g78
g59
NtRp356
(dp357
g62
(dp358
g89
g90
ssg71
g347
sg64
(lp359
S':'
asbag57
(g78
g59
NtRp360
(dp361
g62
(dp362
sg71
g347
sg64
(lp363
g57
(g58
g59
NtRp364
(dp365
g62
(dp366
g70
I3
ssg71
g360
sg64
(lp367
S''
asbasbasbag57
(g73
g59
NtRp368
(dp369
g62
(dp370
sg71
g259
sg64
(lp371
g57
(g78
g59
NtRp372
(dp373
g62
(dp374
g82
g83
ssg71
g368
sg64
(lp375
S'path'
p376
asbag57
(g78
g59
NtRp377
(dp378
g62
(dp379
g89
g90
ssg71
g368
sg64
(lp380
S':'
asbag57
(g78
g59
NtRp381
(dp382
g62
(dp383
sg71
g368
sg64
(lp384
g57
(g58
g59
NtRp385
(dp386
g62
(dp387
g70
I3
ssg71
g381
sg64
(lp388
S''
asbasbasbag57
(g73
g59
NtRp389
(dp390
g62
(dp391
sg71
g259
sg64
(lp392
g57
(g78
g59
NtRp393
(dp394
g62
(dp395
g82
g83
ssg71
g389
sg64
(lp396
S'secure'
p397
asbag57
(g78
g59
NtRp398
(dp399
g62
(dp400
g89
g90
ssg71
g389
sg64
(lp401
S':'
asbag57
(g78
g59
NtRp402
(dp403
g62
(dp404
sg71
g389
sg64
(lp405
g57
(g58
g59
NtRp406
(dp407
g62
(dp408
g70
I3
ssg71
g402
sg64
(lp409
S''
asbasbasbag57
(g73
g59
NtRp410
(dp411
g62
(dp412
sg71
g259
sg64
(lp413
g57
(g78
g59
NtRp414
(dp415
g62
(dp416
g82
g83
ssg71
g410
sg64
(lp417
S'version'
p418
asbag57
(g78
g59
NtRp419
(dp420
g62
(dp421
g89
g90
ssg71
g410
sg64
(lp422
S':'
asbag57
(g78
g59
NtRp423
(dp424
g62
(dp425
sg71
g410
sg64
(lp426
g57
(g58
g59
NtRp427
(dp428
g62
(dp429
g70
I3
ssg71
g423
sg64
(lp430
S''
asbasbasbasbasbasbasbag57
(g73
g59
NtRp431
(dp432
g62
(dp433
sg71
g234
sg64
(lp434
g57
(g78
g59
NtRp435
(dp436
g62
(dp437
g82
g83
ssg71
g431
sg64
(lp438
S'session_id_welcome'
p439
asbag57
(g78
g59
NtRp440
(dp441
g62
(dp442
g89
g90
ssg71
g431
sg64
(lp443
S':'
asbag57
(g78
g59
NtRp444
(dp445
g62
(dp446
sg71
g431
sg64
(lp447
g57
(g58
g59
NtRp448
(dp449
g62
(dp450
g70
I4
ssg71
g444
sg64
(lp451
g57
(g66
g59
NtRp452
(dp453
g62
(dp454
g70
I3
ssg71
Nsg64
(lp455
g57
(g73
g59
NtRp456
(dp457
g62
(dp458
sg71
g452
sg64
(lp459
g57
(g78
g59
NtRp460
(dp461
g62
(dp462
g82
g83
ssg71
g456
sg64
(lp463
g271
asbag57
(g78
g59
NtRp464
(dp465
g62
(dp466
g89
g90
ssg71
g456
sg64
(lp467
S':'
asbag57
(g78
g59
NtRp468
(dp469
g62
(dp470
sg71
g456
sg64
(lp471
g57
(g58
g59
NtRp472
(dp473
g62
(dp474
g70
I3
ssg71
g468
sg64
(lp475
S''
asbasbasbag57
(g73
g59
NtRp476
(dp477
g62
(dp478
sg71
g452
sg64
(lp479
g57
(g78
g59
NtRp480
(dp481
g62
(dp482
g82
g83
ssg71
g476
sg64
(lp483
g292
asbag57
(g78
g59
NtRp484
(dp485
g62
(dp486
g89
g90
ssg71
g476
sg64
(lp487
S':'
asbag57
(g78
g59
NtRp488
(dp489
g62
(dp490
sg71
g476
sg64
(lp491
g57
(g58
g59
NtRp492
(dp493
g62
(dp494
g70
I3
ssg71
g488
sg64
(lp495
S''
asbasbasbag57
(g73
g59
NtRp496
(dp497
g62
(dp498
sg71
g452
sg64
(lp499
g57
(g78
g59
NtRp500
(dp501
g62
(dp502
g82
g83
ssg71
g496
sg64
(lp503
g313
asbag57
(g78
g59
NtRp504
(dp505
g62
(dp506
g89
g90
ssg71
g496
sg64
(lp507
S':'
asbag57
(g78
g59
NtRp508
(dp509
g62
(dp510
sg71
g496
sg64
(lp511
g57
(g58
g59
NtRp512
(dp513
g62
(dp514
g70
I3
ssg71
g508
sg64
(lp515
S''
asbasbasbag57
(g73
g59
NtRp516
(dp517
g62
(dp518
sg71
g452
sg64
(lp519
g57
(g78
g59
NtRp520
(dp521
g62
(dp522
g82
g83
ssg71
g516
sg64
(lp523
g334
asbag57
(g78
g59
NtRp524
(dp525
g62
(dp526
g89
g90
ssg71
g516
sg64
(lp527
S':'
asbag57
(g78
g59
NtRp528
(dp529
g62
(dp530
sg71
g516
sg64
(lp531
g57
(g58
g59
NtRp532
(dp533
g62
(dp534
g70
I3
ssg71
g528
sg64
(lp535
S''
asbasbasbag57
(g73
g59
NtRp536
(dp537
g62
(dp538
sg71
g452
sg64
(lp539
g57
(g78
g59
NtRp540
(dp541
g62
(dp542
g82
g83
ssg71
g536
sg64
(lp543
g355
asbag57
(g78
g59
NtRp544
(dp545
g62
(dp546
g89
g90
ssg71
g536
sg64
(lp547
S':'
asbag57
(g78
g59
NtRp548
(dp549
g62
(dp550
sg71
g536
sg64
(lp551
g57
(g58
g59
NtRp552
(dp553
g62
(dp554
g70
I3
ssg71
g548
sg64
(lp555
S''
asbasbasbag57
(g73
g59
NtRp556
(dp557
g62
(dp558
sg71
g452
sg64
(lp559
g57
(g78
g59
NtRp560
(dp561
g62
(dp562
g82
g83
ssg71
g556
sg64
(lp563
g376
asbag57
(g78
g59
NtRp564
(dp565
g62
(dp566
g89
g90
ssg71
g556
sg64
(lp567
S':'
asbag57
(g78
g59
NtRp568
(dp569
g62
(dp570
sg71
g556
sg64
(lp571
g57
(g58
g59
NtRp572
(dp573
g62
(dp574
g70
I3
ssg71
g568
sg64
(lp575
S''
asbasbasbag57
(g73
g59
NtRp576
(dp577
g62
(dp578
sg71
g452
sg64
(lp579
g57
(g78
g59
NtRp580
(dp581
g62
(dp582
g82
g83
ssg71
g576
sg64
(lp583
g397
asbag57
(g78
g59
NtRp584
(dp585
g62
(dp586
g89
g90
ssg71
g576
sg64
(lp587
S':'
asbag57
(g78
g59
NtRp588
(dp589
g62
(dp590
sg71
g576
sg64
(lp591
g57
(g58
g59
NtRp592
(dp593
g62
(dp594
g70
I3
ssg71
g588
sg64
(lp595
S''
asbasbasbag57
(g73
g59
NtRp596
(dp597
g62
(dp598
sg71
g452
sg64
(lp599
g57
(g78
g59
NtRp600
(dp601
g62
(dp602
g82
g83
ssg71
g596
sg64
(lp603
g418
asbag57
(g78
g59
NtRp604
(dp605
g62
(dp606
g89
g90
ssg71
g596
sg64
(lp607
S':'
asbag57
(g78
g59
NtRp608
(dp609
g62
(dp610
sg71
g596
sg64
(lp611
g57
(g58
g59
NtRp612
(dp613
g62
(dp614
g70
I3
ssg71
g608
sg64
(lp615
S''
asbasbasbasbasbasbasbasbasbasbasbag57
(g73
g59
NtRp616
(dp617
g62
(dp618
sg71
g67
sg64
(lp619
g57
(g78
g59
NtRp620
(dp621
g62
(dp622
g82
g83
ssg71
g616
sg64
(lp623
S'env'
p624
asbag57
(g78
g59
NtRp625
(dp626
g62
(dp627
g89
g90
ssg71
g616
sg64
(lp628
S':'
asbag57
(g78
g59
NtRp629
(dp630
g62
(dp631
sg71
g616
sg64
(lp632
g57
(g58
g59
NtRp633
(dp634
g62
(dp635
g70
I5
ssg71
g629
sg64
(lp636
g57
(g66
g59
NtRp637
(dp638
g62
(dp639
g70
I4
ssg71
Nsg64
(lp640
g57
(g73
g59
NtRp641
(dp642
g62
(dp643
sg71
g637
sg64
(lp644
g57
(g78
g59
NtRp645
(dp646
g62
(dp647
g82
g83
ssg71
g641
sg64
(lp648
S'app_folders'
p649
asbag57
(g78
g59
NtRp650
(dp651
g62
(dp652
g89
g90
ssg71
g641
sg64
(lp653
S':'
asbag57
(g78
g59
NtRp654
(dp655
g62
(dp656
sg71
g641
sg64
(lp657
g57
(g58
g59
NtRp658
(dp659
g62
(dp660
g70
I4
ssg71
g654
sg64
(lp661
S"set(['/home/rohitraj/Desktop/web2py/applications/welcome/', '/home/rohitraj/Desktop/web2py/applications/themishrms/'])"
p662
asbasbasbag57
(g73
g59
NtRp663
(dp664
g62
(dp665
sg71
g637
sg64
(lp666
g57
(g78
g59
NtRp667
(dp668
g62
(dp669
g82
g83
ssg71
g663
sg64
(lp670
S'applications_parent'
p671
asbag57
(g78
g59
NtRp672
(dp673
g62
(dp674
g89
g90
ssg71
g663
sg64
(lp675
S':'
asbag57
(g78
g59
NtRp676
(dp677
g62
(dp678
sg71
g663
sg64
(lp679
g57
(g58
g59
NtRp680
(dp681
g62
(dp682
g70
I4
ssg71
g676
sg64
(lp683
S'/home/rohitraj/Desktop/web2py'
p684
asbasbasbag57
(g73
g59
NtRp685
(dp686
g62
(dp687
sg71
g637
sg64
(lp688
g57
(g78
g59
NtRp689
(dp690
g62
(dp691
g82
g83
ssg71
g685
sg64
(lp692
S'cmd_args'
p693
asbag57
(g78
g59
NtRp694
(dp695
g62
(dp696
g89
g90
ssg71
g685
sg64
(lp697
S':'
asbag57
(g78
g59
NtRp698
(dp699
g62
(dp700
sg71
g685
sg64
(lp701
g57
(g58
g59
NtRp702
(dp703
g62
(dp704
g70
I4
ssg71
g698
sg64
(lp705
g57
(g66
g59
NtRp706
(dp707
g62
(dp708
g70
I3
ssg71
Nsg64
(lp709
sbasbasbasbag57
(g73
g59
NtRp710
(dp711
g62
(dp712
sg71
g637
sg64
(lp713
g57
(g78
g59
NtRp714
(dp715
g62
(dp716
g82
g83
ssg71
g710
sg64
(lp717
S'cmd_options'
p718
asbag57
(g78
g59
NtRp719
(dp720
g62
(dp721
g89
g90
ssg71
g710
sg64
(lp722
S':'
asbag57
(g78
g59
NtRp723
(dp724
g62
(dp725
sg71
g710
sg64
(lp726
g57
(g58
g59
NtRp727
(dp728
g62
(dp729
g70
I4
ssg71
g723
sg64
(lp730
S"<Values at 0x21cacb0: {'verbose': False, 'ip': '127.0.0.1', 'shutdown_timeout': 5, 'taskbar': False, 'nocron': False, 'pid_filename': 'httpserver.pid', 'maxthreads': None, 'softcron': False, 'server_name': 'RohitRaj', 'bpython': False, 'nogui': False, 'port': 8000, 'extcron': False, 'debuglevel': 30, 'test': None, 'folder': '/home/rohitraj/Desktop/web2py', 'config': '', 'import_models': False, 'winservice': '', 'shell': None, 'run': '', 'log_filename': 'httpserver.log', 'args': [''], 'socket_timeout': 5, 'ssl_ca_certificate': None, 'scheduler': None, 'profiler_filename': None, 'ssl_private_key': '', 'password': 'admin', 'request_queue_size': 5, 'ssl_certificate': '', 'cronjob': False, 'numthreads': None, 'quiet': False, 'interfaces': None, 'minthreads': None, 'timeout': 10, 'plain': False, 'nobanner': False}>"
p731
asbasbasbag57
(g73
g59
NtRp732
(dp733
g62
(dp734
sg71
g637
sg64
(lp735
g57
(g78
g59
NtRp736
(dp737
g62
(dp738
g82
g83
ssg71
g732
sg64
(lp739
S'db_sessions'
p740
asbag57
(g78
g59
NtRp741
(dp742
g62
(dp743
g89
g90
ssg71
g732
sg64
(lp744
S':'
asbag57
(g78
g59
NtRp745
(dp746
g62
(dp747
sg71
g732
sg64
(lp748
g57
(g58
g59
NtRp749
(dp750
g62
(dp751
g70
I4
ssg71
g745
sg64
(lp752
S'set([])'
p753
asbasbasbag57
(g73
g59
NtRp754
(dp755
g62
(dp756
sg71
g637
sg64
(lp757
g57
(g78
g59
NtRp758
(dp759
g62
(dp760
g82
g83
ssg71
g754
sg64
(lp761
S'debugging'
p762
asbag57
(g78
g59
NtRp763
(dp764
g62
(dp765
g89
g90
ssg71
g754
sg64
(lp766
S':'
asbag57
(g78
g59
NtRp767
(dp768
g62
(dp769
sg71
g754
sg64
(lp770
g57
(g58
g59
NtRp771
(dp772
g62
(dp773
g70
I4
ssg71
g767
sg64
(lp774
g100
asbasbasbag57
(g73
g59
NtRp775
(dp776
g62
(dp777
sg71
g637
sg64
(lp778
g57
(g78
g59
NtRp779
(dp780
g62
(dp781
g82
g83
ssg71
g775
sg64
(lp782
S'gluon_parent'
p783
asbag57
(g78
g59
NtRp784
(dp785
g62
(dp786
g89
g90
ssg71
g775
sg64
(lp787
S':'
asbag57
(g78
g59
NtRp788
(dp789
g62
(dp790
sg71
g775
sg64
(lp791
g57
(g58
g59
NtRp792
(dp793
g62
(dp794
g70
I4
ssg71
g788
sg64
(lp795
S'/home/rohitraj/Desktop/web2py'
p796
asbasbasbag57
(g73
g59
NtRp797
(dp798
g62
(dp799
sg71
g637
sg64
(lp800
g57
(g78
g59
NtRp801
(dp802
g62
(dp803
g82
g83
ssg71
g797
sg64
(lp804
S'http_accept'
p805
asbag57
(g78
g59
NtRp806
(dp807
g62
(dp808
g89
g90
ssg71
g797
sg64
(lp809
S':'
asbag57
(g78
g59
NtRp810
(dp811
g62
(dp812
sg71
g797
sg64
(lp813
g57
(g58
g59
NtRp814
(dp815
g62
(dp816
g70
I4
ssg71
g810
sg64
(lp817
S'text/html,application/xhtml+xml,application/xml;q=0.9,*/*;q=0.8'
p818
asbasbasbag57
(g73
g59
NtRp819
(dp820
g62
(dp821
sg71
g637
sg64
(lp822
g57
(g78
g59
NtRp823
(dp824
g62
(dp825
g82
g83
ssg71
g819
sg64
(lp826
S'http_accept_charset'
p827
asbag57
(g78
g59
NtRp828
(dp829
g62
(dp830
g89
g90
ssg71
g819
sg64
(lp831
S':'
asbag57
(g78
g59
NtRp832
(dp833
g62
(dp834
sg71
g819
sg64
(lp835
g57
(g58
g59
NtRp836
(dp837
g62
(dp838
g70
I4
ssg71
g832
sg64
(lp839
S'ISO-8859-1,utf-8;q=0.7,*;q=0.3'
p840
asbasbasbag57
(g73
g59
NtRp841
(dp842
g62
(dp843
sg71
g637
sg64
(lp844
g57
(g78
g59
NtRp845
(dp846
g62
(dp847
g82
g83
ssg71
g841
sg64
(lp848
S'http_accept_encoding'
p849
asbag57
(g78
g59
NtRp850
(dp851
g62
(dp852
g89
g90
ssg71
g841
sg64
(lp853
S':'
asbag57
(g78
g59
NtRp854
(dp855
g62
(dp856
sg71
g841
sg64
(lp857
g57
(g58
g59
NtRp858
(dp859
g62
(dp860
g70
I4
ssg71
g854
sg64
(lp861
S'gzip,deflate,sdch'
p862
asbasbasbag57
(g73
g59
NtRp863
(dp864
g62
(dp865
sg71
g637
sg64
(lp866
g57
(g78
g59
NtRp867
(dp868
g62
(dp869
g82
g83
ssg71
g863
sg64
(lp870
S'http_accept_language'
p871
asbag57
(g78
g59
NtRp872
(dp873
g62
(dp874
g89
g90
ssg71
g863
sg64
(lp875
S':'
asbag57
(g78
g59
NtRp876
(dp877
g62
(dp878
sg71
g863
sg64
(lp879
g57
(g58
g59
NtRp880
(dp881
g62
(dp882
g70
I4
ssg71
g876
sg64
(lp883
S'en-US,en;q=0.8'
p884
asbasbasbag57
(g73
g59
NtRp885
(dp886
g62
(dp887
sg71
g637
sg64
(lp888
g57
(g78
g59
NtRp889
(dp890
g62
(dp891
g82
g83
ssg71
g885
sg64
(lp892
S'http_cache_control'
p893
asbag57
(g78
g59
NtRp894
(dp895
g62
(dp896
g89
g90
ssg71
g885
sg64
(lp897
S':'
asbag57
(g78
g59
NtRp898
(dp899
g62
(dp900
sg71
g885
sg64
(lp901
g57
(g58
g59
NtRp902
(dp903
g62
(dp904
g70
I4
ssg71
g898
sg64
(lp905
S'max-age=0'
p906
asbasbasbag57
(g73
g59
NtRp907
(dp908
g62
(dp909
sg71
g637
sg64
(lp910
g57
(g78
g59
NtRp911
(dp912
g62
(dp913
g82
g83
ssg71
g907
sg64
(lp914
S'http_connection'
p915
asbag57
(g78
g59
NtRp916
(dp917
g62
(dp918
g89
g90
ssg71
g907
sg64
(lp919
S':'
asbag57
(g78
g59
NtRp920
(dp921
g62
(dp922
sg71
g907
sg64
(lp923
g57
(g58
g59
NtRp924
(dp925
g62
(dp926
g70
I4
ssg71
g920
sg64
(lp927
S'keep-alive'
p928
asbasbasbag57
(g73
g59
NtRp929
(dp930
g62
(dp931
sg71
g637
sg64
(lp932
g57
(g78
g59
NtRp933
(dp934
g62
(dp935
g82
g83
ssg71
g929
sg64
(lp936
S'http_cookie'
p937
asbag57
(g78
g59
NtRp938
(dp939
g62
(dp940
g89
g90
ssg71
g929
sg64
(lp941
S':'
asbag57
(g78
g59
NtRp942
(dp943
g62
(dp944
sg71
g929
sg64
(lp945
g57
(g58
g59
NtRp946
(dp947
g62
(dp948
g70
I4
ssg71
g942
sg64
(lp949
S'session_id_welcome=127.0.0.1-70bea01e-00fc-48e0-aae6-cb9924c63a4e; session_id_themishrms=127.0.0.1-20fd6c52-a5a5-4c5e-a380-2f2008348425'
p950
asbasbasbag57
(g73
g59
NtRp951
(dp952
g62
(dp953
sg71
g637
sg64
(lp954
g57
(g78
g59
NtRp955
(dp956
g62
(dp957
g82
g83
ssg71
g951
sg64
(lp958
S'http_host'
p959
asbag57
(g78
g59
NtRp960
(dp961
g62
(dp962
g89
g90
ssg71
g951
sg64
(lp963
S':'
asbag57
(g78
g59
NtRp964
(dp965
g62
(dp966
sg71
g951
sg64
(lp967
g57
(g58
g59
NtRp968
(dp969
g62
(dp970
g70
I4
ssg71
g964
sg64
(lp971
S'127.0.0.1:8000'
p972
asbasbasbag57
(g73
g59
NtRp973
(dp974
g62
(dp975
sg71
g637
sg64
(lp976
g57
(g78
g59
NtRp977
(dp978
g62
(dp979
g82
g83
ssg71
g973
sg64
(lp980
S'http_referer'
p981
asbag57
(g78
g59
NtRp982
(dp983
g62
(dp984
g89
g90
ssg71
g973
sg64
(lp985
S':'
asbag57
(g78
g59
NtRp986
(dp987
g62
(dp988
sg71
g973
sg64
(lp989
g57
(g58
g59
NtRp990
(dp991
g62
(dp992
g70
I4
ssg71
g986
sg64
(lp993
S'http://127.0.0.1:8000/themishrms/default/emp_myprofile'
p994
asbasbasbag57
(g73
g59
NtRp995
(dp996
g62
(dp997
sg71
g637
sg64
(lp998
g57
(g78
g59
NtRp999
(dp1000
g62
(dp1001
g82
g83
ssg71
g995
sg64
(lp1002
S'http_user_agent'
p1003
asbag57
(g78
g59
NtRp1004
(dp1005
g62
(dp1006
g89
g90
ssg71
g995
sg64
(lp1007
S':'
asbag57
(g78
g59
NtRp1008
(dp1009
g62
(dp1010
sg71
g995
sg64
(lp1011
g57
(g58
g59
NtRp1012
(dp1013
g62
(dp1014
g70
I4
ssg71
g1008
sg64
(lp1015
S'Mozilla/5.0 (X11; Linux x86_64) AppleWebKit/535.19 (KHTML, like Gecko) Ubuntu/10.04 Chromium/18.0.1025.151 Chrome/18.0.1025.151 Safari/535.19'
p1016
asbasbasbag57
(g73
g59
NtRp1017
(dp1018
g62
(dp1019
sg71
g637
sg64
(lp1020
g57
(g78
g59
NtRp1021
(dp1022
g62
(dp1023
g82
g83
ssg71
g1017
sg64
(lp1024
S'is_jython'
p1025
asbag57
(g78
g59
NtRp1026
(dp1027
g62
(dp1028
g89
g90
ssg71
g1017
sg64
(lp1029
S':'
asbag57
(g78
g59
NtRp1030
(dp1031
g62
(dp1032
sg71
g1017
sg64
(lp1033
g57
(g58
g59
NtRp1034
(dp1035
g62
(dp1036
g70
I4
ssg71
g1030
sg64
(lp1037
g100
asbasbasbag57
(g73
g59
NtRp1038
(dp1039
g62
(dp1040
sg71
g637
sg64
(lp1041
g57
(g78
g59
NtRp1042
(dp1043
g62
(dp1044
g82
g83
ssg71
g1038
sg64
(lp1045
S'is_pypy'
p1046
asbag57
(g78
g59
NtRp1047
(dp1048
g62
(dp1049
g89
g90
ssg71
g1038
sg64
(lp1050
S':'
asbag57
(g78
g59
NtRp1051
(dp1052
g62
(dp1053
sg71
g1038
sg64
(lp1054
g57
(g58
g59
NtRp1055
(dp1056
g62
(dp1057
g70
I4
ssg71
g1051
sg64
(lp1058
g100
asbasbasbag57
(g73
g59
NtRp1059
(dp1060
g62
(dp1061
sg71
g637
sg64
(lp1062
g57
(g78
g59
NtRp1063
(dp1064
g62
(dp1065
g82
g83
ssg71
g1059
sg64
(lp1066
S'path_info'
p1067
asbag57
(g78
g59
NtRp1068
(dp1069
g62
(dp1070
g89
g90
ssg71
g1059
sg64
(lp1071
S':'
asbag57
(g78
g59
NtRp1072
(dp1073
g62
(dp1074
sg71
g1059
sg64
(lp1075
g57
(g58
g59
NtRp1076
(dp1077
g62
(dp1078
g70
I4
ssg71
g1072
sg64
(lp1079
S'/themishrms/default/user_timesheet'
p1080
asbasbasbag57
(g73
g59
NtRp1081
(dp1082
g62
(dp1083
sg71
g637
sg64
(lp1084
g57
(g78
g59
NtRp1085
(dp1086
g62
(dp1087
g82
g83
ssg71
g1081
sg64
(lp1088
S'query_string'
p1089
asbag57
(g78
g59
NtRp1090
(dp1091
g62
(dp1092
g89
g90
ssg71
g1081
sg64
(lp1093
S':'
asbag57
(g78
g59
NtRp1094
(dp1095
g62
(dp1096
sg71
g1081
sg64
(lp1097
g57
(g58
g59
NtRp1098
(dp1099
g62
(dp1100
g70
I4
ssg71
g1094
sg64
(lp1101
S''
asbasbasbag57
(g73
g59
NtRp1102
(dp1103
g62
(dp1104
sg71
g637
sg64
(lp1105
g57
(g78
g59
NtRp1106
(dp1107
g62
(dp1108
g82
g83
ssg71
g1102
sg64
(lp1109
S'remote_addr'
p1110
asbag57
(g78
g59
NtRp1111
(dp1112
g62
(dp1113
g89
g90
ssg71
g1102
sg64
(lp1114
S':'
asbag57
(g78
g59
NtRp1115
(dp1116
g62
(dp1117
sg71
g1102
sg64
(lp1118
g57
(g58
g59
NtRp1119
(dp1120
g62
(dp1121
g70
I4
ssg71
g1115
sg64
(lp1122
g190
asbasbasbag57
(g73
g59
NtRp1123
(dp1124
g62
(dp1125
sg71
g637
sg64
(lp1126
g57
(g78
g59
NtRp1127
(dp1128
g62
(dp1129
g82
g83
ssg71
g1123
sg64
(lp1130
S'remote_port'
p1131
asbag57
(g78
g59
NtRp1132
(dp1133
g62
(dp1134
g89
g90
ssg71
g1123
sg64
(lp1135
S':'
asbag57
(g78
g59
NtRp1136
(dp1137
g62
(dp1138
sg71
g1123
sg64
(lp1139
g57
(g58
g59
NtRp1140
(dp1141
g62
(dp1142
g70
I4
ssg71
g1136
sg64
(lp1143
S'38454'
p1144
asbasbasbag57
(g73
g59
NtRp1145
(dp1146
g62
(dp1147
sg71
g637
sg64
(lp1148
g57
(g78
g59
NtRp1149
(dp1150
g62
(dp1151
g82
g83
ssg71
g1145
sg64
(lp1152
S'request_method'
p1153
asbag57
(g78
g59
NtRp1154
(dp1155
g62
(dp1156
g89
g90
ssg71
g1145
sg64
(lp1157
S':'
asbag57
(g78
g59
NtRp1158
(dp1159
g62
(dp1160
sg71
g1145
sg64
(lp1161
g57
(g58
g59
NtRp1162
(dp1163
g62
(dp1164
g70
I4
ssg71
g1158
sg64
(lp1165
S'GET'
p1166
asbasbasbag57
(g73
g59
NtRp1167
(dp1168
g62
(dp1169
sg71
g637
sg64
(lp1170
g57
(g78
g59
NtRp1171
(dp1172
g62
(dp1173
g82
g83
ssg71
g1167
sg64
(lp1174
S'script_name'
p1175
asbag57
(g78
g59
NtRp1176
(dp1177
g62
(dp1178
g89
g90
ssg71
g1167
sg64
(lp1179
S':'
asbag57
(g78
g59
NtRp1180
(dp1181
g62
(dp1182
sg71
g1167
sg64
(lp1183
g57
(g58
g59
NtRp1184
(dp1185
g62
(dp1186
g70
I4
ssg71
g1180
sg64
(lp1187
S''
asbasbasbag57
(g73
g59
NtRp1188
(dp1189
g62
(dp1190
sg71
g637
sg64
(lp1191
g57
(g78
g59
NtRp1192
(dp1193
g62
(dp1194
g82
g83
ssg71
g1188
sg64
(lp1195
S'server_name'
p1196
asbag57
(g78
g59
NtRp1197
(dp1198
g62
(dp1199
g89
g90
ssg71
g1188
sg64
(lp1200
S':'
asbag57
(g78
g59
NtRp1201
(dp1202
g62
(dp1203
sg71
g1188
sg64
(lp1204
g57
(g58
g59
NtRp1205
(dp1206
g62
(dp1207
g70
I4
ssg71
g1201
sg64
(lp1208
S'RohitRaj'
p1209
asbasbasbag57
(g73
g59
NtRp1210
(dp1211
g62
(dp1212
sg71
g637
sg64
(lp1213
g57
(g78
g59
NtRp1214
(dp1215
g62
(dp1216
g82
g83
ssg71
g1210
sg64
(lp1217
S'server_port'
p1218
asbag57
(g78
g59
NtRp1219
(dp1220
g62
(dp1221
g89
g90
ssg71
g1210
sg64
(lp1222
S':'
asbag57
(g78
g59
NtRp1223
(dp1224
g62
(dp1225
sg71
g1210
sg64
(lp1226
g57
(g58
g59
NtRp1227
(dp1228
g62
(dp1229
g70
I4
ssg71
g1223
sg64
(lp1230
S'8000'
p1231
asbasbasbag57
(g73
g59
NtRp1232
(dp1233
g62
(dp1234
sg71
g637
sg64
(lp1235
g57
(g78
g59
NtRp1236
(dp1237
g62
(dp1238
g82
g83
ssg71
g1232
sg64
(lp1239
S'server_protocol'
p1240
asbag57
(g78
g59
NtRp1241
(dp1242
g62
(dp1243
g89
g90
ssg71
g1232
sg64
(lp1244
S':'
asbag57
(g78
g59
NtRp1245
(dp1246
g62
(dp1247
sg71
g1232
sg64
(lp1248
g57
(g58
g59
NtRp1249
(dp1250
g62
(dp1251
g70
I4
ssg71
g1245
sg64
(lp1252
S'HTTP/1.1'
p1253
asbasbasbag57
(g73
g59
NtRp1254
(dp1255
g62
(dp1256
sg71
g637
sg64
(lp1257
g57
(g78
g59
NtRp1258
(dp1259
g62
(dp1260
g82
g83
ssg71
g1254
sg64
(lp1261
S'server_software'
p1262
asbag57
(g78
g59
NtRp1263
(dp1264
g62
(dp1265
g89
g90
ssg71
g1254
sg64
(lp1266
S':'
asbag57
(g78
g59
NtRp1267
(dp1268
g62
(dp1269
sg71
g1254
sg64
(lp1270
g57
(g58
g59
NtRp1271
(dp1272
g62
(dp1273
g70
I4
ssg71
g1267
sg64
(lp1274
S'Rocket 1.2.4'
p1275
asbasbasbag57
(g73
g59
NtRp1276
(dp1277
g62
(dp1278
sg71
g637
sg64
(lp1279
g57
(g78
g59
NtRp1280
(dp1281
g62
(dp1282
g82
g83
ssg71
g1276
sg64
(lp1283
S'web2py_crontype'
p1284
asbag57
(g78
g59
NtRp1285
(dp1286
g62
(dp1287
g89
g90
ssg71
g1276
sg64
(lp1288
S':'
asbag57
(g78
g59
NtRp1289
(dp1290
g62
(dp1291
sg71
g1276
sg64
(lp1292
g57
(g58
g59
NtRp1293
(dp1294
g62
(dp1295
g70
I4
ssg71
g1289
sg64
(lp1296
S'hard'
p1297
asbasbasbag57
(g73
g59
NtRp1298
(dp1299
g62
(dp1300
sg71
g637
sg64
(lp1301
g57
(g78
g59
NtRp1302
(dp1303
g62
(dp1304
g82
g83
ssg71
g1298
sg64
(lp1305
S'web2py_path'
p1306
asbag57
(g78
g59
NtRp1307
(dp1308
g62
(dp1309
g89
g90
ssg71
g1298
sg64
(lp1310
S':'
asbag57
(g78
g59
NtRp1311
(dp1312
g62
(dp1313
sg71
g1298
sg64
(lp1314
g57
(g58
g59
NtRp1315
(dp1316
g62
(dp1317
g70
I4
ssg71
g1311
sg64
(lp1318
g684
asbasbasbag57
(g73
g59
NtRp1319
(dp1320
g62
(dp1321
sg71
g637
sg64
(lp1322
g57
(g78
g59
NtRp1323
(dp1324
g62
(dp1325
g82
g83
ssg71
g1319
sg64
(lp1326
S'web2py_version'
p1327
asbag57
(g78
g59
NtRp1328
(dp1329
g62
(dp1330
g89
g90
ssg71
g1319
sg64
(lp1331
S':'
asbag57
(g78
g59
NtRp1332
(dp1333
g62
(dp1334
sg71
g1319
sg64
(lp1335
g57
(g58
g59
NtRp1336
(dp1337
g62
(dp1338
g70
I4
ssg71
g1332
sg64
(lp1339
g57
(g66
g59
NtRp1340
(dp1341
g62
(dp1342
g70
I3
ssg71
Nsg64
(lp1343
g57
(g73
g59
NtRp1344
(dp1345
g62
(dp1346
sg71
g1340
sg64
(lp1347
g57
(g78
g59
NtRp1348
(dp1349
g62
(dp1350
sg71
g1344
sg64
(lp1351
g57
(g58
g59
NtRp1352
(dp1353
g62
(dp1354
g70
I3
ssg71
g1348
sg64
(lp1355
S'1'
asbasbasbag57
(g73
g59
NtRp1356
(dp1357
g62
(dp1358
sg71
g1340
sg64
(lp1359
g57
(g78
g59
NtRp1360
(dp1361
g62
(dp1362
sg71
g1356
sg64
(lp1363
g57
(g58
g59
NtRp1364
(dp1365
g62
(dp1366
g70
I3
ssg71
g1360
sg64
(lp1367
S'99'
p1368
asbasbasbag57
(g73
g59
NtRp1369
(dp1370
g62
(dp1371
sg71
g1340
sg64
(lp1372
g57
(g78
g59
NtRp1373
(dp1374
g62
(dp1375
sg71
g1369
sg64
(lp1376
g57
(g58
g59
NtRp1377
(dp1378
g62
(dp1379
g70
I3
ssg71
g1373
sg64
(lp1380
S'7'
asbasbasbag57
(g73
g59
NtRp1381
(dp1382
g62
(dp1383
sg71
g1340
sg64
(lp1384
g57
(g78
g59
NtRp1385
(dp1386
g62
(dp1387
sg71
g1381
sg64
(lp1388
g57
(g58
g59
NtRp1389
(dp1390
g62
(dp1391
g70
I3
ssg71
g1385
sg64
(lp1392
S'datetime.datetime(2012, 3, 4, 22, 12, 8)'
p1393
asbasbasbag57
(g73
g59
NtRp1394
(dp1395
g62
(dp1396
sg71
g1340
sg64
(lp1397
g57
(g78
g59
NtRp1398
(dp1399
g62
(dp1400
sg71
g1394
sg64
(lp1401
g57
(g58
g59
NtRp1402
(dp1403
g62
(dp1404
g70
I3
ssg71
g1398
sg64
(lp1405
S'stable'
p1406
asbasbasbasbasbasbasbag57
(g73
g59
NtRp1407
(dp1408
g62
(dp1409
sg71
g637
sg64
(lp1410
g57
(g78
g59
NtRp1411
(dp1412
g62
(dp1413
g82
g83
ssg71
g1407
sg64
(lp1414
S'wsgi_errors'
p1415
asbag57
(g78
g59
NtRp1416
(dp1417
g62
(dp1418
g89
g90
ssg71
g1407
sg64
(lp1419
S':'
asbag57
(g78
g59
NtRp1420
(dp1421
g62
(dp1422
sg71
g1407
sg64
(lp1423
g57
(g58
g59
NtRp1424
(dp1425
g62
(dp1426
g70
I4
ssg71
g1420
sg64
(lp1427
S"<open file '<stderr>', mode 'w' at 0x7fb75e7a21e0>"
p1428
asbasbasbag57
(g73
g59
NtRp1429
(dp1430
g62
(dp1431
sg71
g637
sg64
(lp1432
g57
(g78
g59
NtRp1433
(dp1434
g62
(dp1435
g82
g83
ssg71
g1429
sg64
(lp1436
S'wsgi_file_wrapper'
p1437
asbag57
(g78
g59
NtRp1438
(dp1439
g62
(dp1440
g89
g90
ssg71
g1429
sg64
(lp1441
S':'
asbag57
(g78
g59
NtRp1442
(dp1443
g62
(dp1444
sg71
g1429
sg64
(lp1445
g57
(g58
g59
NtRp1446
(dp1447
g62
(dp1448
g70
I4
ssg71
g1442
sg64
(lp1449
S'<class wsgiref.util.FileWrapper at 0x212a7d0>'
p1450
asbasbasbag57
(g73
g59
NtRp1451
(dp1452
g62
(dp1453
sg71
g637
sg64
(lp1454
g57
(g78
g59
NtRp1455
(dp1456
g62
(dp1457
g82
g83
ssg71
g1451
sg64
(lp1458
S'wsgi_input'
p1459
asbag57
(g78
g59
NtRp1460
(dp1461
g62
(dp1462
g89
g90
ssg71
g1451
sg64
(lp1463
S':'
asbag57
(g78
g59
NtRp1464
(dp1465
g62
(dp1466
sg71
g1451
sg64
(lp1467
g57
(g58
g59
NtRp1468
(dp1469
g62
(dp1470
g70
I4
ssg71
g1464
sg64
(lp1471
S'<socket._fileobject object at 0x253acd0>'
p1472
asbasbasbag57
(g73
g59
NtRp1473
(dp1474
g62
(dp1475
sg71
g637
sg64
(lp1476
g57
(g78
g59
NtRp1477
(dp1478
g62
(dp1479
g82
g83
ssg71
g1473
sg64
(lp1480
S'wsgi_multiprocess'
p1481
asbag57
(g78
g59
NtRp1482
(dp1483
g62
(dp1484
g89
g90
ssg71
g1473
sg64
(lp1485
S':'
asbag57
(g78
g59
NtRp1486
(dp1487
g62
(dp1488
sg71
g1473
sg64
(lp1489
g57
(g58
g59
NtRp1490
(dp1491
g62
(dp1492
g70
I4
ssg71
g1486
sg64
(lp1493
g100
asbasbasbag57
(g73
g59
NtRp1494
(dp1495
g62
(dp1496
sg71
g637
sg64
(lp1497
g57
(g78
g59
NtRp1498
(dp1499
g62
(dp1500
g82
g83
ssg71
g1494
sg64
(lp1501
S'wsgi_multithread'
p1502
asbag57
(g78
g59
NtRp1503
(dp1504
g62
(dp1505
g89
g90
ssg71
g1494
sg64
(lp1506
S':'
asbag57
(g78
g59
NtRp1507
(dp1508
g62
(dp1509
sg71
g1494
sg64
(lp1510
g57
(g58
g59
NtRp1511
(dp1512
g62
(dp1513
g70
I4
ssg71
g1507
sg64
(lp1514
S'True'
p1515
asbasbasbag57
(g73
g59
NtRp1516
(dp1517
g62
(dp1518
sg71
g637
sg64
(lp1519
g57
(g78
g59
NtRp1520
(dp1521
g62
(dp1522
g82
g83
ssg71
g1516
sg64
(lp1523
S'wsgi_run_once'
p1524
asbag57
(g78
g59
NtRp1525
(dp1526
g62
(dp1527
g89
g90
ssg71
g1516
sg64
(lp1528
S':'
asbag57
(g78
g59
NtRp1529
(dp1530
g62
(dp1531
sg71
g1516
sg64
(lp1532
g57
(g58
g59
NtRp1533
(dp1534
g62
(dp1535
g70
I4
ssg71
g1529
sg64
(lp1536
g100
asbasbasbag57
(g73
g59
NtRp1537
(dp1538
g62
(dp1539
sg71
g637
sg64
(lp1540
g57
(g78
g59
NtRp1541
(dp1542
g62
(dp1543
g82
g83
ssg71
g1537
sg64
(lp1544
S'wsgi_url_scheme'
p1545
asbag57
(g78
g59
NtRp1546
(dp1547
g62
(dp1548
g89
g90
ssg71
g1537
sg64
(lp1549
S':'
asbag57
(g78
g59
NtRp1550
(dp1551
g62
(dp1552
sg71
g1537
sg64
(lp1553
g57
(g58
g59
NtRp1554
(dp1555
g62
(dp1556
g70
I4
ssg71
g1550
sg64
(lp1557
S'http'
p1558
asbasbasbag57
(g73
g59
NtRp1559
(dp1560
g62
(dp1561
sg71
g637
sg64
(lp1562
g57
(g78
g59
NtRp1563
(dp1564
g62
(dp1565
g82
g83
ssg71
g1559
sg64
(lp1566
S'wsgi_version'
p1567
asbag57
(g78
g59
NtRp1568
(dp1569
g62
(dp1570
g89
g90
ssg71
g1559
sg64
(lp1571
S':'
asbag57
(g78
g59
NtRp1572
(dp1573
g62
(dp1574
sg71
g1559
sg64
(lp1575
g57
(g58
g59
NtRp1576
(dp1577
g62
(dp1578
g70
I4
ssg71
g1572
sg64
(lp1579
g57
(g66
g59
NtRp1580
(dp1581
g62
(dp1582
g70
I3
ssg71
Nsg64
(lp1583
g57
(g73
g59
NtRp1584
(dp1585
g62
(dp1586
sg71
g1580
sg64
(lp1587
g57
(g78
g59
NtRp1588
(dp1589
g62
(dp1590
sg71
g1584
sg64
(lp1591
g57
(g58
g59
NtRp1592
(dp1593
g62
(dp1594
g70
I3
ssg71
g1588
sg64
(lp1595
S'1'
asbasbasbag57
(g73
g59
NtRp1596
(dp1597
g62
(dp1598
sg71
g1580
sg64
(lp1599
g57
(g78
g59
NtRp1600
(dp1601
g62
(dp1602
sg71
g1596
sg64
(lp1603
g57
(g58
g59
NtRp1604
(dp1605
g62
(dp1606
g70
I3
ssg71
g1600
sg64
(lp1607
S'0'
asbasbasbasbasbasbasbasbasbasbasbag57
(g73
g59
NtRp1608
(dp1609
g62
(dp1610
sg71
g67
sg64
(lp1611
g57
(g78
g59
NtRp1612
(dp1613
g62
(dp1614
g82
g83
ssg71
g1608
sg64
(lp1615
S'extension'
p1616
asbag57
(g78
g59
NtRp1617
(dp1618
g62
(dp1619
g89
g90
ssg71
g1608
sg64
(lp1620
S':'
asbag57
(g78
g59
NtRp1621
(dp1622
g62
(dp1623
sg71
g1608
sg64
(lp1624
g57
(g58
g59
NtRp1625
(dp1626
g62
(dp1627
g70
I5
ssg71
g1621
sg64
(lp1628
S'html'
p1629
asbasbasbag57
(g73
g59
NtRp1630
(dp1631
g62
(dp1632
sg71
g67
sg64
(lp1633
g57
(g78
g59
NtRp1634
(dp1635
g62
(dp1636
g82
g83
ssg71
g1630
sg64
(lp1637
S'folder'
p1638
asbag57
(g78
g59
NtRp1639
(dp1640
g62
(dp1641
g89
g90
ssg71
g1630
sg64
(lp1642
S':'
asbag57
(g78
g59
NtRp1643
(dp1644
g62
(dp1645
sg71
g1630
sg64
(lp1646
g57
(g58
g59
NtRp1647
(dp1648
g62
(dp1649
g70
I5
ssg71
g1643
sg64
(lp1650
S'/home/rohitraj/Desktop/web2py/applications/themishrms/'
p1651
asbasbasbag57
(g73
g59
NtRp1652
(dp1653
g62
(dp1654
sg71
g67
sg64
(lp1655
g57
(g78
g59
NtRp1656
(dp1657
g62
(dp1658
g82
g83
ssg71
g1652
sg64
(lp1659
S'function'
p1660
asbag57
(g78
g59
NtRp1661
(dp1662
g62
(dp1663
g89
g90
ssg71
g1652
sg64
(lp1664
S':'
asbag57
(g78
g59
NtRp1665
(dp1666
g62
(dp1667
sg71
g1652
sg64
(lp1668
g57
(g58
g59
NtRp1669
(dp1670
g62
(dp1671
g70
I5
ssg71
g1665
sg64
(lp1672
S'user_timesheet'
p1673
asbasbasbag57
(g73
g59
NtRp1674
(dp1675
g62
(dp1676
sg71
g67
sg64
(lp1677
g57
(g78
g59
NtRp1678
(dp1679
g62
(dp1680
g82
g83
ssg71
g1674
sg64
(lp1681
S'get_vars'
p1682
asbag57
(g78
g59
NtRp1683
(dp1684
g62
(dp1685
g89
g90
ssg71
g1674
sg64
(lp1686
S':'
asbag57
(g78
g59
NtRp1687
(dp1688
g62
(dp1689
sg71
g1674
sg64
(lp1690
g57
(g58
g59
NtRp1691
(dp1692
g62
(dp1693
g70
I5
ssg71
g1687
sg64
(lp1694
g57
(g66
g59
NtRp1695
(dp1696
g62
(dp1697
g70
I4
ssg71
Nsg64
(lp1698
sbasbasbasbag57
(g73
g59
NtRp1699
(dp1700
g62
(dp1701
sg71
g67
sg64
(lp1702
g57
(g78
g59
NtRp1703
(dp1704
g62
(dp1705
g82
g83
ssg71
g1699
sg64
(lp1706
S'global_settings'
p1707
asbag57
(g78
g59
NtRp1708
(dp1709
g62
(dp1710
g89
g90
ssg71
g1699
sg64
(lp1711
S':'
asbag57
(g78
g59
NtRp1712
(dp1713
g62
(dp1714
sg71
g1699
sg64
(lp1715
g57
(g58
g59
NtRp1716
(dp1717
g62
(dp1718
g70
I5
ssg71
g1712
sg64
(lp1719
g57
(g66
g59
NtRp1720
(dp1721
g62
(dp1722
g70
I4
ssg71
Nsg64
(lp1723
g57
(g73
g59
NtRp1724
(dp1725
g62
(dp1726
sg71
g1720
sg64
(lp1727
g57
(g78
g59
NtRp1728
(dp1729
g62
(dp1730
g82
g83
ssg71
g1724
sg64
(lp1731
g649
asbag57
(g78
g59
NtRp1732
(dp1733
g62
(dp1734
g89
g90
ssg71
g1724
sg64
(lp1735
S':'
asbag57
(g78
g59
NtRp1736
(dp1737
g62
(dp1738
sg71
g1724
sg64
(lp1739
g57
(g58
g59
NtRp1740
(dp1741
g62
(dp1742
g70
I4
ssg71
g1736
sg64
(lp1743
S"set(['/home/rohitraj/Desktop/web2py/applications/welcome/', '/home/rohitraj/Desktop/web2py/applications/themishrms/'])"
p1744
asbasbasbag57
(g73
g59
NtRp1745
(dp1746
g62
(dp1747
sg71
g1720
sg64
(lp1748
g57
(g78
g59
NtRp1749
(dp1750
g62
(dp1751
g82
g83
ssg71
g1745
sg64
(lp1752
g671
asbag57
(g78
g59
NtRp1753
(dp1754
g62
(dp1755
g89
g90
ssg71
g1745
sg64
(lp1756
S':'
asbag57
(g78
g59
NtRp1757
(dp1758
g62
(dp1759
sg71
g1745
sg64
(lp1760
g57
(g58
g59
NtRp1761
(dp1762
g62
(dp1763
g70
I4
ssg71
g1757
sg64
(lp1764
g684
asbasbasbag57
(g73
g59
NtRp1765
(dp1766
g62
(dp1767
sg71
g1720
sg64
(lp1768
g57
(g78
g59
NtRp1769
(dp1770
g62
(dp1771
g82
g83
ssg71
g1765
sg64
(lp1772
g693
asbag57
(g78
g59
NtRp1773
(dp1774
g62
(dp1775
g89
g90
ssg71
g1765
sg64
(lp1776
S':'
asbag57
(g78
g59
NtRp1777
(dp1778
g62
(dp1779
sg71
g1765
sg64
(lp1780
g57
(g58
g59
NtRp1781
(dp1782
g62
(dp1783
g70
I4
ssg71
g1777
sg64
(lp1784
g57
(g66
g59
NtRp1785
(dp1786
g62
(dp1787
g70
I3
ssg71
Nsg64
(lp1788
sbasbasbasbag57
(g73
g59
NtRp1789
(dp1790
g62
(dp1791
sg71
g1720
sg64
(lp1792
g57
(g78
g59
NtRp1793
(dp1794
g62
(dp1795
g82
g83
ssg71
g1789
sg64
(lp1796
g718
asbag57
(g78
g59
NtRp1797
(dp1798
g62
(dp1799
g89
g90
ssg71
g1789
sg64
(lp1800
S':'
asbag57
(g78
g59
NtRp1801
(dp1802
g62
(dp1803
sg71
g1789
sg64
(lp1804
g57
(g58
g59
NtRp1805
(dp1806
g62
(dp1807
g70
I4
ssg71
g1801
sg64
(lp1808
S"<Values at 0x21cacb0: {'verbose': False, 'ip': '127.0.0.1', 'shutdown_timeout': 5, 'taskbar': False, 'nocron': False, 'pid_filename': 'httpserver.pid', 'maxthreads': None, 'softcron': False, 'server_name': 'RohitRaj', 'bpython': False, 'nogui': False, 'port': 8000, 'extcron': False, 'debuglevel': 30, 'test': None, 'folder': '/home/rohitraj/Desktop/web2py', 'config': '', 'import_models': False, 'winservice': '', 'shell': None, 'run': '', 'log_filename': 'httpserver.log', 'args': [''], 'socket_timeout': 5, 'ssl_ca_certificate': None, 'scheduler': None, 'profiler_filename': None, 'ssl_private_key': '', 'password': 'admin', 'request_queue_size': 5, 'ssl_certificate': '', 'cronjob': False, 'numthreads': None, 'quiet': False, 'interfaces': None, 'minthreads': None, 'timeout': 10, 'plain': False, 'nobanner': False}>"
p1809
asbasbasbag57
(g73
g59
NtRp1810
(dp1811
g62
(dp1812
sg71
g1720
sg64
(lp1813
g57
(g78
g59
NtRp1814
(dp1815
g62
(dp1816
g82
g83
ssg71
g1810
sg64
(lp1817
g740
asbag57
(g78
g59
NtRp1818
(dp1819
g62
(dp1820
g89
g90
ssg71
g1810
sg64
(lp1821
S':'
asbag57
(g78
g59
NtRp1822
(dp1823
g62
(dp1824
sg71
g1810
sg64
(lp1825
g57
(g58
g59
NtRp1826
(dp1827
g62
(dp1828
g70
I4
ssg71
g1822
sg64
(lp1829
S'set([])'
p1830
asbasbasbag57
(g73
g59
NtRp1831
(dp1832
g62
(dp1833
sg71
g1720
sg64
(lp1834
g57
(g78
g59
NtRp1835
(dp1836
g62
(dp1837
g82
g83
ssg71
g1831
sg64
(lp1838
g762
asbag57
(g78
g59
NtRp1839
(dp1840
g62
(dp1841
g89
g90
ssg71
g1831
sg64
(lp1842
S':'
asbag57
(g78
g59
NtRp1843
(dp1844
g62
(dp1845
sg71
g1831
sg64
(lp1846
g57
(g58
g59
NtRp1847
(dp1848
g62
(dp1849
g70
I4
ssg71
g1843
sg64
(lp1850
g100
asbasbasbag57
(g73
g59
NtRp1851
(dp1852
g62
(dp1853
sg71
g1720
sg64
(lp1854
g57
(g78
g59
NtRp1855
(dp1856
g62
(dp1857
g82
g83
ssg71
g1851
sg64
(lp1858
g783
asbag57
(g78
g59
NtRp1859
(dp1860
g62
(dp1861
g89
g90
ssg71
g1851
sg64
(lp1862
S':'
asbag57
(g78
g59
NtRp1863
(dp1864
g62
(dp1865
sg71
g1851
sg64
(lp1866
g57
(g58
g59
NtRp1867
(dp1868
g62
(dp1869
g70
I4
ssg71
g1863
sg64
(lp1870
g796
asbasbasbag57
(g73
g59
NtRp1871
(dp1872
g62
(dp1873
sg71
g1720
sg64
(lp1874
g57
(g78
g59
NtRp1875
(dp1876
g62
(dp1877
g82
g83
ssg71
g1871
sg64
(lp1878
g1025
asbag57
(g78
g59
NtRp1879
(dp1880
g62
(dp1881
g89
g90
ssg71
g1871
sg64
(lp1882
S':'
asbag57
(g78
g59
NtRp1883
(dp1884
g62
(dp1885
sg71
g1871
sg64
(lp1886
g57
(g58
g59
NtRp1887
(dp1888
g62
(dp1889
g70
I4
ssg71
g1883
sg64
(lp1890
g100
asbasbasbag57
(g73
g59
NtRp1891
(dp1892
g62
(dp1893
sg71
g1720
sg64
(lp1894
g57
(g78
g59
NtRp1895
(dp1896
g62
(dp1897
g82
g83
ssg71
g1891
sg64
(lp1898
g1046
asbag57
(g78
g59
NtRp1899
(dp1900
g62
(dp1901
g89
g90
ssg71
g1891
sg64
(lp1902
S':'
asbag57
(g78
g59
NtRp1903
(dp1904
g62
(dp1905
sg71
g1891
sg64
(lp1906
g57
(g58
g59
NtRp1907
(dp1908
g62
(dp1909
g70
I4
ssg71
g1903
sg64
(lp1910
g100
asbasbasbag57
(g73
g59
NtRp1911
(dp1912
g62
(dp1913
sg71
g1720
sg64
(lp1914
g57
(g78
g59
NtRp1915
(dp1916
g62
(dp1917
g82
g83
ssg71
g1911
sg64
(lp1918
g1284
asbag57
(g78
g59
NtRp1919
(dp1920
g62
(dp1921
g89
g90
ssg71
g1911
sg64
(lp1922
S':'
asbag57
(g78
g59
NtRp1923
(dp1924
g62
(dp1925
sg71
g1911
sg64
(lp1926
g57
(g58
g59
NtRp1927
(dp1928
g62
(dp1929
g70
I4
ssg71
g1923
sg64
(lp1930
g1297
asbasbasbag57
(g73
g59
NtRp1931
(dp1932
g62
(dp1933
sg71
g1720
sg64
(lp1934
g57
(g78
g59
NtRp1935
(dp1936
g62
(dp1937
g82
g83
ssg71
g1931
sg64
(lp1938
g1327
asbag57
(g78
g59
NtRp1939
(dp1940
g62
(dp1941
g89
g90
ssg71
g1931
sg64
(lp1942
S':'
asbag57
(g78
g59
NtRp1943
(dp1944
g62
(dp1945
sg71
g1931
sg64
(lp1946
g57
(g58
g59
NtRp1947
(dp1948
g62
(dp1949
g70
I4
ssg71
g1943
sg64
(lp1950
g57
(g66
g59
NtRp1951
(dp1952
g62
(dp1953
g70
I3
ssg71
Nsg64
(lp1954
g57
(g73
g59
NtRp1955
(dp1956
g62
(dp1957
sg71
g1951
sg64
(lp1958
g57
(g78
g59
NtRp1959
(dp1960
g62
(dp1961
sg71
g1955
sg64
(lp1962
g57
(g58
g59
NtRp1963
(dp1964
g62
(dp1965
g70
I3
ssg71
g1959
sg64
(lp1966
S'1'
asbasbasbag57
(g73
g59
NtRp1967
(dp1968
g62
(dp1969
sg71
g1951
sg64
(lp1970
g57
(g78
g59
NtRp1971
(dp1972
g62
(dp1973
sg71
g1967
sg64
(lp1974
g57
(g58
g59
NtRp1975
(dp1976
g62
(dp1977
g70
I3
ssg71
g1971
sg64
(lp1978
S'99'
p1979
asbasbasbag57
(g73
g59
NtRp1980
(dp1981
g62
(dp1982
sg71
g1951
sg64
(lp1983
g57
(g78
g59
NtRp1984
(dp1985
g62
(dp1986
sg71
g1980
sg64
(lp1987
g57
(g58
g59
NtRp1988
(dp1989
g62
(dp1990
g70
I3
ssg71
g1984
sg64
(lp1991
S'7'
asbasbasbag57
(g73
g59
NtRp1992
(dp1993
g62
(dp1994
sg71
g1951
sg64
(lp1995
g57
(g78
g59
NtRp1996
(dp1997
g62
(dp1998
sg71
g1992
sg64
(lp1999
g57
(g58
g59
NtRp2000
(dp2001
g62
(dp2002
g70
I3
ssg71
g1996
sg64
(lp2003
S'datetime.datetime(2012, 3, 4, 22, 12, 8)'
p2004
asbasbasbag57
(g73
g59
NtRp2005
(dp2006
g62
(dp2007
sg71
g1951
sg64
(lp2008
g57
(g78
g59
NtRp2009
(dp2010
g62
(dp2011
sg71
g2005
sg64
(lp2012
g57
(g58
g59
NtRp2013
(dp2014
g62
(dp2015
g70
I3
ssg71
g2009
sg64
(lp2016
g1406
asbasbasbasbasbasbasbasbasbasbasbag57
(g73
g59
NtRp2017
(dp2018
g62
(dp2019
sg71
g67
sg64
(lp2020
g57
(g78
g59
NtRp2021
(dp2022
g62
(dp2023
g82
g83
ssg71
g2017
sg64
(lp2024
S'is_https'
p2025
asbag57
(g78
g59
NtRp2026
(dp2027
g62
(dp2028
g89
g90
ssg71
g2017
sg64
(lp2029
S':'
asbag57
(g78
g59
NtRp2030
(dp2031
g62
(dp2032
sg71
g2017
sg64
(lp2033
g57
(g58
g59
NtRp2034
(dp2035
g62
(dp2036
g70
I5
ssg71
g2030
sg64
(lp2037
g100
asbasbasbag57
(g73
g59
NtRp2038
(dp2039
g62
(dp2040
sg71
g67
sg64
(lp2041
g57
(g78
g59
NtRp2042
(dp2043
g62
(dp2044
g82
g83
ssg71
g2038
sg64
(lp2045
S'is_local'
p2046
asbag57
(g78
g59
NtRp2047
(dp2048
g62
(dp2049
g89
g90
ssg71
g2038
sg64
(lp2050
S':'
asbag57
(g78
g59
NtRp2051
(dp2052
g62
(dp2053
sg71
g2038
sg64
(lp2054
g57
(g58
g59
NtRp2055
(dp2056
g62
(dp2057
g70
I5
ssg71
g2051
sg64
(lp2058
g1515
asbasbasbag57
(g73
g59
NtRp2059
(dp2060
g62
(dp2061
sg71
g67
sg64
(lp2062
g57
(g78
g59
NtRp2063
(dp2064
g62
(dp2065
g82
g83
ssg71
g2059
sg64
(lp2066
S'is_restful'
p2067
asbag57
(g78
g59
NtRp2068
(dp2069
g62
(dp2070
g89
g90
ssg71
g2059
sg64
(lp2071
S':'
asbag57
(g78
g59
NtRp2072
(dp2073
g62
(dp2074
sg71
g2059
sg64
(lp2075
g57
(g58
g59
NtRp2076
(dp2077
g62
(dp2078
g70
I5
ssg71
g2072
sg64
(lp2079
g100
asbasbasbag57
(g73
g59
NtRp2080
(dp2081
g62
(dp2082
sg71
g67
sg64
(lp2083
g57
(g78
g59
NtRp2084
(dp2085
g62
(dp2086
g82
g83
ssg71
g2080
sg64
(lp2087
S'now'
p2088
asbag57
(g78
g59
NtRp2089
(dp2090
g62
(dp2091
g89
g90
ssg71
g2080
sg64
(lp2092
S':'
asbag57
(g78
g59
NtRp2093
(dp2094
g62
(dp2095
sg71
g2080
sg64
(lp2096
g57
(g58
g59
NtRp2097
(dp2098
g62
(dp2099
g70
I5
ssg71
g2093
sg64
(lp2100
S'datetime.datetime(2012, 5, 3, 16, 3, 23, 613897)'
p2101
asbasbasbag57
(g73
g59
NtRp2102
(dp2103
g62
(dp2104
sg71
g67
sg64
(lp2105
g57
(g78
g59
NtRp2106
(dp2107
g62
(dp2108
g82
g83
ssg71
g2102
sg64
(lp2109
S'post_vars'
p2110
asbag57
(g78
g59
NtRp2111
(dp2112
g62
(dp2113
g89
g90
ssg71
g2102
sg64
(lp2114
S':'
asbag57
(g78
g59
NtRp2115
(dp2116
g62
(dp2117
sg71
g2102
sg64
(lp2118
g57
(g58
g59
NtRp2119
(dp2120
g62
(dp2121
g70
I5
ssg71
g2115
sg64
(lp2122
g57
(g66
g59
NtRp2123
(dp2124
g62
(dp2125
g70
I4
ssg71
Nsg64
(lp2126
sbasbasbasbag57
(g73
g59
NtRp2127
(dp2128
g62
(dp2129
sg71
g67
sg64
(lp2130
g57
(g78
g59
NtRp2131
(dp2132
g62
(dp2133
g82
g83
ssg71
g2127
sg64
(lp2134
S'url'
p2135
asbag57
(g78
g59
NtRp2136
(dp2137
g62
(dp2138
g89
g90
ssg71
g2127
sg64
(lp2139
S':'
asbag57
(g78
g59
NtRp2140
(dp2141
g62
(dp2142
sg71
g2127
sg64
(lp2143
g57
(g58
g59
NtRp2144
(dp2145
g62
(dp2146
g70
I5
ssg71
g2140
sg64
(lp2147
S'/themishrms/default/user_timesheet'
p2148
asbasbasbag57
(g73
g59
NtRp2149
(dp2150
g62
(dp2151
sg71
g67
sg64
(lp2152
g57
(g78
g59
NtRp2153
(dp2154
g62
(dp2155
g82
g83
ssg71
g2149
sg64
(lp2156
S'utcnow'
p2157
asbag57
(g78
g59
NtRp2158
(dp2159
g62
(dp2160
g89
g90
ssg71
g2149
sg64
(lp2161
S':'
asbag57
(g78
g59
NtRp2162
(dp2163
g62
(dp2164
sg71
g2149
sg64
(lp2165
g57
(g58
g59
NtRp2166
(dp2167
g62
(dp2168
g70
I5
ssg71
g2162
sg64
(lp2169
S'datetime.datetime(2012, 5, 3, 10, 33, 23, 613937)'
p2170
asbasbasbag57
(g73
g59
NtRp2171
(dp2172
g62
(dp2173
sg71
g67
sg64
(lp2174
g57
(g78
g59
NtRp2175
(dp2176
g62
(dp2177
g82
g83
ssg71
g2171
sg64
(lp2178
S'uuid'
p2179
asbag57
(g78
g59
NtRp2180
(dp2181
g62
(dp2182
g89
g90
ssg71
g2171
sg64
(lp2183
S':'
asbag57
(g78
g59
NtRp2184
(dp2185
g62
(dp2186
sg71
g2171
sg64
(lp2187
g57
(g58
g59
NtRp2188
(dp2189
g62
(dp2190
g70
I5
ssg71
g2184
sg64
(lp2191
S'themishrms/127.0.0.1.2012-05-03.16-03-23.e2f7f076-9158-4fd1-ac97-a1e5d9c55710'
p2192
asbasbasbag57
(g73
g59
NtRp2193
(dp2194
g62
(dp2195
sg71
g67
sg64
(lp2196
g57
(g78
g59
NtRp2197
(dp2198
g62
(dp2199
g82
g83
ssg71
g2193
sg64
(lp2200
S'vars'
p2201
asbag57
(g78
g59
NtRp2202
(dp2203
g62
(dp2204
g89
g90
ssg71
g2193
sg64
(lp2205
S':'
asbag57
(g78
g59
NtRp2206
(dp2207
g62
(dp2208
sg71
g2193
sg64
(lp2209
g57
(g58
g59
NtRp2210
(dp2211
g62
(dp2212
g70
I5
ssg71
g2206
sg64
(lp2213
g57
(g66
g59
NtRp2214
(dp2215
g62
(dp2216
g70
I4
ssg71
Nsg64
(lp2217
sbasbasbasbag57
(g73
g59
NtRp2218
(dp2219
g62
(dp2220
sg71
g67
sg64
(lp2221
g57
(g78
g59
NtRp2222
(dp2223
g62
(dp2224
g82
g83
ssg71
g2218
sg64
(lp2225
S'wsgi'
p2226
asbag57
(g78
g59
NtRp2227
(dp2228
g62
(dp2229
g89
g90
ssg71
g2218
sg64
(lp2230
S':'
asbag57
(g78
g59
NtRp2231
(dp2232
g62
(dp2233
sg71
g2218
sg64
(lp2234
g57
(g58
g59
NtRp2235
(dp2236
g62
(dp2237
g70
I5
ssg71
g2231
sg64
(lp2238
g57
(g66
g59
NtRp2239
(dp2240
g62
(dp2241
g70
I4
ssg71
Nsg64
(lp2242
g57
(g73
g59
NtRp2243
(dp2244
g62
(dp2245
sg71
g2239
sg64
(lp2246
g57
(g78
g59
NtRp2247
(dp2248
g62
(dp2249
g82
g83
ssg71
g2243
sg64
(lp2250
S'environ'
p2251
asbag57
(g78
g59
NtRp2252
(dp2253
g62
(dp2254
g89
g90
ssg71
g2243
sg64
(lp2255
S':'
asbag57
(g78
g59
NtRp2256
(dp2257
g62
(dp2258
sg71
g2243
sg64
(lp2259
g57
(g58
g59
NtRp2260
(dp2261
g62
(dp2262
g70
I4
ssg71
g2256
sg64
(lp2263
g57
(g66
g59
NtRp2264
(dp2265
g62
(dp2266
g70
I3
ssg71
Nsg64
(lp2267
g57
(g73
g59
NtRp2268
(dp2269
g62
(dp2270
sg71
g2264
sg64
(lp2271
g57
(g78
g59
NtRp2272
(dp2273
g62
(dp2274
g82
g83
ssg71
g2268
sg64
(lp2275
S'HTTP_ACCEPT'
p2276
asbag57
(g78
g59
NtRp2277
(dp2278
g62
(dp2279
g89
g90
ssg71
g2268
sg64
(lp2280
S':'
asbag57
(g78
g59
NtRp2281
(dp2282
g62
(dp2283
sg71
g2268
sg64
(lp2284
g57
(g58
g59
NtRp2285
(dp2286
g62
(dp2287
g70
I3
ssg71
g2281
sg64
(lp2288
g818
asbasbasbag57
(g73
g59
NtRp2289
(dp2290
g62
(dp2291
sg71
g2264
sg64
(lp2292
g57
(g78
g59
NtRp2293
(dp2294
g62
(dp2295
g82
g83
ssg71
g2289
sg64
(lp2296
S'HTTP_ACCEPT_CHARSET'
p2297
asbag57
(g78
g59
NtRp2298
(dp2299
g62
(dp2300
g89
g90
ssg71
g2289
sg64
(lp2301
S':'
asbag57
(g78
g59
NtRp2302
(dp2303
g62
(dp2304
sg71
g2289
sg64
(lp2305
g57
(g58
g59
NtRp2306
(dp2307
g62
(dp2308
g70
I3
ssg71
g2302
sg64
(lp2309
g840
asbasbasbag57
(g73
g59
NtRp2310
(dp2311
g62
(dp2312
sg71
g2264
sg64
(lp2313
g57
(g78
g59
NtRp2314
(dp2315
g62
(dp2316
g82
g83
ssg71
g2310
sg64
(lp2317
S'HTTP_ACCEPT_ENCODING'
p2318
asbag57
(g78
g59
NtRp2319
(dp2320
g62
(dp2321
g89
g90
ssg71
g2310
sg64
(lp2322
S':'
asbag57
(g78
g59
NtRp2323
(dp2324
g62
(dp2325
sg71
g2310
sg64
(lp2326
g57
(g58
g59
NtRp2327
(dp2328
g62
(dp2329
g70
I3
ssg71
g2323
sg64
(lp2330
g862
asbasbasbag57
(g73
g59
NtRp2331
(dp2332
g62
(dp2333
sg71
g2264
sg64
(lp2334
g57
(g78
g59
NtRp2335
(dp2336
g62
(dp2337
g82
g83
ssg71
g2331
sg64
(lp2338
S'HTTP_ACCEPT_LANGUAGE'
p2339
asbag57
(g78
g59
NtRp2340
(dp2341
g62
(dp2342
g89
g90
ssg71
g2331
sg64
(lp2343
S':'
asbag57
(g78
g59
NtRp2344
(dp2345
g62
(dp2346
sg71
g2331
sg64
(lp2347
g57
(g58
g59
NtRp2348
(dp2349
g62
(dp2350
g70
I3
ssg71
g2344
sg64
(lp2351
g884
asbasbasbag57
(g73
g59
NtRp2352
(dp2353
g62
(dp2354
sg71
g2264
sg64
(lp2355
g57
(g78
g59
NtRp2356
(dp2357
g62
(dp2358
g82
g83
ssg71
g2352
sg64
(lp2359
S'HTTP_CACHE_CONTROL'
p2360
asbag57
(g78
g59
NtRp2361
(dp2362
g62
(dp2363
g89
g90
ssg71
g2352
sg64
(lp2364
S':'
asbag57
(g78
g59
NtRp2365
(dp2366
g62
(dp2367
sg71
g2352
sg64
(lp2368
g57
(g58
g59
NtRp2369
(dp2370
g62
(dp2371
g70
I3
ssg71
g2365
sg64
(lp2372
g906
asbasbasbag57
(g73
g59
NtRp2373
(dp2374
g62
(dp2375
sg71
g2264
sg64
(lp2376
g57
(g78
g59
NtRp2377
(dp2378
g62
(dp2379
g82
g83
ssg71
g2373
sg64
(lp2380
S'HTTP_CONNECTION'
p2381
asbag57
(g78
g59
NtRp2382
(dp2383
g62
(dp2384
g89
g90
ssg71
g2373
sg64
(lp2385
S':'
asbag57
(g78
g59
NtRp2386
(dp2387
g62
(dp2388
sg71
g2373
sg64
(lp2389
g57
(g58
g59
NtRp2390
(dp2391
g62
(dp2392
g70
I3
ssg71
g2386
sg64
(lp2393
g928
asbasbasbag57
(g73
g59
NtRp2394
(dp2395
g62
(dp2396
sg71
g2264
sg64
(lp2397
g57
(g78
g59
NtRp2398
(dp2399
g62
(dp2400
g82
g83
ssg71
g2394
sg64
(lp2401
S'HTTP_COOKIE'
p2402
asbag57
(g78
g59
NtRp2403
(dp2404
g62
(dp2405
g89
g90
ssg71
g2394
sg64
(lp2406
S':'
asbag57
(g78
g59
NtRp2407
(dp2408
g62
(dp2409
sg71
g2394
sg64
(lp2410
g57
(g58
g59
NtRp2411
(dp2412
g62
(dp2413
g70
I3
ssg71
g2407
sg64
(lp2414
g950
asbasbasbag57
(g73
g59
NtRp2415
(dp2416
g62
(dp2417
sg71
g2264
sg64
(lp2418
g57
(g78
g59
NtRp2419
(dp2420
g62
(dp2421
g82
g83
ssg71
g2415
sg64
(lp2422
S'HTTP_HOST'
p2423
asbag57
(g78
g59
NtRp2424
(dp2425
g62
(dp2426
g89
g90
ssg71
g2415
sg64
(lp2427
S':'
asbag57
(g78
g59
NtRp2428
(dp2429
g62
(dp2430
sg71
g2415
sg64
(lp2431
g57
(g58
g59
NtRp2432
(dp2433
g62
(dp2434
g70
I3
ssg71
g2428
sg64
(lp2435
g972
asbasbasbag57
(g73
g59
NtRp2436
(dp2437
g62
(dp2438
sg71
g2264
sg64
(lp2439
g57
(g78
g59
NtRp2440
(dp2441
g62
(dp2442
g82
g83
ssg71
g2436
sg64
(lp2443
S'HTTP_REFERER'
p2444
asbag57
(g78
g59
NtRp2445
(dp2446
g62
(dp2447
g89
g90
ssg71
g2436
sg64
(lp2448
S':'
asbag57
(g78
g59
NtRp2449
(dp2450
g62
(dp2451
sg71
g2436
sg64
(lp2452
g57
(g58
g59
NtRp2453
(dp2454
g62
(dp2455
g70
I3
ssg71
g2449
sg64
(lp2456
g994
asbasbasbag57
(g73
g59
NtRp2457
(dp2458
g62
(dp2459
sg71
g2264
sg64
(lp2460
g57
(g78
g59
NtRp2461
(dp2462
g62
(dp2463
g82
g83
ssg71
g2457
sg64
(lp2464
S'HTTP_USER_AGENT'
p2465
asbag57
(g78
g59
NtRp2466
(dp2467
g62
(dp2468
g89
g90
ssg71
g2457
sg64
(lp2469
S':'
asbag57
(g78
g59
NtRp2470
(dp2471
g62
(dp2472
sg71
g2457
sg64
(lp2473
g57
(g58
g59
NtRp2474
(dp2475
g62
(dp2476
g70
I3
ssg71
g2470
sg64
(lp2477
g1016
asbasbasbag57
(g73
g59
NtRp2478
(dp2479
g62
(dp2480
sg71
g2264
sg64
(lp2481
g57
(g78
g59
NtRp2482
(dp2483
g62
(dp2484
g82
g83
ssg71
g2478
sg64
(lp2485
S'PATH_INFO'
p2486
asbag57
(g78
g59
NtRp2487
(dp2488
g62
(dp2489
g89
g90
ssg71
g2478
sg64
(lp2490
S':'
asbag57
(g78
g59
NtRp2491
(dp2492
g62
(dp2493
sg71
g2478
sg64
(lp2494
g57
(g58
g59
NtRp2495
(dp2496
g62
(dp2497
g70
I3
ssg71
g2491
sg64
(lp2498
g1080
asbasbasbag57
(g73
g59
NtRp2499
(dp2500
g62
(dp2501
sg71
g2264
sg64
(lp2502
g57
(g78
g59
NtRp2503
(dp2504
g62
(dp2505
g82
g83
ssg71
g2499
sg64
(lp2506
S'QUERY_STRING'
p2507
asbag57
(g78
g59
NtRp2508
(dp2509
g62
(dp2510
g89
g90
ssg71
g2499
sg64
(lp2511
S':'
asbag57
(g78
g59
NtRp2512
(dp2513
g62
(dp2514
sg71
g2499
sg64
(lp2515
g57
(g58
g59
NtRp2516
(dp2517
g62
(dp2518
g70
I3
ssg71
g2512
sg64
(lp2519
S''
asbasbasbag57
(g73
g59
NtRp2520
(dp2521
g62
(dp2522
sg71
g2264
sg64
(lp2523
g57
(g78
g59
NtRp2524
(dp2525
g62
(dp2526
g82
g83
ssg71
g2520
sg64
(lp2527
S'REMOTE_ADDR'
p2528
asbag57
(g78
g59
NtRp2529
(dp2530
g62
(dp2531
g89
g90
ssg71
g2520
sg64
(lp2532
S':'
asbag57
(g78
g59
NtRp2533
(dp2534
g62
(dp2535
sg71
g2520
sg64
(lp2536
g57
(g58
g59
NtRp2537
(dp2538
g62
(dp2539
g70
I3
ssg71
g2533
sg64
(lp2540
g190
asbasbasbag57
(g73
g59
NtRp2541
(dp2542
g62
(dp2543
sg71
g2264
sg64
(lp2544
g57
(g78
g59
NtRp2545
(dp2546
g62
(dp2547
g82
g83
ssg71
g2541
sg64
(lp2548
S'REMOTE_PORT'
p2549
asbag57
(g78
g59
NtRp2550
(dp2551
g62
(dp2552
g89
g90
ssg71
g2541
sg64
(lp2553
S':'
asbag57
(g78
g59
NtRp2554
(dp2555
g62
(dp2556
sg71
g2541
sg64
(lp2557
g57
(g58
g59
NtRp2558
(dp2559
g62
(dp2560
g70
I3
ssg71
g2554
sg64
(lp2561
g1144
asbasbasbag57
(g73
g59
NtRp2562
(dp2563
g62
(dp2564
sg71
g2264
sg64
(lp2565
g57
(g78
g59
NtRp2566
(dp2567
g62
(dp2568
g82
g83
ssg71
g2562
sg64
(lp2569
S'REQUEST_METHOD'
p2570
asbag57
(g78
g59
NtRp2571
(dp2572
g62
(dp2573
g89
g90
ssg71
g2562
sg64
(lp2574
S':'
asbag57
(g78
g59
NtRp2575
(dp2576
g62
(dp2577
sg71
g2562
sg64
(lp2578
g57
(g58
g59
NtRp2579
(dp2580
g62
(dp2581
g70
I3
ssg71
g2575
sg64
(lp2582
g1166
asbasbasbag57
(g73
g59
NtRp2583
(dp2584
g62
(dp2585
sg71
g2264
sg64
(lp2586
g57
(g78
g59
NtRp2587
(dp2588
g62
(dp2589
g82
g83
ssg71
g2583
sg64
(lp2590
S'SCRIPT_NAME'
p2591
asbag57
(g78
g59
NtRp2592
(dp2593
g62
(dp2594
g89
g90
ssg71
g2583
sg64
(lp2595
S':'
asbag57
(g78
g59
NtRp2596
(dp2597
g62
(dp2598
sg71
g2583
sg64
(lp2599
g57
(g58
g59
NtRp2600
(dp2601
g62
(dp2602
g70
I3
ssg71
g2596
sg64
(lp2603
S''
asbasbasbag57
(g73
g59
NtRp2604
(dp2605
g62
(dp2606
sg71
g2264
sg64
(lp2607
g57
(g78
g59
NtRp2608
(dp2609
g62
(dp2610
g82
g83
ssg71
g2604
sg64
(lp2611
S'SERVER_NAME'
p2612
asbag57
(g78
g59
NtRp2613
(dp2614
g62
(dp2615
g89
g90
ssg71
g2604
sg64
(lp2616
S':'
asbag57
(g78
g59
NtRp2617
(dp2618
g62
(dp2619
sg71
g2604
sg64
(lp2620
g57
(g58
g59
NtRp2621
(dp2622
g62
(dp2623
g70
I3
ssg71
g2617
sg64
(lp2624
g1209
asbasbasbag57
(g73
g59
NtRp2625
(dp2626
g62
(dp2627
sg71
g2264
sg64
(lp2628
g57
(g78
g59
NtRp2629
(dp2630
g62
(dp2631
g82
g83
ssg71
g2625
sg64
(lp2632
S'SERVER_PORT'
p2633
asbag57
(g78
g59
NtRp2634
(dp2635
g62
(dp2636
g89
g90
ssg71
g2625
sg64
(lp2637
S':'
asbag57
(g78
g59
NtRp2638
(dp2639
g62
(dp2640
sg71
g2625
sg64
(lp2641
g57
(g58
g59
NtRp2642
(dp2643
g62
(dp2644
g70
I3
ssg71
g2638
sg64
(lp2645
g1231
asbasbasbag57
(g73
g59
NtRp2646
(dp2647
g62
(dp2648
sg71
g2264
sg64
(lp2649
g57
(g78
g59
NtRp2650
(dp2651
g62
(dp2652
g82
g83
ssg71
g2646
sg64
(lp2653
S'SERVER_PROTOCOL'
p2654
asbag57
(g78
g59
NtRp2655
(dp2656
g62
(dp2657
g89
g90
ssg71
g2646
sg64
(lp2658
S':'
asbag57
(g78
g59
NtRp2659
(dp2660
g62
(dp2661
sg71
g2646
sg64
(lp2662
g57
(g58
g59
NtRp2663
(dp2664
g62
(dp2665
g70
I3
ssg71
g2659
sg64
(lp2666
g1253
asbasbasbag57
(g73
g59
NtRp2667
(dp2668
g62
(dp2669
sg71
g2264
sg64
(lp2670
g57
(g78
g59
NtRp2671
(dp2672
g62
(dp2673
g82
g83
ssg71
g2667
sg64
(lp2674
S'SERVER_SOFTWARE'
p2675
asbag57
(g78
g59
NtRp2676
(dp2677
g62
(dp2678
g89
g90
ssg71
g2667
sg64
(lp2679
S':'
asbag57
(g78
g59
NtRp2680
(dp2681
g62
(dp2682
sg71
g2667
sg64
(lp2683
g57
(g58
g59
NtRp2684
(dp2685
g62
(dp2686
g70
I3
ssg71
g2680
sg64
(lp2687
g1275
asbasbasbag57
(g73
g59
NtRp2688
(dp2689
g62
(dp2690
sg71
g2264
sg64
(lp2691
g57
(g78
g59
NtRp2692
(dp2693
g62
(dp2694
g82
g83
ssg71
g2688
sg64
(lp2695
S'wsgi.errors'
p2696
asbag57
(g78
g59
NtRp2697
(dp2698
g62
(dp2699
g89
g90
ssg71
g2688
sg64
(lp2700
S':'
asbag57
(g78
g59
NtRp2701
(dp2702
g62
(dp2703
sg71
g2688
sg64
(lp2704
g57
(g58
g59
NtRp2705
(dp2706
g62
(dp2707
g70
I3
ssg71
g2701
sg64
(lp2708
S"<open file '<stderr>', mode 'w' at 0x7fb75e7a21e0>"
p2709
asbasbasbag57
(g73
g59
NtRp2710
(dp2711
g62
(dp2712
sg71
g2264
sg64
(lp2713
g57
(g78
g59
NtRp2714
(dp2715
g62
(dp2716
g82
g83
ssg71
g2710
sg64
(lp2717
S'wsgi.file_wrapper'
p2718
asbag57
(g78
g59
NtRp2719
(dp2720
g62
(dp2721
g89
g90
ssg71
g2710
sg64
(lp2722
S':'
asbag57
(g78
g59
NtRp2723
(dp2724
g62
(dp2725
sg71
g2710
sg64
(lp2726
g57
(g58
g59
NtRp2727
(dp2728
g62
(dp2729
g70
I3
ssg71
g2723
sg64
(lp2730
S'<class wsgiref.util.FileWrapper at 0x212a7d0>'
p2731
asbasbasbag57
(g73
g59
NtRp2732
(dp2733
g62
(dp2734
sg71
g2264
sg64
(lp2735
g57
(g78
g59
NtRp2736
(dp2737
g62
(dp2738
g82
g83
ssg71
g2732
sg64
(lp2739
S'wsgi.input'
p2740
asbag57
(g78
g59
NtRp2741
(dp2742
g62
(dp2743
g89
g90
ssg71
g2732
sg64
(lp2744
S':'
asbag57
(g78
g59
NtRp2745
(dp2746
g62
(dp2747
sg71
g2732
sg64
(lp2748
g57
(g58
g59
NtRp2749
(dp2750
g62
(dp2751
g70
I3
ssg71
g2745
sg64
(lp2752
S'<cStringIO.StringO object at 0x2c12c38>'
p2753
asbasbasbag57
(g73
g59
NtRp2754
(dp2755
g62
(dp2756
sg71
g2264
sg64
(lp2757
g57
(g78
g59
NtRp2758
(dp2759
g62
(dp2760
g82
g83
ssg71
g2754
sg64
(lp2761
S'wsgi.multiprocess'
p2762
asbag57
(g78
g59
NtRp2763
(dp2764
g62
(dp2765
g89
g90
ssg71
g2754
sg64
(lp2766
S':'
asbag57
(g78
g59
NtRp2767
(dp2768
g62
(dp2769
sg71
g2754
sg64
(lp2770
g57
(g58
g59
NtRp2771
(dp2772
g62
(dp2773
g70
I3
ssg71
g2767
sg64
(lp2774
g100
asbasbasbag57
(g73
g59
NtRp2775
(dp2776
g62
(dp2777
sg71
g2264
sg64
(lp2778
g57
(g78
g59
NtRp2779
(dp2780
g62
(dp2781
g82
g83
ssg71
g2775
sg64
(lp2782
S'wsgi.multithread'
p2783
asbag57
(g78
g59
NtRp2784
(dp2785
g62
(dp2786
g89
g90
ssg71
g2775
sg64
(lp2787
S':'
asbag57
(g78
g59
NtRp2788
(dp2789
g62
(dp2790
sg71
g2775
sg64
(lp2791
g57
(g58
g59
NtRp2792
(dp2793
g62
(dp2794
g70
I3
ssg71
g2788
sg64
(lp2795
g1515
asbasbasbag57
(g73
g59
NtRp2796
(dp2797
g62
(dp2798
sg71
g2264
sg64
(lp2799
g57
(g78
g59
NtRp2800
(dp2801
g62
(dp2802
g82
g83
ssg71
g2796
sg64
(lp2803
S'wsgi.run_once'
p2804
asbag57
(g78
g59
NtRp2805
(dp2806
g62
(dp2807
g89
g90
ssg71
g2796
sg64
(lp2808
S':'
asbag57
(g78
g59
NtRp2809
(dp2810
g62
(dp2811
sg71
g2796
sg64
(lp2812
g57
(g58
g59
NtRp2813
(dp2814
g62
(dp2815
g70
I3
ssg71
g2809
sg64
(lp2816
g100
asbasbasbag57
(g73
g59
NtRp2817
(dp2818
g62
(dp2819
sg71
g2264
sg64
(lp2820
g57
(g78
g59
NtRp2821
(dp2822
g62
(dp2823
g82
g83
ssg71
g2817
sg64
(lp2824
S'wsgi.url_scheme'
p2825
asbag57
(g78
g59
NtRp2826
(dp2827
g62
(dp2828
g89
g90
ssg71
g2817
sg64
(lp2829
S':'
asbag57
(g78
g59
NtRp2830
(dp2831
g62
(dp2832
sg71
g2817
sg64
(lp2833
g57
(g58
g59
NtRp2834
(dp2835
g62
(dp2836
g70
I3
ssg71
g2830
sg64
(lp2837
g1558
asbasbasbag57
(g73
g59
NtRp2838
(dp2839
g62
(dp2840
sg71
g2264
sg64
(lp2841
g57
(g78
g59
NtRp2842
(dp2843
g62
(dp2844
g82
g83
ssg71
g2838
sg64
(lp2845
S'wsgi.version'
p2846
asbag57
(g78
g59
NtRp2847
(dp2848
g62
(dp2849
g89
g90
ssg71
g2838
sg64
(lp2850
S':'
asbag57
(g78
g59
NtRp2851
(dp2852
g62
(dp2853
sg71
g2838
sg64
(lp2854
g57
(g58
g59
NtRp2855
(dp2856
g62
(dp2857
g70
I3
ssg71
g2851
sg64
(lp2858
S'1'
asbasbasbasbasbasbasbasbasbasbasbasbasbsS'frames'
p2859
(lp2860
(dp2861
S'file'
p2862
S'/home/rohitraj/Desktop/web2py/gluon/restricted.py'
p2863
sS'dump'
p2864
(dp2865
S'environment'
p2866
S"{'A': <class 'gluon.html.A'>, 'Auth': <class 'gluon.tools.Auth'>, 'B': <class 'gluon.html.B'>, 'BEAUTIFY': <class 'gluon.html.BEAUTIFY'>, 'BODY': <class 'gluon.html.BODY'>, 'BR': <class 'gluon.html.BR'>, 'BUTTON': <class 'gluon.html.BUTTON'>, 'CAT': <class 'gluon.html.CAT'>, 'CENTER': <class 'gluon.html.CENTER'>, 'CLEANUP': <class 'gluon.validators.CLEANUP'>, ...}"
p2867
sS'ccode'
p2868
S'<code object <module> at 0x2dea030, file "/home/...ions/themishrms/controllers/default.py", line 12>'
p2869
ssS'lnum'
p2870
I205
sS'lines'
p2871
(dp2872
I200
S'    try:'
p2873
sI201
S'        if type(code) == types.CodeType:'
p2874
sI202
S'            ccode = code'
p2875
sI203
S'        else:'
p2876
sI204
S'            ccode = compile2(code,layer)'
p2877
sI205
S'        exec ccode in environment'
p2878
sI206
S'    except HTTP:'
p2879
sI207
S'        raise'
p2880
sI208
S'    except RestrictedError:'
p2881
sI209
S'        # do not encapsulate (obfuscate) the original RestrictedError'
p2882
ssS'call'
p2883
S"(code='# -*- coding: utf-8 -*-\\n# this file is released ...\\nresponse._vars=response._caller(user_timesheet)\\n', environment={'A': <class 'gluon.html.A'>, 'Auth': <class 'gluon.tools.Auth'>, 'B': <class 'gluon.html.B'>, 'BEAUTIFY': <class 'gluon.html.BEAUTIFY'>, 'BODY': <class 'gluon.html.BODY'>, 'BR': <class 'gluon.html.BR'>, 'BUTTON': <class 'gluon.html.BUTTON'>, 'CAT': <class 'gluon.html.CAT'>, 'CENTER': <class 'gluon.html.CENTER'>, 'CLEANUP': <class 'gluon.validators.CLEANUP'>, ...}, layer='/home/rohitraj/Desktop/web2py/applications/themishrms/controllers/default.py')"
p2884
sS'func'
p2885
S'restricted'
p2886
sa(dp2887
g2862
S'/home/rohitraj/Desktop/web2py/applications/themishrms/controllers/default.py'
p2888
sg2864
(dp2889
sg2870
I1309
sg2871
(dp2890
I1298
S'\tfor row2 in db(db.image.email == auth.user.email).select():'
p2891
sI1299
S'\t\timages=row2.image'
p2892
sI1300
S''
sI1301
S'\tllgin=[]'
p2893
sI1302
S"\tfor log in db(db.employee_login_detail.employee_logout_date=='Logged in').select():"
p2894
sI1303
S'\t\tllgin.append(log.employee_name)'
p2895
sI1304
S'\tblgin=set(llgin)'
p2896
sI1305
S'\talgin=list(blgin)'
p2897
sI1306
S'\treturn dict(images=images,algin=algin)'
p2898
sI1307
S''
ssg2883
S'()'
p2899
sg2885
S'<module>'
p2900
sa(dp2901
g2862
S'/home/rohitraj/Desktop/web2py/gluon/globals.py'
p2902
sg2864
(dp2903
S'self'
p2904
S'undefined'
p2905
sS'f'
S'<function user_timesheet>'
p2906
ssg2870
I173
sg2871
(dp2907
I168
S'        self.menu = []             # used by the default view layout'
p2908
sI169
S'        self.files = []            # used by web2py_ajax.html'
p2909
sI170
S'        self.generic_patterns = [] # patterns to allow generic views'
p2910
sI171
S"        self.delimiters = ('{{','}}')"
p2911
sI172
S'        self._vars = None'
p2912
sI173
S'        self._caller = lambda f: f()'
p2913
sI174
S'        self._view_environment = None'
p2914
sI175
S'        self._custom_commit = None'
p2915
sI176
S'        self._custom_rollback = None'
p2916
sI177
S''
ssg2883
S'(f=<function user_timesheet>)'
p2917
sg2885
S'<lambda>'
p2918
sa(dp2919
g2862
S'/home/rohitraj/Desktop/web2py/applications/themishrms/controllers/default.py'
p2920
sg2864
(dp2921
S'row2'
p2922
g2905
sS'auth.user'
p2923
S'None'
p2924
sS'global auth'
p2925
S'<gluon.tools.Auth object>'
p2926
sS'auth.user.email'
p2927
g2905
sS'db.image.email'
p2928
S'<gluon.dal.Field object>'
p2929
sS'global db'
p2930
S"<DAL {'auth_event': <Table {'origin': <gluon.dal...2b59150>, '_singular': 'Add new organization'}>}>"
p2931
sS'db.image'
p2932
S"<Table {'ALL': <gluon.dal.SQLALL object at 0x2b5...0>, 'id': <gluon.dal.Field object at 0x2b5a4d0>}>"
p2933
ssg2870
I1298
sg2871
(dp2934
I1293
S"\tredirect(URL(c='default',f='emp_leave_stat'))"
p2935
sI1294
S"\treturn ''"
p2936
sI1295
S''
sI1296
S''
sI1297
S'def user_timesheet():'
p2937
sI1298
S'\tfor row2 in db(db.image.email == auth.user.email).select():'
p2938
sI1299
S'\t\timages=row2.image'
p2939
sI1300
S''
sI1301
S'\tllgin=[]'
p2940
sI1302
S"\tfor log in db(db.employee_login_detail.employee_logout_date=='Logged in').select():"
p2941
ssg2883
S'()'
p2942
sg2885
S'user_timesheet'
p2943
sasS'pyver'
p2944
S'Python 2.6.5: /usr/bin/python'
p2945
sS'session'
p2946
g57
(g58
g59
NtRp2947
(dp2948
g62
(dp2949
sg64
(lp2950
g57
(g66
g59
NtRp2951
(dp2952
g62
(dp2953
g70
I5
ssg71
Nsg64
(lp2954
g57
(g73
g59
NtRp2955
(dp2956
g62
(dp2957
sg71
g2951
sg64
(lp2958
g57
(g78
g59
NtRp2959
(dp2960
g62
(dp2961
g82
g83
ssg71
g2955
sg64
(lp2962
S'flash'
p2963
asbag57
(g78
g59
NtRp2964
(dp2965
g62
(dp2966
g89
g90
ssg71
g2955
sg64
(lp2967
S':'
asbag57
(g78
g59
NtRp2968
(dp2969
g62
(dp2970
sg71
g2955
sg64
(lp2971
g57
(g58
g59
NtRp2972
(dp2973
g62
(dp2974
g70
I5
ssg71
g2968
sg64
(lp2975
S''
asbasbasbasbasbsS'etype'
p2976
S"<type 'exceptions.AttributeError'>"
p2977
sS'date'
p2978
S'Thu May  3 16:03:23 2012'
p2979
sS'response'
p2980
g57
(g58
g59
NtRp2981
(dp2982
g62
(dp2983
sg64
(lp2984
g57
(g66
g59
NtRp2985
(dp2986
g62
(dp2987
g70
I5
ssg71
Nsg64
(lp2988
g57
(g73
g59
NtRp2989
(dp2990
g62
(dp2991
sg71
g2985
sg64
(lp2992
g57
(g78
g59
NtRp2993
(dp2994
g62
(dp2995
g82
g83
ssg71
g2989
sg64
(lp2996
S'atlsmenu'
p2997
asbag57
(g78
g59
NtRp2998
(dp2999
g62
(dp3000
g89
g90
ssg71
g2989
sg64
(lp3001
S':'
asbag57
(g78
g59
NtRp3002
(dp3003
g62
(dp3004
sg71
g2989
sg64
(lp3005
g57
(g58
g59
NtRp3006
(dp3007
g62
(dp3008
g70
I5
ssg71
g3002
sg64
(lp3009
g57
(g66
g59
NtRp3010
(dp3011
g62
(dp3012
g70
I4
ssg71
Nsg64
(lp3013
g57
(g73
g59
NtRp3014
(dp3015
g62
(dp3016
sg71
g3010
sg64
(lp3017
g57
(g78
g59
NtRp3018
(dp3019
g62
(dp3020
sg71
g3014
sg64
(lp3021
g57
(g58
g59
NtRp3022
(dp3023
g62
(dp3024
g70
I4
ssg71
g3018
sg64
(lp3025
g57
(g66
g59
NtRp3026
(dp3027
g62
(dp3028
g70
I3
ssg71
Nsg64
(lp3029
g57
(g73
g59
NtRp3030
(dp3031
g62
(dp3032
sg71
g3026
sg64
(lp3033
g57
(g78
g59
NtRp3034
(dp3035
g62
(dp3036
sg71
g3030
sg64
(lp3037
g57
(g58
g59
NtRp3038
(dp3039
g62
(dp3040
g70
I3
ssg71
g3034
sg64
(lp3041
cgluon.languages
lazyT_unpickle
p3042
(S's\x07\x00\x00\x00Website'
tRp3043
asbasbasbag57
(g73
g59
NtRp3044
(dp3045
g62
(dp3046
sg71
g3026
sg64
(lp3047
g57
(g78
g59
NtRp3048
(dp3049
g62
(dp3050
sg71
g3044
sg64
(lp3051
g57
(g58
g59
NtRp3052
(dp3053
g62
(dp3054
g70
I3
ssg71
g3048
sg64
(lp3055
g100
asbasbasbag57
(g73
g59
NtRp3056
(dp3057
g62
(dp3058
sg71
g3026
sg64
(lp3059
g57
(g78
g59
NtRp3060
(dp3061
g62
(dp3062
sg71
g3056
sg64
(lp3063
g57
(g58
g59
NtRp3064
(dp3065
g62
(dp3066
g70
I3
ssg71
g3060
sg64
(lp3067
S'/themishrms/default/index'
p3068
asbasbasbag57
(g73
g59
NtRp3069
(dp3070
g62
(dp3071
sg71
g3026
sg64
(lp3072
g57
(g78
g59
NtRp3073
(dp3074
g62
(dp3075
sg71
g3069
sg64
(lp3076
g57
(g58
g59
NtRp3077
(dp3078
g62
(dp3079
g70
I3
ssg71
g3073
sg64
(lp3080
g57
(g66
g59
NtRp3081
(dp3082
g62
(dp3083
g70
I2
ssg71
Nsg64
(lp3084
sbasbasbasbasbasbasbasbag57
(g73
g59
NtRp3085
(dp3086
g62
(dp3087
sg71
g3010
sg64
(lp3088
g57
(g78
g59
NtRp3089
(dp3090
g62
(dp3091
sg71
g3085
sg64
(lp3092
g57
(g58
g59
NtRp3093
(dp3094
g62
(dp3095
g70
I4
ssg71
g3089
sg64
(lp3096
g57
(g66
g59
NtRp3097
(dp3098
g62
(dp3099
g70
I3
ssg71
Nsg64
(lp3100
g57
(g73
g59
NtRp3101
(dp3102
g62
(dp3103
sg71
g3097
sg64
(lp3104
g57
(g78
g59
NtRp3105
(dp3106
g62
(dp3107
sg71
g3101
sg64
(lp3108
g57
(g58
g59
NtRp3109
(dp3110
g62
(dp3111
g70
I3
ssg71
g3105
sg64
(lp3112
g3042
(S's\x07\x00\x00\x00Webmail'
tRp3113
asbasbasbag57
(g73
g59
NtRp3114
(dp3115
g62
(dp3116
sg71
g3097
sg64
(lp3117
g57
(g78
g59
NtRp3118
(dp3119
g62
(dp3120
sg71
g3114
sg64
(lp3121
g57
(g58
g59
NtRp3122
(dp3123
g62
(dp3124
g70
I3
ssg71
g3118
sg64
(lp3125
g100
asbasbasbag57
(g73
g59
NtRp3126
(dp3127
g62
(dp3128
sg71
g3097
sg64
(lp3129
g57
(g78
g59
NtRp3130
(dp3131
g62
(dp3132
sg71
g3126
sg64
(lp3133
g57
(g58
g59
NtRp3134
(dp3135
g62
(dp3136
g70
I3
ssg71
g3130
sg64
(lp3137
S'/themishrms/default/#'
p3138
asbasbasbag57
(g73
g59
NtRp3139
(dp3140
g62
(dp3141
sg71
g3097
sg64
(lp3142
g57
(g78
g59
NtRp3143
(dp3144
g62
(dp3145
sg71
g3139
sg64
(lp3146
g57
(g58
g59
NtRp3147
(dp3148
g62
(dp3149
g70
I3
ssg71
g3143
sg64
(lp3150
g57
(g66
g59
NtRp3151
(dp3152
g62
(dp3153
g70
I2
ssg71
Nsg64
(lp3154
sbasbasbasbasbasbasbasbag57
(g73
g59
NtRp3155
(dp3156
g62
(dp3157
sg71
g3010
sg64
(lp3158
g57
(g78
g59
NtRp3159
(dp3160
g62
(dp3161
sg71
g3155
sg64
(lp3162
g57
(g58
g59
NtRp3163
(dp3164
g62
(dp3165
g70
I4
ssg71
g3159
sg64
(lp3166
g57
(g66
g59
NtRp3167
(dp3168
g62
(dp3169
g70
I3
ssg71
Nsg64
(lp3170
g57
(g73
g59
NtRp3171
(dp3172
g62
(dp3173
sg71
g3167
sg64
(lp3174
g57
(g78
g59
NtRp3175
(dp3176
g62
(dp3177
sg71
g3171
sg64
(lp3178
g57
(g58
g59
NtRp3179
(dp3180
g62
(dp3181
g70
I3
ssg71
g3175
sg64
(lp3182
g3042
(S's\r\x00\x00\x00Themis Portal'
tRp3183
asbasbasbag57
(g73
g59
NtRp3184
(dp3185
g62
(dp3186
sg71
g3167
sg64
(lp3187
g57
(g78
g59
NtRp3188
(dp3189
g62
(dp3190
sg71
g3184
sg64
(lp3191
g57
(g58
g59
NtRp3192
(dp3193
g62
(dp3194
g70
I3
ssg71
g3188
sg64
(lp3195
g100
asbasbasbag57
(g73
g59
NtRp3196
(dp3197
g62
(dp3198
sg71
g3167
sg64
(lp3199
g57
(g78
g59
NtRp3200
(dp3201
g62
(dp3202
sg71
g3196
sg64
(lp3203
g57
(g58
g59
NtRp3204
(dp3205
g62
(dp3206
g70
I3
ssg71
g3200
sg64
(lp3207
S'/themishrms/default/#'
p3208
asbasbasbag57
(g73
g59
NtRp3209
(dp3210
g62
(dp3211
sg71
g3167
sg64
(lp3212
g57
(g78
g59
NtRp3213
(dp3214
g62
(dp3215
sg71
g3209
sg64
(lp3216
g57
(g58
g59
NtRp3217
(dp3218
g62
(dp3219
g70
I3
ssg71
g3213
sg64
(lp3220
g57
(g66
g59
NtRp3221
(dp3222
g62
(dp3223
g70
I2
ssg71
Nsg64
(lp3224
sbasbasbasbasbasbasbasbag57
(g73
g59
NtRp3225
(dp3226
g62
(dp3227
sg71
g3010
sg64
(lp3228
g57
(g78
g59
NtRp3229
(dp3230
g62
(dp3231
sg71
g3225
sg64
(lp3232
g57
(g58
g59
NtRp3233
(dp3234
g62
(dp3235
g70
I4
ssg71
g3229
sg64
(lp3236
g57
(g66
g59
NtRp3237
(dp3238
g62
(dp3239
g70
I3
ssg71
Nsg64
(lp3240
g57
(g73
g59
NtRp3241
(dp3242
g62
(dp3243
sg71
g3237
sg64
(lp3244
g57
(g78
g59
NtRp3245
(dp3246
g62
(dp3247
sg71
g3241
sg64
(lp3248
g57
(g58
g59
NtRp3249
(dp3250
g62
(dp3251
g70
I3
ssg71
g3245
sg64
(lp3252
g3042
(S's\x0f\x00\x00\x00Themis Policies'
tRp3253
asbasbasbag57
(g73
g59
NtRp3254
(dp3255
g62
(dp3256
sg71
g3237
sg64
(lp3257
g57
(g78
g59
NtRp3258
(dp3259
g62
(dp3260
sg71
g3254
sg64
(lp3261
g57
(g58
g59
NtRp3262
(dp3263
g62
(dp3264
g70
I3
ssg71
g3258
sg64
(lp3265
g100
asbasbasbag57
(g73
g59
NtRp3266
(dp3267
g62
(dp3268
sg71
g3237
sg64
(lp3269
g57
(g78
g59
NtRp3270
(dp3271
g62
(dp3272
sg71
g3266
sg64
(lp3273
g57
(g58
g59
NtRp3274
(dp3275
g62
(dp3276
g70
I3
ssg71
g3270
sg64
(lp3277
S'/themishrms/default/add_project'
p3278
asbasbasbag57
(g73
g59
NtRp3279
(dp3280
g62
(dp3281
sg71
g3237
sg64
(lp3282
g57
(g78
g59
NtRp3283
(dp3284
g62
(dp3285
sg71
g3279
sg64
(lp3286
g57
(g58
g59
NtRp3287
(dp3288
g62
(dp3289
g70
I3
ssg71
g3283
sg64
(lp3290
g57
(g66
g59
NtRp3291
(dp3292
g62
(dp3293
g70
I2
ssg71
Nsg64
(lp3294
sbasbasbasbasbasbasbasbag57
(g73
g59
NtRp3295
(dp3296
g62
(dp3297
sg71
g3010
sg64
(lp3298
g57
(g78
g59
NtRp3299
(dp3300
g62
(dp3301
sg71
g3295
sg64
(lp3302
g57
(g58
g59
NtRp3303
(dp3304
g62
(dp3305
g70
I4
ssg71
g3299
sg64
(lp3306
g57
(g66
g59
NtRp3307
(dp3308
g62
(dp3309
g70
I3
ssg71
Nsg64
(lp3310
g57
(g73
g59
NtRp3311
(dp3312
g62
(dp3313
sg71
g3307
sg64
(lp3314
g57
(g78
g59
NtRp3315
(dp3316
g62
(dp3317
sg71
g3311
sg64
(lp3318
g57
(g58
g59
NtRp3319
(dp3320
g62
(dp3321
g70
I3
ssg71
g3315
sg64
(lp3322
g3042
(S's\x0f\x00\x00\x00Contact Details'
tRp3323
asbasbasbag57
(g73
g59
NtRp3324
(dp3325
g62
(dp3326
sg71
g3307
sg64
(lp3327
g57
(g78
g59
NtRp3328
(dp3329
g62
(dp3330
sg71
g3324
sg64
(lp3331
g57
(g58
g59
NtRp3332
(dp3333
g62
(dp3334
g70
I3
ssg71
g3328
sg64
(lp3335
g100
asbasbasbag57
(g73
g59
NtRp3336
(dp3337
g62
(dp3338
sg71
g3307
sg64
(lp3339
g57
(g78
g59
NtRp3340
(dp3341
g62
(dp3342
sg71
g3336
sg64
(lp3343
g57
(g58
g59
NtRp3344
(dp3345
g62
(dp3346
g70
I3
ssg71
g3340
sg64
(lp3347
S'/themishrms/default/admin_contact_detail'
p3348
asbasbasbag57
(g73
g59
NtRp3349
(dp3350
g62
(dp3351
sg71
g3307
sg64
(lp3352
g57
(g78
g59
NtRp3353
(dp3354
g62
(dp3355
sg71
g3349
sg64
(lp3356
g57
(g58
g59
NtRp3357
(dp3358
g62
(dp3359
g70
I3
ssg71
g3353
sg64
(lp3360
g57
(g66
g59
NtRp3361
(dp3362
g62
(dp3363
g70
I2
ssg71
Nsg64
(lp3364
sbasbasbasbasbasbasbasbasbasbasbasbag57
(g73
g59
NtRp3365
(dp3366
g62
(dp3367
sg71
g2985
sg64
(lp3368
g57
(g78
g59
NtRp3369
(dp3370
g62
(dp3371
g82
g83
ssg71
g3365
sg64
(lp3372
g155
asbag57
(g78
g59
NtRp3373
(dp3374
g62
(dp3375
g89
g90
ssg71
g3365
sg64
(lp3376
S':'
asbag57
(g78
g59
NtRp3377
(dp3378
g62
(dp3379
sg71
g3365
sg64
(lp3380
g57
(g58
g59
NtRp3381
(dp3382
g62
(dp3383
g70
I5
ssg71
g3377
sg64
(lp3384
S'<cStringIO.StringO object at 0x2c124c8>'
p3385
asbasbasbag57
(g73
g59
NtRp3386
(dp3387
g62
(dp3388
sg71
g2985
sg64
(lp3389
g57
(g78
g59
NtRp3390
(dp3391
g62
(dp3392
g82
g83
ssg71
g3386
sg64
(lp3393
g221
asbag57
(g78
g59
NtRp3394
(dp3395
g62
(dp3396
g89
g90
ssg71
g3386
sg64
(lp3397
S':'
asbag57
(g78
g59
NtRp3398
(dp3399
g62
(dp3400
sg71
g3386
sg64
(lp3401
g57
(g58
g59
NtRp3402
(dp3403
g62
(dp3404
g70
I5
ssg71
g3398
sg64
(lp3405
g57
(g66
g59
NtRp3406
(dp3407
g62
(dp3408
g70
I4
ssg71
Nsg64
(lp3409
g57
(g73
g59
NtRp3410
(dp3411
g62
(dp3412
sg71
g3406
sg64
(lp3413
g57
(g78
g59
NtRp3414
(dp3415
g62
(dp3416
g82
g83
ssg71
g3410
sg64
(lp3417
S'session_id_themishrms'
p3418
asbag57
(g78
g59
NtRp3419
(dp3420
g62
(dp3421
g89
g90
ssg71
g3410
sg64
(lp3422
S':'
asbag57
(g78
g59
NtRp3423
(dp3424
g62
(dp3425
sg71
g3410
sg64
(lp3426
g57
(g58
g59
NtRp3427
(dp3428
g62
(dp3429
g70
I4
ssg71
g3423
sg64
(lp3430
g57
(g66
g59
NtRp3431
(dp3432
g62
(dp3433
g70
I3
ssg71
Nsg64
(lp3434
g57
(g73
g59
NtRp3435
(dp3436
g62
(dp3437
sg71
g3431
sg64
(lp3438
g57
(g78
g59
NtRp3439
(dp3440
g62
(dp3441
g82
g83
ssg71
g3435
sg64
(lp3442
g271
asbag57
(g78
g59
NtRp3443
(dp3444
g62
(dp3445
g89
g90
ssg71
g3435
sg64
(lp3446
S':'
asbag57
(g78
g59
NtRp3447
(dp3448
g62
(dp3449
sg71
g3435
sg64
(lp3450
g57
(g58
g59
NtRp3451
(dp3452
g62
(dp3453
g70
I3
ssg71
g3447
sg64
(lp3454
S''
asbasbasbag57
(g73
g59
NtRp3455
(dp3456
g62
(dp3457
sg71
g3431
sg64
(lp3458
g57
(g78
g59
NtRp3459
(dp3460
g62
(dp3461
g82
g83
ssg71
g3455
sg64
(lp3462
g292
asbag57
(g78
g59
NtRp3463
(dp3464
g62
(dp3465
g89
g90
ssg71
g3455
sg64
(lp3466
S':'
asbag57
(g78
g59
NtRp3467
(dp3468
g62
(dp3469
sg71
g3455
sg64
(lp3470
g57
(g58
g59
NtRp3471
(dp3472
g62
(dp3473
g70
I3
ssg71
g3467
sg64
(lp3474
S''
asbasbasbag57
(g73
g59
NtRp3475
(dp3476
g62
(dp3477
sg71
g3431
sg64
(lp3478
g57
(g78
g59
NtRp3479
(dp3480
g62
(dp3481
g82
g83
ssg71
g3475
sg64
(lp3482
g313
asbag57
(g78
g59
NtRp3483
(dp3484
g62
(dp3485
g89
g90
ssg71
g3475
sg64
(lp3486
S':'
asbag57
(g78
g59
NtRp3487
(dp3488
g62
(dp3489
sg71
g3475
sg64
(lp3490
g57
(g58
g59
NtRp3491
(dp3492
g62
(dp3493
g70
I3
ssg71
g3487
sg64
(lp3494
S''
asbasbasbag57
(g73
g59
NtRp3495
(dp3496
g62
(dp3497
sg71
g3431
sg64
(lp3498
g57
(g78
g59
NtRp3499
(dp3500
g62
(dp3501
g82
g83
ssg71
g3495
sg64
(lp3502
g334
asbag57
(g78
g59
NtRp3503
(dp3504
g62
(dp3505
g89
g90
ssg71
g3495
sg64
(lp3506
S':'
asbag57
(g78
g59
NtRp3507
(dp3508
g62
(dp3509
sg71
g3495
sg64
(lp3510
g57
(g58
g59
NtRp3511
(dp3512
g62
(dp3513
g70
I3
ssg71
g3507
sg64
(lp3514
S''
asbasbasbag57
(g73
g59
NtRp3515
(dp3516
g62
(dp3517
sg71
g3431
sg64
(lp3518
g57
(g78
g59
NtRp3519
(dp3520
g62
(dp3521
g82
g83
ssg71
g3515
sg64
(lp3522
g355
asbag57
(g78
g59
NtRp3523
(dp3524
g62
(dp3525
g89
g90
ssg71
g3515
sg64
(lp3526
S':'
asbag57
(g78
g59
NtRp3527
(dp3528
g62
(dp3529
sg71
g3515
sg64
(lp3530
g57
(g58
g59
NtRp3531
(dp3532
g62
(dp3533
g70
I3
ssg71
g3527
sg64
(lp3534
S''
asbasbasbag57
(g73
g59
NtRp3535
(dp3536
g62
(dp3537
sg71
g3431
sg64
(lp3538
g57
(g78
g59
NtRp3539
(dp3540
g62
(dp3541
g82
g83
ssg71
g3535
sg64
(lp3542
g376
asbag57
(g78
g59
NtRp3543
(dp3544
g62
(dp3545
g89
g90
ssg71
g3535
sg64
(lp3546
S':'
asbag57
(g78
g59
NtRp3547
(dp3548
g62
(dp3549
sg71
g3535
sg64
(lp3550
g57
(g58
g59
NtRp3551
(dp3552
g62
(dp3553
g70
I3
ssg71
g3547
sg64
(lp3554
S'/'
asbasbasbag57
(g73
g59
NtRp3555
(dp3556
g62
(dp3557
sg71
g3431
sg64
(lp3558
g57
(g78
g59
NtRp3559
(dp3560
g62
(dp3561
g82
g83
ssg71
g3555
sg64
(lp3562
g397
asbag57
(g78
g59
NtRp3563
(dp3564
g62
(dp3565
g89
g90
ssg71
g3555
sg64
(lp3566
S':'
asbag57
(g78
g59
NtRp3567
(dp3568
g62
(dp3569
sg71
g3555
sg64
(lp3570
g57
(g58
g59
NtRp3571
(dp3572
g62
(dp3573
g70
I3
ssg71
g3567
sg64
(lp3574
S''
asbasbasbag57
(g73
g59
NtRp3575
(dp3576
g62
(dp3577
sg71
g3431
sg64
(lp3578
g57
(g78
g59
NtRp3579
(dp3580
g62
(dp3581
g82
g83
ssg71
g3575
sg64
(lp3582
g418
asbag57
(g78
g59
NtRp3583
(dp3584
g62
(dp3585
g89
g90
ssg71
g3575
sg64
(lp3586
S':'
asbag57
(g78
g59
NtRp3587
(dp3588
g62
(dp3589
sg71
g3575
sg64
(lp3590
g57
(g58
g59
NtRp3591
(dp3592
g62
(dp3593
g70
I3
ssg71
g3587
sg64
(lp3594
S''
asbasbasbasbasbasbasbasbasbasbasbag57
(g73
g59
NtRp3595
(dp3596
g62
(dp3597
sg71
g2985
sg64
(lp3598
g57
(g78
g59
NtRp3599
(dp3600
g62
(dp3601
g82
g83
ssg71
g3595
sg64
(lp3602
S'delimiters'
p3603
asbag57
(g78
g59
NtRp3604
(dp3605
g62
(dp3606
g89
g90
ssg71
g3595
sg64
(lp3607
S':'
asbag57
(g78
g59
NtRp3608
(dp3609
g62
(dp3610
sg71
g3595
sg64
(lp3611
g57
(g58
g59
NtRp3612
(dp3613
g62
(dp3614
g70
I5
ssg71
g3608
sg64
(lp3615
g57
(g66
g59
NtRp3616
(dp3617
g62
(dp3618
g70
I4
ssg71
Nsg64
(lp3619
g57
(g73
g59
NtRp3620
(dp3621
g62
(dp3622
sg71
g3616
sg64
(lp3623
g57
(g78
g59
NtRp3624
(dp3625
g62
(dp3626
sg71
g3620
sg64
(lp3627
g57
(g58
g59
NtRp3628
(dp3629
g62
(dp3630
g70
I4
ssg71
g3624
sg64
(lp3631
S'{{'
p3632
asbasbasbag57
(g73
g59
NtRp3633
(dp3634
g62
(dp3635
sg71
g3616
sg64
(lp3636
g57
(g78
g59
NtRp3637
(dp3638
g62
(dp3639
sg71
g3633
sg64
(lp3640
g57
(g58
g59
NtRp3641
(dp3642
g62
(dp3643
g70
I4
ssg71
g3637
sg64
(lp3644
S'}}'
p3645
asbasbasbasbasbasbasbag57
(g73
g59
NtRp3646
(dp3647
g62
(dp3648
sg71
g2985
sg64
(lp3649
g57
(g78
g59
NtRp3650
(dp3651
g62
(dp3652
g82
g83
ssg71
g3646
sg64
(lp3653
S'files'
p3654
asbag57
(g78
g59
NtRp3655
(dp3656
g62
(dp3657
g89
g90
ssg71
g3646
sg64
(lp3658
S':'
asbag57
(g78
g59
NtRp3659
(dp3660
g62
(dp3661
sg71
g3646
sg64
(lp3662
g57
(g58
g59
NtRp3663
(dp3664
g62
(dp3665
g70
I5
ssg71
g3659
sg64
(lp3666
g57
(g66
g59
NtRp3667
(dp3668
g62
(dp3669
g70
I4
ssg71
Nsg64
(lp3670
sbasbasbasbag57
(g73
g59
NtRp3671
(dp3672
g62
(dp3673
sg71
g2985
sg64
(lp3674
g57
(g78
g59
NtRp3675
(dp3676
g62
(dp3677
g82
g83
ssg71
g3671
sg64
(lp3678
S'flash'
p3679
asbag57
(g78
g59
NtRp3680
(dp3681
g62
(dp3682
g89
g90
ssg71
g3671
sg64
(lp3683
S':'
asbag57
(g78
g59
NtRp3684
(dp3685
g62
(dp3686
sg71
g3671
sg64
(lp3687
g57
(g58
g59
NtRp3688
(dp3689
g62
(dp3690
g70
I5
ssg71
g3684
sg64
(lp3691
S''
asbasbasbag57
(g73
g59
NtRp3692
(dp3693
g62
(dp3694
sg71
g2985
sg64
(lp3695
g57
(g78
g59
NtRp3696
(dp3697
g62
(dp3698
g82
g83
ssg71
g3692
sg64
(lp3699
S'generic_patterns'
p3700
asbag57
(g78
g59
NtRp3701
(dp3702
g62
(dp3703
g89
g90
ssg71
g3692
sg64
(lp3704
S':'
asbag57
(g78
g59
NtRp3705
(dp3706
g62
(dp3707
sg71
g3692
sg64
(lp3708
g57
(g58
g59
NtRp3709
(dp3710
g62
(dp3711
g70
I5
ssg71
g3705
sg64
(lp3712
g57
(g66
g59
NtRp3713
(dp3714
g62
(dp3715
g70
I4
ssg71
Nsg64
(lp3716
g57
(g73
g59
NtRp3717
(dp3718
g62
(dp3719
sg71
g3713
sg64
(lp3720
g57
(g78
g59
NtRp3721
(dp3722
g62
(dp3723
sg71
g3717
sg64
(lp3724
g57
(g58
g59
NtRp3725
(dp3726
g62
(dp3727
g70
I4
ssg71
g3721
sg64
(lp3728
S'*'
asbasbasbasbasbasbasbag57
(g73
g59
NtRp3729
(dp3730
g62
(dp3731
sg71
g2985
sg64
(lp3732
g57
(g78
g59
NtRp3733
(dp3734
g62
(dp3735
g82
g83
ssg71
g3729
sg64
(lp3736
S'headers'
p3737
asbag57
(g78
g59
NtRp3738
(dp3739
g62
(dp3740
g89
g90
ssg71
g3729
sg64
(lp3741
S':'
asbag57
(g78
g59
NtRp3742
(dp3743
g62
(dp3744
sg71
g3729
sg64
(lp3745
g57
(g58
g59
NtRp3746
(dp3747
g62
(dp3748
g70
I5
ssg71
g3742
sg64
(lp3749
g57
(g66
g59
NtRp3750
(dp3751
g62
(dp3752
g70
I4
ssg71
Nsg64
(lp3753
g57
(g73
g59
NtRp3754
(dp3755
g62
(dp3756
sg71
g3750
sg64
(lp3757
g57
(g78
g59
NtRp3758
(dp3759
g62
(dp3760
g82
g83
ssg71
g3754
sg64
(lp3761
S'Cache-Control'
p3762
asbag57
(g78
g59
NtRp3763
(dp3764
g62
(dp3765
g89
g90
ssg71
g3754
sg64
(lp3766
S':'
asbag57
(g78
g59
NtRp3767
(dp3768
g62
(dp3769
sg71
g3754
sg64
(lp3770
g57
(g58
g59
NtRp3771
(dp3772
g62
(dp3773
g70
I4
ssg71
g3767
sg64
(lp3774
S'no-store, no-cache, must-revalidate, post-check=0, pre-check=0'
p3775
asbasbasbag57
(g73
g59
NtRp3776
(dp3777
g62
(dp3778
sg71
g3750
sg64
(lp3779
g57
(g78
g59
NtRp3780
(dp3781
g62
(dp3782
g82
g83
ssg71
g3776
sg64
(lp3783
S'Content-Type'
p3784
asbag57
(g78
g59
NtRp3785
(dp3786
g62
(dp3787
g89
g90
ssg71
g3776
sg64
(lp3788
S':'
asbag57
(g78
g59
NtRp3789
(dp3790
g62
(dp3791
sg71
g3776
sg64
(lp3792
g57
(g58
g59
NtRp3793
(dp3794
g62
(dp3795
g70
I4
ssg71
g3789
sg64
(lp3796
S'text/html; charset=utf-8'
p3797
asbasbasbag57
(g73
g59
NtRp3798
(dp3799
g62
(dp3800
sg71
g3750
sg64
(lp3801
g57
(g78
g59
NtRp3802
(dp3803
g62
(dp3804
g82
g83
ssg71
g3798
sg64
(lp3805
S'Expires'
p3806
asbag57
(g78
g59
NtRp3807
(dp3808
g62
(dp3809
g89
g90
ssg71
g3798
sg64
(lp3810
S':'
asbag57
(g78
g59
NtRp3811
(dp3812
g62
(dp3813
sg71
g3798
sg64
(lp3814
g57
(g58
g59
NtRp3815
(dp3816
g62
(dp3817
g70
I4
ssg71
g3811
sg64
(lp3818
S'Thu, 03 May 2012 10:33:23 GMT'
p3819
asbasbasbag57
(g73
g59
NtRp3820
(dp3821
g62
(dp3822
sg71
g3750
sg64
(lp3823
g57
(g78
g59
NtRp3824
(dp3825
g62
(dp3826
g82
g83
ssg71
g3820
sg64
(lp3827
S'Pragma'
p3828
asbag57
(g78
g59
NtRp3829
(dp3830
g62
(dp3831
g89
g90
ssg71
g3820
sg64
(lp3832
S':'
asbag57
(g78
g59
NtRp3833
(dp3834
g62
(dp3835
sg71
g3820
sg64
(lp3836
g57
(g58
g59
NtRp3837
(dp3838
g62
(dp3839
g70
I4
ssg71
g3833
sg64
(lp3840
S'no-cache'
p3841
asbasbasbag57
(g73
g59
NtRp3842
(dp3843
g62
(dp3844
sg71
g3750
sg64
(lp3845
g57
(g78
g59
NtRp3846
(dp3847
g62
(dp3848
g82
g83
ssg71
g3842
sg64
(lp3849
S'X-Powered-By'
p3850
asbag57
(g78
g59
NtRp3851
(dp3852
g62
(dp3853
g89
g90
ssg71
g3842
sg64
(lp3854
S':'
asbag57
(g78
g59
NtRp3855
(dp3856
g62
(dp3857
sg71
g3842
sg64
(lp3858
g57
(g58
g59
NtRp3859
(dp3860
g62
(dp3861
g70
I4
ssg71
g3855
sg64
(lp3862
S'web2py'
p3863
asbasbasbasbasbasbasbag57
(g73
g59
NtRp3864
(dp3865
g62
(dp3866
sg71
g2985
sg64
(lp3867
g57
(g78
g59
NtRp3868
(dp3869
g62
(dp3870
g82
g83
ssg71
g3864
sg64
(lp3871
S'menu'
p3872
asbag57
(g78
g59
NtRp3873
(dp3874
g62
(dp3875
g89
g90
ssg71
g3864
sg64
(lp3876
S':'
asbag57
(g78
g59
NtRp3877
(dp3878
g62
(dp3879
sg71
g3864
sg64
(lp3880
g57
(g58
g59
NtRp3881
(dp3882
g62
(dp3883
g70
I5
ssg71
g3877
sg64
(lp3884
g57
(g66
g59
NtRp3885
(dp3886
g62
(dp3887
g70
I4
ssg71
Nsg64
(lp3888
g57
(g73
g59
NtRp3889
(dp3890
g62
(dp3891
sg71
g3885
sg64
(lp3892
g57
(g78
g59
NtRp3893
(dp3894
g62
(dp3895
sg71
g3889
sg64
(lp3896
g57
(g58
g59
NtRp3897
(dp3898
g62
(dp3899
g70
I4
ssg71
g3893
sg64
(lp3900
g57
(g66
g59
NtRp3901
(dp3902
g62
(dp3903
g70
I3
ssg71
Nsg64
(lp3904
g57
(g73
g59
NtRp3905
(dp3906
g62
(dp3907
sg71
g3901
sg64
(lp3908
g57
(g78
g59
NtRp3909
(dp3910
g62
(dp3911
sg71
g3905
sg64
(lp3912
g57
(g58
g59
NtRp3913
(dp3914
g62
(dp3915
g70
I3
ssg71
g3909
sg64
(lp3916
g3042
(S's\x04\x00\x00\x00HOME'
tRp3917
asbasbasbag57
(g73
g59
NtRp3918
(dp3919
g62
(dp3920
sg71
g3901
sg64
(lp3921
g57
(g78
g59
NtRp3922
(dp3923
g62
(dp3924
sg71
g3918
sg64
(lp3925
g57
(g58
g59
NtRp3926
(dp3927
g62
(dp3928
g70
I3
ssg71
g3922
sg64
(lp3929
g100
asbasbasbag57
(g73
g59
NtRp3930
(dp3931
g62
(dp3932
sg71
g3901
sg64
(lp3933
g57
(g78
g59
NtRp3934
(dp3935
g62
(dp3936
sg71
g3930
sg64
(lp3937
g57
(g58
g59
NtRp3938
(dp3939
g62
(dp3940
g70
I3
ssg71
g3934
sg64
(lp3941
S'/themishrms/default/index'
p3942
asbasbasbag57
(g73
g59
NtRp3943
(dp3944
g62
(dp3945
sg71
g3901
sg64
(lp3946
g57
(g78
g59
NtRp3947
(dp3948
g62
(dp3949
sg71
g3943
sg64
(lp3950
g57
(g58
g59
NtRp3951
(dp3952
g62
(dp3953
g70
I3
ssg71
g3947
sg64
(lp3954
g57
(g66
g59
NtRp3955
(dp3956
g62
(dp3957
g70
I2
ssg71
Nsg64
(lp3958
sbasbasbasbasbasbasbasbag57
(g73
g59
NtRp3959
(dp3960
g62
(dp3961
sg71
g3885
sg64
(lp3962
g57
(g78
g59
NtRp3963
(dp3964
g62
(dp3965
sg71
g3959
sg64
(lp3966
g57
(g58
g59
NtRp3967
(dp3968
g62
(dp3969
g70
I4
ssg71
g3963
sg64
(lp3970
g57
(g66
g59
NtRp3971
(dp3972
g62
(dp3973
g70
I3
ssg71
Nsg64
(lp3974
g57
(g73
g59
NtRp3975
(dp3976
g62
(dp3977
sg71
g3971
sg64
(lp3978
g57
(g78
g59
NtRp3979
(dp3980
g62
(dp3981
sg71
g3975
sg64
(lp3982
g57
(g58
g59
NtRp3983
(dp3984
g62
(dp3985
g70
I3
ssg71
g3979
sg64
(lp3986
g3042
(S's\t\x00\x00\x00ABOUT US '
tRp3987
asbasbasbag57
(g73
g59
NtRp3988
(dp3989
g62
(dp3990
sg71
g3971
sg64
(lp3991
g57
(g78
g59
NtRp3992
(dp3993
g62
(dp3994
sg71
g3988
sg64
(lp3995
g57
(g58
g59
NtRp3996
(dp3997
g62
(dp3998
g70
I3
ssg71
g3992
sg64
(lp3999
g100
asbasbasbag57
(g73
g59
NtRp4000
(dp4001
g62
(dp4002
sg71
g3971
sg64
(lp4003
g57
(g78
g59
NtRp4004
(dp4005
g62
(dp4006
sg71
g4000
sg64
(lp4007
g57
(g58
g59
NtRp4008
(dp4009
g62
(dp4010
g70
I3
ssg71
g4004
sg64
(lp4011
S'/themishrms/default/tlsabout'
p4012
asbasbasbag57
(g73
g59
NtRp4013
(dp4014
g62
(dp4015
sg71
g3971
sg64
(lp4016
g57
(g78
g59
NtRp4017
(dp4018
g62
(dp4019
sg71
g4013
sg64
(lp4020
g57
(g58
g59
NtRp4021
(dp4022
g62
(dp4023
g70
I3
ssg71
g4017
sg64
(lp4024
g57
(g66
g59
NtRp4025
(dp4026
g62
(dp4027
g70
I2
ssg71
Nsg64
(lp4028
sbasbasbasbasbasbasbasbag57
(g73
g59
NtRp4029
(dp4030
g62
(dp4031
sg71
g3885
sg64
(lp4032
g57
(g78
g59
NtRp4033
(dp4034
g62
(dp4035
sg71
g4029
sg64
(lp4036
g57
(g58
g59
NtRp4037
(dp4038
g62
(dp4039
g70
I4
ssg71
g4033
sg64
(lp4040
g57
(g66
g59
NtRp4041
(dp4042
g62
(dp4043
g70
I3
ssg71
Nsg64
(lp4044
g57
(g73
g59
NtRp4045
(dp4046
g62
(dp4047
sg71
g4041
sg64
(lp4048
g57
(g78
g59
NtRp4049
(dp4050
g62
(dp4051
sg71
g4045
sg64
(lp4052
g57
(g58
g59
NtRp4053
(dp4054
g62
(dp4055
g70
I3
ssg71
g4049
sg64
(lp4056
g3042
(S's\x0f\x00\x00\x00OUR EXPERTISE  '
tRp4057
asbasbasbag57
(g73
g59
NtRp4058
(dp4059
g62
(dp4060
sg71
g4041
sg64
(lp4061
g57
(g78
g59
NtRp4062
(dp4063
g62
(dp4064
sg71
g4058
sg64
(lp4065
g57
(g58
g59
NtRp4066
(dp4067
g62
(dp4068
g70
I3
ssg71
g4062
sg64
(lp4069
g100
asbasbasbag57
(g73
g59
NtRp4070
(dp4071
g62
(dp4072
sg71
g4041
sg64
(lp4073
g57
(g78
g59
NtRp4074
(dp4075
g62
(dp4076
sg71
g4070
sg64
(lp4077
g57
(g58
g59
NtRp4078
(dp4079
g62
(dp4080
g70
I3
ssg71
g4074
sg64
(lp4081
S'/themishrms/default/tlsservice'
p4082
asbasbasbag57
(g73
g59
NtRp4083
(dp4084
g62
(dp4085
sg71
g4041
sg64
(lp4086
g57
(g78
g59
NtRp4087
(dp4088
g62
(dp4089
sg71
g4083
sg64
(lp4090
g57
(g58
g59
NtRp4091
(dp4092
g62
(dp4093
g70
I3
ssg71
g4087
sg64
(lp4094
g57
(g66
g59
NtRp4095
(dp4096
g62
(dp4097
g70
I2
ssg71
Nsg64
(lp4098
sbasbasbasbasbasbasbasbag57
(g73
g59
NtRp4099
(dp4100
g62
(dp4101
sg71
g3885
sg64
(lp4102
g57
(g78
g59
NtRp4103
(dp4104
g62
(dp4105
sg71
g4099
sg64
(lp4106
g57
(g58
g59
NtRp4107
(dp4108
g62
(dp4109
g70
I4
ssg71
g4103
sg64
(lp4110
g57
(g66
g59
NtRp4111
(dp4112
g62
(dp4113
g70
I3
ssg71
Nsg64
(lp4114
g57
(g73
g59
NtRp4115
(dp4116
g62
(dp4117
sg71
g4111
sg64
(lp4118
g57
(g78
g59
NtRp4119
(dp4120
g62
(dp4121
sg71
g4115
sg64
(lp4122
g57
(g58
g59
NtRp4123
(dp4124
g62
(dp4125
g70
I3
ssg71
g4119
sg64
(lp4126
g3042
(S's\x08\x00\x00\x00OUR TEAM'
tRp4127
asbasbasbag57
(g73
g59
NtRp4128
(dp4129
g62
(dp4130
sg71
g4111
sg64
(lp4131
g57
(g78
g59
NtRp4132
(dp4133
g62
(dp4134
sg71
g4128
sg64
(lp4135
g57
(g58
g59
NtRp4136
(dp4137
g62
(dp4138
g70
I3
ssg71
g4132
sg64
(lp4139
g100
asbasbasbag57
(g73
g59
NtRp4140
(dp4141
g62
(dp4142
sg71
g4111
sg64
(lp4143
g57
(g78
g59
NtRp4144
(dp4145
g62
(dp4146
sg71
g4140
sg64
(lp4147
g57
(g58
g59
NtRp4148
(dp4149
g62
(dp4150
g70
I3
ssg71
g4144
sg64
(lp4151
S'/themishrms/default/tlsoteam'
p4152
asbasbasbag57
(g73
g59
NtRp4153
(dp4154
g62
(dp4155
sg71
g4111
sg64
(lp4156
g57
(g78
g59
NtRp4157
(dp4158
g62
(dp4159
sg71
g4153
sg64
(lp4160
g57
(g58
g59
NtRp4161
(dp4162
g62
(dp4163
g70
I3
ssg71
g4157
sg64
(lp4164
g57
(g66
g59
NtRp4165
(dp4166
g62
(dp4167
g70
I2
ssg71
Nsg64
(lp4168
sbasbasbasbasbasbasbasbag57
(g73
g59
NtRp4169
(dp4170
g62
(dp4171
sg71
g3885
sg64
(lp4172
g57
(g78
g59
NtRp4173
(dp4174
g62
(dp4175
sg71
g4169
sg64
(lp4176
g57
(g58
g59
NtRp4177
(dp4178
g62
(dp4179
g70
I4
ssg71
g4173
sg64
(lp4180
g57
(g66
g59
NtRp4181
(dp4182
g62
(dp4183
g70
I3
ssg71
Nsg64
(lp4184
g57
(g73
g59
NtRp4185
(dp4186
g62
(dp4187
sg71
g4181
sg64
(lp4188
g57
(g78
g59
NtRp4189
(dp4190
g62
(dp4191
sg71
g4185
sg64
(lp4192
g57
(g58
g59
NtRp4193
(dp4194
g62
(dp4195
g70
I3
ssg71
g4189
sg64
(lp4196
g3042
(S's\n\x00\x00\x00OPERATIONS'
tRp4197
asbasbasbag57
(g73
g59
NtRp4198
(dp4199
g62
(dp4200
sg71
g4181
sg64
(lp4201
g57
(g78
g59
NtRp4202
(dp4203
g62
(dp4204
sg71
g4198
sg64
(lp4205
g57
(g58
g59
NtRp4206
(dp4207
g62
(dp4208
g70
I3
ssg71
g4202
sg64
(lp4209
g100
asbasbasbag57
(g73
g59
NtRp4210
(dp4211
g62
(dp4212
sg71
g4181
sg64
(lp4213
g57
(g78
g59
NtRp4214
(dp4215
g62
(dp4216
sg71
g4210
sg64
(lp4217
g57
(g58
g59
NtRp4218
(dp4219
g62
(dp4220
g70
I3
ssg71
g4214
sg64
(lp4221
S'/themishrms/default/tlsoo'
p4222
asbasbasbag57
(g73
g59
NtRp4223
(dp4224
g62
(dp4225
sg71
g4181
sg64
(lp4226
g57
(g78
g59
NtRp4227
(dp4228
g62
(dp4229
sg71
g4223
sg64
(lp4230
g57
(g58
g59
NtRp4231
(dp4232
g62
(dp4233
g70
I3
ssg71
g4227
sg64
(lp4234
g57
(g66
g59
NtRp4235
(dp4236
g62
(dp4237
g70
I2
ssg71
Nsg64
(lp4238
sbasbasbasbasbasbasbasbag57
(g73
g59
NtRp4239
(dp4240
g62
(dp4241
sg71
g3885
sg64
(lp4242
g57
(g78
g59
NtRp4243
(dp4244
g62
(dp4245
sg71
g4239
sg64
(lp4246
g57
(g58
g59
NtRp4247
(dp4248
g62
(dp4249
g70
I4
ssg71
g4243
sg64
(lp4250
g57
(g66
g59
NtRp4251
(dp4252
g62
(dp4253
g70
I3
ssg71
Nsg64
(lp4254
g57
(g73
g59
NtRp4255
(dp4256
g62
(dp4257
sg71
g4251
sg64
(lp4258
g57
(g78
g59
NtRp4259
(dp4260
g62
(dp4261
sg71
g4255
sg64
(lp4262
g57
(g58
g59
NtRp4263
(dp4264
g62
(dp4265
g70
I3
ssg71
g4259
sg64
(lp4266
g3042
(S's\x07\x00\x00\x00JOIN US'
tRp4267
asbasbasbag57
(g73
g59
NtRp4268
(dp4269
g62
(dp4270
sg71
g4251
sg64
(lp4271
g57
(g78
g59
NtRp4272
(dp4273
g62
(dp4274
sg71
g4268
sg64
(lp4275
g57
(g58
g59
NtRp4276
(dp4277
g62
(dp4278
g70
I3
ssg71
g4272
sg64
(lp4279
g100
asbasbasbag57
(g73
g59
NtRp4280
(dp4281
g62
(dp4282
sg71
g4251
sg64
(lp4283
g57
(g78
g59
NtRp4284
(dp4285
g62
(dp4286
sg71
g4280
sg64
(lp4287
g57
(g58
g59
NtRp4288
(dp4289
g62
(dp4290
g70
I3
ssg71
g4284
sg64
(lp4291
S'/themishrms/default/tlscareer'
p4292
asbasbasbag57
(g73
g59
NtRp4293
(dp4294
g62
(dp4295
sg71
g4251
sg64
(lp4296
g57
(g78
g59
NtRp4297
(dp4298
g62
(dp4299
sg71
g4293
sg64
(lp4300
g57
(g58
g59
NtRp4301
(dp4302
g62
(dp4303
g70
I3
ssg71
g4297
sg64
(lp4304
g57
(g66
g59
NtRp4305
(dp4306
g62
(dp4307
g70
I2
ssg71
Nsg64
(lp4308
sbasbasbasbasbasbasbasbag57
(g73
g59
NtRp4309
(dp4310
g62
(dp4311
sg71
g3885
sg64
(lp4312
g57
(g78
g59
NtRp4313
(dp4314
g62
(dp4315
sg71
g4309
sg64
(lp4316
g57
(g58
g59
NtRp4317
(dp4318
g62
(dp4319
g70
I4
ssg71
g4313
sg64
(lp4320
g57
(g66
g59
NtRp4321
(dp4322
g62
(dp4323
g70
I3
ssg71
Nsg64
(lp4324
g57
(g73
g59
NtRp4325
(dp4326
g62
(dp4327
sg71
g4321
sg64
(lp4328
g57
(g78
g59
NtRp4329
(dp4330
g62
(dp4331
sg71
g4325
sg64
(lp4332
g57
(g58
g59
NtRp4333
(dp4334
g62
(dp4335
g70
I3
ssg71
g4329
sg64
(lp4336
g3042
(S's\n\x00\x00\x00CONTACT US'
tRp4337
asbasbasbag57
(g73
g59
NtRp4338
(dp4339
g62
(dp4340
sg71
g4321
sg64
(lp4341
g57
(g78
g59
NtRp4342
(dp4343
g62
(dp4344
sg71
g4338
sg64
(lp4345
g57
(g58
g59
NtRp4346
(dp4347
g62
(dp4348
g70
I3
ssg71
g4342
sg64
(lp4349
g100
asbasbasbag57
(g73
g59
NtRp4350
(dp4351
g62
(dp4352
sg71
g4321
sg64
(lp4353
g57
(g78
g59
NtRp4354
(dp4355
g62
(dp4356
sg71
g4350
sg64
(lp4357
g57
(g58
g59
NtRp4358
(dp4359
g62
(dp4360
g70
I3
ssg71
g4354
sg64
(lp4361
S'/themishrms/default/tlscontact'
p4362
asbasbasbag57
(g73
g59
NtRp4363
(dp4364
g62
(dp4365
sg71
g4321
sg64
(lp4366
g57
(g78
g59
NtRp4367
(dp4368
g62
(dp4369
sg71
g4363
sg64
(lp4370
g57
(g58
g59
NtRp4371
(dp4372
g62
(dp4373
g70
I3
ssg71
g4367
sg64
(lp4374
g57
(g66
g59
NtRp4375
(dp4376
g62
(dp4377
g70
I2
ssg71
Nsg64
(lp4378
sbasbasbasbasbasbasbasbasbasbasbasbag57
(g73
g59
NtRp4379
(dp4380
g62
(dp4381
sg71
g2985
sg64
(lp4382
g57
(g78
g59
NtRp4383
(dp4384
g62
(dp4385
g82
g83
ssg71
g4379
sg64
(lp4386
S'meta'
p4387
asbag57
(g78
g59
NtRp4388
(dp4389
g62
(dp4390
g89
g90
ssg71
g4379
sg64
(lp4391
S':'
asbag57
(g78
g59
NtRp4392
(dp4393
g62
(dp4394
sg71
g4379
sg64
(lp4395
g57
(g58
g59
NtRp4396
(dp4397
g62
(dp4398
g70
I5
ssg71
g4392
sg64
(lp4399
g57
(g66
g59
NtRp4400
(dp4401
g62
(dp4402
g70
I4
ssg71
Nsg64
(lp4403
g57
(g73
g59
NtRp4404
(dp4405
g62
(dp4406
sg71
g4400
sg64
(lp4407
g57
(g78
g59
NtRp4408
(dp4409
g62
(dp4410
g82
g83
ssg71
g4404
sg64
(lp4411
S'author'
p4412
asbag57
(g78
g59
NtRp4413
(dp4414
g62
(dp4415
g89
g90
ssg71
g4404
sg64
(lp4416
S':'
asbag57
(g78
g59
NtRp4417
(dp4418
g62
(dp4419
sg71
g4404
sg64
(lp4420
g57
(g58
g59
NtRp4421
(dp4422
g62
(dp4423
g70
I4
ssg71
g4417
sg64
(lp4424
S'Your Name <you@example.com>'
p4425
asbasbasbag57
(g73
g59
NtRp4426
(dp4427
g62
(dp4428
sg71
g4400
sg64
(lp4429
g57
(g78
g59
NtRp4430
(dp4431
g62
(dp4432
g82
g83
ssg71
g4426
sg64
(lp4433
S'copyright'
p4434
asbag57
(g78
g59
NtRp4435
(dp4436
g62
(dp4437
g89
g90
ssg71
g4426
sg64
(lp4438
S':'
asbag57
(g78
g59
NtRp4439
(dp4440
g62
(dp4441
sg71
g4426
sg64
(lp4442
g57
(g58
g59
NtRp4443
(dp4444
g62
(dp4445
g70
I4
ssg71
g4439
sg64
(lp4446
S'Copyright 2011'
p4447
asbasbasbag57
(g73
g59
NtRp4448
(dp4449
g62
(dp4450
sg71
g4400
sg64
(lp4451
g57
(g78
g59
NtRp4452
(dp4453
g62
(dp4454
g82
g83
ssg71
g4448
sg64
(lp4455
S'description'
p4456
asbag57
(g78
g59
NtRp4457
(dp4458
g62
(dp4459
g89
g90
ssg71
g4448
sg64
(lp4460
S':'
asbag57
(g78
g59
NtRp4461
(dp4462
g62
(dp4463
sg71
g4448
sg64
(lp4464
g57
(g58
g59
NtRp4465
(dp4466
g62
(dp4467
g70
I4
ssg71
g4461
sg64
(lp4468
S'a cool new app'
p4469
asbasbasbag57
(g73
g59
NtRp4470
(dp4471
g62
(dp4472
sg71
g4400
sg64
(lp4473
g57
(g78
g59
NtRp4474
(dp4475
g62
(dp4476
g82
g83
ssg71
g4470
sg64
(lp4477
S'generator'
p4478
asbag57
(g78
g59
NtRp4479
(dp4480
g62
(dp4481
g89
g90
ssg71
g4470
sg64
(lp4482
S':'
asbag57
(g78
g59
NtRp4483
(dp4484
g62
(dp4485
sg71
g4470
sg64
(lp4486
g57
(g58
g59
NtRp4487
(dp4488
g62
(dp4489
g70
I4
ssg71
g4483
sg64
(lp4490
S'Web2py Web Framework'
p4491
asbasbasbag57
(g73
g59
NtRp4492
(dp4493
g62
(dp4494
sg71
g4400
sg64
(lp4495
g57
(g78
g59
NtRp4496
(dp4497
g62
(dp4498
g82
g83
ssg71
g4492
sg64
(lp4499
S'keywords'
p4500
asbag57
(g78
g59
NtRp4501
(dp4502
g62
(dp4503
g89
g90
ssg71
g4492
sg64
(lp4504
S':'
asbag57
(g78
g59
NtRp4505
(dp4506
g62
(dp4507
sg71
g4492
sg64
(lp4508
g57
(g58
g59
NtRp4509
(dp4510
g62
(dp4511
g70
I4
ssg71
g4505
sg64
(lp4512
S'web2py, python, framework'
p4513
asbasbasbasbasbasbasbag57
(g73
g59
NtRp4514
(dp4515
g62
(dp4516
sg71
g2985
sg64
(lp4517
g57
(g78
g59
NtRp4518
(dp4519
g62
(dp4520
g82
g83
ssg71
g4514
sg64
(lp4521
S'postprocessing'
p4522
asbag57
(g78
g59
NtRp4523
(dp4524
g62
(dp4525
g89
g90
ssg71
g4514
sg64
(lp4526
S':'
asbag57
(g78
g59
NtRp4527
(dp4528
g62
(dp4529
sg71
g4514
sg64
(lp4530
g57
(g58
g59
NtRp4531
(dp4532
g62
(dp4533
g70
I5
ssg71
g4527
sg64
(lp4534
g57
(g66
g59
NtRp4535
(dp4536
g62
(dp4537
g70
I4
ssg71
Nsg64
(lp4538
sbasbasbasbag57
(g73
g59
NtRp4539
(dp4540
g62
(dp4541
sg71
g2985
sg64
(lp4542
g57
(g78
g59
NtRp4543
(dp4544
g62
(dp4545
g82
g83
ssg71
g4539
sg64
(lp4546
S'session_file'
p4547
asbag57
(g78
g59
NtRp4548
(dp4549
g62
(dp4550
g89
g90
ssg71
g4539
sg64
(lp4551
S':'
asbag57
(g78
g59
NtRp4552
(dp4553
g62
(dp4554
sg71
g4539
sg64
(lp4555
g57
(g58
g59
NtRp4556
(dp4557
g62
(dp4558
g70
I5
ssg71
g4552
sg64
(lp4559
S"<open file '/home/rohitraj/Desktop/web2py/applications/themishrms/sessions/127.0.0.1-20fd6c52-a5a5-4c5e-a380-2f2008348425', mode 'rb+' at 0x2bfa5d0>"
p4560
asbasbasbag57
(g73
g59
NtRp4561
(dp4562
g62
(dp4563
sg71
g2985
sg64
(lp4564
g57
(g78
g59
NtRp4565
(dp4566
g62
(dp4567
g82
g83
ssg71
g4561
sg64
(lp4568
S'session_filename'
p4569
asbag57
(g78
g59
NtRp4570
(dp4571
g62
(dp4572
g89
g90
ssg71
g4561
sg64
(lp4573
S':'
asbag57
(g78
g59
NtRp4574
(dp4575
g62
(dp4576
sg71
g4561
sg64
(lp4577
g57
(g58
g59
NtRp4578
(dp4579
g62
(dp4580
g70
I5
ssg71
g4574
sg64
(lp4581
S'/home/rohitraj/Desktop/web2py/applications/themishrms/sessions/127.0.0.1-20fd6c52-a5a5-4c5e-a380-2f2008348425'
p4582
asbasbasbag57
(g73
g59
NtRp4583
(dp4584
g62
(dp4585
sg71
g2985
sg64
(lp4586
g57
(g78
g59
NtRp4587
(dp4588
g62
(dp4589
g82
g83
ssg71
g4583
sg64
(lp4590
S'session_id'
p4591
asbag57
(g78
g59
NtRp4592
(dp4593
g62
(dp4594
g89
g90
ssg71
g4583
sg64
(lp4595
S':'
asbag57
(g78
g59
NtRp4596
(dp4597
g62
(dp4598
sg71
g4583
sg64
(lp4599
g57
(g58
g59
NtRp4600
(dp4601
g62
(dp4602
g70
I5
ssg71
g4596
sg64
(lp4603
S'127.0.0.1-20fd6c52-a5a5-4c5e-a380-2f2008348425'
p4604
asbasbasbag57
(g73
g59
NtRp4605
(dp4606
g62
(dp4607
sg71
g2985
sg64
(lp4608
g57
(g78
g59
NtRp4609
(dp4610
g62
(dp4611
g82
g83
ssg71
g4605
sg64
(lp4612
S'session_id_name'
p4613
asbag57
(g78
g59
NtRp4614
(dp4615
g62
(dp4616
g89
g90
ssg71
g4605
sg64
(lp4617
S':'
asbag57
(g78
g59
NtRp4618
(dp4619
g62
(dp4620
sg71
g4605
sg64
(lp4621
g57
(g58
g59
NtRp4622
(dp4623
g62
(dp4624
g70
I5
ssg71
g4618
sg64
(lp4625
g3418
asbasbasbag57
(g73
g59
NtRp4626
(dp4627
g62
(dp4628
sg71
g2985
sg64
(lp4629
g57
(g78
g59
NtRp4630
(dp4631
g62
(dp4632
g82
g83
ssg71
g4626
sg64
(lp4633
S'session_locked'
p4634
asbag57
(g78
g59
NtRp4635
(dp4636
g62
(dp4637
g89
g90
ssg71
g4626
sg64
(lp4638
S':'
asbag57
(g78
g59
NtRp4639
(dp4640
g62
(dp4641
sg71
g4626
sg64
(lp4642
g57
(g58
g59
NtRp4643
(dp4644
g62
(dp4645
g70
I5
ssg71
g4639
sg64
(lp4646
g1515
asbasbasbag57
(g73
g59
NtRp4647
(dp4648
g62
(dp4649
sg71
g2985
sg64
(lp4650
g57
(g78
g59
NtRp4651
(dp4652
g62
(dp4653
g82
g83
ssg71
g4647
sg64
(lp4654
S'session_new'
p4655
asbag57
(g78
g59
NtRp4656
(dp4657
g62
(dp4658
g89
g90
ssg71
g4647
sg64
(lp4659
S':'
asbag57
(g78
g59
NtRp4660
(dp4661
g62
(dp4662
sg71
g4647
sg64
(lp4663
g57
(g58
g59
NtRp4664
(dp4665
g62
(dp4666
g70
I5
ssg71
g4660
sg64
(lp4667
g100
asbasbasbag57
(g73
g59
NtRp4668
(dp4669
g62
(dp4670
sg71
g2985
sg64
(lp4671
g57
(g78
g59
NtRp4672
(dp4673
g62
(dp4674
g82
g83
ssg71
g4668
sg64
(lp4675
S'status'
p4676
asbag57
(g78
g59
NtRp4677
(dp4678
g62
(dp4679
g89
g90
ssg71
g4668
sg64
(lp4680
S':'
asbag57
(g78
g59
NtRp4681
(dp4682
g62
(dp4683
sg71
g4668
sg64
(lp4684
g57
(g58
g59
NtRp4685
(dp4686
g62
(dp4687
g70
I5
ssg71
g4681
sg64
(lp4688
S'200'
p4689
asbasbasbag57
(g73
g59
NtRp4690
(dp4691
g62
(dp4692
sg71
g2985
sg64
(lp4693
g57
(g78
g59
NtRp4694
(dp4695
g62
(dp4696
g82
g83
ssg71
g4690
sg64
(lp4697
S'subtitle'
p4698
asbag57
(g78
g59
NtRp4699
(dp4700
g62
(dp4701
g89
g90
ssg71
g4690
sg64
(lp4702
S':'
asbag57
(g78
g59
NtRp4703
(dp4704
g62
(dp4705
sg71
g4690
sg64
(lp4706
g57
(g58
g59
NtRp4707
(dp4708
g62
(dp4709
g70
I5
ssg71
g4703
sg64
(lp4710
g3042
(S's\r\x00\x00\x00customize me!'
tRp4711
asbasbasbag57
(g73
g59
NtRp4712
(dp4713
g62
(dp4714
sg71
g2985
sg64
(lp4715
g57
(g78
g59
NtRp4716
(dp4717
g62
(dp4718
g82
g83
ssg71
g4712
sg64
(lp4719
S'title'
p4720
asbag57
(g78
g59
NtRp4721
(dp4722
g62
(dp4723
g89
g90
ssg71
g4712
sg64
(lp4724
S':'
asbag57
(g78
g59
NtRp4725
(dp4726
g62
(dp4727
sg71
g4712
sg64
(lp4728
g57
(g58
g59
NtRp4729
(dp4730
g62
(dp4731
g70
I5
ssg71
g4725
sg64
(lp4732
S'Themishrms'
p4733
asbasbasbag57
(g73
g59
NtRp4734
(dp4735
g62
(dp4736
sg71
g2985
sg64
(lp4737
g57
(g78
g59
NtRp4738
(dp4739
g62
(dp4740
g82
g83
ssg71
g4734
sg64
(lp4741
S'tlsmenu'
p4742
asbag57
(g78
g59
NtRp4743
(dp4744
g62
(dp4745
g89
g90
ssg71
g4734
sg64
(lp4746
S':'
asbag57
(g78
g59
NtRp4747
(dp4748
g62
(dp4749
sg71
g4734
sg64
(lp4750
g57
(g58
g59
NtRp4751
(dp4752
g62
(dp4753
g70
I5
ssg71
g4747
sg64
(lp4754
g57
(g66
g59
NtRp4755
(dp4756
g62
(dp4757
g70
I4
ssg71
Nsg64
(lp4758
g57
(g73
g59
NtRp4759
(dp4760
g62
(dp4761
sg71
g4755
sg64
(lp4762
g57
(g78
g59
NtRp4763
(dp4764
g62
(dp4765
sg71
g4759
sg64
(lp4766
g57
(g58
g59
NtRp4767
(dp4768
g62
(dp4769
g70
I4
ssg71
g4763
sg64
(lp4770
g57
(g66
g59
NtRp4771
(dp4772
g62
(dp4773
g70
I3
ssg71
Nsg64
(lp4774
g57
(g73
g59
NtRp4775
(dp4776
g62
(dp4777
sg71
g4771
sg64
(lp4778
g57
(g78
g59
NtRp4779
(dp4780
g62
(dp4781
sg71
g4775
sg64
(lp4782
g57
(g58
g59
NtRp4783
(dp4784
g62
(dp4785
g70
I3
ssg71
g4779
sg64
(lp4786
g3042
(S's\x07\x00\x00\x00Website'
tRp4787
asbasbasbag57
(g73
g59
NtRp4788
(dp4789
g62
(dp4790
sg71
g4771
sg64
(lp4791
g57
(g78
g59
NtRp4792
(dp4793
g62
(dp4794
sg71
g4788
sg64
(lp4795
g57
(g58
g59
NtRp4796
(dp4797
g62
(dp4798
g70
I3
ssg71
g4792
sg64
(lp4799
g100
asbasbasbag57
(g73
g59
NtRp4800
(dp4801
g62
(dp4802
sg71
g4771
sg64
(lp4803
g57
(g78
g59
NtRp4804
(dp4805
g62
(dp4806
sg71
g4800
sg64
(lp4807
g57
(g58
g59
NtRp4808
(dp4809
g62
(dp4810
g70
I3
ssg71
g4804
sg64
(lp4811
S'/themishrms/default/index'
p4812
asbasbasbag57
(g73
g59
NtRp4813
(dp4814
g62
(dp4815
sg71
g4771
sg64
(lp4816
g57
(g78
g59
NtRp4817
(dp4818
g62
(dp4819
sg71
g4813
sg64
(lp4820
g57
(g58
g59
NtRp4821
(dp4822
g62
(dp4823
g70
I3
ssg71
g4817
sg64
(lp4824
g57
(g66
g59
NtRp4825
(dp4826
g62
(dp4827
g70
I2
ssg71
Nsg64
(lp4828
sbasbasbasbasbasbasbasbag57
(g73
g59
NtRp4829
(dp4830
g62
(dp4831
sg71
g4755
sg64
(lp4832
g57
(g78
g59
NtRp4833
(dp4834
g62
(dp4835
sg71
g4829
sg64
(lp4836
g57
(g58
g59
NtRp4837
(dp4838
g62
(dp4839
g70
I4
ssg71
g4833
sg64
(lp4840
g57
(g66
g59
NtRp4841
(dp4842
g62
(dp4843
g70
I3
ssg71
Nsg64
(lp4844
g57
(g73
g59
NtRp4845
(dp4846
g62
(dp4847
sg71
g4841
sg64
(lp4848
g57
(g78
g59
NtRp4849
(dp4850
g62
(dp4851
sg71
g4845
sg64
(lp4852
g57
(g58
g59
NtRp4853
(dp4854
g62
(dp4855
g70
I3
ssg71
g4849
sg64
(lp4856
g3042
(S's\x07\x00\x00\x00WebMail'
tRp4857
asbasbasbag57
(g73
g59
NtRp4858
(dp4859
g62
(dp4860
sg71
g4841
sg64
(lp4861
g57
(g78
g59
NtRp4862
(dp4863
g62
(dp4864
sg71
g4858
sg64
(lp4865
g57
(g58
g59
NtRp4866
(dp4867
g62
(dp4868
g70
I3
ssg71
g4862
sg64
(lp4869
g100
asbasbasbag57
(g73
g59
NtRp4870
(dp4871
g62
(dp4872
sg71
g4841
sg64
(lp4873
g57
(g78
g59
NtRp4874
(dp4875
g62
(dp4876
sg71
g4870
sg64
(lp4877
g57
(g58
g59
NtRp4878
(dp4879
g62
(dp4880
g70
I3
ssg71
g4874
sg64
(lp4881
S'/themishrms/default/webmail'
p4882
asbasbasbag57
(g73
g59
NtRp4883
(dp4884
g62
(dp4885
sg71
g4841
sg64
(lp4886
g57
(g78
g59
NtRp4887
(dp4888
g62
(dp4889
sg71
g4883
sg64
(lp4890
g57
(g58
g59
NtRp4891
(dp4892
g62
(dp4893
g70
I3
ssg71
g4887
sg64
(lp4894
g57
(g66
g59
NtRp4895
(dp4896
g62
(dp4897
g70
I2
ssg71
Nsg64
(lp4898
sbasbasbasbasbasbasbasbag57
(g73
g59
NtRp4899
(dp4900
g62
(dp4901
sg71
g4755
sg64
(lp4902
g57
(g78
g59
NtRp4903
(dp4904
g62
(dp4905
sg71
g4899
sg64
(lp4906
g57
(g58
g59
NtRp4907
(dp4908
g62
(dp4909
g70
I4
ssg71
g4903
sg64
(lp4910
g57
(g66
g59
NtRp4911
(dp4912
g62
(dp4913
g70
I3
ssg71
Nsg64
(lp4914
g57
(g73
g59
NtRp4915
(dp4916
g62
(dp4917
sg71
g4911
sg64
(lp4918
g57
(g78
g59
NtRp4919
(dp4920
g62
(dp4921
sg71
g4915
sg64
(lp4922
g57
(g58
g59
NtRp4923
(dp4924
g62
(dp4925
g70
I3
ssg71
g4919
sg64
(lp4926
g3042
(S's\r\x00\x00\x00Themis Portal'
tRp4927
asbasbasbag57
(g73
g59
NtRp4928
(dp4929
g62
(dp4930
sg71
g4911
sg64
(lp4931
g57
(g78
g59
NtRp4932
(dp4933
g62
(dp4934
sg71
g4928
sg64
(lp4935
g57
(g58
g59
NtRp4936
(dp4937
g62
(dp4938
g70
I3
ssg71
g4932
sg64
(lp4939
g100
asbasbasbag57
(g73
g59
NtRp4940
(dp4941
g62
(dp4942
sg71
g4911
sg64
(lp4943
g57
(g78
g59
NtRp4944
(dp4945
g62
(dp4946
sg71
g4940
sg64
(lp4947
g57
(g58
g59
NtRp4948
(dp4949
g62
(dp4950
g70
I3
ssg71
g4944
sg64
(lp4951
S'/themishrms/default/portal'
p4952
asbasbasbag57
(g73
g59
NtRp4953
(dp4954
g62
(dp4955
sg71
g4911
sg64
(lp4956
g57
(g78
g59
NtRp4957
(dp4958
g62
(dp4959
sg71
g4953
sg64
(lp4960
g57
(g58
g59
NtRp4961
(dp4962
g62
(dp4963
g70
I3
ssg71
g4957
sg64
(lp4964
g57
(g66
g59
NtRp4965
(dp4966
g62
(dp4967
g70
I2
ssg71
Nsg64
(lp4968
sbasbasbasbasbasbasbasbag57
(g73
g59
NtRp4969
(dp4970
g62
(dp4971
sg71
g4755
sg64
(lp4972
g57
(g78
g59
NtRp4973
(dp4974
g62
(dp4975
sg71
g4969
sg64
(lp4976
g57
(g58
g59
NtRp4977
(dp4978
g62
(dp4979
g70
I4
ssg71
g4973
sg64
(lp4980
g57
(g66
g59
NtRp4981
(dp4982
g62
(dp4983
g70
I3
ssg71
Nsg64
(lp4984
g57
(g73
g59
NtRp4985
(dp4986
g62
(dp4987
sg71
g4981
sg64
(lp4988
g57
(g78
g59
NtRp4989
(dp4990
g62
(dp4991
sg71
g4985
sg64
(lp4992
g57
(g58
g59
NtRp4993
(dp4994
g62
(dp4995
g70
I3
ssg71
g4989
sg64
(lp4996
g3042
(S's\x0f\x00\x00\x00Themis Policies'
tRp4997
asbasbasbag57
(g73
g59
NtRp4998
(dp4999
g62
(dp5000
sg71
g4981
sg64
(lp5001
g57
(g78
g59
NtRp5002
(dp5003
g62
(dp5004
sg71
g4998
sg64
(lp5005
g57
(g58
g59
NtRp5006
(dp5007
g62
(dp5008
g70
I3
ssg71
g5002
sg64
(lp5009
g100
asbasbasbag57
(g73
g59
NtRp5010
(dp5011
g62
(dp5012
sg71
g4981
sg64
(lp5013
g57
(g78
g59
NtRp5014
(dp5015
g62
(dp5016
sg71
g5010
sg64
(lp5017
g57
(g58
g59
NtRp5018
(dp5019
g62
(dp5020
g70
I3
ssg71
g5014
sg64
(lp5021
S'/themishrms/default/ourtrem'
p5022
asbasbasbag57
(g73
g59
NtRp5023
(dp5024
g62
(dp5025
sg71
g4981
sg64
(lp5026
g57
(g78
g59
NtRp5027
(dp5028
g62
(dp5029
sg71
g5023
sg64
(lp5030
g57
(g58
g59
NtRp5031
(dp5032
g62
(dp5033
g70
I3
ssg71
g5027
sg64
(lp5034
g57
(g66
g59
NtRp5035
(dp5036
g62
(dp5037
g70
I2
ssg71
Nsg64
(lp5038
sbasbasbasbasbasbasbasbag57
(g73
g59
NtRp5039
(dp5040
g62
(dp5041
sg71
g4755
sg64
(lp5042
g57
(g78
g59
NtRp5043
(dp5044
g62
(dp5045
sg71
g5039
sg64
(lp5046
g57
(g58
g59
NtRp5047
(dp5048
g62
(dp5049
g70
I4
ssg71
g5043
sg64
(lp5050
g57
(g66
g59
NtRp5051
(dp5052
g62
(dp5053
g70
I3
ssg71
Nsg64
(lp5054
g57
(g73
g59
NtRp5055
(dp5056
g62
(dp5057
sg71
g5051
sg64
(lp5058
g57
(g78
g59
NtRp5059
(dp5060
g62
(dp5061
sg71
g5055
sg64
(lp5062
g57
(g58
g59
NtRp5063
(dp5064
g62
(dp5065
g70
I3
ssg71
g5059
sg64
(lp5066
g3042
(S's\x0f\x00\x00\x00Contact Details'
tRp5067
asbasbasbag57
(g73
g59
NtRp5068
(dp5069
g62
(dp5070
sg71
g5051
sg64
(lp5071
g57
(g78
g59
NtRp5072
(dp5073
g62
(dp5074
sg71
g5068
sg64
(lp5075
g57
(g58
g59
NtRp5076
(dp5077
g62
(dp5078
g70
I3
ssg71
g5072
sg64
(lp5079
g100
asbasbasbag57
(g73
g59
NtRp5080
(dp5081
g62
(dp5082
sg71
g5051
sg64
(lp5083
g57
(g78
g59
NtRp5084
(dp5085
g62
(dp5086
sg71
g5080
sg64
(lp5087
g57
(g58
g59
NtRp5088
(dp5089
g62
(dp5090
g70
I3
ssg71
g5084
sg64
(lp5091
S'/themishrms/default/emp_contact_detail'
p5092
asbasbasbag57
(g73
g59
NtRp5093
(dp5094
g62
(dp5095
sg71
g5051
sg64
(lp5096
g57
(g78
g59
NtRp5097
(dp5098
g62
(dp5099
sg71
g5093
sg64
(lp5100
g57
(g58
g59
NtRp5101
(dp5102
g62
(dp5103
g70
I3
ssg71
g5097
sg64
(lp5104
g57
(g66
g59
NtRp5105
(dp5106
g62
(dp5107
g70
I2
ssg71
Nsg64
(lp5108
sbasbasbasbasbasbasbasbasbasbasbasbag57
(g73
g59
NtRp5109
(dp5110
g62
(dp5111
sg71
g2985
sg64
(lp5112
g57
(g78
g59
NtRp5113
(dp5114
g62
(dp5115
g82
g83
ssg71
g5109
sg64
(lp5116
g2179
asbag57
(g78
g59
NtRp5117
(dp5118
g62
(dp5119
g89
g90
ssg71
g5109
sg64
(lp5120
S':'
asbag57
(g78
g59
NtRp5121
(dp5122
g62
(dp5123
sg71
g5109
sg64
(lp5124
g57
(g58
g59
NtRp5125
(dp5126
g62
(dp5127
g70
I5
ssg71
g5121
sg64
(lp5128
g2192
asbasbasbag57
(g73
g59
NtRp5129
(dp5130
g62
(dp5131
sg71
g2985
sg64
(lp5132
g57
(g78
g59
NtRp5133
(dp5134
g62
(dp5135
g82
g83
ssg71
g5129
sg64
(lp5136
S'view'
p5137
asbag57
(g78
g59
NtRp5138
(dp5139
g62
(dp5140
g89
g90
ssg71
g5129
sg64
(lp5141
S':'
asbag57
(g78
g59
NtRp5142
(dp5143
g62
(dp5144
sg71
g5129
sg64
(lp5145
g57
(g58
g59
NtRp5146
(dp5147
g62
(dp5148
g70
I5
ssg71
g5142
sg64
(lp5149
S'default/user_timesheet.html'
p5150
asbasbasbasbasbsS'locals'
p5151
(dp5152
ssS'traceback'
p5153
S'Traceback (most recent call last):\n  File "/home/rohitraj/Desktop/web2py/gluon/restricted.py", line 205, in restricted\n    exec ccode in environment\n  File "/home/rohitraj/Desktop/web2py/applications/themishrms/controllers/default.py", line 1309, in <module>\n  File "/home/rohitraj/Desktop/web2py/gluon/globals.py", line 173, in <lambda>\n    self._caller = lambda f: f()\n  File "/home/rohitraj/Desktop/web2py/applications/themishrms/controllers/default.py", line 1298, in user_timesheet\n    for row2 in db(db.image.email == auth.user.email).select():\nAttributeError: \'NoneType\' object has no attribute \'email\'\n'
p5154
s.