(dp1
S'department'
p2
(dp3
S'type'
p4
S'reference add_new_department'
p5
sS'sortable'
p6
I2
sS'sql'
p7
S'INTEGER REFERENCES add_new_department(id) ON DELETE CASCADE'
p8
ssS'practice_area'
p9
(dp10
g4
S'string'
p11
sg6
I3
sg7
S'CHAR(512)'
p12
ssS'id'
p13
(dp14
g4
g13
sg6
I1
sg7
S'INTEGER PRIMARY KEY AUTOINCREMENT'
p15
ss.