(dp1
S'remarks'
p2
(dp3
S'type'
p4
S'text'
p5
sS'sortable'
p6
I4
sS'sql'
p7
S'TEXT'
p8
ssS'holiday_name'
p9
(dp10
g4
S'string'
p11
sg6
I3
sg7
S'CHAR(512)'
p12
ssS'holiday_date'
p13
(dp14
g4
S'date'
p15
sg6
I2
sg7
S'DATE'
p16
ssS'id'
p17
(dp18
g4
g17
sg6
I1
sg7
S'INTEGER PRIMARY KEY AUTOINCREMENT'
p19
ss.