(dp1
S'organization_name'
p2
(dp3
S'type'
p4
S'reference add_new_organization'
p5
sS'sortable'
p6
I2
sS'sql'
p7
S'INTEGER REFERENCES add_new_organization(id) ON DELETE CASCADE'
p8
ssS'phone'
p9
(dp10
g4
S'integer'
p11
sg6
I4
sg7
S'INTEGER'
p12
ssS'address'
p13
(dp14
g4
S'text'
p15
sg6
I5
sg7
S'TEXT'
p16
ssS'id'
p17
(dp18
g4
g17
sg6
I1
sg7
S'INTEGER PRIMARY KEY AUTOINCREMENT'
p19
ssS'location'
p20
(dp21
g4
S'string'
p22
sg6
I3
sg7
S'CHAR(512)'
p23
ss.