(dp1
S'organization_name'
p2
(dp3
S'type'
p4
S'string'
p5
sS'sortable'
p6
I3
sS'sql'
p7
S'CHAR(512)'
p8
ssS'department'
p9
(dp10
g4
g5
sg6
I4
sg7
S'CHAR(512)'
p11
ssS'project_name'
p12
(dp13
g4
S'reference project'
p14
sg6
I2
sg7
S'INTEGER REFERENCES project(id) ON DELETE CASCADE'
p15
ssS'id'
p16
(dp17
g4
g16
sg6
I1
sg7
S'INTEGER PRIMARY KEY AUTOINCREMENT'
p18
ssS'employee'
p19
(dp20
g4
g5
sg6
I5
sg7
S'CHAR(512)'
p21
ss.